	.file	"atmosferaicao.cpp"
	.text
.Ltext0:
	.cfi_sections	.debug_frame
	.section .rdata,"dr"
_ZStL19piecewise_construct:
	.space 1
	.section	.text$_ZN10BaseObjectD2Ev,"x"
	.linkonce discard
	.align 2
	.globl	_ZN10BaseObjectD2Ev
	.def	_ZN10BaseObjectD2Ev;	.scl	2;	.type	32;	.endef
	.seh_proc	_ZN10BaseObjectD2Ev
_ZN10BaseObjectD2Ev:
.LFB1005:
	.file 1 "C:/PFC 2021/ballisticKernelCpp/CalculadorNumerico/padroes/baseobject.h"
	.loc 1 8 17
	.cfi_startproc
	pushq	%rbp
	.seh_pushreg	%rbp
	.cfi_def_cfa_offset 16
	.cfi_offset 6, -16
	movq	%rsp, %rbp
	.seh_setframe	%rbp, 0
	.cfi_def_cfa_register 6
	.seh_endprologue
	movq	%rcx, 16(%rbp)
.LBB2:
	.loc 1 8 31
	leaq	16+_ZTV10BaseObject(%rip), %rdx
	movq	16(%rbp), %rax
	movq	%rdx, (%rax)
.LBE2:
	.loc 1 8 32
	nop
	popq	%rbp
	.cfi_restore 6
	.cfi_def_cfa 7, 8
	ret
	.cfi_endproc
.LFE1005:
	.seh_endproc
	.section	.text$_ZN10BaseObjectD1Ev,"x"
	.linkonce discard
	.align 2
	.globl	_ZN10BaseObjectD1Ev
	.def	_ZN10BaseObjectD1Ev;	.scl	2;	.type	32;	.endef
	.seh_proc	_ZN10BaseObjectD1Ev
_ZN10BaseObjectD1Ev:
.LFB1006:
	.loc 1 8 17
	.cfi_startproc
	pushq	%rbp
	.seh_pushreg	%rbp
	.cfi_def_cfa_offset 16
	.cfi_offset 6, -16
	movq	%rsp, %rbp
	.seh_setframe	%rbp, 0
	.cfi_def_cfa_register 6
	.seh_endprologue
	movq	%rcx, 16(%rbp)
.LBB3:
	.loc 1 8 31
	leaq	16+_ZTV10BaseObject(%rip), %rdx
	movq	16(%rbp), %rax
	movq	%rdx, (%rax)
.LBE3:
	.loc 1 8 32
	nop
	popq	%rbp
	.cfi_restore 6
	.cfi_def_cfa 7, 8
	ret
	.cfi_endproc
.LFE1006:
	.seh_endproc
	.section	.text$_ZN10BaseObjectD0Ev,"x"
	.linkonce discard
	.align 2
	.globl	_ZN10BaseObjectD0Ev
	.def	_ZN10BaseObjectD0Ev;	.scl	2;	.type	32;	.endef
	.seh_proc	_ZN10BaseObjectD0Ev
_ZN10BaseObjectD0Ev:
.LFB1007:
	.loc 1 8 17
	.cfi_startproc
	pushq	%rbp
	.seh_pushreg	%rbp
	.cfi_def_cfa_offset 16
	.cfi_offset 6, -16
	movq	%rsp, %rbp
	.seh_setframe	%rbp, 0
	.cfi_def_cfa_register 6
	subq	$32, %rsp
	.seh_stackalloc	32
	.seh_endprologue
	movq	%rcx, 16(%rbp)
	.loc 1 8 32
	movq	16(%rbp), %rcx
	call	_ZN10BaseObjectD1Ev
	movq	16(%rbp), %rcx
	call	_ZdlPv
	nop
	addq	$32, %rsp
	popq	%rbp
	.cfi_restore 6
	.cfi_def_cfa 7, 8
	ret
	.cfi_endproc
.LFE1007:
	.seh_endproc
	.section .rdata,"dr"
.LC0:
	.ascii "ICAO\0"
	.section	.text$_ZN13AtmosferaIcao8toStringB5cxx11Ev,"x"
	.linkonce discard
	.align 2
	.globl	_ZN13AtmosferaIcao8toStringB5cxx11Ev
	.def	_ZN13AtmosferaIcao8toStringB5cxx11Ev;	.scl	2;	.type	32;	.endef
	.seh_proc	_ZN13AtmosferaIcao8toStringB5cxx11Ev
_ZN13AtmosferaIcao8toStringB5cxx11Ev:
.LFB1010:
	.file 2 "C:/PFC 2021/ballisticKernelCpp/CalculadorNumerico/atmosfera/atmosferaicao.h"
	.loc 2 14 17
	.cfi_startproc
	pushq	%rbp
	.seh_pushreg	%rbp
	.cfi_def_cfa_offset 16
	.cfi_offset 6, -16
	pushq	%rbx
	.seh_pushreg	%rbx
	.cfi_def_cfa_offset 24
	.cfi_offset 3, -24
	subq	$56, %rsp
	.seh_stackalloc	56
	.cfi_def_cfa_offset 80
	leaq	128(%rsp), %rbp
	.seh_setframe	%rbp, 128
	.cfi_def_cfa 6, -48
	.seh_endprologue
	movq	%rcx, -48(%rbp)
	movq	%rdx, -40(%rbp)
	.loc 2 14 35
	leaq	-81(%rbp), %rax
	movq	%rax, %rcx
	call	_ZNSaIcEC1Ev
	leaq	-81(%rbp), %rax
	movq	%rax, %r8
	leaq	.LC0(%rip), %rdx
	movq	-48(%rbp), %rcx
.LEHB0:
	call	_ZNSt7__cxx1112basic_stringIcSt11char_traitsIcESaIcEEC1EPKcRKS3_
.LEHE0:
	leaq	-81(%rbp), %rax
	movq	%rax, %rcx
	call	_ZNSaIcED1Ev
	jmp	.L8
.L7:
	movq	%rax, %rbx
	leaq	-81(%rbp), %rax
	movq	%rax, %rcx
	call	_ZNSaIcED1Ev
	movq	%rbx, %rax
	movq	%rax, %rcx
.LEHB1:
	call	_Unwind_Resume
.LEHE1:
.L8:
	.loc 2 14 42
	movq	-48(%rbp), %rax
	addq	$56, %rsp
	popq	%rbx
	.cfi_restore 3
	popq	%rbp
	.cfi_restore 6
	.cfi_def_cfa 7, -40
	ret
	.cfi_endproc
.LFE1010:
	.def	__gxx_personality_seh0;	.scl	2;	.type	32;	.endef
	.seh_handler	__gxx_personality_seh0, @unwind, @except
	.seh_handlerdata
.LLSDA1010:
	.byte	0xff
	.byte	0xff
	.byte	0x1
	.uleb128 .LLSDACSE1010-.LLSDACSB1010
.LLSDACSB1010:
	.uleb128 .LEHB0-.LFB1010
	.uleb128 .LEHE0-.LEHB0
	.uleb128 .L7-.LFB1010
	.uleb128 0
	.uleb128 .LEHB1-.LFB1010
	.uleb128 .LEHE1-.LEHB1
	.uleb128 0
	.uleb128 0
.LLSDACSE1010:
	.section	.text$_ZN13AtmosferaIcao8toStringB5cxx11Ev,"x"
	.linkonce discard
	.seh_endproc
	.section	.text$_ZN9AtmosferaD2Ev,"x"
	.linkonce discard
	.align 2
	.globl	_ZN9AtmosferaD2Ev
	.def	_ZN9AtmosferaD2Ev;	.scl	2;	.type	32;	.endef
	.seh_proc	_ZN9AtmosferaD2Ev
_ZN9AtmosferaD2Ev:
.LFB1228:
	.file 3 "C:/PFC 2021/ballisticKernelCpp/CalculadorNumerico/atmosfera/atmosfera.h"
	.loc 3 11 7
	.cfi_startproc
	pushq	%rbp
	.seh_pushreg	%rbp
	.cfi_def_cfa_offset 16
	.cfi_offset 6, -16
	movq	%rsp, %rbp
	.seh_setframe	%rbp, 0
	.cfi_def_cfa_register 6
	subq	$32, %rsp
	.seh_stackalloc	32
	.seh_endprologue
	movq	%rcx, 16(%rbp)
.LBB4:
	.loc 3 11 7
	leaq	16+_ZTV9Atmosfera(%rip), %rdx
	movq	16(%rbp), %rax
	movq	%rdx, (%rax)
	movq	16(%rbp), %rax
	movq	%rax, %rcx
	call	_ZN10BaseObjectD2Ev
.LBE4:
	nop
	addq	$32, %rsp
	popq	%rbp
	.cfi_restore 6
	.cfi_def_cfa 7, 8
	ret
	.cfi_endproc
.LFE1228:
	.seh_endproc
	.text
	.align 2
	.globl	_ZN13AtmosferaIcaoC2Ev
	.def	_ZN13AtmosferaIcaoC2Ev;	.scl	2;	.type	32;	.endef
	.seh_proc	_ZN13AtmosferaIcaoC2Ev
_ZN13AtmosferaIcaoC2Ev:
.LFB1231:
	.file 4 "C:/PFC 2021/ballisticKernelCpp/CalculadorNumerico/atmosfera/atmosferaicao.cpp"
	.loc 4 3 1
	.cfi_startproc
	pushq	%rbp
	.seh_pushreg	%rbp
	.cfi_def_cfa_offset 16
	.cfi_offset 6, -16
	movq	%rsp, %rbp
	.seh_setframe	%rbp, 0
	.cfi_def_cfa_register 6
	subq	$32, %rsp
	.seh_stackalloc	32
	.seh_endprologue
	movq	%rcx, 16(%rbp)
.LBB5:
	.loc 4 3 30
	movq	16(%rbp), %rax
	movq	%rax, %rcx
	call	_ZN9AtmosferaC2Ev
	leaq	16+_ZTV13AtmosferaIcao(%rip), %rdx
	movq	16(%rbp), %rax
	movq	%rdx, (%rax)
.LBE5:
	.loc 4 4 3
	nop
	addq	$32, %rsp
	popq	%rbp
	.cfi_restore 6
	.cfi_def_cfa 7, 8
	ret
	.cfi_endproc
.LFE1231:
	.seh_endproc
	.globl	_ZN13AtmosferaIcaoC1Ev
	.def	_ZN13AtmosferaIcaoC1Ev;	.scl	2;	.type	32;	.endef
	.set	_ZN13AtmosferaIcaoC1Ev,_ZN13AtmosferaIcaoC2Ev
	.align 2
	.globl	_ZN13AtmosferaIcao11temperaturaEd
	.def	_ZN13AtmosferaIcao11temperaturaEd;	.scl	2;	.type	32;	.endef
	.seh_proc	_ZN13AtmosferaIcao11temperaturaEd
_ZN13AtmosferaIcao11temperaturaEd:
.LFB1233:
	.loc 4 9 1
	.cfi_startproc
	pushq	%rbp
	.seh_pushreg	%rbp
	.cfi_def_cfa_offset 16
	.cfi_offset 6, -16
	movq	%rsp, %rbp
	.seh_setframe	%rbp, 0
	.cfi_def_cfa_register 6
	subq	$64, %rsp
	.seh_stackalloc	64
	movaps	%xmm6, -16(%rbp)
	.seh_savexmm	%xmm6, 48
	.cfi_offset 23, -32
	.seh_endprologue
	movq	%rcx, 16(%rbp)
	movsd	%xmm1, 24(%rbp)
	.loc 4 11 8
	movq	16(%rbp), %rax
	movq	16(%rax), %rax
	.loc 4 11 5
	testq	%rax, %rax
	jne	.L12
	.loc 4 12 15
	movsd	.LC1(%rip), %xmm0
	movsd	%xmm0, -24(%rbp)
	jmp	.L13
.L12:
	.loc 4 14 17
	movq	16(%rbp), %rax
	movq	16(%rax), %rdx
	movq	16(%rbp), %rax
	movq	16(%rax), %rax
	.loc 4 14 54
	movq	(%rax), %rax
	movq	(%rax), %rax
	.loc 4 14 45
	movsd	24(%rbp), %xmm0
	movapd	%xmm0, %xmm1
	movq	%rdx, %rcx
	call	*%rax
.LVL0:
	movq	%xmm0, %rax
	movq	%rax, -24(%rbp)
.L13:
	.loc 4 16 17
	movsd	-24(%rbp), %xmm1
	movsd	.LC2(%rip), %xmm0
	movapd	%xmm1, %xmm6
	mulsd	%xmm0, %xmm6
	.loc 4 16 61
	movsd	24(%rbp), %xmm1
	movsd	.LC3(%rip), %xmm0
	mulsd	%xmm0, %xmm1
	.loc 4 16 41
	movsd	.LC4(%rip), %xmm0
	addsd	%xmm1, %xmm0
	.loc 4 16 25
	movq	.LC5(%rip), %xmm1
	xorpd	%xmm1, %xmm0
	.loc 4 16 24
	mulsd	24(%rbp), %xmm0
	call	exp
	.loc 4 16 80
	mulsd	%xmm6, %xmm0
	movq	%xmm0, %rax
	.loc 4 17 1
	movq	%rax, %xmm0
	movaps	-16(%rbp), %xmm6
	addq	$64, %rsp
	.cfi_restore 23
	popq	%rbp
	.cfi_restore 6
	.cfi_def_cfa 7, 8
	ret
	.cfi_endproc
.LFE1233:
	.seh_endproc
	.align 2
	.globl	_ZN13AtmosferaIcao9densidadeEd
	.def	_ZN13AtmosferaIcao9densidadeEd;	.scl	2;	.type	32;	.endef
	.seh_proc	_ZN13AtmosferaIcao9densidadeEd
_ZN13AtmosferaIcao9densidadeEd:
.LFB1234:
	.loc 4 20 1
	.cfi_startproc
	pushq	%rbp
	.seh_pushreg	%rbp
	.cfi_def_cfa_offset 16
	.cfi_offset 6, -16
	movq	%rsp, %rbp
	.seh_setframe	%rbp, 0
	.cfi_def_cfa_register 6
	subq	$48, %rsp
	.seh_stackalloc	48
	.seh_endprologue
	movq	%rcx, 16(%rbp)
	movsd	%xmm1, 24(%rbp)
	.loc 4 22 8
	movq	16(%rbp), %rax
	movq	8(%rax), %rax
	.loc 4 22 5
	testq	%rax, %rax
	jne	.L16
	.loc 4 23 15
	movsd	.LC1(%rip), %xmm0
	movsd	%xmm0, -8(%rbp)
	jmp	.L17
.L16:
	.loc 4 25 17
	movq	16(%rbp), %rax
	movq	8(%rax), %rdx
	movq	16(%rbp), %rax
	movq	8(%rax), %rax
	.loc 4 25 52
	movq	(%rax), %rax
	movq	(%rax), %rax
	.loc 4 25 43
	movsd	24(%rbp), %xmm0
	movapd	%xmm0, %xmm1
	movq	%rdx, %rcx
	call	*%rax
.LVL1:
	movq	%xmm0, %rax
	movq	%rax, -8(%rbp)
.L17:
	.loc 4 27 73
	movsd	24(%rbp), %xmm1
	movsd	.LC6(%rip), %xmm0
	mulsd	%xmm0, %xmm1
	.loc 4 27 55
	movsd	.LC7(%rip), %xmm0
	addsd	%xmm1, %xmm0
	.loc 4 27 41
	movq	.LC5(%rip), %xmm1
	xorpd	%xmm1, %xmm0
	.loc 4 27 40
	mulsd	24(%rbp), %xmm0
	call	exp
	movapd	%xmm0, %xmm1
	.loc 4 27 92
	movsd	.LC8(%rip), %xmm0
	mulsd	%xmm1, %xmm0
	movsd	%xmm0, -16(%rbp)
	.loc 4 28 18
	movsd	-8(%rbp), %xmm0
	mulsd	-16(%rbp), %xmm0
	movq	%xmm0, %rax
	.loc 4 33 1
	movq	%rax, %xmm0
	addq	$48, %rsp
	popq	%rbp
	.cfi_restore 6
	.cfi_def_cfa 7, 8
	ret
	.cfi_endproc
.LFE1234:
	.seh_endproc
	.align 2
	.globl	_ZN13AtmosferaIcao13velocidadeSomEd
	.def	_ZN13AtmosferaIcao13velocidadeSomEd;	.scl	2;	.type	32;	.endef
	.seh_proc	_ZN13AtmosferaIcao13velocidadeSomEd
_ZN13AtmosferaIcao13velocidadeSomEd:
.LFB1235:
	.loc 4 36 1
	.cfi_startproc
	pushq	%rbp
	.seh_pushreg	%rbp
	.cfi_def_cfa_offset 16
	.cfi_offset 6, -16
	movq	%rsp, %rbp
	.seh_setframe	%rbp, 0
	.cfi_def_cfa_register 6
	subq	$48, %rsp
	.seh_stackalloc	48
	.seh_endprologue
	movq	%rcx, 16(%rbp)
	movsd	%xmm1, 24(%rbp)
	.loc 4 37 37
	movq	16(%rbp), %rax
	movq	(%rax), %rax
	addq	$16, %rax
	movq	(%rax), %rax
	.loc 4 37 28
	movsd	24(%rbp), %xmm0
	movapd	%xmm0, %xmm1
	movq	16(%rbp), %rcx
	call	*%rax
.LVL2:
	movq	%xmm0, %rax
	movq	%rax, -8(%rbp)
	.loc 4 39 29
	movq	-8(%rbp), %rax
	movq	%rax, %xmm0
	call	sqrt
	movapd	%xmm0, %xmm1
	.loc 4 39 31
	movsd	.LC9(%rip), %xmm0
	mulsd	%xmm1, %xmm0
	movq	%xmm0, %rax
	.loc 4 40 1
	movq	%rax, %xmm0
	addq	$48, %rsp
	popq	%rbp
	.cfi_restore 6
	.cfi_def_cfa 7, 8
	ret
	.cfi_endproc
.LFE1235:
	.seh_endproc
	.globl	_ZTV13AtmosferaIcao
	.section	.rdata$_ZTV13AtmosferaIcao,"dr"
	.linkonce same_size
	.align 8
_ZTV13AtmosferaIcao:
	.quad	0
	.quad	_ZTI13AtmosferaIcao
	.quad	_ZN13AtmosferaIcaoD1Ev
	.quad	_ZN13AtmosferaIcaoD0Ev
	.quad	_ZN13AtmosferaIcao11temperaturaEd
	.quad	_ZN13AtmosferaIcao13velocidadeSomEd
	.quad	_ZN13AtmosferaIcao9densidadeEd
	.quad	_ZN13AtmosferaIcao8toStringB5cxx11Ev
	.section	.text$_ZN13AtmosferaIcaoD1Ev,"x"
	.linkonce discard
	.align 2
	.globl	_ZN13AtmosferaIcaoD1Ev
	.def	_ZN13AtmosferaIcaoD1Ev;	.scl	2;	.type	32;	.endef
	.seh_proc	_ZN13AtmosferaIcaoD1Ev
_ZN13AtmosferaIcaoD1Ev:
.LFB1539:
	.loc 2 7 7
	.cfi_startproc
	pushq	%rbp
	.seh_pushreg	%rbp
	.cfi_def_cfa_offset 16
	.cfi_offset 6, -16
	movq	%rsp, %rbp
	.seh_setframe	%rbp, 0
	.cfi_def_cfa_register 6
	subq	$32, %rsp
	.seh_stackalloc	32
	.seh_endprologue
	movq	%rcx, 16(%rbp)
.LBB6:
	.loc 2 7 7
	leaq	16+_ZTV13AtmosferaIcao(%rip), %rdx
	movq	16(%rbp), %rax
	movq	%rdx, (%rax)
	movq	16(%rbp), %rax
	movq	%rax, %rcx
	call	_ZN9AtmosferaD2Ev
.LBE6:
	nop
	addq	$32, %rsp
	popq	%rbp
	.cfi_restore 6
	.cfi_def_cfa 7, 8
	ret
	.cfi_endproc
.LFE1539:
	.seh_endproc
	.section	.text$_ZN13AtmosferaIcaoD0Ev,"x"
	.linkonce discard
	.align 2
	.globl	_ZN13AtmosferaIcaoD0Ev
	.def	_ZN13AtmosferaIcaoD0Ev;	.scl	2;	.type	32;	.endef
	.seh_proc	_ZN13AtmosferaIcaoD0Ev
_ZN13AtmosferaIcaoD0Ev:
.LFB1540:
	.loc 2 7 7
	.cfi_startproc
	pushq	%rbp
	.seh_pushreg	%rbp
	.cfi_def_cfa_offset 16
	.cfi_offset 6, -16
	movq	%rsp, %rbp
	.seh_setframe	%rbp, 0
	.cfi_def_cfa_register 6
	subq	$32, %rsp
	.seh_stackalloc	32
	.seh_endprologue
	movq	%rcx, 16(%rbp)
	.loc 2 7 7
	movq	16(%rbp), %rcx
	call	_ZN13AtmosferaIcaoD1Ev
	movq	16(%rbp), %rcx
	call	_ZdlPv
	nop
	addq	$32, %rsp
	popq	%rbp
	.cfi_restore 6
	.cfi_def_cfa 7, 8
	ret
	.cfi_endproc
.LFE1540:
	.seh_endproc
	.globl	_ZTV9Atmosfera
	.section	.rdata$_ZTV9Atmosfera,"dr"
	.linkonce same_size
	.align 8
_ZTV9Atmosfera:
	.quad	0
	.quad	_ZTI9Atmosfera
	.quad	0
	.quad	0
	.quad	__cxa_pure_virtual
	.quad	__cxa_pure_virtual
	.quad	__cxa_pure_virtual
	.quad	__cxa_pure_virtual
	.globl	_ZTV10BaseObject
	.section	.rdata$_ZTV10BaseObject,"dr"
	.linkonce same_size
	.align 8
_ZTV10BaseObject:
	.quad	0
	.quad	_ZTI10BaseObject
	.quad	_ZN10BaseObjectD1Ev
	.quad	_ZN10BaseObjectD0Ev
	.globl	_ZTI13AtmosferaIcao
	.section	.rdata$_ZTI13AtmosferaIcao,"dr"
	.linkonce same_size
	.align 8
_ZTI13AtmosferaIcao:
	.quad	_ZTVN10__cxxabiv120__si_class_type_infoE+16
	.quad	_ZTS13AtmosferaIcao
	.quad	_ZTI9Atmosfera
	.globl	_ZTS13AtmosferaIcao
	.section	.rdata$_ZTS13AtmosferaIcao,"dr"
	.linkonce same_size
	.align 16
_ZTS13AtmosferaIcao:
	.ascii "13AtmosferaIcao\0"
	.globl	_ZTI9Atmosfera
	.section	.rdata$_ZTI9Atmosfera,"dr"
	.linkonce same_size
	.align 8
_ZTI9Atmosfera:
	.quad	_ZTVN10__cxxabiv120__si_class_type_infoE+16
	.quad	_ZTS9Atmosfera
	.quad	_ZTI10BaseObject
	.globl	_ZTS9Atmosfera
	.section	.rdata$_ZTS9Atmosfera,"dr"
	.linkonce same_size
	.align 8
_ZTS9Atmosfera:
	.ascii "9Atmosfera\0"
	.globl	_ZTI10BaseObject
	.section	.rdata$_ZTI10BaseObject,"dr"
	.linkonce same_size
	.align 8
_ZTI10BaseObject:
	.quad	_ZTVN10__cxxabiv117__class_type_infoE+16
	.quad	_ZTS10BaseObject
	.globl	_ZTS10BaseObject
	.section	.rdata$_ZTS10BaseObject,"dr"
	.linkonce same_size
	.align 8
_ZTS10BaseObject:
	.ascii "10BaseObject\0"
	.section .rdata,"dr"
	.align 8
.LC1:
	.long	0
	.long	1072693248
	.align 8
.LC2:
	.long	1717986918
	.long	1081213542
	.align 8
.LC3:
	.long	2108725837
	.long	1039435943
	.align 8
.LC4:
	.long	458606036
	.long	1056417713
	.align 16
.LC5:
	.long	0
	.long	-2147483648
	.long	0
	.long	0
	.align 8
.LC6:
	.long	1721106491
	.long	1041399299
	.align 8
.LC7:
	.long	-748402381
	.long	1058608085
	.align 8
.LC8:
	.long	-1717986918
	.long	1072929177
	.align 8
.LC9:
	.long	-761686680
	.long	1077152762
	.text
.Letext0:
	.file 5 "C:/Program Files/CodeBlocks/MinGW/lib/gcc/x86_64-w64-mingw32/8.1.0/include/c++/bits/basic_string.h"
	.file 6 "C:/Program Files/CodeBlocks/MinGW/lib/gcc/x86_64-w64-mingw32/8.1.0/include/c++/bits/basic_string.tcc"
	.file 7 "C:/Program Files/CodeBlocks/MinGW/lib/gcc/x86_64-w64-mingw32/8.1.0/include/c++/type_traits"
	.file 8 "C:/Program Files/CodeBlocks/MinGW/lib/gcc/x86_64-w64-mingw32/8.1.0/include/c++/bits/stl_pair.h"
	.file 9 "C:/Program Files/CodeBlocks/MinGW/lib/gcc/x86_64-w64-mingw32/8.1.0/include/c++/bits/cpp_type_traits.h"
	.file 10 "C:/Program Files/CodeBlocks/MinGW/lib/gcc/x86_64-w64-mingw32/8.1.0/include/c++/bits/stl_iterator_base_types.h"
	.file 11 "C:/Program Files/CodeBlocks/MinGW/lib/gcc/x86_64-w64-mingw32/8.1.0/include/c++/debug/debug.h"
	.file 12 "C:/Program Files/CodeBlocks/MinGW/lib/gcc/x86_64-w64-mingw32/8.1.0/include/c++/cwchar"
	.file 13 "C:/Program Files/CodeBlocks/MinGW/lib/gcc/x86_64-w64-mingw32/8.1.0/include/c++/bits/char_traits.h"
	.file 14 "C:/Program Files/CodeBlocks/MinGW/lib/gcc/x86_64-w64-mingw32/8.1.0/include/c++/bits/stringfwd.h"
	.file 15 "C:/Program Files/CodeBlocks/MinGW/lib/gcc/x86_64-w64-mingw32/8.1.0/include/c++/x86_64-w64-mingw32/bits/c++config.h"
	.file 16 "C:/Program Files/CodeBlocks/MinGW/lib/gcc/x86_64-w64-mingw32/8.1.0/include/c++/cstdint"
	.file 17 "C:/Program Files/CodeBlocks/MinGW/lib/gcc/x86_64-w64-mingw32/8.1.0/include/c++/bits/exception_ptr.h"
	.file 18 "C:/Program Files/CodeBlocks/MinGW/lib/gcc/x86_64-w64-mingw32/8.1.0/include/c++/new"
	.file 19 "C:/Program Files/CodeBlocks/MinGW/lib/gcc/x86_64-w64-mingw32/8.1.0/include/c++/bits/allocator.h"
	.file 20 "C:/Program Files/CodeBlocks/MinGW/lib/gcc/x86_64-w64-mingw32/8.1.0/include/c++/clocale"
	.file 21 "C:/Program Files/CodeBlocks/MinGW/lib/gcc/x86_64-w64-mingw32/8.1.0/include/c++/cstdlib"
	.file 22 "C:/Program Files/CodeBlocks/MinGW/lib/gcc/x86_64-w64-mingw32/8.1.0/include/c++/cstdio"
	.file 23 "C:/Program Files/CodeBlocks/MinGW/lib/gcc/x86_64-w64-mingw32/8.1.0/include/c++/bits/alloc_traits.h"
	.file 24 "C:/Program Files/CodeBlocks/MinGW/lib/gcc/x86_64-w64-mingw32/8.1.0/include/c++/initializer_list"
	.file 25 "C:/Program Files/CodeBlocks/MinGW/lib/gcc/x86_64-w64-mingw32/8.1.0/include/c++/cmath"
	.file 26 "C:/Program Files/CodeBlocks/MinGW/lib/gcc/x86_64-w64-mingw32/8.1.0/include/c++/bits/std_abs.h"
	.file 27 "C:/Program Files/CodeBlocks/MinGW/lib/gcc/x86_64-w64-mingw32/8.1.0/include/c++/bits/stl_iterator_base_funcs.h"
	.file 28 "C:/Program Files/CodeBlocks/MinGW/lib/gcc/x86_64-w64-mingw32/8.1.0/include/c++/bits/predefined_ops.h"
	.file 29 "C:/Program Files/CodeBlocks/MinGW/lib/gcc/x86_64-w64-mingw32/8.1.0/include/c++/ext/new_allocator.h"
	.file 30 "C:/Program Files/CodeBlocks/MinGW/lib/gcc/x86_64-w64-mingw32/8.1.0/include/c++/ext/numeric_traits.h"
	.file 31 "C:/Program Files/CodeBlocks/MinGW/lib/gcc/x86_64-w64-mingw32/8.1.0/include/c++/ext/alloc_traits.h"
	.file 32 "C:/Program Files/CodeBlocks/MinGW/lib/gcc/x86_64-w64-mingw32/8.1.0/include/c++/bits/stl_iterator.h"
	.file 33 "C:/Program Files/CodeBlocks/MinGW/lib/gcc/x86_64-w64-mingw32/8.1.0/include/c++/ext/type_traits.h"
	.file 34 "C:/Program Files/CodeBlocks/MinGW/x86_64-w64-mingw32/include/crtdefs.h"
	.file 35 "C:/Program Files/CodeBlocks/MinGW/x86_64-w64-mingw32/include/locale.h"
	.file 36 "C:/Program Files/CodeBlocks/MinGW/x86_64-w64-mingw32/include/wchar.h"
	.file 37 "C:/Program Files/CodeBlocks/MinGW/x86_64-w64-mingw32/include/swprintf.inl"
	.file 38 "C:/Program Files/CodeBlocks/MinGW/x86_64-w64-mingw32/include/stdint.h"
	.file 39 "C:/Program Files/CodeBlocks/MinGW/x86_64-w64-mingw32/include/stdio.h"
	.file 40 "C:/Program Files/CodeBlocks/MinGW/x86_64-w64-mingw32/include/ctype.h"
	.file 41 "C:/Program Files/CodeBlocks/MinGW/x86_64-w64-mingw32/include/process.h"
	.file 42 "C:/Program Files/CodeBlocks/MinGW/x86_64-w64-mingw32/include/pthread.h"
	.file 43 "C:/Program Files/CodeBlocks/MinGW/x86_64-w64-mingw32/include/stdlib.h"
	.file 44 "C:/Program Files/CodeBlocks/MinGW/x86_64-w64-mingw32/include/malloc.h"
	.file 45 "C:/Program Files/CodeBlocks/MinGW/x86_64-w64-mingw32/include/math.h"
	.file 46 "C:/Program Files/CodeBlocks/MinGW/lib/gcc/x86_64-w64-mingw32/8.1.0/include/c++/math.h"
	.file 47 "<built-in>"