	.file	"atmosferaisa.cpp"
	.text
.Ltext0:
	.cfi_sections	.debug_frame
	.section .rdata,"dr"
_ZStL19piecewise_construct:
	.space 1
	.section	.text$_ZN10BaseObjectD2Ev,"x"
	.linkonce discard
	.align 2
	.globl	_ZN10BaseObjectD2Ev
	.def	_ZN10BaseObjectD2Ev;	.scl	2;	.type	32;	.endef
	.seh_proc	_ZN10BaseObjectD2Ev
_ZN10BaseObjectD2Ev:
.LFB1005:
	.file 1 "C:/PFC 2021/ballisticKernelCpp/CalculadorNumerico/padroes/baseobject.h"
	.loc 1 8 17
	.cfi_startproc
	pushq	%rbp
	.seh_pushreg	%rbp
	.cfi_def_cfa_offset 16
	.cfi_offset 6, -16
	movq	%rsp, %rbp
	.seh_setframe	%rbp, 0
	.cfi_def_cfa_register 6
	.seh_endprologue
	movq	%rcx, 16(%rbp)
.LBB2:
	.loc 1 8 31
	leaq	16+_ZTV10BaseObject(%rip), %rdx
	movq	16(%rbp), %rax
	movq	%rdx, (%rax)
.LBE2:
	.loc 1 8 32
	nop
	popq	%rbp
	.cfi_restore 6
	.cfi_def_cfa 7, 8
	ret
	.cfi_endproc
.LFE1005:
	.seh_endproc
	.section	.text$_ZN10BaseObjectD1Ev,"x"
	.linkonce discard
	.align 2
	.globl	_ZN10BaseObjectD1Ev
	.def	_ZN10BaseObjectD1Ev;	.scl	2;	.type	32;	.endef
	.seh_proc	_ZN10BaseObjectD1Ev
_ZN10BaseObjectD1Ev:
.LFB1006:
	.loc 1 8 17
	.cfi_startproc
	pushq	%rbp
	.seh_pushreg	%rbp
	.cfi_def_cfa_offset 16
	.cfi_offset 6, -16
	movq	%rsp, %rbp
	.seh_setframe	%rbp, 0
	.cfi_def_cfa_register 6
	.seh_endprologue
	movq	%rcx, 16(%rbp)
.LBB3:
	.loc 1 8 31
	leaq	16+_ZTV10BaseObject(%rip), %rdx
	movq	16(%rbp), %rax
	movq	%rdx, (%rax)
.LBE3:
	.loc 1 8 32
	nop
	popq	%rbp
	.cfi_restore 6
	.cfi_def_cfa 7, 8
	ret
	.cfi_endproc
.LFE1006:
	.seh_endproc
	.section	.text$_ZN10BaseObjectD0Ev,"x"
	.linkonce discard
	.align 2
	.globl	_ZN10BaseObjectD0Ev
	.def	_ZN10BaseObjectD0Ev;	.scl	2;	.type	32;	.endef
	.seh_proc	_ZN10BaseObjectD0Ev
_ZN10BaseObjectD0Ev:
.LFB1007:
	.loc 1 8 17
	.cfi_startproc
	pushq	%rbp
	.seh_pushreg	%rbp
	.cfi_def_cfa_offset 16
	.cfi_offset 6, -16
	movq	%rsp, %rbp
	.seh_setframe	%rbp, 0
	.cfi_def_cfa_register 6
	subq	$32, %rsp
	.seh_stackalloc	32
	.seh_endprologue
	movq	%rcx, 16(%rbp)
	.loc 1 8 32
	movq	16(%rbp), %rcx
	call	_ZN10BaseObjectD1Ev
	movq	16(%rbp), %rcx
	call	_ZdlPv
	nop
	addq	$32, %rsp
	popq	%rbp
	.cfi_restore 6
	.cfi_def_cfa 7, 8
	ret
	.cfi_endproc
.LFE1007:
	.seh_endproc
	.section .rdata,"dr"
.LC0:
	.ascii "ISA\0"
	.section	.text$_ZN12AtmosferaIsa8toStringB5cxx11Ev,"x"
	.linkonce discard
	.align 2
	.globl	_ZN12AtmosferaIsa8toStringB5cxx11Ev
	.def	_ZN12AtmosferaIsa8toStringB5cxx11Ev;	.scl	2;	.type	32;	.endef
	.seh_proc	_ZN12AtmosferaIsa8toStringB5cxx11Ev
_ZN12AtmosferaIsa8toStringB5cxx11Ev:
.LFB1010:
	.file 2 "C:/PFC 2021/ballisticKernelCpp/CalculadorNumerico/atmosfera/atmosferaisa.h"
	.loc 2 15 17
	.cfi_startproc
	pushq	%rbp
	.seh_pushreg	%rbp
	.cfi_def_cfa_offset 16
	.cfi_offset 6, -16
	pushq	%rbx
	.seh_pushreg	%rbx
	.cfi_def_cfa_offset 24
	.cfi_offset 3, -24
	subq	$56, %rsp
	.seh_stackalloc	56
	.cfi_def_cfa_offset 80
	leaq	128(%rsp), %rbp
	.seh_setframe	%rbp, 128
	.cfi_def_cfa 6, -48
	.seh_endprologue
	movq	%rcx, -48(%rbp)
	movq	%rdx, -40(%rbp)
	.loc 2 15 35
	leaq	-81(%rbp), %rax
	movq	%rax, %rcx
	call	_ZNSaIcEC1Ev
	leaq	-81(%rbp), %rax
	movq	%rax, %r8
	leaq	.LC0(%rip), %rdx
	movq	-48(%rbp), %rcx
.LEHB0:
	call	_ZNSt7__cxx1112basic_stringIcSt11char_traitsIcESaIcEEC1EPKcRKS3_
.LEHE0:
	leaq	-81(%rbp), %rax
	movq	%rax, %rcx
	call	_ZNSaIcED1Ev
	jmp	.L8
.L7:
	movq	%rax, %rbx
	leaq	-81(%rbp), %rax
	movq	%rax, %rcx
	call	_ZNSaIcED1Ev
	movq	%rbx, %rax
	movq	%rax, %rcx
.LEHB1:
	call	_Unwind_Resume
.LEHE1:
.L8:
	.loc 2 15 41
	movq	-48(%rbp), %rax
	addq	$56, %rsp
	popq	%rbx
	.cfi_restore 3
	popq	%rbp
	.cfi_restore 6
	.cfi_def_cfa 7, -40
	ret
	.cfi_endproc
.LFE1010:
	.def	__gxx_personality_seh0;	.scl	2;	.type	32;	.endef
	.seh_handler	__gxx_personality_seh0, @unwind, @except
	.seh_handlerdata
.LLSDA1010:
	.byte	0xff
	.byte	0xff
	.byte	0x1
	.uleb128 .LLSDACSE1010-.LLSDACSB1010
.LLSDACSB1010:
	.uleb128 .LEHB0-.LFB1010
	.uleb128 .LEHE0-.LEHB0
	.uleb128 .L7-.LFB1010
	.uleb128 0
	.uleb128 .LEHB1-.LFB1010
	.uleb128 .LEHE1-.LEHB1
	.uleb128 0
	.uleb128 0
.LLSDACSE1010:
	.section	.text$_ZN12AtmosferaIsa8toStringB5cxx11Ev,"x"
	.linkonce discard
	.seh_endproc
	.section	.text$_ZN9AtmosferaD2Ev,"x"
	.linkonce discard
	.align 2
	.globl	_ZN9AtmosferaD2Ev
	.def	_ZN9AtmosferaD2Ev;	.scl	2;	.type	32;	.endef
	.seh_proc	_ZN9AtmosferaD2Ev
_ZN9AtmosferaD2Ev:
.LFB1228:
	.file 3 "C:/PFC 2021/ballisticKernelCpp/CalculadorNumerico/atmosfera/atmosfera.h"
	.loc 3 11 7
	.cfi_startproc
	pushq	%rbp
	.seh_pushreg	%rbp
	.cfi_def_cfa_offset 16
	.cfi_offset 6, -16
	movq	%rsp, %rbp
	.seh_setframe	%rbp, 0
	.cfi_def_cfa_register 6
	subq	$32, %rsp
	.seh_stackalloc	32
	.seh_endprologue
	movq	%rcx, 16(%rbp)
.LBB4:
	.loc 3 11 7
	leaq	16+_ZTV9Atmosfera(%rip), %rdx
	movq	16(%rbp), %rax
	movq	%rdx, (%rax)
	movq	16(%rbp), %rax
	movq	%rax, %rcx
	call	_ZN10BaseObjectD2Ev
.LBE4:
	nop
	addq	$32, %rsp
	popq	%rbp
	.cfi_restore 6
	.cfi_def_cfa 7, 8
	ret
	.cfi_endproc
.LFE1228:
	.seh_endproc
	.text
	.align 2
	.globl	_ZN12AtmosferaIsaC2Ev
	.def	_ZN12AtmosferaIsaC2Ev;	.scl	2;	.type	32;	.endef
	.seh_proc	_ZN12AtmosferaIsaC2Ev
_ZN12AtmosferaIsaC2Ev:
.LFB1231:
	.file 4 "C:/PFC 2021/ballisticKernelCpp/CalculadorNumerico/atmosfera/atmosferaisa.cpp"
	.loc 4 3 1
	.cfi_startproc
	pushq	%rbp
	.seh_pushreg	%rbp
	.cfi_def_cfa_offset 16
	.cfi_offset 6, -16
	movq	%rsp, %rbp
	.seh_setframe	%rbp, 0
	.cfi_def_cfa_register 6
	subq	$32, %rsp
	.seh_stackalloc	32
	.seh_endprologue
	movq	%rcx, 16(%rbp)
.LBB5:
	.loc 4 3 28
	movq	16(%rbp), %rax
	movq	%rax, %rcx
	call	_ZN9AtmosferaC2Ev
	leaq	16+_ZTV12AtmosferaIsa(%rip), %rdx
	movq	16(%rbp), %rax
	movq	%rdx, (%rax)
.LBE5:
	.loc 4 5 1
	nop
	addq	$32, %rsp
	popq	%rbp
	.cfi_restore 6
	.cfi_def_cfa 7, 8
	ret
	.cfi_endproc
.LFE1231:
	.seh_endproc
	.globl	_ZN12AtmosferaIsaC1Ev
	.def	_ZN12AtmosferaIsaC1Ev;	.scl	2;	.type	32;	.endef
	.set	_ZN12AtmosferaIsaC1Ev,_ZN12AtmosferaIsaC2Ev
	.align 2
	.globl	_ZN12AtmosferaIsa11temperaturaEd
	.def	_ZN12AtmosferaIsa11temperaturaEd;	.scl	2;	.type	32;	.endef
	.seh_proc	_ZN12AtmosferaIsa11temperaturaEd
_ZN12AtmosferaIsa11temperaturaEd:
.LFB1233:
	.loc 4 9 1
	.cfi_startproc
	pushq	%rbp
	.seh_pushreg	%rbp
	.cfi_def_cfa_offset 16
	.cfi_offset 6, -16
	movq	%rsp, %rbp
	.seh_setframe	%rbp, 0
	.cfi_def_cfa_register 6
	subq	$48, %rsp
	.seh_stackalloc	48
	.seh_endprologue
	movq	%rcx, 16(%rbp)
	movsd	%xmm1, 24(%rbp)
	.loc 4 11 8
	movq	16(%rbp), %rax
	movq	16(%rax), %rax
	.loc 4 11 5
	testq	%rax, %rax
	jne	.L12
	.loc 4 12 15
	movsd	.LC1(%rip), %xmm0
	movsd	%xmm0, -8(%rbp)
	jmp	.L13
.L12:
	.loc 4 14 17
	movq	16(%rbp), %rax
	movq	16(%rax), %rdx
	movq	16(%rbp), %rax
	movq	16(%rax), %rax
	.loc 4 14 54
	movq	(%rax), %rax
	movq	(%rax), %rax
	.loc 4 14 45
	movsd	24(%rbp), %xmm0
	movapd	%xmm0, %xmm1
	movq	%rdx, %rcx
	call	*%rax
.LVL0:
	movq	%xmm0, %rax
	movq	%rax, -8(%rbp)
.L13:
	.loc 4 16 17
	movsd	-8(%rbp), %xmm1
	movsd	.LC2(%rip), %xmm0
	mulsd	%xmm1, %xmm0
	.loc 4 16 26
	movsd	24(%rbp), %xmm2
	movsd	.LC3(%rip), %xmm1
	mulsd	%xmm2, %xmm1
	.loc 4 16 35
	movsd	.LC4(%rip), %xmm2
	divsd	%xmm2, %xmm1
	.loc 4 16 36
	subsd	%xmm1, %xmm0
	movq	%xmm0, %rax
	.loc 4 18 1
	movq	%rax, %xmm0
	addq	$48, %rsp
	popq	%rbp
	.cfi_restore 6
	.cfi_def_cfa 7, 8
	ret
	.cfi_endproc
.LFE1233:
	.seh_endproc
	.align 2
	.globl	_ZN12AtmosferaIsa13velocidadeSomEd
	.def	_ZN12AtmosferaIsa13velocidadeSomEd;	.scl	2;	.type	32;	.endef
	.seh_proc	_ZN12AtmosferaIsa13velocidadeSomEd
_ZN12AtmosferaIsa13velocidadeSomEd:
.LFB1234:
	.loc 4 21 1
	.cfi_startproc
	pushq	%rbp
	.seh_pushreg	%rbp
	.cfi_def_cfa_offset 16
	.cfi_offset 6, -16
	movq	%rsp, %rbp
	.seh_setframe	%rbp, 0
	.cfi_def_cfa_register 6
	subq	$48, %rsp
	.seh_stackalloc	48
	.seh_endprologue
	movq	%rcx, 16(%rbp)
	movsd	%xmm1, 24(%rbp)
	.loc 4 22 36
	movq	16(%rbp), %rax
	movq	(%rax), %rax
	addq	$16, %rax
	movq	(%rax), %rax
	.loc 4 22 27
	movsd	24(%rbp), %xmm0
	movapd	%xmm0, %xmm1
	movq	16(%rbp), %rcx
	call	*%rax
.LVL1:
	movq	%xmm0, %rax
	movq	%rax, -8(%rbp)
	.loc 4 24 16
	movsd	-8(%rbp), %xmm1
	movsd	.LC5(%rip), %xmm0
	mulsd	%xmm1, %xmm0
	call	sqrt
	movq	%xmm0, %rax
	.loc 4 25 1
	movq	%rax, %xmm0
	addq	$48, %rsp
	popq	%rbp
	.cfi_restore 6
	.cfi_def_cfa 7, 8
	ret
	.cfi_endproc
.LFE1234:
	.seh_endproc
	.align 2
	.globl	_ZN12AtmosferaIsa9densidadeEd
	.def	_ZN12AtmosferaIsa9densidadeEd;	.scl	2;	.type	32;	.endef
	.seh_proc	_ZN12AtmosferaIsa9densidadeEd
_ZN12AtmosferaIsa9densidadeEd:
.LFB1235:
	.loc 4 28 1
	.cfi_startproc
	pushq	%rbp
	.seh_pushreg	%rbp
	.cfi_def_cfa_offset 16
	.cfi_offset 6, -16
	movq	%rsp, %rbp
	.seh_setframe	%rbp, 0
	.cfi_def_cfa_register 6
	subq	$64, %rsp
	.seh_stackalloc	64
	.seh_endprologue
	movq	%rcx, 16(%rbp)
	movsd	%xmm1, 24(%rbp)
	.loc 4 30 8
	movq	16(%rbp), %rax
	movq	8(%rax), %rax
	.loc 4 30 5
	testq	%rax, %rax
	jne	.L18
	.loc 4 31 15
	movsd	.LC1(%rip), %xmm0
	movsd	%xmm0, -8(%rbp)
	jmp	.L19
.L18:
	.loc 4 33 17
	movq	16(%rbp), %rax
	movq	8(%rax), %rdx
	movq	16(%rbp), %rax
	movq	8(%rax), %rax
	.loc 4 33 52
	movq	(%rax), %rax
	movq	(%rax), %rax
	.loc 4 33 43
	movsd	24(%rbp), %xmm0
	movapd	%xmm0, %xmm1
	movq	%rdx, %rcx
	call	*%rax
.LVL2:
	movq	%xmm0, %rax
	movq	%rax, -8(%rbp)
.L19:
	.loc 4 35 37
	movq	16(%rbp), %rax
	movq	(%rax), %rax
	addq	$16, %rax
	movq	(%rax), %rax
	.loc 4 35 27
	movsd	24(%rbp), %xmm0
	movapd	%xmm0, %xmm1
	movq	16(%rbp), %rcx
	call	*%rax
.LVL3:
	movq	%xmm0, %rax
	movq	%rax, -16(%rbp)
	.loc 4 36 22
	movsd	-16(%rbp), %xmm0
	movsd	.LC2(%rip), %xmm1
	divsd	%xmm1, %xmm0
	movsd	.LC6(%rip), %xmm1
	call	pow
	movapd	%xmm0, %xmm1
	.loc 4 36 35
	movsd	.LC7(%rip), %xmm0
	mulsd	%xmm1, %xmm0
	movsd	%xmm0, -24(%rbp)
	.loc 4 37 39
	movsd	-16(%rbp), %xmm1
	movsd	.LC8(%rip), %xmm0
	mulsd	%xmm0, %xmm1
	.loc 4 37 12
	movsd	-24(%rbp), %xmm0
	divsd	%xmm1, %xmm0
	movsd	%xmm0, -32(%rbp)
	.loc 4 38 18
	movsd	-8(%rbp), %xmm0
	mulsd	-32(%rbp), %xmm0
	movq	%xmm0, %rax
	.loc 4 39 1
	movq	%rax, %xmm0
	addq	$64, %rsp
	popq	%rbp
	.cfi_restore 6
	.cfi_def_cfa 7, 8
	ret
	.cfi_endproc
.LFE1235:
	.seh_endproc
	.globl	_ZTV12AtmosferaIsa
	.section	.rdata$_ZTV12AtmosferaIsa,"dr"
	.linkonce same_size
	.align 8
_ZTV12AtmosferaIsa:
	.quad	0
	.quad	_ZTI12AtmosferaIsa
	.quad	_ZN12AtmosferaIsaD1Ev
	.quad	_ZN12AtmosferaIsaD0Ev
	.quad	_ZN12AtmosferaIsa11temperaturaEd
	.quad	_ZN12AtmosferaIsa13velocidadeSomEd
	.quad	_ZN12AtmosferaIsa9densidadeEd
	.quad	_ZN12AtmosferaIsa8toStringB5cxx11Ev
	.section	.text$_ZN12AtmosferaIsaD1Ev,"x"
	.linkonce discard
	.align 2
	.globl	_ZN12AtmosferaIsaD1Ev
	.def	_ZN12AtmosferaIsaD1Ev;	.scl	2;	.type	32;	.endef
	.seh_proc	_ZN12AtmosferaIsaD1Ev
_ZN12AtmosferaIsaD1Ev:
.LFB1539:
	.loc 2 8 7
	.cfi_startproc
	pushq	%rbp
	.seh_pushreg	%rbp
	.cfi_def_cfa_offset 16
	.cfi_offset 6, -16
	movq	%rsp, %rbp
	.seh_setframe	%rbp, 0
	.cfi_def_cfa_register 6
	subq	$32, %rsp
	.seh_stackalloc	32
	.seh_endprologue
	movq	%rcx, 16(%rbp)
.LBB6:
	.loc 2 8 7
	leaq	16+_ZTV12AtmosferaIsa(%rip), %rdx
	movq	16(%rbp), %rax
	movq	%rdx, (%rax)
	movq	16(%rbp), %rax
	movq	%rax, %rcx
	call	_ZN9AtmosferaD2Ev
.LBE6:
	nop
	addq	$32, %rsp
	popq	%rbp
	.cfi_restore 6
	.cfi_def_cfa 7, 8
	ret
	.cfi_endproc
.LFE1539:
	.seh_endproc
	.section	.text$_ZN12AtmosferaIsaD0Ev,"x"
	.linkonce discard
	.align 2
	.globl	_ZN12AtmosferaIsaD0Ev
	.def	_ZN12AtmosferaIsaD0Ev;	.scl	2;	.type	32;	.endef
	.seh_proc	_ZN12AtmosferaIsaD0Ev
_ZN12AtmosferaIsaD0Ev:
.LFB1540:
	.loc 2 8 7
	.cfi_startproc
	pushq	%rbp
	.seh_pushreg	%rbp
	.cfi_def_cfa_offset 16
	.cfi_offset 6, -16
	movq	%rsp, %rbp
	.seh_setframe	%rbp, 0
	.cfi_def_cfa_register 6
	subq	$32, %rsp
	.seh_stackalloc	32
	.seh_endprologue
	movq	%rcx, 16(%rbp)
	.loc 2 8 7
	movq	16(%rbp), %rcx
	call	_ZN12AtmosferaIsaD1Ev
	movq	16(%rbp), %rcx
	call	_ZdlPv
	nop
	addq	$32, %rsp
	popq	%rbp
	.cfi_restore 6
	.cfi_def_cfa 7, 8
	ret
	.cfi_endproc
.LFE1540:
	.seh_endproc
	.globl	_ZTV9Atmosfera
	.section	.rdata$_ZTV9Atmosfera,"dr"
	.linkonce same_size
	.align 8
_ZTV9Atmosfera:
	.quad	0
	.quad	_ZTI9Atmosfera
	.quad	0
	.quad	0
	.quad	__cxa_pure_virtual
	.quad	__cxa_pure_virtual
	.quad	__cxa_pure_virtual
	.quad	__cxa_pure_virtual
	.globl	_ZTV10BaseObject
	.section	.rdata$_ZTV10BaseObject,"dr"
	.linkonce same_size
	.align 8
_ZTV10BaseObject:
	.quad	0
	.quad	_ZTI10BaseObject
	.quad	_ZN10BaseObjectD1Ev
	.quad	_ZN10BaseObjectD0Ev
	.globl	_ZTI12AtmosferaIsa
	.section	.rdata$_ZTI12AtmosferaIsa,"dr"
	.linkonce same_size
	.align 8
_ZTI12AtmosferaIsa:
	.quad	_ZTVN10__cxxabiv120__si_class_type_infoE+16
	.quad	_ZTS12AtmosferaIsa
	.quad	_ZTI9Atmosfera
	.globl	_ZTS12AtmosferaIsa
	.section	.rdata$_ZTS12AtmosferaIsa,"dr"
	.linkonce same_size
	.align 8
_ZTS12AtmosferaIsa:
	.ascii "12AtmosferaIsa\0"
	.globl	_ZTI9Atmosfera
	.section	.rdata$_ZTI9Atmosfera,"dr"
	.linkonce same_size
	.align 8
_ZTI9Atmosfera:
	.quad	_ZTVN10__cxxabiv120__si_class_type_infoE+16
	.quad	_ZTS9Atmosfera
	.quad	_ZTI10BaseObject
	.globl	_ZTS9Atmosfera
	.section	.rdata$_ZTS9Atmosfera,"dr"
	.linkonce same_size
	.align 8
_ZTS9Atmosfera:
	.ascii "9Atmosfera\0"
	.globl	_ZTI10BaseObject
	.section	.rdata$_ZTI10BaseObject,"dr"
	.linkonce same_size
	.align 8
_ZTI10BaseObject:
	.quad	_ZTVN10__cxxabiv117__class_type_infoE+16
	.quad	_ZTS10BaseObject
	.globl	_ZTS10BaseObject
	.section	.rdata$_ZTS10BaseObject,"dr"
	.linkonce same_size
	.align 8
_ZTS10BaseObject:
	.ascii "10BaseObject\0"
	.section .rdata,"dr"
	.align 8
.LC1:
	.long	0
	.long	1072693248
	.align 8
.LC2:
	.long	1717986918
	.long	1081213542
	.align 8
.LC3:
	.long	0
	.long	1075445760
	.align 8
.LC4:
	.long	0
	.long	1083129856
	.align 8
.LC5:
	.long	169049913
	.long	1081683985
	.align 8
.LC6:
	.long	336725436
	.long	1075119679
	.align 8
.LC7:
	.long	0
	.long	1090043088
	.align 8
.LC8:
	.long	-687194767
	.long	1081208995
	.text
.Letext0:
	.file 5 "C:/Program Files/CodeBlocks/MinGW/lib/gcc/x86_64-w64-mingw32/8.1.0/include/c++/bits/basic_string.h"
	.file 6 "C:/Program Files/CodeBlocks/MinGW/lib/gcc/x86_64-w64-mingw32/8.1.0/include/c++/bits/basic_string.tcc"
	.file 7 "C:/Program Files/CodeBlocks/MinGW/lib/gcc/x86_64-w64-mingw32/8.1.0/include/c++/type_traits"
	.file 8 "C:/Program Files/CodeBlocks/MinGW/lib/gcc/x86_64-w64-mingw32/8.1.0/include/c++/bits/stl_pair.h"
	.file 9 "C:/Program Files/CodeBlocks/MinGW/lib/gcc/x86_64-w64-mingw32/8.1.0/include/c++/bits/cpp_type_traits.h"
	.file 10 "C:/Program Files/CodeBlocks/MinGW/lib/gcc/x86_64-w64-mingw32/8.1.0/include/c++/bits/stl_iterator_base_types.h"
	.file 11 "C:/Program Files/CodeBlocks/MinGW/lib/gcc/x86_64-w64-mingw32/8.1.0/include/c++/debug/debug.h"
	.file 12 "C:/Program Files/CodeBlocks/MinGW/lib/gcc/x86_64-w64-mingw32/8.1.0/include/c++/cwchar"
	.file 13 "C:/Program Files/CodeBlocks/MinGW/lib/gcc/x86_64-w64-mingw32/8.1.0/include/c++/bits/char_traits.h"
	.file 14 "C:/Program Files/CodeBlocks/MinGW/lib/gcc/x86_64-w64-mingw32/8.1.0/include/c++/bits/stringfwd.h"
	.file 15 "C:/Program Files/CodeBlocks/MinGW/lib/gcc/x86_64-w64-mingw32/8.1.0/include/c++/x86_64-w64-mingw32/bits/c++config.h"
	.file 16 "C:/Program Files/CodeBlocks/MinGW/lib/gcc/x86_64-w64-mingw32/8.1.0/include/c++/cstdint"
	.file 17 "C:/Program Files/CodeBlocks/MinGW/lib/gcc/x86_64-w64-mingw32/8.1.0/include/c++/bits/exception_ptr.h"
	.file 18 "C:/Program Files/CodeBlocks/MinGW/lib/gcc/x86_64-w64-mingw32/8.1.0/include/c++/new"
	.file 19 "C:/Program Files/CodeBlocks/MinGW/lib/gcc/x86_64-w64-mingw32/8.1.0/include/c++/bits/allocator.h"
	.file 20 "C:/Program Files/CodeBlocks/MinGW/lib/gcc/x86_64-w64-mingw32/8.1.0/include/c++/clocale"
	.file 21 "C:/Program Files/CodeBlocks/MinGW/lib/gcc/x86_64-w64-mingw32/8.1.0/include/c++/cstdlib"
	.file 22 "C:/Program Files/CodeBlocks/MinGW/lib/gcc/x86_64-w64-mingw32/8.1.0/include/c++/cstdio"
	.file 23 "C:/Program Files/CodeBlocks/MinGW/lib/gcc/x86_64-w64-mingw32/8.1.0/include/c++/bits/alloc_traits.h"
	.file 24 "C:/Program Files/CodeBlocks/MinGW/lib/gcc/x86_64-w64-mingw32/8.1.0/include/c++/initializer_list"
	.file 25 "C:/Program Files/CodeBlocks/MinGW/lib/gcc/x86_64-w64-mingw32/8.1.0/include/c++/cmath"
	.file 26 "C:/Program Files/CodeBlocks/MinGW/lib/gcc/x86_64-w64-mingw32/8.1.0/include/c++/bits/std_abs.h"
	.file 27 "C:/Program Files/CodeBlocks/MinGW/lib/gcc/x86_64-w64-mingw32/8.1.0/include/c++/bits/stl_iterator_base_funcs.h"
	.file 28 "C:/Program Files/CodeBlocks/MinGW/lib/gcc/x86_64-w64-mingw32/8.1.0/include/c++/bits/predefined_ops.h"
	.file 29 "C:/Program Files/CodeBlocks/MinGW/lib/gcc/x86_64-w64-mingw32/8.1.0/include/c++/ext/new_allocator.h"
	.file 30 "C:/Program Files/CodeBlocks/MinGW/lib/gcc/x86_64-w64-mingw32/8.1.0/include/c++/ext/numeric_traits.h"
	.file 31 "C:/Program Files/CodeBlocks/MinGW/lib/gcc/x86_64-w64-mingw32/8.1.0/include/c++/ext/alloc_traits.h"
	.file 32 "C:/Program Files/CodeBlocks/MinGW/lib/gcc/x86_64-w64-mingw32/8.1.0/include/c++/bits/stl_iterator.h"
	.file 33 "C:/Program Files/CodeBlocks/MinGW/lib/gcc/x86_64-w64-mingw32/8.1.0/include/c++/ext/type_traits.h"
	.file 34 "C:/Program Files/CodeBlocks/MinGW/x86_64-w64-mingw32/include/crtdefs.h"
	.file 35 "C:/Program Files/CodeBlocks/MinGW/x86_64-w64-mingw32/include/locale.h"
	.file 36 "C:/Program Files/CodeBlocks/MinGW/x86_64-w64-mingw32/include/wchar.h"
	.file 37 "C:/Program Files/CodeBlocks/MinGW/x86_64-w64-mingw32/include/swprintf.inl"
	.file 38 "C:/Program Files/CodeBlocks/MinGW/x86_64-w64-mingw32/include/stdint.h"
	.file 39 "C:/Program Files/CodeBlocks/MinGW/x86_64-w64-mingw32/include/stdio.h"
	.file 40 "C:/Program Files/CodeBlocks/MinGW/x86_64-w64-mingw32/include/ctype.h"
	.file 41 "C:/Program Files/CodeBlocks/MinGW/x86_64-w64-mingw32/include/process.h"
	.file 42 "C:/Program Files/CodeBlocks/MinGW/x86_64-w64-mingw32/include/pthread.h"
	.file 43 "C:/Program Files/CodeBlocks/MinGW/x86_64-w64-mingw32/include/stdlib.h"
	.file 44 "C:/Program Files/CodeBlocks/MinGW/x86_64-w64-mingw32/include/malloc.h"
	.file 45 "C:/Program Files/CodeBlocks/MinGW/x86_64-w64-mingw32/include/math.h"
	.file 46 "C:/Program Files/CodeBlocks/MinGW/lib/gcc/x86_64-w64-mingw32/8.1.0/include/c++/math.h"
	.file 47 "<built-in>"