	.file	"atmosferausstandard.cpp"
	.text
.Ltext0:
	.cfi_sections	.debug_frame
	.section .rdata,"dr"
_ZStL19piecewise_construct:
	.space 1
	.section	.text$_ZN10BaseObjectD2Ev,"x"
	.linkonce discard
	.align 2
	.globl	_ZN10BaseObjectD2Ev
	.def	_ZN10BaseObjectD2Ev;	.scl	2;	.type	32;	.endef
	.seh_proc	_ZN10BaseObjectD2Ev
_ZN10BaseObjectD2Ev:
.LFB1005:
	.file 1 "C:/PFC 2021/ballisticKernelCpp/CalculadorNumerico/padroes/baseobject.h"
	.loc 1 8 17
	.cfi_startproc
	pushq	%rbp
	.seh_pushreg	%rbp
	.cfi_def_cfa_offset 16
	.cfi_offset 6, -16
	movq	%rsp, %rbp
	.seh_setframe	%rbp, 0
	.cfi_def_cfa_register 6
	.seh_endprologue
	movq	%rcx, 16(%rbp)
.LBB2:
	.loc 1 8 31
	leaq	16+_ZTV10BaseObject(%rip), %rdx
	movq	16(%rbp), %rax
	movq	%rdx, (%rax)
.LBE2:
	.loc 1 8 32
	nop
	popq	%rbp
	.cfi_restore 6
	.cfi_def_cfa 7, 8
	ret
	.cfi_endproc
.LFE1005:
	.seh_endproc
	.section	.text$_ZN10BaseObjectD1Ev,"x"
	.linkonce discard
	.align 2
	.globl	_ZN10BaseObjectD1Ev
	.def	_ZN10BaseObjectD1Ev;	.scl	2;	.type	32;	.endef
	.seh_proc	_ZN10BaseObjectD1Ev
_ZN10BaseObjectD1Ev:
.LFB1006:
	.loc 1 8 17
	.cfi_startproc
	pushq	%rbp
	.seh_pushreg	%rbp
	.cfi_def_cfa_offset 16
	.cfi_offset 6, -16
	movq	%rsp, %rbp
	.seh_setframe	%rbp, 0
	.cfi_def_cfa_register 6
	.seh_endprologue
	movq	%rcx, 16(%rbp)
.LBB3:
	.loc 1 8 31
	leaq	16+_ZTV10BaseObject(%rip), %rdx
	movq	16(%rbp), %rax
	movq	%rdx, (%rax)
.LBE3:
	.loc 1 8 32
	nop
	popq	%rbp
	.cfi_restore 6
	.cfi_def_cfa 7, 8
	ret
	.cfi_endproc
.LFE1006:
	.seh_endproc
	.section	.text$_ZN10BaseObjectD0Ev,"x"
	.linkonce discard
	.align 2
	.globl	_ZN10BaseObjectD0Ev
	.def	_ZN10BaseObjectD0Ev;	.scl	2;	.type	32;	.endef
	.seh_proc	_ZN10BaseObjectD0Ev
_ZN10BaseObjectD0Ev:
.LFB1007:
	.loc 1 8 17
	.cfi_startproc
	pushq	%rbp
	.seh_pushreg	%rbp
	.cfi_def_cfa_offset 16
	.cfi_offset 6, -16
	movq	%rsp, %rbp
	.seh_setframe	%rbp, 0
	.cfi_def_cfa_register 6
	subq	$32, %rsp
	.seh_stackalloc	32
	.seh_endprologue
	movq	%rcx, 16(%rbp)
	.loc 1 8 32
	movq	16(%rbp), %rcx
	call	_ZN10BaseObjectD1Ev
	movq	16(%rbp), %rcx
	call	_ZdlPv
	nop
	addq	$32, %rsp
	popq	%rbp
	.cfi_restore 6
	.cfi_def_cfa 7, 8
	ret
	.cfi_endproc
.LFE1007:
	.seh_endproc
	.section .rdata,"dr"
.LC0:
	.ascii "US STANDARD\0"
	.section	.text$_ZN19AtmosferaUsStandard8toStringB5cxx11Ev,"x"
	.linkonce discard
	.align 2
	.globl	_ZN19AtmosferaUsStandard8toStringB5cxx11Ev
	.def	_ZN19AtmosferaUsStandard8toStringB5cxx11Ev;	.scl	2;	.type	32;	.endef
	.seh_proc	_ZN19AtmosferaUsStandard8toStringB5cxx11Ev
_ZN19AtmosferaUsStandard8toStringB5cxx11Ev:
.LFB1010:
	.file 2 "C:/PFC 2021/ballisticKernelCpp/CalculadorNumerico/atmosfera/atmosferausstandard.h"
	.loc 2 15 17
	.cfi_startproc
	pushq	%rbp
	.seh_pushreg	%rbp
	.cfi_def_cfa_offset 16
	.cfi_offset 6, -16
	pushq	%rbx
	.seh_pushreg	%rbx
	.cfi_def_cfa_offset 24
	.cfi_offset 3, -24
	subq	$56, %rsp
	.seh_stackalloc	56
	.cfi_def_cfa_offset 80
	leaq	128(%rsp), %rbp
	.seh_setframe	%rbp, 128
	.cfi_def_cfa 6, -48
	.seh_endprologue
	movq	%rcx, -48(%rbp)
	movq	%rdx, -40(%rbp)
	.loc 2 15 35
	leaq	-81(%rbp), %rax
	movq	%rax, %rcx
	call	_ZNSaIcEC1Ev
	leaq	-81(%rbp), %rax
	movq	%rax, %r8
	leaq	.LC0(%rip), %rdx
	movq	-48(%rbp), %rcx
.LEHB0:
	call	_ZNSt7__cxx1112basic_stringIcSt11char_traitsIcESaIcEEC1EPKcRKS3_
.LEHE0:
	leaq	-81(%rbp), %rax
	movq	%rax, %rcx
	call	_ZNSaIcED1Ev
	jmp	.L8
.L7:
	movq	%rax, %rbx
	leaq	-81(%rbp), %rax
	movq	%rax, %rcx
	call	_ZNSaIcED1Ev
	movq	%rbx, %rax
	movq	%rax, %rcx
.LEHB1:
	call	_Unwind_Resume
.LEHE1:
.L8:
	.loc 2 15 49
	movq	-48(%rbp), %rax
	addq	$56, %rsp
	popq	%rbx
	.cfi_restore 3
	popq	%rbp
	.cfi_restore 6
	.cfi_def_cfa 7, -40
	ret
	.cfi_endproc
.LFE1010:
	.def	__gxx_personality_seh0;	.scl	2;	.type	32;	.endef
	.seh_handler	__gxx_personality_seh0, @unwind, @except
	.seh_handlerdata
.LLSDA1010:
	.byte	0xff
	.byte	0xff
	.byte	0x1
	.uleb128 .LLSDACSE1010-.LLSDACSB1010
.LLSDACSB1010:
	.uleb128 .LEHB0-.LFB1010
	.uleb128 .LEHE0-.LEHB0
	.uleb128 .L7-.LFB1010
	.uleb128 0
	.uleb128 .LEHB1-.LFB1010
	.uleb128 .LEHE1-.LEHB1
	.uleb128 0
	.uleb128 0
.LLSDACSE1010:
	.section	.text$_ZN19AtmosferaUsStandard8toStringB5cxx11Ev,"x"
	.linkonce discard
	.seh_endproc
	.section	.text$_ZN9AtmosferaD2Ev,"x"
	.linkonce discard
	.align 2
	.globl	_ZN9AtmosferaD2Ev
	.def	_ZN9AtmosferaD2Ev;	.scl	2;	.type	32;	.endef
	.seh_proc	_ZN9AtmosferaD2Ev
_ZN9AtmosferaD2Ev:
.LFB1228:
	.file 3 "C:/PFC 2021/ballisticKernelCpp/CalculadorNumerico/atmosfera/atmosfera.h"
	.loc 3 11 7
	.cfi_startproc
	pushq	%rbp
	.seh_pushreg	%rbp
	.cfi_def_cfa_offset 16
	.cfi_offset 6, -16
	movq	%rsp, %rbp
	.seh_setframe	%rbp, 0
	.cfi_def_cfa_register 6
	subq	$32, %rsp
	.seh_stackalloc	32
	.seh_endprologue
	movq	%rcx, 16(%rbp)
.LBB4:
	.loc 3 11 7
	leaq	16+_ZTV9Atmosfera(%rip), %rdx
	movq	16(%rbp), %rax
	movq	%rdx, (%rax)
	movq	16(%rbp), %rax
	movq	%rax, %rcx
	call	_ZN10BaseObjectD2Ev
.LBE4:
	nop
	addq	$32, %rsp
	popq	%rbp
	.cfi_restore 6
	.cfi_def_cfa 7, 8
	ret
	.cfi_endproc
.LFE1228:
	.seh_endproc
	.text
	.align 2
	.globl	_ZN19AtmosferaUsStandardC2Ev
	.def	_ZN19AtmosferaUsStandardC2Ev;	.scl	2;	.type	32;	.endef
	.seh_proc	_ZN19AtmosferaUsStandardC2Ev
_ZN19AtmosferaUsStandardC2Ev:
.LFB1231:
	.file 4 "C:/PFC 2021/ballisticKernelCpp/CalculadorNumerico/atmosfera/atmosferausstandard.cpp"
	.loc 4 4 1
	.cfi_startproc
	pushq	%rbp
	.seh_pushreg	%rbp
	.cfi_def_cfa_offset 16
	.cfi_offset 6, -16
	movq	%rsp, %rbp
	.seh_setframe	%rbp, 0
	.cfi_def_cfa_register 6
	subq	$32, %rsp
	.seh_stackalloc	32
	.seh_endprologue
	movq	%rcx, 16(%rbp)
.LBB5:
	.loc 4 4 42
	movq	16(%rbp), %rax
	movq	%rax, %rcx
	call	_ZN9AtmosferaC2Ev
	leaq	16+_ZTV19AtmosferaUsStandard(%rip), %rdx
	movq	16(%rbp), %rax
	movq	%rdx, (%rax)
.LBE5:
	.loc 4 6 1
	nop
	addq	$32, %rsp
	popq	%rbp
	.cfi_restore 6
	.cfi_def_cfa 7, 8
	ret
	.cfi_endproc
.LFE1231:
	.seh_endproc
	.globl	_ZN19AtmosferaUsStandardC1Ev
	.def	_ZN19AtmosferaUsStandardC1Ev;	.scl	2;	.type	32;	.endef
	.set	_ZN19AtmosferaUsStandardC1Ev,_ZN19AtmosferaUsStandardC2Ev
	.align 2
	.globl	_ZN19AtmosferaUsStandard11temperaturaEd
	.def	_ZN19AtmosferaUsStandard11temperaturaEd;	.scl	2;	.type	32;	.endef
	.seh_proc	_ZN19AtmosferaUsStandard11temperaturaEd
_ZN19AtmosferaUsStandard11temperaturaEd:
.LFB1233:
	.loc 4 11 1
	.cfi_startproc
	pushq	%rbp
	.seh_pushreg	%rbp
	.cfi_def_cfa_offset 16
	.cfi_offset 6, -16
	movq	%rsp, %rbp
	.seh_setframe	%rbp, 0
	.cfi_def_cfa_register 6
	subq	$64, %rsp
	.seh_stackalloc	64
	movaps	%xmm6, -16(%rbp)
	.seh_savexmm	%xmm6, 48
	.cfi_offset 23, -32
	.seh_endprologue
	movq	%rcx, 16(%rbp)
	movsd	%xmm1, 24(%rbp)
	.loc 4 13 8
	movq	16(%rbp), %rax
	movq	16(%rax), %rax
	.loc 4 13 5
	testq	%rax, %rax
	jne	.L12
	.loc 4 14 15
	movsd	.LC1(%rip), %xmm0
	movsd	%xmm0, -24(%rbp)
	jmp	.L13
.L12:
	.loc 4 16 17
	movq	16(%rbp), %rax
	movq	16(%rax), %rdx
	movq	16(%rbp), %rax
	movq	16(%rax), %rax
	.loc 4 16 54
	movq	(%rax), %rax
	movq	(%rax), %rax
	.loc 4 16 45
	movsd	24(%rbp), %xmm0
	movapd	%xmm0, %xmm1
	movq	%rdx, %rcx
	call	*%rax
.LVL0:
	movq	%xmm0, %rax
	movq	%rax, -24(%rbp)
.L13:
	.loc 4 18 17
	movsd	-24(%rbp), %xmm1
	movsd	.LC2(%rip), %xmm0
	movapd	%xmm1, %xmm6
	mulsd	%xmm0, %xmm6
	.loc 4 18 24
	movsd	24(%rbp), %xmm1
	movsd	.LC3(%rip), %xmm0
	mulsd	%xmm1, %xmm0
	call	exp
	.loc 4 18 47
	mulsd	%xmm6, %xmm0
	movq	%xmm0, %rax
	.loc 4 19 1
	movq	%rax, %xmm0
	movaps	-16(%rbp), %xmm6
	addq	$64, %rsp
	.cfi_restore 23
	popq	%rbp
	.cfi_restore 6
	.cfi_def_cfa 7, 8
	ret
	.cfi_endproc
.LFE1233:
	.seh_endproc
	.align 2
	.globl	_ZN19AtmosferaUsStandard9densidadeEd
	.def	_ZN19AtmosferaUsStandard9densidadeEd;	.scl	2;	.type	32;	.endef
	.seh_proc	_ZN19AtmosferaUsStandard9densidadeEd
_ZN19AtmosferaUsStandard9densidadeEd:
.LFB1234:
	.loc 4 22 1
	.cfi_startproc
	pushq	%rbp
	.seh_pushreg	%rbp
	.cfi_def_cfa_offset 16
	.cfi_offset 6, -16
	movq	%rsp, %rbp
	.seh_setframe	%rbp, 0
	.cfi_def_cfa_register 6
	subq	$48, %rsp
	.seh_stackalloc	48
	.seh_endprologue
	movq	%rcx, 16(%rbp)
	movsd	%xmm1, 24(%rbp)
	.loc 4 25 8
	movq	16(%rbp), %rax
	movq	8(%rax), %rax
	.loc 4 25 5
	testq	%rax, %rax
	jne	.L16
	.loc 4 26 15
	movsd	.LC1(%rip), %xmm0
	movsd	%xmm0, -8(%rbp)
	jmp	.L17
.L16:
	.loc 4 28 17
	movq	16(%rbp), %rax
	movq	8(%rax), %rdx
	movq	16(%rbp), %rax
	movq	8(%rax), %rax
	.loc 4 28 52
	movq	(%rax), %rax
	movq	(%rax), %rax
	.loc 4 28 43
	movsd	24(%rbp), %xmm0
	movapd	%xmm0, %xmm1
	movq	%rdx, %rcx
	call	*%rax
.LVL1:
	movq	%xmm0, %rax
	movq	%rax, -8(%rbp)
.L17:
	.loc 4 30 40
	movsd	24(%rbp), %xmm1
	movsd	.LC4(%rip), %xmm0
	mulsd	%xmm1, %xmm0
	call	exp
	movapd	%xmm0, %xmm1
	.loc 4 30 60
	movsd	.LC5(%rip), %xmm0
	mulsd	%xmm1, %xmm0
	movsd	%xmm0, -16(%rbp)
	.loc 4 32 18
	movsd	-8(%rbp), %xmm0
	mulsd	-16(%rbp), %xmm0
	movq	%xmm0, %rax
	.loc 4 33 1
	movq	%rax, %xmm0
	addq	$48, %rsp
	popq	%rbp
	.cfi_restore 6
	.cfi_def_cfa 7, 8
	ret
	.cfi_endproc
.LFE1234:
	.seh_endproc
	.align 2
	.globl	_ZN19AtmosferaUsStandard13velocidadeSomEd
	.def	_ZN19AtmosferaUsStandard13velocidadeSomEd;	.scl	2;	.type	32;	.endef
	.seh_proc	_ZN19AtmosferaUsStandard13velocidadeSomEd
_ZN19AtmosferaUsStandard13velocidadeSomEd:
.LFB1235:
	.loc 4 36 1
	.cfi_startproc
	pushq	%rbp
	.seh_pushreg	%rbp
	.cfi_def_cfa_offset 16
	.cfi_offset 6, -16
	movq	%rsp, %rbp
	.seh_setframe	%rbp, 0
	.cfi_def_cfa_register 6
	subq	$48, %rsp
	.seh_stackalloc	48
	.seh_endprologue
	movq	%rcx, 16(%rbp)
	movsd	%xmm1, 24(%rbp)
	.loc 4 37 36
	movq	16(%rbp), %rax
	movq	(%rax), %rax
	addq	$16, %rax
	movq	(%rax), %rax
	.loc 4 37 27
	movsd	24(%rbp), %xmm0
	movapd	%xmm0, %xmm1
	movq	16(%rbp), %rcx
	call	*%rax
.LVL2:
	movq	%xmm0, %rax
	movq	%rax, -8(%rbp)
	.loc 4 38 29
	movsd	-8(%rbp), %xmm1
	movsd	.LC6(%rip), %xmm0
	mulsd	%xmm1, %xmm0
	call	sqrt
	movapd	%xmm0, %xmm1
	.loc 4 38 35
	movsd	.LC7(%rip), %xmm0
	mulsd	%xmm1, %xmm0
	movq	%xmm0, %rax
	.loc 4 39 1
	movq	%rax, %xmm0
	addq	$48, %rsp
	popq	%rbp
	.cfi_restore 6
	.cfi_def_cfa 7, 8
	ret
	.cfi_endproc
.LFE1235:
	.seh_endproc
	.globl	_ZTV19AtmosferaUsStandard
	.section	.rdata$_ZTV19AtmosferaUsStandard,"dr"
	.linkonce same_size
	.align 8
_ZTV19AtmosferaUsStandard:
	.quad	0
	.quad	_ZTI19AtmosferaUsStandard
	.quad	_ZN19AtmosferaUsStandardD1Ev
	.quad	_ZN19AtmosferaUsStandardD0Ev
	.quad	_ZN19AtmosferaUsStandard11temperaturaEd
	.quad	_ZN19AtmosferaUsStandard13velocidadeSomEd
	.quad	_ZN19AtmosferaUsStandard9densidadeEd
	.quad	_ZN19AtmosferaUsStandard8toStringB5cxx11Ev
	.section	.text$_ZN19AtmosferaUsStandardD1Ev,"x"
	.linkonce discard
	.align 2
	.globl	_ZN19AtmosferaUsStandardD1Ev
	.def	_ZN19AtmosferaUsStandardD1Ev;	.scl	2;	.type	32;	.endef
	.seh_proc	_ZN19AtmosferaUsStandardD1Ev
_ZN19AtmosferaUsStandardD1Ev:
.LFB1539:
	.loc 2 8 7
	.cfi_startproc
	pushq	%rbp
	.seh_pushreg	%rbp
	.cfi_def_cfa_offset 16
	.cfi_offset 6, -16
	movq	%rsp, %rbp
	.seh_setframe	%rbp, 0
	.cfi_def_cfa_register 6
	subq	$32, %rsp
	.seh_stackalloc	32
	.seh_endprologue
	movq	%rcx, 16(%rbp)
.LBB6:
	.loc 2 8 7
	leaq	16+_ZTV19AtmosferaUsStandard(%rip), %rdx
	movq	16(%rbp), %rax
	movq	%rdx, (%rax)
	movq	16(%rbp), %rax
	movq	%rax, %rcx
	call	_ZN9AtmosferaD2Ev
.LBE6:
	nop
	addq	$32, %rsp
	popq	%rbp
	.cfi_restore 6
	.cfi_def_cfa 7, 8
	ret
	.cfi_endproc
.LFE1539:
	.seh_endproc
	.section	.text$_ZN19AtmosferaUsStandardD0Ev,"x"
	.linkonce discard
	.align 2
	.globl	_ZN19AtmosferaUsStandardD0Ev
	.def	_ZN19AtmosferaUsStandardD0Ev;	.scl	2;	.type	32;	.endef
	.seh_proc	_ZN19AtmosferaUsStandardD0Ev
_ZN19AtmosferaUsStandardD0Ev:
.LFB1540:
	.loc 2 8 7
	.cfi_startproc
	pushq	%rbp
	.seh_pushreg	%rbp
	.cfi_def_cfa_offset 16
	.cfi_offset 6, -16
	movq	%rsp, %rbp
	.seh_setframe	%rbp, 0
	.cfi_def_cfa_register 6
	subq	$32, %rsp
	.seh_stackalloc	32
	.seh_endprologue
	movq	%rcx, 16(%rbp)
	.loc 2 8 7
	movq	16(%rbp), %rcx
	call	_ZN19AtmosferaUsStandardD1Ev
	movq	16(%rbp), %rcx
	call	_ZdlPv
	nop
	addq	$32, %rsp
	popq	%rbp
	.cfi_restore 6
	.cfi_def_cfa 7, 8
	ret
	.cfi_endproc
.LFE1540:
	.seh_endproc
	.globl	_ZTV9Atmosfera
	.section	.rdata$_ZTV9Atmosfera,"dr"
	.linkonce same_size
	.align 8
_ZTV9Atmosfera:
	.quad	0
	.quad	_ZTI9Atmosfera
	.quad	0
	.quad	0
	.quad	__cxa_pure_virtual
	.quad	__cxa_pure_virtual
	.quad	__cxa_pure_virtual
	.quad	__cxa_pure_virtual
	.globl	_ZTV10BaseObject
	.section	.rdata$_ZTV10BaseObject,"dr"
	.linkonce same_size
	.align 8
_ZTV10BaseObject:
	.quad	0
	.quad	_ZTI10BaseObject
	.quad	_ZN10BaseObjectD1Ev
	.quad	_ZN10BaseObjectD0Ev
	.globl	_ZTI19AtmosferaUsStandard
	.section	.rdata$_ZTI19AtmosferaUsStandard,"dr"
	.linkonce same_size
	.align 8
_ZTI19AtmosferaUsStandard:
	.quad	_ZTVN10__cxxabiv120__si_class_type_infoE+16
	.quad	_ZTS19AtmosferaUsStandard
	.quad	_ZTI9Atmosfera
	.globl	_ZTS19AtmosferaUsStandard
	.section	.rdata$_ZTS19AtmosferaUsStandard,"dr"
	.linkonce same_size
	.align 16
_ZTS19AtmosferaUsStandard:
	.ascii "19AtmosferaUsStandard\0"
	.globl	_ZTI9Atmosfera
	.section	.rdata$_ZTI9Atmosfera,"dr"
	.linkonce same_size
	.align 8
_ZTI9Atmosfera:
	.quad	_ZTVN10__cxxabiv120__si_class_type_infoE+16
	.quad	_ZTS9Atmosfera
	.quad	_ZTI10BaseObject
	.globl	_ZTS9Atmosfera
	.section	.rdata$_ZTS9Atmosfera,"dr"
	.linkonce same_size
	.align 8
_ZTS9Atmosfera:
	.ascii "9Atmosfera\0"
	.globl	_ZTI10BaseObject
	.section	.rdata$_ZTI10BaseObject,"dr"
	.linkonce same_size
	.align 8
_ZTI10BaseObject:
	.quad	_ZTVN10__cxxabiv117__class_type_infoE+16
	.quad	_ZTS10BaseObject
	.globl	_ZTS10BaseObject
	.section	.rdata$_ZTS10BaseObject,"dr"
	.linkonce same_size
	.align 8
_ZTS10BaseObject:
	.ascii "10BaseObject\0"
	.section .rdata,"dr"
	.align 8
.LC1:
	.long	0
	.long	1072693248
	.align 8
.LC2:
	.long	1717986918
	.long	1081213542
	.align 8
.LC3:
	.long	1333990399
	.long	-1091256495
	.align 8
.LC4:
	.long	1921836374
	.long	-1088739206
	.align 8
.LC5:
	.long	-1717986918
	.long	1072929177
	.align 8
.LC6:
	.long	-858993459
	.long	1073532108
	.align 8
.LC7:
	.long	756189122
	.long	1076755577
	.text
.Letext0:
	.file 5 "C:/Program Files/CodeBlocks/MinGW/lib/gcc/x86_64-w64-mingw32/8.1.0/include/c++/bits/basic_string.h"
	.file 6 "C:/Program Files/CodeBlocks/MinGW/lib/gcc/x86_64-w64-mingw32/8.1.0/include/c++/bits/basic_string.tcc"
	.file 7 "C:/Program Files/CodeBlocks/MinGW/lib/gcc/x86_64-w64-mingw32/8.1.0/include/c++/type_traits"
	.file 8 "C:/Program Files/CodeBlocks/MinGW/lib/gcc/x86_64-w64-mingw32/8.1.0/include/c++/bits/stl_pair.h"
	.file 9 "C:/Program Files/CodeBlocks/MinGW/lib/gcc/x86_64-w64-mingw32/8.1.0/include/c++/bits/cpp_type_traits.h"
	.file 10 "C:/Program Files/CodeBlocks/MinGW/lib/gcc/x86_64-w64-mingw32/8.1.0/include/c++/bits/stl_iterator_base_types.h"
	.file 11 "C:/Program Files/CodeBlocks/MinGW/lib/gcc/x86_64-w64-mingw32/8.1.0/include/c++/debug/debug.h"
	.file 12 "C:/Program Files/CodeBlocks/MinGW/lib/gcc/x86_64-w64-mingw32/8.1.0/include/c++/cwchar"
	.file 13 "C:/Program Files/CodeBlocks/MinGW/lib/gcc/x86_64-w64-mingw32/8.1.0/include/c++/bits/char_traits.h"
	.file 14 "C:/Program Files/CodeBlocks/MinGW/lib/gcc/x86_64-w64-mingw32/8.1.0/include/c++/bits/stringfwd.h"
	.file 15 "C:/Program Files/CodeBlocks/MinGW/lib/gcc/x86_64-w64-mingw32/8.1.0/include/c++/x86_64-w64-mingw32/bits/c++config.h"
	.file 16 "C:/Program Files/CodeBlocks/MinGW/lib/gcc/x86_64-w64-mingw32/8.1.0/include/c++/cstdint"
	.file 17 "C:/Program Files/CodeBlocks/MinGW/lib/gcc/x86_64-w64-mingw32/8.1.0/include/c++/bits/exception_ptr.h"
	.file 18 "C:/Program Files/CodeBlocks/MinGW/lib/gcc/x86_64-w64-mingw32/8.1.0/include/c++/new"
	.file 19 "C:/Program Files/CodeBlocks/MinGW/lib/gcc/x86_64-w64-mingw32/8.1.0/include/c++/bits/allocator.h"
	.file 20 "C:/Program Files/CodeBlocks/MinGW/lib/gcc/x86_64-w64-mingw32/8.1.0/include/c++/clocale"
	.file 21 "C:/Program Files/CodeBlocks/MinGW/lib/gcc/x86_64-w64-mingw32/8.1.0/include/c++/cstdlib"
	.file 22 "C:/Program Files/CodeBlocks/MinGW/lib/gcc/x86_64-w64-mingw32/8.1.0/include/c++/cstdio"
	.file 23 "C:/Program Files/CodeBlocks/MinGW/lib/gcc/x86_64-w64-mingw32/8.1.0/include/c++/bits/alloc_traits.h"
	.file 24 "C:/Program Files/CodeBlocks/MinGW/lib/gcc/x86_64-w64-mingw32/8.1.0/include/c++/initializer_list"
	.file 25 "C:/Program Files/CodeBlocks/MinGW/lib/gcc/x86_64-w64-mingw32/8.1.0/include/c++/cmath"
	.file 26 "C:/Program Files/CodeBlocks/MinGW/lib/gcc/x86_64-w64-mingw32/8.1.0/include/c++/bits/std_abs.h"
	.file 27 "C:/Program Files/CodeBlocks/MinGW/lib/gcc/x86_64-w64-mingw32/8.1.0/include/c++/bits/stl_iterator_base_funcs.h"
	.file 28 "C:/Program Files/CodeBlocks/MinGW/lib/gcc/x86_64-w64-mingw32/8.1.0/include/c++/bits/predefined_ops.h"
	.file 29 "C:/Program Files/CodeBlocks/MinGW/lib/gcc/x86_64-w64-mingw32/8.1.0/include/c++/ext/new_allocator.h"
	.file 30 "C:/Program Files/CodeBlocks/MinGW/lib/gcc/x86_64-w64-mingw32/8.1.0/include/c++/ext/numeric_traits.h"
	.file 31 "C:/Program Files/CodeBlocks/MinGW/lib/gcc/x86_64-w64-mingw32/8.1.0/include/c++/ext/alloc_traits.h"
	.file 32 "C:/Program Files/CodeBlocks/MinGW/lib/gcc/x86_64-w64-mingw32/8.1.0/include/c++/bits/stl_iterator.h"
	.file 33 "C:/Program Files/CodeBlocks/MinGW/lib/gcc/x86_64-w64-mingw32/8.1.0/include/c++/ext/type_traits.h"
	.file 34 "C:/Program Files/CodeBlocks/MinGW/x86_64-w64-mingw32/include/crtdefs.h"
	.file 35 "C:/Program Files/CodeBlocks/MinGW/x86_64-w64-mingw32/include/locale.h"
	.file 36 "C:/Program Files/CodeBlocks/MinGW/x86_64-w64-mingw32/include/wchar.h"
	.file 37 "C:/Program Files/CodeBlocks/MinGW/x86_64-w64-mingw32/include/swprintf.inl"
	.file 38 "C:/Program Files/CodeBlocks/MinGW/x86_64-w64-mingw32/include/stdint.h"
	.file 39 "C:/Program Files/CodeBlocks/MinGW/x86_64-w64-mingw32/include/stdio.h"
	.file 40 "C:/Program Files/CodeBlocks/MinGW/x86_64-w64-mingw32/include/ctype.h"
	.file 41 "C:/Program Files/CodeBlocks/MinGW/x86_64-w64-mingw32/include/process.h"
	.file 42 "C:/Program Files/CodeBlocks/MinGW/x86_64-w64-mingw32/include/pthread.h"
	.file 43 "C:/Program Files/CodeBlocks/MinGW/x86_64-w64-mingw32/include/stdlib.h"
	.file 44 "C:/Program Files/CodeBlocks/MinGW/x86_64-w64-mingw32/include/malloc.h"
	.file 45 "C:/Program Files/CodeBlocks/MinGW/x86_64-w64-mingw32/include/math.h"
	.file 46 "C:/Program Files/CodeBlocks/MinGW/lib/gcc/x86_64-w64-mingw32/8.1.0/include/c++/math.h"
	.file 47 "<built-in>"