	.file	"calculadorPontoMassaModificado1990.cpp"
	.text
.Ltext0:
	.cfi_sections	.debug_frame
	.section .rdata,"dr"
_ZStL19piecewise_construct:
	.space 1
	.section	.text$_ZnwyPv,"x"
	.linkonce discard
	.globl	_ZnwyPv
	.def	_ZnwyPv;	.scl	2;	.type	32;	.endef
	.seh_proc	_ZnwyPv
_ZnwyPv:
.LFB697:
	.file 1 "C:/Program Files/CodeBlocks/MinGW/lib/gcc/x86_64-w64-mingw32/8.1.0/include/c++/new"
	.loc 1 169 1
	.cfi_startproc
	pushq	%rbp
	.seh_pushreg	%rbp
	.cfi_def_cfa_offset 16
	.cfi_offset 6, -16
	movq	%rsp, %rbp
	.seh_setframe	%rbp, 0
	.cfi_def_cfa_register 6
	.seh_endprologue
	movq	%rcx, 16(%rbp)
	movq	%rdx, 24(%rbp)
	.loc 1 169 10
	movq	24(%rbp), %rax
	.loc 1 169 15
	popq	%rbp
	.cfi_restore 6
	.cfi_def_cfa 7, 8
	ret
	.cfi_endproc
.LFE697:
	.seh_endproc
	.text
	.def	_ZL6printfPKcz;	.scl	3;	.type	32;	.endef
	.seh_proc	_ZL6printfPKcz
_ZL6printfPKcz:
.LFB740:
	.file 2 "C:/Program Files/CodeBlocks/MinGW/x86_64-w64-mingw32/include/stdio.h"
	.loc 2 346 1
	.cfi_startproc
	pushq	%rbp
	.seh_pushreg	%rbp
	.cfi_def_cfa_offset 16
	.cfi_offset 6, -16
	pushq	%rbx
	.seh_pushreg	%rbx
	.cfi_def_cfa_offset 24
	.cfi_offset 3, -24
	subq	$56, %rsp
	.seh_stackalloc	56
	.cfi_def_cfa_offset 80
	leaq	128(%rsp), %rbp
	.seh_setframe	%rbp, 128
	.cfi_def_cfa 6, -48
	.seh_endprologue
	movq	%rcx, -48(%rbp)
	movq	%rdx, -40(%rbp)
	movq	%r8, -32(%rbp)
	movq	%r9, -24(%rbp)
	.loc 2 348 53
	leaq	-40(%rbp), %rax
	movq	%rax, -96(%rbp)
	.loc 2 349 30
	movq	-96(%rbp), %rbx
	movl	$1, %ecx
	movq	__imp___acrt_iob_func(%rip), %rax
	call	*%rax
.LVL0:
	movq	%rbx, %r8
	movq	-48(%rbp), %rdx
	movq	%rax, %rcx
	call	__mingw_vfprintf
	movl	%eax, -84(%rbp)
	.loc 2 351 10
	movl	-84(%rbp), %eax
	.loc 2 352 1
	addq	$56, %rsp
	popq	%rbx
	.cfi_restore 3
	popq	%rbp
	.cfi_restore 6
	.cfi_def_cfa 7, -40
	ret
	.cfi_endproc
.LFE740:
	.seh_endproc
	.section .rdata,"dr"
_ZStL13allocator_arg:
	.space 1
_ZStL6ignore:
	.space 1
	.section	.text$_ZN10BaseObjectD2Ev,"x"
	.linkonce discard
	.align 2
	.globl	_ZN10BaseObjectD2Ev
	.def	_ZN10BaseObjectD2Ev;	.scl	2;	.type	32;	.endef
	.seh_proc	_ZN10BaseObjectD2Ev
_ZN10BaseObjectD2Ev:
.LFB2363:
	.file 3 "C:/PFC 2021/ballisticKernelCpp/CalculadorNumerico/padroes/baseobject.h"
	.loc 3 8 17
	.cfi_startproc
	pushq	%rbp
	.seh_pushreg	%rbp
	.cfi_def_cfa_offset 16
	.cfi_offset 6, -16
	movq	%rsp, %rbp
	.seh_setframe	%rbp, 0
	.cfi_def_cfa_register 6
	.seh_endprologue
	movq	%rcx, 16(%rbp)
.LBB2:
	.loc 3 8 31
	leaq	16+_ZTV10BaseObject(%rip), %rdx
	movq	16(%rbp), %rax
	movq	%rdx, (%rax)
.LBE2:
	.loc 3 8 32
	nop
	popq	%rbp
	.cfi_restore 6
	.cfi_def_cfa 7, 8
	ret
	.cfi_endproc
.LFE2363:
	.seh_endproc
	.section	.text$_ZN10BaseObjectD1Ev,"x"
	.linkonce discard
	.align 2
	.globl	_ZN10BaseObjectD1Ev
	.def	_ZN10BaseObjectD1Ev;	.scl	2;	.type	32;	.endef
	.seh_proc	_ZN10BaseObjectD1Ev
_ZN10BaseObjectD1Ev:
.LFB2364:
	.loc 3 8 17
	.cfi_startproc
	pushq	%rbp
	.seh_pushreg	%rbp
	.cfi_def_cfa_offset 16
	.cfi_offset 6, -16
	movq	%rsp, %rbp
	.seh_setframe	%rbp, 0
	.cfi_def_cfa_register 6
	.seh_endprologue
	movq	%rcx, 16(%rbp)
.LBB3:
	.loc 3 8 31
	leaq	16+_ZTV10BaseObject(%rip), %rdx
	movq	16(%rbp), %rax
	movq	%rdx, (%rax)
.LBE3:
	.loc 3 8 32
	nop
	popq	%rbp
	.cfi_restore 6
	.cfi_def_cfa 7, 8
	ret
	.cfi_endproc
.LFE2364:
	.seh_endproc
	.section	.text$_ZN10BaseObjectD0Ev,"x"
	.linkonce discard
	.align 2
	.globl	_ZN10BaseObjectD0Ev
	.def	_ZN10BaseObjectD0Ev;	.scl	2;	.type	32;	.endef
	.seh_proc	_ZN10BaseObjectD0Ev
_ZN10BaseObjectD0Ev:
.LFB2365:
	.loc 3 8 17
	.cfi_startproc
	pushq	%rbp
	.seh_pushreg	%rbp
	.cfi_def_cfa_offset 16
	.cfi_offset 6, -16
	movq	%rsp, %rbp
	.seh_setframe	%rbp, 0
	.cfi_def_cfa_register 6
	subq	$32, %rsp
	.seh_stackalloc	32
	.seh_endprologue
	movq	%rcx, 16(%rbp)
	.loc 3 8 32
	movq	16(%rbp), %rcx
	call	_ZN10BaseObjectD1Ev
	movq	16(%rbp), %rcx
	call	_ZdlPv
	nop
	addq	$32, %rsp
	popq	%rbp
	.cfi_restore 6
	.cfi_def_cfa 7, 8
	ret
	.cfi_endproc
.LFE2365:
	.seh_endproc
	.section	.text$_ZN12ElementosVoo8setArMaxEd,"x"
	.linkonce discard
	.align 2
	.globl	_ZN12ElementosVoo8setArMaxEd
	.def	_ZN12ElementosVoo8setArMaxEd;	.scl	2;	.type	32;	.endef
	.seh_proc	_ZN12ElementosVoo8setArMaxEd
_ZN12ElementosVoo8setArMaxEd:
.LFB2561:
	.file 4 "C:/PFC 2021/ballisticKernelCpp/CalculadorNumerico/calculador/elementosvoo.h"
	.loc 4 11 10
	.cfi_startproc
	pushq	%rbp
	.seh_pushreg	%rbp
	.cfi_def_cfa_offset 16
	.cfi_offset 6, -16
	movq	%rsp, %rbp
	.seh_setframe	%rbp, 0
	.cfi_def_cfa_register 6
	.seh_endprologue
	movq	%rcx, 16(%rbp)
	movsd	%xmm1, 24(%rbp)
	.loc 4 11 47
	movq	16(%rbp), %rax
	movsd	24(%rbp), %xmm0
	movsd	%xmm0, 72(%rax)
	.loc 4 11 56
	nop
	popq	%rbp
	.cfi_restore 6
	.cfi_def_cfa 7, 8
	ret
	.cfi_endproc
.LFE2561:
	.seh_endproc
	.section	.text$_ZN12ElementosVoo12setAlturaMaxEd,"x"
	.linkonce discard
	.align 2
	.globl	_ZN12ElementosVoo12setAlturaMaxEd
	.def	_ZN12ElementosVoo12setAlturaMaxEd;	.scl	2;	.type	32;	.endef
	.seh_proc	_ZN12ElementosVoo12setAlturaMaxEd
_ZN12ElementosVoo12setAlturaMaxEd:
.LFB2562:
	.loc 4 12 10
	.cfi_startproc
	pushq	%rbp
	.seh_pushreg	%rbp
	.cfi_def_cfa_offset 16
	.cfi_offset 6, -16
	movq	%rsp, %rbp
	.seh_setframe	%rbp, 0
	.cfi_def_cfa_register 6
	.seh_endprologue
	movq	%rcx, 16(%rbp)
	movsd	%xmm1, 24(%rbp)
	.loc 4 12 59
	movq	16(%rbp), %rax
	movsd	24(%rbp), %xmm0
	movsd	%xmm0, 64(%rax)
	.loc 4 12 72
	nop
	popq	%rbp
	.cfi_restore 6
	.cfi_def_cfa 7, 8
	ret
	.cfi_endproc
.LFE2562:
	.seh_endproc
	.section	.text$_ZN8Projetil5getIxEv,"x"
	.linkonce discard
	.align 2
	.globl	_ZN8Projetil5getIxEv
	.def	_ZN8Projetil5getIxEv;	.scl	2;	.type	32;	.endef
	.seh_proc	_ZN8Projetil5getIxEv
_ZN8Projetil5getIxEv:
.LFB2580:
	.file 5 "C:/PFC 2021/ballisticKernelCpp/CalculadorNumerico/projetil/projetil.h"
	.loc 5 18 16
	.cfi_startproc
	pushq	%rbp
	.seh_pushreg	%rbp
	.cfi_def_cfa_offset 16
	.cfi_offset 6, -16
	movq	%rsp, %rbp
	.seh_setframe	%rbp, 0
	.cfi_def_cfa_register 6
	.seh_endprologue
	movq	%rcx, 16(%rbp)
	.loc 5 18 31
	movq	16(%rbp), %rax
	movsd	80(%rax), %xmm0
	movq	%xmm0, %rax
	.loc 5 18 34
	movq	%rax, %xmm0
	popq	%rbp
	.cfi_restore 6
	.cfi_def_cfa 7, 8
	ret
	.cfi_endproc
.LFE2580:
	.seh_endproc
	.text
	.align 2
	.globl	_ZN34CalculadorPontoMassaModificado1990C2Ev
	.def	_ZN34CalculadorPontoMassaModificado1990C2Ev;	.scl	2;	.type	32;	.endef
	.seh_proc	_ZN34CalculadorPontoMassaModificado1990C2Ev
_ZN34CalculadorPontoMassaModificado1990C2Ev:
.LFB2638:
	.file 6 "C:/PFC 2021/ballisticKernelCpp/CalculadorNumerico/calculador/calculadorPontoMassaModificado1990.cpp"
	.loc 6 7 1
	.cfi_startproc
	pushq	%rbp
	.seh_pushreg	%rbp
	.cfi_def_cfa_offset 16
	.cfi_offset 6, -16
	movq	%rsp, %rbp
	.seh_setframe	%rbp, 0
	.cfi_def_cfa_register 6
	subq	$32, %rsp
	.seh_stackalloc	32
	.seh_endprologue
	movq	%rcx, 16(%rbp)
.LBB4:
	.loc 6 7 72
	movq	16(%rbp), %rax
	movq	%rax, %rcx
	call	_ZN30CalculadorPontoMassaModificadoC2Ev
	leaq	16+_ZTV34CalculadorPontoMassaModificado1990(%rip), %rdx
	movq	16(%rbp), %rax
	movq	%rdx, (%rax)
.LBE4:
	.loc 6 10 1
	nop
	addq	$32, %rsp
	popq	%rbp
	.cfi_restore 6
	.cfi_def_cfa 7, 8
	ret
	.cfi_endproc
.LFE2638:
	.seh_endproc
	.globl	_ZN34CalculadorPontoMassaModificado1990C1Ev
	.def	_ZN34CalculadorPontoMassaModificado1990C1Ev;	.scl	2;	.type	32;	.endef
	.set	_ZN34CalculadorPontoMassaModificado1990C1Ev,_ZN34CalculadorPontoMassaModificado1990C2Ev
	.section	.text$_ZSt3powIdiEN9__gnu_cxx11__promote_2IT_T0_NS0_9__promoteIS2_XsrSt12__is_integerIS2_E7__valueEE6__typeENS4_IS3_XsrS5_IS3_E7__valueEE6__typeEE6__typeES2_S3_,"x"
	.linkonce discard
	.globl	_ZSt3powIdiEN9__gnu_cxx11__promote_2IT_T0_NS0_9__promoteIS2_XsrSt12__is_integerIS2_E7__valueEE6__typeENS4_IS3_XsrS5_IS3_E7__valueEE6__typeEE6__typeES2_S3_
	.def	_ZSt3powIdiEN9__gnu_cxx11__promote_2IT_T0_NS0_9__promoteIS2_XsrSt12__is_integerIS2_E7__valueEE6__typeENS4_IS3_XsrS5_IS3_E7__valueEE6__typeEE6__typeES2_S3_;	.scl	2;	.type	32;	.endef
	.seh_proc	_ZSt3powIdiEN9__gnu_cxx11__promote_2IT_T0_NS0_9__promoteIS2_XsrSt12__is_integerIS2_E7__valueEE6__typeENS4_IS3_XsrS5_IS3_E7__valueEE6__typeEE6__typeES2_S3_
_ZSt3powIdiEN9__gnu_cxx11__promote_2IT_T0_NS0_9__promoteIS2_XsrSt12__is_integerIS2_E7__valueEE6__typeENS4_IS3_XsrS5_IS3_E7__valueEE6__typeEE6__typeES2_S3_:
.LFB2641:
	.file 7 "C:/Program Files/CodeBlocks/MinGW/lib/gcc/x86_64-w64-mingw32/8.1.0/include/c++/cmath"
	.loc 7 415 5
	.cfi_startproc
	pushq	%rbp
	.seh_pushreg	%rbp
	.cfi_def_cfa_offset 16
	.cfi_offset 6, -16
	movq	%rsp, %rbp
	.seh_setframe	%rbp, 0
	.cfi_def_cfa_register 6
	subq	$32, %rsp
	.seh_stackalloc	32
	.seh_endprologue
	movsd	%xmm0, 16(%rbp)
	movl	%edx, 24(%rbp)
	.loc 7 418 17
	cvtsi2sd	24(%rbp), %xmm0
	movapd	%xmm0, %xmm1
	movsd	16(%rbp), %xmm0
	call	pow
	movq	%xmm0, %rax
	.loc 7 419 5
	movq	%rax, %xmm0
	addq	$32, %rsp
	popq	%rbp
	.cfi_restore 6
	.cfi_def_cfa 7, 8
	ret
	.cfi_endproc
.LFE2641:
	.seh_endproc
	.text
	.align 2
	.globl	_ZN34CalculadorPontoMassaModificado19904ar_xEddddddd
	.def	_ZN34CalculadorPontoMassaModificado19904ar_xEddddddd;	.scl	2;	.type	32;	.endef
	.seh_proc	_ZN34CalculadorPontoMassaModificado19904ar_xEddddddd
_ZN34CalculadorPontoMassaModificado19904ar_xEddddddd:
.LFB2640:
	.loc 6 26 1
	.cfi_startproc
	pushq	%rbp
	.seh_pushreg	%rbp
	.cfi_def_cfa_offset 16
	.cfi_offset 6, -16
	pushq	%rbx
	.seh_pushreg	%rbx
	.cfi_def_cfa_offset 24
	.cfi_offset 3, -24
	subq	$104, %rsp
	.seh_stackalloc	104
	.cfi_def_cfa_offset 128
	leaq	128(%rsp), %rbp
	.seh_setframe	%rbp, 128
	.cfi_def_cfa 6, 0
	movaps	%xmm6, -64(%rbp)
	.seh_savexmm	%xmm6, 64
	movaps	%xmm7, -48(%rbp)
	.seh_savexmm	%xmm7, 80
	.cfi_offset 23, -64
	.cfi_offset 24, -48
	.seh_endprologue
	movq	%rcx, 0(%rbp)
	movsd	%xmm1, 8(%rbp)
	movsd	%xmm2, 16(%rbp)
	movsd	%xmm3, 24(%rbp)
	.loc 6 27 24
	movq	0(%rbp), %rbx
	.loc 6 27 90
	movq	0(%rbp), %rax
	movsd	32(%rbp), %xmm0
	movapd	%xmm0, %xmm1
	movq	%rax, %rcx
	call	_ZN21CalculadorAtmosferico19getVentoTransversalEd
	movapd	%xmm0, %xmm1
	.loc 6 27 24
	movsd	24(%rbp), %xmm0
	movapd	%xmm0, %xmm6
	subsd	%xmm1, %xmm6
	.loc 6 27 50
	movq	0(%rbp), %rax
	movsd	32(%rbp), %xmm0
	movapd	%xmm0, %xmm1
	movq	%rax, %rcx
	call	_ZN21CalculadorAtmosferico20getVentoLongitudinalEd
	movapd	%xmm0, %xmm1
	.loc 6 27 24
	movsd	8(%rbp), %xmm0
	subsd	%xmm1, %xmm0
	movsd	16(%rbp), %xmm1
	movapd	%xmm6, %xmm3
	movapd	%xmm1, %xmm2
	movapd	%xmm0, %xmm1
	movq	%rbx, %rcx
	call	_ZN10Calculador1vEddd
	movq	%xmm0, %rax
	movq	%rax, -72(%rbp)
	.loc 6 28 26
	movq	0(%rbp), %rax
	movsd	24(%rbp), %xmm2
	movsd	16(%rbp), %xmm1
	movsd	8(%rbp), %xmm0
	movapd	%xmm2, %xmm3
	movapd	%xmm1, %xmm2
	movapd	%xmm0, %xmm1
	movq	%rax, %rcx
	call	_ZN10Calculador1vEddd
	movq	%xmm0, %rax
	movq	%rax, -80(%rbp)
	.loc 6 29 28
	movq	0(%rbp), %rax
	movsd	32(%rbp), %xmm1
	movsd	-80(%rbp), %xmm0
	movapd	%xmm1, %xmm2
	movapd	%xmm0, %xmm1
	movq	%rax, %rcx
	call	_ZN21CalculadorAtmosferico8vel_machEdd
	movq	%xmm0, %rax
	movq	%rax, -88(%rbp)
	.loc 6 30 43
	movq	0(%rbp), %rax
	movsd	48(%rbp), %xmm1
	movsd	-88(%rbp), %xmm0
	movapd	%xmm1, %xmm2
	movapd	%xmm0, %xmm1
	movq	%rax, %rcx
	call	_ZN30CalculadorPontoMassaModificado25getOverturningMomentTotalEdd
	movq	%xmm0, %rax
	movq	%rax, -96(%rbp)
	.loc 6 32 18
	movq	0(%rbp), %rax
	movsd	32(%rbp), %xmm0
	movapd	%xmm0, %xmm1
	movq	%rax, %rcx
	call	_ZN10Calculador5gravyEd
	movapd	%xmm0, %xmm6
	.loc 6 32 54
	movq	0(%rbp), %rax
	movsd	32(%rbp), %xmm0
	movapd	%xmm0, %xmm1
	movq	%rax, %rcx
	call	_ZN21CalculadorAtmosferico19getVentoTransversalEd
	movapd	%xmm0, %xmm1
	.loc 6 32 33
	movsd	24(%rbp), %xmm0
	subsd	%xmm1, %xmm0
	.loc 6 32 28
	mulsd	%xmm0, %xmm6
	.loc 6 32 73
	movq	0(%rbp), %rax
	movsd	40(%rbp), %xmm0
	movapd	%xmm0, %xmm1
	movq	%rax, %rcx
	call	_ZN10Calculador5gravzEd
	.loc 6 32 82
	mulsd	16(%rbp), %xmm0
	.loc 6 32 66
	subsd	%xmm0, %xmm6
	.loc 6 32 104
	movq	0(%rbp), %rax
	addq	$96, %rax
	movq	%rax, %rcx
	call	_ZN8Projetil5getIxEv
	.loc 6 32 89
	addsd	%xmm0, %xmm0
	.loc 6 32 106
	mulsd	56(%rbp), %xmm0
	.loc 6 32 86
	mulsd	%xmm0, %xmm6
	.loc 6 32 118
	movq	0(%rbp), %rax
	movq	232(%rax), %rdx
	movq	0(%rbp), %rax
	movq	232(%rax), %rax
	.loc 6 32 143
	movq	(%rax), %rax
	addq	$32, %rax
	movq	(%rax), %rax
	.loc 6 32 134
	movsd	32(%rbp), %xmm0
	movapd	%xmm0, %xmm1
	movq	%rdx, %rcx
	call	*%rax
.LVL1:
	movapd	%xmm0, %xmm1
	.loc 6 32 145
	movq	0(%rbp), %rax
	movsd	256(%rax), %xmm0
	.loc 6 32 144
	mulsd	%xmm0, %xmm1
	.loc 6 32 147
	movq	0(%rbp), %rax
	movsd	248(%rax), %xmm0
	.loc 6 32 146
	movapd	%xmm1, %xmm7
	mulsd	%xmm0, %xmm7
	.loc 6 32 159
	movq	-72(%rbp), %rax
	movl	$4, %edx
	movq	%rax, %xmm0
	call	_ZSt3powIdiEN9__gnu_cxx11__promote_2IT_T0_NS0_9__promoteIS2_XsrSt12__is_integerIS2_E7__valueEE6__typeENS4_IS3_XsrS5_IS3_E7__valueEE6__typeEE6__typeES2_S3_
	.loc 6 32 155
	mulsd	%xmm7, %xmm0
	.loc 6 32 172
	mulsd	-96(%rbp), %xmm0
	.loc 6 32 176
	divsd	%xmm0, %xmm6
	movapd	%xmm6, %xmm0
	movq	%xmm0, %rax
	.loc 6 33 1
	movq	%rax, %xmm0
	movaps	-64(%rbp), %xmm6
	movaps	-48(%rbp), %xmm7
	addq	$104, %rsp
	.cfi_restore 24
	.cfi_restore 23
	popq	%rbx
	.cfi_restore 3
	popq	%rbp
	.cfi_restore 6
	.cfi_def_cfa 7, -88
	ret
	.cfi_endproc
.LFE2640:
	.seh_endproc
	.align 2
	.globl	_ZN34CalculadorPontoMassaModificado19904ar_yEdddddddd
	.def	_ZN34CalculadorPontoMassaModificado19904ar_yEdddddddd;	.scl	2;	.type	32;	.endef
	.seh_proc	_ZN34CalculadorPontoMassaModificado19904ar_yEdddddddd
_ZN34CalculadorPontoMassaModificado19904ar_yEdddddddd:
.LFB2642:
	.loc 6 49 1
	.cfi_startproc
	pushq	%rbp
	.seh_pushreg	%rbp
	.cfi_def_cfa_offset 16
	.cfi_offset 6, -16
	pushq	%rbx
	.seh_pushreg	%rbx
	.cfi_def_cfa_offset 24
	.cfi_offset 3, -24
	subq	$104, %rsp
	.seh_stackalloc	104
	.cfi_def_cfa_offset 128
	leaq	128(%rsp), %rbp
	.seh_setframe	%rbp, 128
	.cfi_def_cfa 6, 0
	movaps	%xmm6, -64(%rbp)
	.seh_savexmm	%xmm6, 64
	movaps	%xmm7, -48(%rbp)
	.seh_savexmm	%xmm7, 80
	.cfi_offset 23, -64
	.cfi_offset 24, -48
	.seh_endprologue
	movq	%rcx, 0(%rbp)
	movsd	%xmm1, 8(%rbp)
	movsd	%xmm2, 16(%rbp)
	movsd	%xmm3, 24(%rbp)
	.loc 6 50 24
	movq	0(%rbp), %rbx
	.loc 6 50 90
	movq	0(%rbp), %rax
	movsd	40(%rbp), %xmm0
	movapd	%xmm0, %xmm1
	movq	%rax, %rcx
	call	_ZN21CalculadorAtmosferico19getVentoTransversalEd
	movapd	%xmm0, %xmm1
	.loc 6 50 24
	movsd	24(%rbp), %xmm0
	movapd	%xmm0, %xmm6
	subsd	%xmm1, %xmm6
	.loc 6 50 50
	movq	0(%rbp), %rax
	movsd	40(%rbp), %xmm0
	movapd	%xmm0, %xmm1
	movq	%rax, %rcx
	call	_ZN21CalculadorAtmosferico20getVentoLongitudinalEd
	movapd	%xmm0, %xmm1
	.loc 6 50 24
	movsd	8(%rbp), %xmm0
	subsd	%xmm1, %xmm0
	movsd	16(%rbp), %xmm1
	movapd	%xmm6, %xmm3
	movapd	%xmm1, %xmm2
	movapd	%xmm0, %xmm1
	movq	%rbx, %rcx
	call	_ZN10Calculador1vEddd
	movq	%xmm0, %rax
	movq	%rax, -72(%rbp)
	.loc 6 51 26
	movq	0(%rbp), %rax
	movsd	24(%rbp), %xmm2
	movsd	16(%rbp), %xmm1
	movsd	8(%rbp), %xmm0
	movapd	%xmm2, %xmm3
	movapd	%xmm1, %xmm2
	movapd	%xmm0, %xmm1
	movq	%rax, %rcx
	call	_ZN10Calculador1vEddd
	movq	%xmm0, %rax
	movq	%rax, -80(%rbp)
	.loc 6 52 28
	movq	0(%rbp), %rax
	movsd	40(%rbp), %xmm1
	movsd	-80(%rbp), %xmm0
	movapd	%xmm1, %xmm2
	movapd	%xmm0, %xmm1
	movq	%rax, %rcx
	call	_ZN21CalculadorAtmosferico8vel_machEdd
	movq	%xmm0, %rax
	movq	%rax, -88(%rbp)
	.loc 6 53 43
	movq	0(%rbp), %rax
	movsd	56(%rbp), %xmm1
	movsd	-88(%rbp), %xmm0
	movapd	%xmm1, %xmm2
	movapd	%xmm0, %xmm1
	movq	%rax, %rcx
	call	_ZN30CalculadorPontoMassaModificado25getOverturningMomentTotalEdd
	movq	%xmm0, %rax
	movq	%rax, -96(%rbp)
	.loc 6 55 18
	movq	0(%rbp), %rax
	movsd	48(%rbp), %xmm0
	movapd	%xmm0, %xmm1
	movq	%rax, %rcx
	call	_ZN10Calculador5gravzEd
	movapd	%xmm0, %xmm6
	.loc 6 55 54
	movq	0(%rbp), %rax
	movsd	40(%rbp), %xmm0
	movapd	%xmm0, %xmm1
	movq	%rax, %rcx
	call	_ZN21CalculadorAtmosferico20getVentoLongitudinalEd
	movapd	%xmm0, %xmm1
	.loc 6 55 32
	movsd	8(%rbp), %xmm0
	subsd	%xmm1, %xmm0
	.loc 6 55 27
	mulsd	%xmm0, %xmm6
	.loc 6 55 73
	movq	0(%rbp), %rax
	movsd	32(%rbp), %xmm0
	movapd	%xmm0, %xmm1
	movq	%rax, %rcx
	call	_ZN10Calculador5gravxEd
	movapd	%xmm0, %xmm7
	.loc 6 55 110
	movq	0(%rbp), %rax
	movsd	40(%rbp), %xmm0
	movapd	%xmm0, %xmm1
	movq	%rax, %rcx
	call	_ZN21CalculadorAtmosferico19getVentoTransversalEd
	movapd	%xmm0, %xmm1
	.loc 6 55 89
	movsd	24(%rbp), %xmm0
	subsd	%xmm1, %xmm0
	.loc 6 55 84
	mulsd	%xmm7, %xmm0
	.loc 6 55 66
	subsd	%xmm0, %xmm6
	.loc 6 55 140
	movq	0(%rbp), %rax
	addq	$96, %rax
	movq	%rax, %rcx
	call	_ZN8Projetil5getIxEv
	.loc 6 55 125
	addsd	%xmm0, %xmm0
	.loc 6 55 142
	mulsd	64(%rbp), %xmm0
	.loc 6 55 122
	mulsd	%xmm0, %xmm6
	.loc 6 55 154
	movq	0(%rbp), %rax
	movq	232(%rax), %rdx
	movq	0(%rbp), %rax
	movq	232(%rax), %rax
	.loc 6 55 179
	movq	(%rax), %rax
	addq	$32, %rax
	movq	(%rax), %rax
	.loc 6 55 170
	movsd	40(%rbp), %xmm0
	movapd	%xmm0, %xmm1
	movq	%rdx, %rcx
	call	*%rax
.LVL2:
	movapd	%xmm0, %xmm1
	.loc 6 55 181
	movq	0(%rbp), %rax
	movsd	256(%rax), %xmm0
	.loc 6 55 180
	mulsd	%xmm0, %xmm1
	.loc 6 55 183
	movq	0(%rbp), %rax
	movsd	248(%rax), %xmm0
	.loc 6 55 182
	movapd	%xmm1, %xmm7
	mulsd	%xmm0, %xmm7
	.loc 6 55 195
	movq	-72(%rbp), %rax
	movl	$4, %edx
	movq	%rax, %xmm0
	call	_ZSt3powIdiEN9__gnu_cxx11__promote_2IT_T0_NS0_9__promoteIS2_XsrSt12__is_integerIS2_E7__valueEE6__typeENS4_IS3_XsrS5_IS3_E7__valueEE6__typeEE6__typeES2_S3_
	.loc 6 55 191
	mulsd	%xmm7, %xmm0
	.loc 6 55 208
	mulsd	-96(%rbp), %xmm0
	.loc 6 55 212
	divsd	%xmm0, %xmm6
	movapd	%xmm6, %xmm0
	movq	%xmm0, %rax
	.loc 6 58 1
	movq	%rax, %xmm0
	movaps	-64(%rbp), %xmm6
	movaps	-48(%rbp), %xmm7
	addq	$104, %rsp
	.cfi_restore 24
	.cfi_restore 23
	popq	%rbx
	.cfi_restore 3
	popq	%rbp
	.cfi_restore 6
	.cfi_def_cfa 7, -88
	ret
	.cfi_endproc
.LFE2642:
	.seh_endproc
	.align 2
	.globl	_ZN34CalculadorPontoMassaModificado19904ar_zEddddddd
	.def	_ZN34CalculadorPontoMassaModificado19904ar_zEddddddd;	.scl	2;	.type	32;	.endef
	.seh_proc	_ZN34CalculadorPontoMassaModificado19904ar_zEddddddd
_ZN34CalculadorPontoMassaModificado19904ar_zEddddddd:
.LFB2643:
	.loc 6 75 1
	.cfi_startproc
	pushq	%rbp
	.seh_pushreg	%rbp
	.cfi_def_cfa_offset 16
	.cfi_offset 6, -16
	pushq	%rbx
	.seh_pushreg	%rbx
	.cfi_def_cfa_offset 24
	.cfi_offset 3, -24
	subq	$104, %rsp
	.seh_stackalloc	104
	.cfi_def_cfa_offset 128
	leaq	128(%rsp), %rbp
	.seh_setframe	%rbp, 128
	.cfi_def_cfa 6, 0
	movaps	%xmm6, -64(%rbp)
	.seh_savexmm	%xmm6, 64
	movaps	%xmm7, -48(%rbp)
	.seh_savexmm	%xmm7, 80
	.cfi_offset 23, -64
	.cfi_offset 24, -48
	.seh_endprologue
	movq	%rcx, 0(%rbp)
	movsd	%xmm1, 8(%rbp)
	movsd	%xmm2, 16(%rbp)
	movsd	%xmm3, 24(%rbp)
	.loc 6 76 24
	movq	0(%rbp), %rbx
	.loc 6 76 90
	movq	0(%rbp), %rax
	movsd	40(%rbp), %xmm0
	movapd	%xmm0, %xmm1
	movq	%rax, %rcx
	call	_ZN21CalculadorAtmosferico19getVentoTransversalEd
	movapd	%xmm0, %xmm1
	.loc 6 76 24
	movsd	24(%rbp), %xmm0
	movapd	%xmm0, %xmm6
	subsd	%xmm1, %xmm6
	.loc 6 76 50
	movq	0(%rbp), %rax
	movsd	40(%rbp), %xmm0
	movapd	%xmm0, %xmm1
	movq	%rax, %rcx
	call	_ZN21CalculadorAtmosferico20getVentoLongitudinalEd
	movapd	%xmm0, %xmm1
	.loc 6 76 24
	movsd	8(%rbp), %xmm0
	subsd	%xmm1, %xmm0
	movsd	16(%rbp), %xmm1
	movapd	%xmm6, %xmm3
	movapd	%xmm1, %xmm2
	movapd	%xmm0, %xmm1
	movq	%rbx, %rcx
	call	_ZN10Calculador1vEddd
	movq	%xmm0, %rax
	movq	%rax, -72(%rbp)
	.loc 6 77 26
	movq	0(%rbp), %rax
	movsd	24(%rbp), %xmm2
	movsd	16(%rbp), %xmm1
	movsd	8(%rbp), %xmm0
	movapd	%xmm2, %xmm3
	movapd	%xmm1, %xmm2
	movapd	%xmm0, %xmm1
	movq	%rax, %rcx
	call	_ZN10Calculador1vEddd
	movq	%xmm0, %rax
	movq	%rax, -80(%rbp)
	.loc 6 78 28
	movq	0(%rbp), %rax
	movsd	40(%rbp), %xmm1
	movsd	-80(%rbp), %xmm0
	movapd	%xmm1, %xmm2
	movapd	%xmm0, %xmm1
	movq	%rax, %rcx
	call	_ZN21CalculadorAtmosferico8vel_machEdd
	movq	%xmm0, %rax
	movq	%rax, -88(%rbp)
	.loc 6 79 43
	movq	0(%rbp), %rax
	movsd	48(%rbp), %xmm1
	movsd	-88(%rbp), %xmm0
	movapd	%xmm1, %xmm2
	movapd	%xmm0, %xmm1
	movq	%rax, %rcx
	call	_ZN30CalculadorPontoMassaModificado25getOverturningMomentTotalEdd
	movq	%xmm0, %rax
	movq	%rax, -96(%rbp)
	.loc 6 81 18
	movq	0(%rbp), %rax
	movsd	32(%rbp), %xmm0
	movapd	%xmm0, %xmm1
	movq	%rax, %rcx
	call	_ZN10Calculador5gravxEd
	.loc 6 81 29
	movapd	%xmm0, %xmm6
	mulsd	16(%rbp), %xmm6
	.loc 6 81 40
	movq	0(%rbp), %rax
	movsd	40(%rbp), %xmm0
	movapd	%xmm0, %xmm1
	movq	%rax, %rcx
	call	_ZN10Calculador5gravyEd
	movapd	%xmm0, %xmm7
	.loc 6 81 77
	movq	0(%rbp), %rax
	movsd	40(%rbp), %xmm0
	movapd	%xmm0, %xmm1
	movq	%rax, %rcx
	call	_ZN21CalculadorAtmosferico20getVentoLongitudinalEd
	movapd	%xmm0, %xmm1
	.loc 6 81 55
	movsd	8(%rbp), %xmm0
	subsd	%xmm1, %xmm0
	.loc 6 81 50
	mulsd	%xmm7, %xmm0
	.loc 6 81 33
	subsd	%xmm0, %xmm6
	.loc 6 81 107
	movq	0(%rbp), %rax
	addq	$96, %rax
	movq	%rax, %rcx
	call	_ZN8Projetil5getIxEv
	.loc 6 81 92
	addsd	%xmm0, %xmm0
	.loc 6 81 109
	mulsd	56(%rbp), %xmm0
	.loc 6 81 89
	mulsd	%xmm0, %xmm6
	.loc 6 81 121
	movq	0(%rbp), %rax
	movq	232(%rax), %rdx
	movq	0(%rbp), %rax
	movq	232(%rax), %rax
	.loc 6 81 146
	movq	(%rax), %rax
	addq	$32, %rax
	movq	(%rax), %rax
	.loc 6 81 137
	movsd	40(%rbp), %xmm0
	movapd	%xmm0, %xmm1
	movq	%rdx, %rcx
	call	*%rax
.LVL3:
	movapd	%xmm0, %xmm1
	.loc 6 81 148
	movq	0(%rbp), %rax
	movsd	256(%rax), %xmm0
	.loc 6 81 147
	mulsd	%xmm0, %xmm1
	.loc 6 81 150
	movq	0(%rbp), %rax
	movsd	248(%rax), %xmm0
	.loc 6 81 149
	movapd	%xmm1, %xmm7
	mulsd	%xmm0, %xmm7
	.loc 6 81 162
	movq	-72(%rbp), %rax
	movl	$4, %edx
	movq	%rax, %xmm0
	call	_ZSt3powIdiEN9__gnu_cxx11__promote_2IT_T0_NS0_9__promoteIS2_XsrSt12__is_integerIS2_E7__valueEE6__typeENS4_IS3_XsrS5_IS3_E7__valueEE6__typeEE6__typeES2_S3_
	.loc 6 81 158
	mulsd	%xmm7, %xmm0
	.loc 6 81 175
	mulsd	-96(%rbp), %xmm0
	.loc 6 81 179
	divsd	%xmm0, %xmm6
	movapd	%xmm6, %xmm0
	movq	%xmm0, %rax
	.loc 6 83 1
	movq	%rax, %xmm0
	movaps	-64(%rbp), %xmm6
	movaps	-48(%rbp), %xmm7
	addq	$104, %rsp
	.cfi_restore 24
	.cfi_restore 23
	popq	%rbx
	.cfi_restore 3
	popq	%rbp
	.cfi_restore 6
	.cfi_def_cfa 7, -88
	ret
	.cfi_endproc
.LFE2643:
	.seh_endproc
	.section .rdata,"dr"
	.align 8
.LC9:
	.ascii "falha em sx = %f  sy = %f ang = %f\12\0"
	.text
	.align 2
	.globl	_ZN34CalculadorPontoMassaModificado199013solucaoDiretaEddddb4RAMO
	.def	_ZN34CalculadorPontoMassaModificado199013solucaoDiretaEddddb4RAMO;	.scl	2;	.type	32;	.endef
	.seh_proc	_ZN34CalculadorPontoMassaModificado199013solucaoDiretaEddddb4RAMO
_ZN34CalculadorPontoMassaModificado199013solucaoDiretaEddddb4RAMO:
.LFB2644:
	.loc 6 89 1
	.cfi_startproc
	pushq	%rbp
	.seh_pushreg	%rbp
	.cfi_def_cfa_offset 16
	.cfi_offset 6, -16
	pushq	%rbx
	.seh_pushreg	%rbx
	.cfi_def_cfa_offset 24
	.cfi_offset 3, -24
	subq	$808, %rsp
	.seh_stackalloc	808
	.cfi_def_cfa_offset 832
	leaq	128(%rsp), %rbp
	.seh_setframe	%rbp, 128
	.cfi_def_cfa 6, 704
	movaps	%xmm6, 624(%rbp)
	.seh_savexmm	%xmm6, 752
	movaps	%xmm7, 640(%rbp)
	.seh_savexmm	%xmm7, 768
	movaps	%xmm8, 656(%rbp)
	.seh_savexmm	%xmm8, 784
	.cfi_offset 23, -80
	.cfi_offset 24, -64
	.cfi_offset 25, -48
	.seh_endprologue
	movq	%rcx, 704(%rbp)
	movq	%rdx, 712(%rbp)
	movsd	%xmm2, 720(%rbp)
	movsd	%xmm3, 728(%rbp)
	movl	752(%rbp), %eax
	movb	%al, -20(%rbp)
	.loc 6 90 29
	movq	712(%rbp), %rax
	addq	$304, %rax
	movq	%rax, %rcx
	call	_ZNSt6vectorI12ElementosVooSaIS0_EE5clearEv
	.loc 6 91 8
	movq	712(%rbp), %rax
	pxor	%xmm0, %xmm0
	movsd	%xmm0, 328(%rax)
	.loc 6 91 17
	movq	712(%rbp), %rax
	pxor	%xmm0, %xmm0
	movsd	%xmm0, 336(%rax)
	.loc 6 91 27
	movq	712(%rbp), %rax
	pxor	%xmm0, %xmm0
	movsd	%xmm0, 344(%rax)
	.loc 6 91 45
	movq	712(%rbp), %rax
	pxor	%xmm0, %xmm0
	movsd	%xmm0, 400(%rax)
	.loc 6 92 23
	movsd	720(%rbp), %xmm1
	movsd	.LC1(%rip), %xmm0
	mulsd	%xmm1, %xmm0
	.loc 6 92 16
	movsd	.LC2(%rip), %xmm1
	divsd	%xmm1, %xmm0
	call	cos
	.loc 6 92 12
	mulsd	728(%rbp), %xmm0
	.loc 6 92 8
	movq	712(%rbp), %rax
	movsd	%xmm0, 352(%rax)
	.loc 6 92 73
	movsd	720(%rbp), %xmm1
	movsd	.LC1(%rip), %xmm0
	mulsd	%xmm1, %xmm0
	.loc 6 92 66
	movsd	.LC2(%rip), %xmm1
	divsd	%xmm1, %xmm0
	call	sin
	.loc 6 92 62
	mulsd	728(%rbp), %xmm0
	.loc 6 92 58
	movq	712(%rbp), %rax
	movsd	%xmm0, 360(%rax)
	.loc 6 92 108
	movq	712(%rbp), %rax
	pxor	%xmm0, %xmm0
	movsd	%xmm0, 368(%rax)
	.loc 6 93 11
	movq	712(%rbp), %rax
	pxor	%xmm0, %xmm0
	movsd	%xmm0, 376(%rax)
	.loc 6 94 25
	movq	712(%rbp), %rax
	movq	232(%rax), %rdx
	movq	712(%rbp), %rax
	movq	232(%rax), %rax
	.loc 6 94 47
	movq	(%rax), %rax
	addq	$24, %rax
	movq	(%rax), %rax
	.loc 6 94 45
	pxor	%xmm1, %xmm1
	movq	%rdx, %rcx
.LEHB0:
	call	*%rax
.LVL4:
	movq	%xmm0, %rdx
	.loc 6 94 23
	movq	712(%rbp), %rax
	movq	%rdx, 272(%rax)
	.loc 6 95 14
	movq	712(%rbp), %rax
	pxor	%xmm0, %xmm0
	movsd	%xmm0, 384(%rax)
	.loc 6 96 13
	movq	712(%rbp), %rax
	movb	$0, 392(%rax)
	.loc 6 97 20
	movq	712(%rbp), %rax
	movb	$0, 393(%rax)
	.loc 6 98 15
	movq	712(%rbp), %rax
	movb	$0, 394(%rax)
	.loc 6 99 16
	movq	712(%rbp), %rax
	pxor	%xmm0, %xmm0
	movsd	%xmm0, 408(%rax)
	.loc 6 100 12
	movq	712(%rbp), %rax
	pxor	%xmm0, %xmm0
	movsd	%xmm0, 416(%rax)
	.loc 6 102 47
	movq	712(%rbp), %rax
	movsd	744(%rbp), %xmm0
	movapd	%xmm0, %xmm1
	movq	%rax, %rcx
	call	_ZN10Calculador22intervaloEntreAmostrasEd
	movl	%eax, %edx
	.loc 6 102 23
	movq	712(%rbp), %rax
	movl	%edx, 72(%rax)
	.loc 6 104 18
	leaq	96(%rbp), %rax
	movq	%rax, %rcx
	call	_ZN12ElementosVooC1Ev
.LEHE0:
	.loc 6 105 21
	movq	712(%rbp), %rax
	movsd	376(%rax), %xmm4
	movq	712(%rbp), %rax
	movsd	368(%rax), %xmm3
	movq	712(%rbp), %rax
	movsd	360(%rax), %xmm2
	movq	712(%rbp), %rax
	movsd	352(%rax), %xmm1
	movq	712(%rbp), %rax
	movsd	344(%rax), %xmm0
	movq	712(%rbp), %rax
	movsd	336(%rax), %xmm7
	movq	712(%rbp), %rax
	movsd	328(%rax), %xmm6
	movsd	720(%rbp), %xmm5
	leaq	96(%rbp), %rax
	movsd	%xmm4, 72(%rsp)
	pxor	%xmm4, %xmm4
	movsd	%xmm4, 64(%rsp)
	movsd	%xmm3, 56(%rsp)
	movsd	%xmm2, 48(%rsp)
	movsd	%xmm1, 40(%rsp)
	movsd	%xmm0, 32(%rsp)
	movapd	%xmm7, %xmm3
	movapd	%xmm6, %xmm2
	movapd	%xmm5, %xmm1
	movq	%rax, %rcx
.LEHB1:
	call	_ZN12ElementosVoo3setEddddddddd
	.loc 6 106 33
	movq	712(%rbp), %rax
	leaq	304(%rax), %rcx
	leaq	96(%rbp), %rax
	movq	%rax, %rdx
	call	_ZNSt6vectorI12ElementosVooSaIS0_EE9push_backERKS0_
	.loc 6 107 43
	movq	712(%rbp), %rax
	movq	712(%rbp), %rdx
	movsd	80(%rdx), %xmm0
	movapd	%xmm0, %xmm1
	movq	%rax, %rcx
	call	_ZN10Calculador21calculaGravidadeLocalEd
	movq	%xmm0, %rdx
	.loc 6 107 20
	movq	712(%rbp), %rax
	movq	%rdx, 48(%rax)
	.loc 6 109 12
	movsd	744(%rbp), %xmm0
	movsd	%xmm0, 88(%rbp)
	.loc 6 110 49
	movsd	728(%rbp), %xmm1
	movsd	.LC3(%rip), %xmm0
	mulsd	%xmm1, %xmm0
	.loc 6 110 55
	movq	712(%rbp), %rax
	movl	808(%rax), %eax
	.loc 6 110 60
	cvtsi2sd	%eax, %xmm2
	.loc 6 110 61
	movq	712(%rbp), %rax
	movsd	248(%rax), %xmm1
	.loc 6 110 60
	mulsd	%xmm2, %xmm1
	.loc 6 110 12
	divsd	%xmm1, %xmm0
	movsd	%xmm0, 616(%rbp)
	.loc 6 113 23
	movl	$0, 612(%rbp)
	.loc 6 117 13
	movq	712(%rbp), %rax
	movq	712(%rbp), %rdx
	movsd	384(%rdx), %xmm2
	movq	712(%rbp), %rdx
	movsd	328(%rdx), %xmm1
	movq	712(%rbp), %rdx
	movsd	336(%rdx), %xmm0
	movq	712(%rbp), %rdx
	movsd	368(%rdx), %xmm6
	movq	712(%rbp), %rdx
	movsd	360(%rdx), %xmm5
	movq	712(%rbp), %rdx
	movsd	352(%rdx), %xmm4
	movsd	616(%rbp), %xmm3
	movsd	%xmm3, 80(%rsp)
	movsd	%xmm2, 72(%rsp)
	movsd	%xmm1, 64(%rsp)
	movsd	%xmm0, 56(%rsp)
	pxor	%xmm0, %xmm0
	movsd	%xmm0, 48(%rsp)
	pxor	%xmm0, %xmm0
	movsd	%xmm0, 40(%rsp)
	pxor	%xmm0, %xmm0
	movsd	%xmm0, 32(%rsp)
	movapd	%xmm6, %xmm3
	movapd	%xmm5, %xmm2
	movapd	%xmm4, %xmm1
	movq	%rax, %rcx
	call	_ZN30CalculadorPontoMassaModificado3acxEdddddddddd
	.loc 6 117 13 is_stmt 0 discriminator 1
	movq	%xmm0, %rax
	movq	%rax, 600(%rbp)
	.loc 6 118 13 is_stmt 1 discriminator 1
	movq	712(%rbp), %rax
	movq	712(%rbp), %rdx
	movsd	384(%rdx), %xmm1
	movq	712(%rbp), %rdx
	movsd	336(%rdx), %xmm0
	movq	712(%rbp), %rdx
	movsd	368(%rdx), %xmm3
	movq	712(%rbp), %rdx
	movsd	360(%rdx), %xmm5
	movq	712(%rbp), %rdx
	movsd	352(%rdx), %xmm4
	movsd	616(%rbp), %xmm2
	movsd	%xmm2, 72(%rsp)
	movsd	%xmm1, 64(%rsp)
	movsd	%xmm0, 56(%rsp)
	pxor	%xmm0, %xmm0
	movsd	%xmm0, 48(%rsp)
	pxor	%xmm0, %xmm0
	movsd	%xmm0, 40(%rsp)
	pxor	%xmm0, %xmm0
	movsd	%xmm0, 32(%rsp)
	movapd	%xmm5, %xmm2
	movapd	%xmm4, %xmm1
	movq	%rax, %rcx
	call	_ZN30CalculadorPontoMassaModificado3acyEddddddddd
	movq	%xmm0, %rax
	movq	%rax, 592(%rbp)
	.loc 6 119 13 discriminator 1
	movq	712(%rbp), %rax
	movq	712(%rbp), %rdx
	movsd	384(%rdx), %xmm2
	movq	712(%rbp), %rdx
	movsd	344(%rdx), %xmm1
	movq	712(%rbp), %rdx
	movsd	336(%rdx), %xmm0
	movq	712(%rbp), %rdx
	movsd	368(%rdx), %xmm6
	movq	712(%rbp), %rdx
	movsd	360(%rdx), %xmm5
	movq	712(%rbp), %rdx
	movsd	352(%rdx), %xmm4
	movsd	616(%rbp), %xmm3
	movsd	%xmm3, 80(%rsp)
	movsd	%xmm2, 72(%rsp)
	movsd	%xmm1, 64(%rsp)
	movsd	%xmm0, 56(%rsp)
	pxor	%xmm0, %xmm0
	movsd	%xmm0, 48(%rsp)
	pxor	%xmm0, %xmm0
	movsd	%xmm0, 40(%rsp)
	pxor	%xmm0, %xmm0
	movsd	%xmm0, 32(%rsp)
	movapd	%xmm6, %xmm3
	movapd	%xmm5, %xmm2
	movapd	%xmm4, %xmm1
	movq	%rax, %rcx
	call	_ZN30CalculadorPontoMassaModificado3aczEdddddddddd
	movq	%xmm0, %rax
	movq	%rax, 584(%rbp)
.L37:
.LBB5:
	.loc 6 125 20
	movq	712(%rbp), %rax
	movsd	384(%rax), %xmm2
	movq	712(%rbp), %rax
	movsd	344(%rax), %xmm1
	movq	712(%rbp), %rax
	movsd	336(%rax), %xmm0
	movq	712(%rbp), %rax
	movsd	368(%rax), %xmm6
	movq	712(%rbp), %rax
	movsd	360(%rax), %xmm5
	movq	712(%rbp), %rax
	movsd	352(%rax), %xmm4
	movq	712(%rbp), %rax
	movsd	616(%rbp), %xmm3
	movsd	%xmm3, 56(%rsp)
	movsd	%xmm2, 48(%rsp)
	movsd	%xmm1, 40(%rsp)
	movsd	%xmm0, 32(%rsp)
	movapd	%xmm6, %xmm3
	movapd	%xmm5, %xmm2
	movapd	%xmm4, %xmm1
	movq	%rax, %rcx
	call	_ZN34CalculadorPontoMassaModificado19904ar_xEddddddd
	movq	%xmm0, %rax
	movq	%rax, 576(%rbp)
	.loc 6 126 20
	movq	712(%rbp), %rax
	movsd	384(%rax), %xmm3
	movq	712(%rbp), %rax
	movsd	344(%rax), %xmm2
	movq	712(%rbp), %rax
	movsd	336(%rax), %xmm1
	movq	712(%rbp), %rax
	movsd	328(%rax), %xmm0
	movq	712(%rbp), %rax
	movsd	368(%rax), %xmm7
	movq	712(%rbp), %rax
	movsd	360(%rax), %xmm6
	movq	712(%rbp), %rax
	movsd	352(%rax), %xmm5
	movq	712(%rbp), %rax
	movsd	616(%rbp), %xmm4
	movsd	%xmm4, 64(%rsp)
	movsd	%xmm3, 56(%rsp)
	movsd	%xmm2, 48(%rsp)
	movsd	%xmm1, 40(%rsp)
	movsd	%xmm0, 32(%rsp)
	movapd	%xmm7, %xmm3
	movapd	%xmm6, %xmm2
	movapd	%xmm5, %xmm1
	movq	%rax, %rcx
	call	_ZN34CalculadorPontoMassaModificado19904ar_yEdddddddd
	.loc 6 126 20 is_stmt 0 discriminator 1
	movq	%xmm0, %rax
	movq	%rax, 568(%rbp)
	.loc 6 127 20 is_stmt 1 discriminator 1
	movq	712(%rbp), %rax
	movsd	384(%rax), %xmm2
	movq	712(%rbp), %rax
	movsd	336(%rax), %xmm1
	movq	712(%rbp), %rax
	movsd	328(%rax), %xmm0
	movq	712(%rbp), %rax
	movsd	368(%rax), %xmm6
	movq	712(%rbp), %rax
	movsd	360(%rax), %xmm5
	movq	712(%rbp), %rax
	movsd	352(%rax), %xmm4
	movq	712(%rbp), %rax
	movsd	616(%rbp), %xmm3
	movsd	%xmm3, 56(%rsp)
	movsd	%xmm2, 48(%rsp)
	movsd	%xmm1, 40(%rsp)
	movsd	%xmm0, 32(%rsp)
	movapd	%xmm6, %xmm3
	movapd	%xmm5, %xmm2
	movapd	%xmm4, %xmm1
	movq	%rax, %rcx
	call	_ZN34CalculadorPontoMassaModificado19904ar_zEddddddd
	movq	%xmm0, %rax
	movq	%rax, 560(%rbp)
	.loc 6 128 17 discriminator 1
	movq	712(%rbp), %rax
	movq	712(%rbp), %rdx
	movsd	384(%rdx), %xmm2
	movq	712(%rbp), %rdx
	movsd	328(%rdx), %xmm1
	movq	712(%rbp), %rdx
	movsd	336(%rdx), %xmm0
	movq	712(%rbp), %rdx
	movsd	368(%rdx), %xmm6
	movq	712(%rbp), %rdx
	movsd	360(%rdx), %xmm5
	movq	712(%rbp), %rdx
	movsd	352(%rdx), %xmm4
	movsd	616(%rbp), %xmm3
	movsd	%xmm3, 80(%rsp)
	movsd	%xmm2, 72(%rsp)
	movsd	%xmm1, 64(%rsp)
	movsd	%xmm0, 56(%rsp)
	movsd	560(%rbp), %xmm0
	movsd	%xmm0, 48(%rsp)
	movsd	568(%rbp), %xmm0
	movsd	%xmm0, 40(%rsp)
	movsd	576(%rbp), %xmm0
	movsd	%xmm0, 32(%rsp)
	movapd	%xmm6, %xmm3
	movapd	%xmm5, %xmm2
	movapd	%xmm4, %xmm1
	movq	%rax, %rcx
	call	_ZN30CalculadorPontoMassaModificado3acxEdddddddddd
	movq	%xmm0, %rax
	movq	%rax, 552(%rbp)
	.loc 6 129 17 discriminator 1
	movq	712(%rbp), %rax
	movq	712(%rbp), %rdx
	movsd	384(%rdx), %xmm1
	movq	712(%rbp), %rdx
	movsd	336(%rdx), %xmm0
	movq	712(%rbp), %rdx
	movsd	368(%rdx), %xmm3
	movq	712(%rbp), %rdx
	movsd	360(%rdx), %xmm5
	movq	712(%rbp), %rdx
	movsd	352(%rdx), %xmm4
	movsd	616(%rbp), %xmm2
	movsd	%xmm2, 72(%rsp)
	movsd	%xmm1, 64(%rsp)
	movsd	%xmm0, 56(%rsp)
	movsd	560(%rbp), %xmm0
	movsd	%xmm0, 48(%rsp)
	movsd	568(%rbp), %xmm0
	movsd	%xmm0, 40(%rsp)
	movsd	576(%rbp), %xmm0
	movsd	%xmm0, 32(%rsp)
	movapd	%xmm5, %xmm2
	movapd	%xmm4, %xmm1
	movq	%rax, %rcx
	call	_ZN30CalculadorPontoMassaModificado3acyEddddddddd
	movq	%xmm0, %rax
	movq	%rax, 544(%rbp)
	.loc 6 130 17 discriminator 1
	movq	712(%rbp), %rax
	movq	712(%rbp), %rdx
	movsd	384(%rdx), %xmm2
	movq	712(%rbp), %rdx
	movsd	344(%rdx), %xmm1
	movq	712(%rbp), %rdx
	movsd	336(%rdx), %xmm0
	movq	712(%rbp), %rdx
	movsd	368(%rdx), %xmm6
	movq	712(%rbp), %rdx
	movsd	360(%rdx), %xmm5
	movq	712(%rbp), %rdx
	movsd	352(%rdx), %xmm4
	movsd	616(%rbp), %xmm3
	movsd	%xmm3, 80(%rsp)
	movsd	%xmm2, 72(%rsp)
	movsd	%xmm1, 64(%rsp)
	movsd	%xmm0, 56(%rsp)
	movsd	560(%rbp), %xmm0
	movsd	%xmm0, 48(%rsp)
	movsd	568(%rbp), %xmm0
	movsd	%xmm0, 40(%rsp)
	movsd	576(%rbp), %xmm0
	movsd	%xmm0, 32(%rsp)
	movapd	%xmm6, %xmm3
	movapd	%xmm5, %xmm2
	movapd	%xmm4, %xmm1
	movq	%rax, %rcx
	call	_ZN30CalculadorPontoMassaModificado3aczEdddddddddd
	movq	%xmm0, %rax
	movq	%rax, 536(%rbp)
	.loc 6 132 20 discriminator 1
	movq	712(%rbp), %rax
	movsd	384(%rax), %xmm2
	movq	712(%rbp), %rax
	movsd	344(%rax), %xmm1
	movq	712(%rbp), %rax
	movsd	336(%rax), %xmm0
	.loc 6 132 51 discriminator 1
	movq	712(%rbp), %rax
	movsd	368(%rax), %xmm4
	.loc 6 132 57 discriminator 1
	movsd	88(%rbp), %xmm5
	movsd	.LC4(%rip), %xmm3
	mulsd	%xmm5, %xmm3
	.loc 6 132 61 discriminator 1
	mulsd	536(%rbp), %xmm3
	.loc 6 132 20 discriminator 1
	movapd	%xmm4, %xmm7
	addsd	%xmm3, %xmm7
	.loc 6 132 36 discriminator 1
	movq	712(%rbp), %rax
	movsd	360(%rax), %xmm4
	.loc 6 132 42 discriminator 1
	movsd	88(%rbp), %xmm5
	movsd	.LC4(%rip), %xmm3
	mulsd	%xmm5, %xmm3
	.loc 6 132 46 discriminator 1
	mulsd	544(%rbp), %xmm3
	.loc 6 132 20 discriminator 1
	movapd	%xmm4, %xmm6
	addsd	%xmm3, %xmm6
	.loc 6 132 21 discriminator 1
	movq	712(%rbp), %rax
	movsd	352(%rax), %xmm4
	.loc 6 132 27 discriminator 1
	movsd	88(%rbp), %xmm5
	movsd	.LC4(%rip), %xmm3
	mulsd	%xmm5, %xmm3
	.loc 6 132 31 discriminator 1
	mulsd	552(%rbp), %xmm3
	.loc 6 132 20 discriminator 1
	addsd	%xmm3, %xmm4
	movq	712(%rbp), %rax
	movsd	616(%rbp), %xmm3
	movsd	%xmm3, 56(%rsp)
	movsd	%xmm2, 48(%rsp)
	movsd	%xmm1, 40(%rsp)
	movsd	%xmm0, 32(%rsp)
	movapd	%xmm7, %xmm3
	movapd	%xmm6, %xmm2
	movapd	%xmm4, %xmm1
	movq	%rax, %rcx
	call	_ZN34CalculadorPontoMassaModificado19904ar_xEddddddd
	movq	%xmm0, %rax
	movq	%rax, 528(%rbp)
	.loc 6 133 20 discriminator 1
	movq	712(%rbp), %rax
	movsd	384(%rax), %xmm3
	movq	712(%rbp), %rax
	movsd	344(%rax), %xmm2
	movq	712(%rbp), %rax
	movsd	336(%rax), %xmm1
	movq	712(%rbp), %rax
	movsd	328(%rax), %xmm0
	.loc 6 133 51 discriminator 1
	movq	712(%rbp), %rax
	movsd	368(%rax), %xmm5
	.loc 6 133 57 discriminator 1
	movsd	88(%rbp), %xmm6
	movsd	.LC4(%rip), %xmm4
	mulsd	%xmm6, %xmm4
	.loc 6 133 61 discriminator 1
	mulsd	536(%rbp), %xmm4
	.loc 6 133 20 discriminator 1
	addsd	%xmm4, %xmm5
	movapd	%xmm5, %xmm8
	.loc 6 133 36 discriminator 1
	movq	712(%rbp), %rax
	movsd	360(%rax), %xmm5
	.loc 6 133 42 discriminator 1
	movsd	88(%rbp), %xmm6
	movsd	.LC4(%rip), %xmm4
	mulsd	%xmm6, %xmm4
	.loc 6 133 46 discriminator 1
	mulsd	544(%rbp), %xmm4
	.loc 6 133 20 discriminator 1
	movapd	%xmm5, %xmm7
	addsd	%xmm4, %xmm7
	.loc 6 133 21 discriminator 1
	movq	712(%rbp), %rax
	movsd	352(%rax), %xmm5
	.loc 6 133 27 discriminator 1
	movsd	88(%rbp), %xmm6
	movsd	.LC4(%rip), %xmm4
	mulsd	%xmm6, %xmm4
	.loc 6 133 31 discriminator 1
	mulsd	552(%rbp), %xmm4
	.loc 6 133 20 discriminator 1
	addsd	%xmm4, %xmm5
	movq	712(%rbp), %rax
	movsd	616(%rbp), %xmm4
	movsd	%xmm4, 64(%rsp)
	movsd	%xmm3, 56(%rsp)
	movsd	%xmm2, 48(%rsp)
	movsd	%xmm1, 40(%rsp)
	movsd	%xmm0, 32(%rsp)
	movapd	%xmm8, %xmm3
	movapd	%xmm7, %xmm2
	movapd	%xmm5, %xmm1
	movq	%rax, %rcx
	call	_ZN34CalculadorPontoMassaModificado19904ar_yEdddddddd
	movq	%xmm0, %rax
	movq	%rax, 520(%rbp)
	.loc 6 134 20 discriminator 1
	movq	712(%rbp), %rax
	movsd	384(%rax), %xmm2
	movq	712(%rbp), %rax
	movsd	336(%rax), %xmm1
	movq	712(%rbp), %rax
	movsd	328(%rax), %xmm0
	.loc 6 134 51 discriminator 1
	movq	712(%rbp), %rax
	movsd	368(%rax), %xmm4
	.loc 6 134 57 discriminator 1
	movsd	88(%rbp), %xmm5
	movsd	.LC4(%rip), %xmm3
	mulsd	%xmm5, %xmm3
	.loc 6 134 61 discriminator 1
	mulsd	536(%rbp), %xmm3
	.loc 6 134 20 discriminator 1
	movapd	%xmm4, %xmm7
	addsd	%xmm3, %xmm7
	.loc 6 134 36 discriminator 1
	movq	712(%rbp), %rax
	movsd	360(%rax), %xmm4
	.loc 6 134 42 discriminator 1
	movsd	88(%rbp), %xmm5
	movsd	.LC4(%rip), %xmm3
	mulsd	%xmm5, %xmm3
	.loc 6 134 46 discriminator 1
	mulsd	544(%rbp), %xmm3
	.loc 6 134 20 discriminator 1
	movapd	%xmm4, %xmm6
	addsd	%xmm3, %xmm6
	.loc 6 134 21 discriminator 1
	movq	712(%rbp), %rax
	movsd	352(%rax), %xmm4
	.loc 6 134 27 discriminator 1
	movsd	88(%rbp), %xmm5
	movsd	.LC4(%rip), %xmm3
	mulsd	%xmm5, %xmm3
	.loc 6 134 31 discriminator 1
	mulsd	552(%rbp), %xmm3
	.loc 6 134 20 discriminator 1
	addsd	%xmm3, %xmm4
	movq	712(%rbp), %rax
	movsd	616(%rbp), %xmm3
	movsd	%xmm3, 56(%rsp)
	movsd	%xmm2, 48(%rsp)
	movsd	%xmm1, 40(%rsp)
	movsd	%xmm0, 32(%rsp)
	movapd	%xmm7, %xmm3
	movapd	%xmm6, %xmm2
	movapd	%xmm4, %xmm1
	movq	%rax, %rcx
	call	_ZN34CalculadorPontoMassaModificado19904ar_zEddddddd
	movq	%xmm0, %rax
	movq	%rax, 512(%rbp)
	.loc 6 135 17 discriminator 1
	movq	712(%rbp), %rax
	movq	712(%rbp), %rdx
	movsd	384(%rdx), %xmm2
	movq	712(%rbp), %rdx
	movsd	328(%rdx), %xmm1
	movq	712(%rbp), %rdx
	movsd	336(%rdx), %xmm0
	.loc 6 135 48 discriminator 1
	movq	712(%rbp), %rdx
	movsd	368(%rdx), %xmm4
	.loc 6 135 54 discriminator 1
	movsd	88(%rbp), %xmm5
	movsd	.LC4(%rip), %xmm3
	mulsd	%xmm5, %xmm3
	.loc 6 135 58 discriminator 1
	mulsd	536(%rbp), %xmm3
	.loc 6 135 17 discriminator 1
	movapd	%xmm4, %xmm7
	addsd	%xmm3, %xmm7
	.loc 6 135 33 discriminator 1
	movq	712(%rbp), %rdx
	movsd	360(%rdx), %xmm4
	.loc 6 135 39 discriminator 1
	movsd	88(%rbp), %xmm5
	movsd	.LC4(%rip), %xmm3
	mulsd	%xmm5, %xmm3
	.loc 6 135 43 discriminator 1
	mulsd	544(%rbp), %xmm3
	.loc 6 135 17 discriminator 1
	movapd	%xmm4, %xmm6
	addsd	%xmm3, %xmm6
	.loc 6 135 18 discriminator 1
	movq	712(%rbp), %rdx
	movsd	352(%rdx), %xmm4
	.loc 6 135 24 discriminator 1
	movsd	88(%rbp), %xmm5
	movsd	.LC4(%rip), %xmm3
	mulsd	%xmm5, %xmm3
	.loc 6 135 28 discriminator 1
	mulsd	552(%rbp), %xmm3
	.loc 6 135 17 discriminator 1
	addsd	%xmm3, %xmm4
	movsd	616(%rbp), %xmm3
	movsd	%xmm3, 80(%rsp)
	movsd	%xmm2, 72(%rsp)
	movsd	%xmm1, 64(%rsp)
	movsd	%xmm0, 56(%rsp)
	movsd	512(%rbp), %xmm0
	movsd	%xmm0, 48(%rsp)
	movsd	520(%rbp), %xmm0
	movsd	%xmm0, 40(%rsp)
	movsd	528(%rbp), %xmm0
	movsd	%xmm0, 32(%rsp)
	movapd	%xmm7, %xmm3
	movapd	%xmm6, %xmm2
	movapd	%xmm4, %xmm1
	movq	%rax, %rcx
	call	_ZN30CalculadorPontoMassaModificado3acxEdddddddddd
	movq	%xmm0, %rax
	movq	%rax, 504(%rbp)
	.loc 6 136 17 discriminator 1
	movq	712(%rbp), %rax
	movq	712(%rbp), %rdx
	movsd	384(%rdx), %xmm1
	movq	712(%rbp), %rdx
	movsd	336(%rdx), %xmm0
	.loc 6 136 48 discriminator 1
	movq	712(%rbp), %rdx
	movsd	368(%rdx), %xmm3
	.loc 6 136 54 discriminator 1
	movsd	88(%rbp), %xmm4
	movsd	.LC4(%rip), %xmm2
	mulsd	%xmm4, %xmm2
	.loc 6 136 58 discriminator 1
	mulsd	536(%rbp), %xmm2
	.loc 6 136 17 discriminator 1
	movapd	%xmm3, %xmm6
	addsd	%xmm2, %xmm6
	.loc 6 136 33 discriminator 1
	movq	712(%rbp), %rdx
	movsd	360(%rdx), %xmm3
	.loc 6 136 39 discriminator 1
	movsd	88(%rbp), %xmm4
	movsd	.LC4(%rip), %xmm2
	mulsd	%xmm4, %xmm2
	.loc 6 136 43 discriminator 1
	mulsd	544(%rbp), %xmm2
	.loc 6 136 17 discriminator 1
	movapd	%xmm3, %xmm5
	addsd	%xmm2, %xmm5
	.loc 6 136 18 discriminator 1
	movq	712(%rbp), %rdx
	movsd	352(%rdx), %xmm3
	.loc 6 136 24 discriminator 1
	movsd	88(%rbp), %xmm4
	movsd	.LC4(%rip), %xmm2
	mulsd	%xmm4, %xmm2
	.loc 6 136 28 discriminator 1
	mulsd	552(%rbp), %xmm2
	.loc 6 136 17 discriminator 1
	movapd	%xmm3, %xmm4
	addsd	%xmm2, %xmm4
	movsd	616(%rbp), %xmm2
	movsd	%xmm2, 72(%rsp)
	movsd	%xmm1, 64(%rsp)
	movsd	%xmm0, 56(%rsp)
	movsd	512(%rbp), %xmm0
	movsd	%xmm0, 48(%rsp)
	movsd	520(%rbp), %xmm0
	movsd	%xmm0, 40(%rsp)
	movsd	528(%rbp), %xmm0
	movsd	%xmm0, 32(%rsp)
	movapd	%xmm6, %xmm3
	movapd	%xmm5, %xmm2
	movapd	%xmm4, %xmm1
	movq	%rax, %rcx
	call	_ZN30CalculadorPontoMassaModificado3acyEddddddddd
	movq	%xmm0, %rax
	movq	%rax, 496(%rbp)
	.loc 6 137 17 discriminator 1
	movq	712(%rbp), %rax
	movq	712(%rbp), %rdx
	movsd	384(%rdx), %xmm2
	movq	712(%rbp), %rdx
	movsd	344(%rdx), %xmm1
	movq	712(%rbp), %rdx
	movsd	336(%rdx), %xmm0
	.loc 6 137 48 discriminator 1
	movq	712(%rbp), %rdx
	movsd	368(%rdx), %xmm4
	.loc 6 137 54 discriminator 1
	movsd	88(%rbp), %xmm5
	movsd	.LC4(%rip), %xmm3
	mulsd	%xmm5, %xmm3
	.loc 6 137 58 discriminator 1
	mulsd	536(%rbp), %xmm3
	.loc 6 137 17 discriminator 1
	movapd	%xmm4, %xmm7
	addsd	%xmm3, %xmm7
	.loc 6 137 33 discriminator 1
	movq	712(%rbp), %rdx
	movsd	360(%rdx), %xmm4
	.loc 6 137 39 discriminator 1
	movsd	88(%rbp), %xmm5
	movsd	.LC4(%rip), %xmm3
	mulsd	%xmm5, %xmm3
	.loc 6 137 43 discriminator 1
	mulsd	544(%rbp), %xmm3
	.loc 6 137 17 discriminator 1
	movapd	%xmm4, %xmm6
	addsd	%xmm3, %xmm6
	.loc 6 137 18 discriminator 1
	movq	712(%rbp), %rdx
	movsd	352(%rdx), %xmm4
	.loc 6 137 24 discriminator 1
	movsd	88(%rbp), %xmm5
	movsd	.LC4(%rip), %xmm3
	mulsd	%xmm5, %xmm3
	.loc 6 137 28 discriminator 1
	mulsd	552(%rbp), %xmm3
	.loc 6 137 17 discriminator 1
	addsd	%xmm3, %xmm4
	movsd	616(%rbp), %xmm3
	movsd	%xmm3, 80(%rsp)
	movsd	%xmm2, 72(%rsp)
	movsd	%xmm1, 64(%rsp)
	movsd	%xmm0, 56(%rsp)
	movsd	512(%rbp), %xmm0
	movsd	%xmm0, 48(%rsp)
	movsd	520(%rbp), %xmm0
	movsd	%xmm0, 40(%rsp)
	movsd	528(%rbp), %xmm0
	movsd	%xmm0, 32(%rsp)
	movapd	%xmm7, %xmm3
	movapd	%xmm6, %xmm2
	movapd	%xmm4, %xmm1
	movq	%rax, %rcx
	call	_ZN30CalculadorPontoMassaModificado3aczEdddddddddd
	movq	%xmm0, %rax
	movq	%rax, 488(%rbp)
	.loc 6 139 20 discriminator 1
	movq	712(%rbp), %rax
	movsd	384(%rax), %xmm2
	movq	712(%rbp), %rax
	movsd	344(%rax), %xmm1
	movq	712(%rbp), %rax
	movsd	336(%rax), %xmm0
	.loc 6 139 51 discriminator 1
	movq	712(%rbp), %rax
	movsd	368(%rax), %xmm4
	.loc 6 139 57 discriminator 1
	movsd	88(%rbp), %xmm5
	movsd	.LC4(%rip), %xmm3
	mulsd	%xmm5, %xmm3
	.loc 6 139 61 discriminator 1
	mulsd	488(%rbp), %xmm3
	.loc 6 139 20 discriminator 1
	movapd	%xmm4, %xmm7
	addsd	%xmm3, %xmm7
	.loc 6 139 36 discriminator 1
	movq	712(%rbp), %rax
	movsd	360(%rax), %xmm4
	.loc 6 139 42 discriminator 1
	movsd	88(%rbp), %xmm5
	movsd	.LC4(%rip), %xmm3
	mulsd	%xmm5, %xmm3
	.loc 6 139 46 discriminator 1
	mulsd	496(%rbp), %xmm3
	.loc 6 139 20 discriminator 1
	movapd	%xmm4, %xmm6
	addsd	%xmm3, %xmm6
	.loc 6 139 21 discriminator 1
	movq	712(%rbp), %rax
	movsd	352(%rax), %xmm4
	.loc 6 139 27 discriminator 1
	movsd	88(%rbp), %xmm5
	movsd	.LC4(%rip), %xmm3
	mulsd	%xmm5, %xmm3
	.loc 6 139 31 discriminator 1
	mulsd	504(%rbp), %xmm3
	.loc 6 139 20 discriminator 1
	addsd	%xmm3, %xmm4
	movq	712(%rbp), %rax
	movsd	616(%rbp), %xmm3
	movsd	%xmm3, 56(%rsp)
	movsd	%xmm2, 48(%rsp)
	movsd	%xmm1, 40(%rsp)
	movsd	%xmm0, 32(%rsp)
	movapd	%xmm7, %xmm3
	movapd	%xmm6, %xmm2
	movapd	%xmm4, %xmm1
	movq	%rax, %rcx
	call	_ZN34CalculadorPontoMassaModificado19904ar_xEddddddd
	movq	%xmm0, %rax
	movq	%rax, 480(%rbp)
	.loc 6 140 20 discriminator 1
	movq	712(%rbp), %rax
	movsd	384(%rax), %xmm3
	movq	712(%rbp), %rax
	movsd	344(%rax), %xmm2
	movq	712(%rbp), %rax
	movsd	336(%rax), %xmm1
	movq	712(%rbp), %rax
	movsd	328(%rax), %xmm0
	.loc 6 140 51 discriminator 1
	movq	712(%rbp), %rax
	movsd	368(%rax), %xmm5
	.loc 6 140 57 discriminator 1
	movsd	88(%rbp), %xmm6
	movsd	.LC4(%rip), %xmm4
	mulsd	%xmm6, %xmm4
	.loc 6 140 61 discriminator 1
	mulsd	488(%rbp), %xmm4
	.loc 6 140 20 discriminator 1
	addsd	%xmm4, %xmm5
	movapd	%xmm5, %xmm8
	.loc 6 140 36 discriminator 1
	movq	712(%rbp), %rax
	movsd	360(%rax), %xmm5
	.loc 6 140 42 discriminator 1
	movsd	88(%rbp), %xmm6
	movsd	.LC4(%rip), %xmm4
	mulsd	%xmm6, %xmm4
	.loc 6 140 46 discriminator 1
	mulsd	496(%rbp), %xmm4
	.loc 6 140 20 discriminator 1
	movapd	%xmm5, %xmm7
	addsd	%xmm4, %xmm7
	.loc 6 140 21 discriminator 1
	movq	712(%rbp), %rax
	movsd	352(%rax), %xmm5
	.loc 6 140 27 discriminator 1
	movsd	88(%rbp), %xmm6
	movsd	.LC4(%rip), %xmm4
	mulsd	%xmm6, %xmm4
	.loc 6 140 31 discriminator 1
	mulsd	504(%rbp), %xmm4
	.loc 6 140 20 discriminator 1
	addsd	%xmm4, %xmm5
	movq	712(%rbp), %rax
	movsd	616(%rbp), %xmm4
	movsd	%xmm4, 64(%rsp)
	movsd	%xmm3, 56(%rsp)
	movsd	%xmm2, 48(%rsp)
	movsd	%xmm1, 40(%rsp)
	movsd	%xmm0, 32(%rsp)
	movapd	%xmm8, %xmm3
	movapd	%xmm7, %xmm2
	movapd	%xmm5, %xmm1
	movq	%rax, %rcx
	call	_ZN34CalculadorPontoMassaModificado19904ar_yEdddddddd
	movq	%xmm0, %rax
	movq	%rax, 472(%rbp)
	.loc 6 141 20 discriminator 1
	movq	712(%rbp), %rax
	movsd	384(%rax), %xmm2
	movq	712(%rbp), %rax
	movsd	336(%rax), %xmm1
	movq	712(%rbp), %rax
	movsd	328(%rax), %xmm0
	.loc 6 141 51 discriminator 1
	movq	712(%rbp), %rax
	movsd	368(%rax), %xmm4
	.loc 6 141 57 discriminator 1
	movsd	88(%rbp), %xmm5
	movsd	.LC4(%rip), %xmm3
	mulsd	%xmm5, %xmm3
	.loc 6 141 61 discriminator 1
	mulsd	488(%rbp), %xmm3
	.loc 6 141 20 discriminator 1
	movapd	%xmm4, %xmm7
	addsd	%xmm3, %xmm7
	.loc 6 141 36 discriminator 1
	movq	712(%rbp), %rax
	movsd	360(%rax), %xmm4
	.loc 6 141 42 discriminator 1
	movsd	88(%rbp), %xmm5
	movsd	.LC4(%rip), %xmm3
	mulsd	%xmm5, %xmm3
	.loc 6 141 46 discriminator 1
	mulsd	496(%rbp), %xmm3
	.loc 6 141 20 discriminator 1
	movapd	%xmm4, %xmm6
	addsd	%xmm3, %xmm6
	.loc 6 141 21 discriminator 1
	movq	712(%rbp), %rax
	movsd	352(%rax), %xmm4
	.loc 6 141 27 discriminator 1
	movsd	88(%rbp), %xmm5
	movsd	.LC4(%rip), %xmm3
	mulsd	%xmm5, %xmm3
	.loc 6 141 31 discriminator 1
	mulsd	504(%rbp), %xmm3
	.loc 6 141 20 discriminator 1
	addsd	%xmm3, %xmm4
	movq	712(%rbp), %rax
	movsd	616(%rbp), %xmm3
	movsd	%xmm3, 56(%rsp)
	movsd	%xmm2, 48(%rsp)
	movsd	%xmm1, 40(%rsp)
	movsd	%xmm0, 32(%rsp)
	movapd	%xmm7, %xmm3
	movapd	%xmm6, %xmm2
	movapd	%xmm4, %xmm1
	movq	%rax, %rcx
	call	_ZN34CalculadorPontoMassaModificado19904ar_zEddddddd
	movq	%xmm0, %rax
	movq	%rax, 464(%rbp)
	.loc 6 142 17 discriminator 1
	movq	712(%rbp), %rax
	movq	712(%rbp), %rdx
	movsd	384(%rdx), %xmm2
	movq	712(%rbp), %rdx
	movsd	328(%rdx), %xmm1
	movq	712(%rbp), %rdx
	movsd	336(%rdx), %xmm0
	.loc 6 142 48 discriminator 1
	movq	712(%rbp), %rdx
	movsd	368(%rdx), %xmm4
	.loc 6 142 54 discriminator 1
	movsd	88(%rbp), %xmm5
	movsd	.LC4(%rip), %xmm3
	mulsd	%xmm5, %xmm3
	.loc 6 142 58 discriminator 1
	mulsd	488(%rbp), %xmm3
	.loc 6 142 17 discriminator 1
	movapd	%xmm4, %xmm7
	addsd	%xmm3, %xmm7
	.loc 6 142 33 discriminator 1
	movq	712(%rbp), %rdx
	movsd	360(%rdx), %xmm4
	.loc 6 142 39 discriminator 1
	movsd	88(%rbp), %xmm5
	movsd	.LC4(%rip), %xmm3
	mulsd	%xmm5, %xmm3
	.loc 6 142 43 discriminator 1
	mulsd	496(%rbp), %xmm3
	.loc 6 142 17 discriminator 1
	movapd	%xmm4, %xmm6
	addsd	%xmm3, %xmm6
	.loc 6 142 18 discriminator 1
	movq	712(%rbp), %rdx
	movsd	352(%rdx), %xmm4
	.loc 6 142 24 discriminator 1
	movsd	88(%rbp), %xmm5
	movsd	.LC4(%rip), %xmm3
	mulsd	%xmm5, %xmm3
	.loc 6 142 28 discriminator 1
	mulsd	504(%rbp), %xmm3
	.loc 6 142 17 discriminator 1
	addsd	%xmm3, %xmm4
	movsd	616(%rbp), %xmm3
	movsd	%xmm3, 80(%rsp)
	movsd	%xmm2, 72(%rsp)
	movsd	%xmm1, 64(%rsp)
	movsd	%xmm0, 56(%rsp)
	movsd	464(%rbp), %xmm0
	movsd	%xmm0, 48(%rsp)
	movsd	472(%rbp), %xmm0
	movsd	%xmm0, 40(%rsp)
	movsd	480(%rbp), %xmm0
	movsd	%xmm0, 32(%rsp)
	movapd	%xmm7, %xmm3
	movapd	%xmm6, %xmm2
	movapd	%xmm4, %xmm1
	movq	%rax, %rcx
	call	_ZN30CalculadorPontoMassaModificado3acxEdddddddddd
	movq	%xmm0, %rax
	movq	%rax, 456(%rbp)
	.loc 6 143 17 discriminator 1
	movq	712(%rbp), %rax
	movq	712(%rbp), %rdx
	movsd	384(%rdx), %xmm1
	movq	712(%rbp), %rdx
	movsd	336(%rdx), %xmm0
	.loc 6 143 48 discriminator 1
	movq	712(%rbp), %rdx
	movsd	368(%rdx), %xmm3
	.loc 6 143 54 discriminator 1
	movsd	88(%rbp), %xmm4
	movsd	.LC4(%rip), %xmm2
	mulsd	%xmm4, %xmm2
	.loc 6 143 58 discriminator 1
	mulsd	488(%rbp), %xmm2
	.loc 6 143 17 discriminator 1
	movapd	%xmm3, %xmm6
	addsd	%xmm2, %xmm6
	.loc 6 143 33 discriminator 1
	movq	712(%rbp), %rdx
	movsd	360(%rdx), %xmm3
	.loc 6 143 39 discriminator 1
	movsd	88(%rbp), %xmm4
	movsd	.LC4(%rip), %xmm2
	mulsd	%xmm4, %xmm2
	.loc 6 143 43 discriminator 1
	mulsd	496(%rbp), %xmm2
	.loc 6 143 17 discriminator 1
	movapd	%xmm3, %xmm5
	addsd	%xmm2, %xmm5
	.loc 6 143 18 discriminator 1
	movq	712(%rbp), %rdx
	movsd	352(%rdx), %xmm3
	.loc 6 143 24 discriminator 1
	movsd	88(%rbp), %xmm4
	movsd	.LC4(%rip), %xmm2
	mulsd	%xmm4, %xmm2
	.loc 6 143 28 discriminator 1
	mulsd	504(%rbp), %xmm2
	.loc 6 143 17 discriminator 1
	movapd	%xmm3, %xmm4
	addsd	%xmm2, %xmm4
	movsd	616(%rbp), %xmm2
	movsd	%xmm2, 72(%rsp)
	movsd	%xmm1, 64(%rsp)
	movsd	%xmm0, 56(%rsp)
	movsd	464(%rbp), %xmm0
	movsd	%xmm0, 48(%rsp)
	movsd	472(%rbp), %xmm0
	movsd	%xmm0, 40(%rsp)
	movsd	480(%rbp), %xmm0
	movsd	%xmm0, 32(%rsp)
	movapd	%xmm6, %xmm3
	movapd	%xmm5, %xmm2
	movapd	%xmm4, %xmm1
	movq	%rax, %rcx
	call	_ZN30CalculadorPontoMassaModificado3acyEddddddddd
	movq	%xmm0, %rax
	movq	%rax, 448(%rbp)
	.loc 6 144 17 discriminator 1
	movq	712(%rbp), %rax
	movq	712(%rbp), %rdx
	movsd	384(%rdx), %xmm2
	movq	712(%rbp), %rdx
	movsd	344(%rdx), %xmm1
	movq	712(%rbp), %rdx
	movsd	336(%rdx), %xmm0
	.loc 6 144 48 discriminator 1
	movq	712(%rbp), %rdx
	movsd	368(%rdx), %xmm4
	.loc 6 144 54 discriminator 1
	movsd	88(%rbp), %xmm5
	movsd	.LC4(%rip), %xmm3
	mulsd	%xmm5, %xmm3
	.loc 6 144 58 discriminator 1
	mulsd	488(%rbp), %xmm3
	.loc 6 144 17 discriminator 1
	movapd	%xmm4, %xmm7
	addsd	%xmm3, %xmm7
	.loc 6 144 33 discriminator 1
	movq	712(%rbp), %rdx
	movsd	360(%rdx), %xmm4
	.loc 6 144 39 discriminator 1
	movsd	88(%rbp), %xmm5
	movsd	.LC4(%rip), %xmm3
	mulsd	%xmm5, %xmm3
	.loc 6 144 43 discriminator 1
	mulsd	496(%rbp), %xmm3
	.loc 6 144 17 discriminator 1
	movapd	%xmm4, %xmm6
	addsd	%xmm3, %xmm6
	.loc 6 144 18 discriminator 1
	movq	712(%rbp), %rdx
	movsd	352(%rdx), %xmm4
	.loc 6 144 24 discriminator 1
	movsd	88(%rbp), %xmm5
	movsd	.LC4(%rip), %xmm3
	mulsd	%xmm5, %xmm3
	.loc 6 144 28 discriminator 1
	mulsd	504(%rbp), %xmm3
	.loc 6 144 17 discriminator 1
	addsd	%xmm3, %xmm4
	movsd	616(%rbp), %xmm3
	movsd	%xmm3, 80(%rsp)
	movsd	%xmm2, 72(%rsp)
	movsd	%xmm1, 64(%rsp)
	movsd	%xmm0, 56(%rsp)
	movsd	464(%rbp), %xmm0
	movsd	%xmm0, 48(%rsp)
	movsd	472(%rbp), %xmm0
	movsd	%xmm0, 40(%rsp)
	movsd	480(%rbp), %xmm0
	movsd	%xmm0, 32(%rsp)
	movapd	%xmm7, %xmm3
	movapd	%xmm6, %xmm2
	movapd	%xmm4, %xmm1
	movq	%rax, %rcx
	call	_ZN30CalculadorPontoMassaModificado3aczEdddddddddd
	movq	%xmm0, %rax
	movq	%rax, 440(%rbp)
	.loc 6 146 20 discriminator 1
	movq	712(%rbp), %rax
	movsd	384(%rax), %xmm2
	movq	712(%rbp), %rax
	movsd	344(%rax), %xmm1
	movq	712(%rbp), %rax
	movsd	336(%rax), %xmm0
	.loc 6 146 43 discriminator 1
	movq	712(%rbp), %rax
	movsd	368(%rax), %xmm4
	.loc 6 146 49 discriminator 1
	movsd	88(%rbp), %xmm3
	mulsd	440(%rbp), %xmm3
	.loc 6 146 20 discriminator 1
	movapd	%xmm4, %xmm6
	addsd	%xmm3, %xmm6
	.loc 6 146 32 discriminator 1
	movq	712(%rbp), %rax
	movsd	360(%rax), %xmm4
	.loc 6 146 38 discriminator 1
	movsd	88(%rbp), %xmm3
	mulsd	448(%rbp), %xmm3
	.loc 6 146 20 discriminator 1
	movapd	%xmm4, %xmm5
	addsd	%xmm3, %xmm5
	.loc 6 146 21 discriminator 1
	movq	712(%rbp), %rax
	movsd	352(%rax), %xmm4
	.loc 6 146 27 discriminator 1
	movsd	88(%rbp), %xmm3
	mulsd	456(%rbp), %xmm3
	.loc 6 146 20 discriminator 1
	addsd	%xmm3, %xmm4
	movq	712(%rbp), %rax
	movsd	616(%rbp), %xmm3
	movsd	%xmm3, 56(%rsp)
	movsd	%xmm2, 48(%rsp)
	movsd	%xmm1, 40(%rsp)
	movsd	%xmm0, 32(%rsp)
	movapd	%xmm6, %xmm3
	movapd	%xmm5, %xmm2
	movapd	%xmm4, %xmm1
	movq	%rax, %rcx
	call	_ZN34CalculadorPontoMassaModificado19904ar_xEddddddd
	movq	%xmm0, %rax
	movq	%rax, 432(%rbp)
	.loc 6 147 20 discriminator 1
	movq	712(%rbp), %rax
	movsd	384(%rax), %xmm3
	movq	712(%rbp), %rax
	movsd	344(%rax), %xmm2
	movq	712(%rbp), %rax
	movsd	336(%rax), %xmm1
	movq	712(%rbp), %rax
	movsd	328(%rax), %xmm0
	.loc 6 147 43 discriminator 1
	movq	712(%rbp), %rax
	movsd	368(%rax), %xmm5
	.loc 6 147 49 discriminator 1
	movsd	88(%rbp), %xmm4
	mulsd	440(%rbp), %xmm4
	.loc 6 147 20 discriminator 1
	movapd	%xmm5, %xmm7
	addsd	%xmm4, %xmm7
	.loc 6 147 32 discriminator 1
	movq	712(%rbp), %rax
	movsd	360(%rax), %xmm5
	.loc 6 147 38 discriminator 1
	movsd	88(%rbp), %xmm4
	mulsd	448(%rbp), %xmm4
	.loc 6 147 20 discriminator 1
	movapd	%xmm5, %xmm6
	addsd	%xmm4, %xmm6
	.loc 6 147 21 discriminator 1
	movq	712(%rbp), %rax
	movsd	352(%rax), %xmm5
	.loc 6 147 27 discriminator 1
	movsd	88(%rbp), %xmm4
	mulsd	456(%rbp), %xmm4
	.loc 6 147 20 discriminator 1
	addsd	%xmm4, %xmm5
	movq	712(%rbp), %rax
	movsd	616(%rbp), %xmm4
	movsd	%xmm4, 64(%rsp)
	movsd	%xmm3, 56(%rsp)
	movsd	%xmm2, 48(%rsp)
	movsd	%xmm1, 40(%rsp)
	movsd	%xmm0, 32(%rsp)
	movapd	%xmm7, %xmm3
	movapd	%xmm6, %xmm2
	movapd	%xmm5, %xmm1
	movq	%rax, %rcx
	call	_ZN34CalculadorPontoMassaModificado19904ar_yEdddddddd
	movq	%xmm0, %rax
	movq	%rax, 424(%rbp)
	.loc 6 148 20 discriminator 1
	movq	712(%rbp), %rax
	movsd	384(%rax), %xmm2
	movq	712(%rbp), %rax
	movsd	336(%rax), %xmm1
	movq	712(%rbp), %rax
	movsd	328(%rax), %xmm0
	.loc 6 148 43 discriminator 1
	movq	712(%rbp), %rax
	movsd	368(%rax), %xmm4
	.loc 6 148 49 discriminator 1
	movsd	88(%rbp), %xmm3
	mulsd	440(%rbp), %xmm3
	.loc 6 148 20 discriminator 1
	movapd	%xmm4, %xmm6
	addsd	%xmm3, %xmm6
	.loc 6 148 32 discriminator 1
	movq	712(%rbp), %rax
	movsd	360(%rax), %xmm4
	.loc 6 148 38 discriminator 1
	movsd	88(%rbp), %xmm3
	mulsd	448(%rbp), %xmm3
	.loc 6 148 20 discriminator 1
	movapd	%xmm4, %xmm5
	addsd	%xmm3, %xmm5
	.loc 6 148 21 discriminator 1
	movq	712(%rbp), %rax
	movsd	352(%rax), %xmm4
	.loc 6 148 27 discriminator 1
	movsd	88(%rbp), %xmm3
	mulsd	456(%rbp), %xmm3
	.loc 6 148 20 discriminator 1
	addsd	%xmm3, %xmm4
	movq	712(%rbp), %rax
	movsd	616(%rbp), %xmm3
	movsd	%xmm3, 56(%rsp)
	movsd	%xmm2, 48(%rsp)
	movsd	%xmm1, 40(%rsp)
	movsd	%xmm0, 32(%rsp)
	movapd	%xmm6, %xmm3
	movapd	%xmm5, %xmm2
	movapd	%xmm4, %xmm1
	movq	%rax, %rcx
	call	_ZN34CalculadorPontoMassaModificado19904ar_zEddddddd
	movq	%xmm0, %rax
	movq	%rax, 416(%rbp)
	.loc 6 149 17 discriminator 1
	movq	712(%rbp), %rax
	movq	712(%rbp), %rdx
	movsd	384(%rdx), %xmm2
	movq	712(%rbp), %rdx
	movsd	328(%rdx), %xmm1
	movq	712(%rbp), %rdx
	movsd	336(%rdx), %xmm0
	.loc 6 149 40 discriminator 1
	movq	712(%rbp), %rdx
	movsd	368(%rdx), %xmm4
	.loc 6 149 46 discriminator 1
	movsd	88(%rbp), %xmm3
	mulsd	440(%rbp), %xmm3
	.loc 6 149 17 discriminator 1
	movapd	%xmm4, %xmm6
	addsd	%xmm3, %xmm6
	.loc 6 149 29 discriminator 1
	movq	712(%rbp), %rdx
	movsd	360(%rdx), %xmm4
	.loc 6 149 35 discriminator 1
	movsd	88(%rbp), %xmm3
	mulsd	448(%rbp), %xmm3
	.loc 6 149 17 discriminator 1
	movapd	%xmm4, %xmm5
	addsd	%xmm3, %xmm5
	.loc 6 149 18 discriminator 1
	movq	712(%rbp), %rdx
	movsd	352(%rdx), %xmm4
	.loc 6 149 24 discriminator 1
	movsd	88(%rbp), %xmm3
	mulsd	456(%rbp), %xmm3
	.loc 6 149 17 discriminator 1
	addsd	%xmm3, %xmm4
	movsd	616(%rbp), %xmm3
	movsd	%xmm3, 80(%rsp)
	movsd	%xmm2, 72(%rsp)
	movsd	%xmm1, 64(%rsp)
	movsd	%xmm0, 56(%rsp)
	movsd	416(%rbp), %xmm0
	movsd	%xmm0, 48(%rsp)
	movsd	424(%rbp), %xmm0
	movsd	%xmm0, 40(%rsp)
	movsd	432(%rbp), %xmm0
	movsd	%xmm0, 32(%rsp)
	movapd	%xmm6, %xmm3
	movapd	%xmm5, %xmm2
	movapd	%xmm4, %xmm1
	movq	%rax, %rcx
	call	_ZN30CalculadorPontoMassaModificado3acxEdddddddddd
	movq	%xmm0, %rax
	movq	%rax, 408(%rbp)
	.loc 6 150 17 discriminator 1
	movq	712(%rbp), %rax
	movq	712(%rbp), %rdx
	movsd	384(%rdx), %xmm1
	movq	712(%rbp), %rdx
	movsd	336(%rdx), %xmm0
	.loc 6 150 40 discriminator 1
	movq	712(%rbp), %rdx
	movsd	368(%rdx), %xmm3
	.loc 6 150 46 discriminator 1
	movsd	88(%rbp), %xmm2
	mulsd	440(%rbp), %xmm2
	.loc 6 150 17 discriminator 1
	movapd	%xmm3, %xmm6
	addsd	%xmm2, %xmm6
	.loc 6 150 29 discriminator 1
	movq	712(%rbp), %rdx
	movsd	360(%rdx), %xmm3
	.loc 6 150 35 discriminator 1
	movsd	88(%rbp), %xmm2
	mulsd	448(%rbp), %xmm2
	.loc 6 150 17 discriminator 1
	movapd	%xmm3, %xmm5
	addsd	%xmm2, %xmm5
	.loc 6 150 18 discriminator 1
	movq	712(%rbp), %rdx
	movsd	352(%rdx), %xmm3
	.loc 6 150 24 discriminator 1
	movsd	88(%rbp), %xmm2
	mulsd	456(%rbp), %xmm2
	.loc 6 150 17 discriminator 1
	movapd	%xmm3, %xmm4
	addsd	%xmm2, %xmm4
	movsd	616(%rbp), %xmm2
	movsd	%xmm2, 72(%rsp)
	movsd	%xmm1, 64(%rsp)
	movsd	%xmm0, 56(%rsp)
	movsd	416(%rbp), %xmm0
	movsd	%xmm0, 48(%rsp)
	movsd	424(%rbp), %xmm0
	movsd	%xmm0, 40(%rsp)
	movsd	432(%rbp), %xmm0
	movsd	%xmm0, 32(%rsp)
	movapd	%xmm6, %xmm3
	movapd	%xmm5, %xmm2
	movapd	%xmm4, %xmm1
	movq	%rax, %rcx
	call	_ZN30CalculadorPontoMassaModificado3acyEddddddddd
	movq	%xmm0, %rax
	movq	%rax, 400(%rbp)
	.loc 6 151 17 discriminator 1
	movq	712(%rbp), %rax
	movq	712(%rbp), %rdx
	movsd	384(%rdx), %xmm2
	movq	712(%rbp), %rdx
	movsd	344(%rdx), %xmm1
	movq	712(%rbp), %rdx
	movsd	336(%rdx), %xmm0
	.loc 6 151 40 discriminator 1
	movq	712(%rbp), %rdx
	movsd	368(%rdx), %xmm4
	.loc 6 151 46 discriminator 1
	movsd	88(%rbp), %xmm3
	mulsd	440(%rbp), %xmm3
	.loc 6 151 17 discriminator 1
	movapd	%xmm4, %xmm6
	addsd	%xmm3, %xmm6
	.loc 6 151 29 discriminator 1
	movq	712(%rbp), %rdx
	movsd	360(%rdx), %xmm4
	.loc 6 151 35 discriminator 1
	movsd	88(%rbp), %xmm3
	mulsd	448(%rbp), %xmm3
	.loc 6 151 17 discriminator 1
	movapd	%xmm4, %xmm5
	addsd	%xmm3, %xmm5
	.loc 6 151 18 discriminator 1
	movq	712(%rbp), %rdx
	movsd	352(%rdx), %xmm4
	.loc 6 151 24 discriminator 1
	movsd	88(%rbp), %xmm3
	mulsd	456(%rbp), %xmm3
	.loc 6 151 17 discriminator 1
	addsd	%xmm3, %xmm4
	movsd	616(%rbp), %xmm3
	movsd	%xmm3, 80(%rsp)
	movsd	%xmm2, 72(%rsp)
	movsd	%xmm1, 64(%rsp)
	movsd	%xmm0, 56(%rsp)
	movsd	416(%rbp), %xmm0
	movsd	%xmm0, 48(%rsp)
	movsd	424(%rbp), %xmm0
	movsd	%xmm0, 40(%rsp)
	movsd	432(%rbp), %xmm0
	movsd	%xmm0, 32(%rsp)
	movapd	%xmm6, %xmm3
	movapd	%xmm5, %xmm2
	movapd	%xmm4, %xmm1
	movq	%rax, %rcx
	call	_ZN30CalculadorPontoMassaModificado3aczEdddddddddd
	movq	%xmm0, %rax
	movq	%rax, 392(%rbp)
	.loc 6 154 15 discriminator 1
	movsd	88(%rbp), %xmm0
	movsd	.LC5(%rip), %xmm1
	divsd	%xmm1, %xmm0
	movapd	%xmm0, %xmm1
	.loc 6 154 25 discriminator 1
	movsd	504(%rbp), %xmm0
	addsd	%xmm0, %xmm0
	.loc 6 154 22 discriminator 1
	movapd	%xmm0, %xmm2
	addsd	552(%rbp), %xmm2
	.loc 6 154 32 discriminator 1
	movsd	456(%rbp), %xmm0
	addsd	%xmm0, %xmm0
	.loc 6 154 29 discriminator 1
	addsd	%xmm2, %xmm0
	.loc 6 154 36 discriminator 1
	addsd	408(%rbp), %xmm0
	.loc 6 154 12 discriminator 1
	mulsd	%xmm1, %xmm0
	movsd	%xmm0, 600(%rbp)
	.loc 6 155 15 discriminator 1
	movsd	88(%rbp), %xmm0
	movsd	.LC5(%rip), %xmm1
	divsd	%xmm1, %xmm0
	movapd	%xmm0, %xmm1
	.loc 6 155 25 discriminator 1
	movsd	496(%rbp), %xmm0
	addsd	%xmm0, %xmm0
	.loc 6 155 22 discriminator 1
	movapd	%xmm0, %xmm2
	addsd	544(%rbp), %xmm2
	.loc 6 155 32 discriminator 1
	movsd	448(%rbp), %xmm0
	addsd	%xmm0, %xmm0
	.loc 6 155 29 discriminator 1
	addsd	%xmm2, %xmm0
	.loc 6 155 36 discriminator 1
	addsd	400(%rbp), %xmm0
	.loc 6 155 12 discriminator 1
	mulsd	%xmm1, %xmm0
	movsd	%xmm0, 592(%rbp)
	.loc 6 156 15 discriminator 1
	movsd	88(%rbp), %xmm0
	movsd	.LC5(%rip), %xmm1
	divsd	%xmm1, %xmm0
	movapd	%xmm0, %xmm1
	.loc 6 156 25 discriminator 1
	movsd	488(%rbp), %xmm0
	addsd	%xmm0, %xmm0
	.loc 6 156 22 discriminator 1
	movapd	%xmm0, %xmm2
	addsd	536(%rbp), %xmm2
	.loc 6 156 32 discriminator 1
	movsd	440(%rbp), %xmm0
	addsd	%xmm0, %xmm0
	.loc 6 156 29 discriminator 1
	addsd	%xmm2, %xmm0
	.loc 6 156 36 discriminator 1
	addsd	392(%rbp), %xmm0
	.loc 6 156 12 discriminator 1
	mulsd	%xmm1, %xmm0
	movsd	%xmm0, 584(%rbp)
	.loc 6 162 22 discriminator 1
	movq	712(%rbp), %rax
	movq	712(%rbp), %rdx
	movsd	384(%rdx), %xmm1
	movq	712(%rbp), %rdx
	movsd	336(%rdx), %xmm0
	movq	712(%rbp), %rdx
	movsd	368(%rdx), %xmm3
	movq	712(%rbp), %rdx
	movsd	360(%rdx), %xmm5
	movq	712(%rbp), %rdx
	movsd	352(%rdx), %xmm4
	movsd	616(%rbp), %xmm2
	movsd	%xmm2, 72(%rsp)
	movsd	%xmm1, 64(%rsp)
	movsd	%xmm0, 56(%rsp)
	movsd	536(%rbp), %xmm0
	movsd	%xmm0, 48(%rsp)
	movsd	544(%rbp), %xmm0
	movsd	%xmm0, 40(%rsp)
	movsd	552(%rbp), %xmm0
	movsd	%xmm0, 32(%rsp)
	movapd	%xmm5, %xmm2
	movapd	%xmm4, %xmm1
	movq	%rax, %rcx
	call	_ZN30CalculadorPontoMassaModificado2arEddddddddd
	movq	%xmm0, %rdx
	.loc 6 162 18 discriminator 1
	movq	712(%rbp), %rax
	movq	%rdx, 384(%rax)
	.loc 6 167 14 discriminator 1
	movq	712(%rbp), %rax
	movsd	352(%rax), %xmm0
	movsd	%xmm0, 384(%rbp)
	.loc 6 168 16 discriminator 1
	movq	712(%rbp), %rax
	movsd	352(%rax), %xmm1
	.loc 6 168 23 discriminator 1
	movsd	88(%rbp), %xmm0
	mulsd	552(%rbp), %xmm0
	.loc 6 168 25 discriminator 1
	movsd	.LC6(%rip), %xmm2
	divsd	%xmm2, %xmm0
	.loc 6 168 14 discriminator 1
	addsd	%xmm1, %xmm0
	movsd	%xmm0, 376(%rbp)
	.loc 6 169 16 discriminator 1
	movq	712(%rbp), %rax
	movsd	352(%rax), %xmm1
	.loc 6 169 23 discriminator 1
	movsd	88(%rbp), %xmm0
	mulsd	504(%rbp), %xmm0
	.loc 6 169 25 discriminator 1
	movsd	.LC6(%rip), %xmm2
	divsd	%xmm2, %xmm0
	.loc 6 169 14 discriminator 1
	addsd	%xmm1, %xmm0
	movsd	%xmm0, 368(%rbp)
	.loc 6 170 16 discriminator 1
	movq	712(%rbp), %rax
	movsd	352(%rax), %xmm1
	.loc 6 170 23 discriminator 1
	movsd	88(%rbp), %xmm0
	mulsd	456(%rbp), %xmm0
	.loc 6 170 14 discriminator 1
	addsd	%xmm1, %xmm0
	movsd	%xmm0, 360(%rbp)
	.loc 6 173 14 discriminator 1
	movq	712(%rbp), %rax
	movsd	360(%rax), %xmm0
	movsd	%xmm0, 352(%rbp)
	.loc 6 174 16 discriminator 1
	movq	712(%rbp), %rax
	movsd	360(%rax), %xmm1
	.loc 6 174 23 discriminator 1
	movsd	88(%rbp), %xmm0
	mulsd	544(%rbp), %xmm0
	.loc 6 174 25 discriminator 1
	movsd	.LC6(%rip), %xmm2
	divsd	%xmm2, %xmm0
	.loc 6 174 14 discriminator 1
	addsd	%xmm1, %xmm0
	movsd	%xmm0, 344(%rbp)
	.loc 6 175 16 discriminator 1
	movq	712(%rbp), %rax
	movsd	360(%rax), %xmm1
	.loc 6 175 23 discriminator 1
	movsd	88(%rbp), %xmm0
	mulsd	496(%rbp), %xmm0
	.loc 6 175 25 discriminator 1
	movsd	.LC6(%rip), %xmm2
	divsd	%xmm2, %xmm0
	.loc 6 175 14 discriminator 1
	addsd	%xmm1, %xmm0
	movsd	%xmm0, 336(%rbp)
	.loc 6 176 16 discriminator 1
	movq	712(%rbp), %rax
	movsd	360(%rax), %xmm1
	.loc 6 176 23 discriminator 1
	movsd	88(%rbp), %xmm0
	mulsd	448(%rbp), %xmm0
	.loc 6 176 14 discriminator 1
	addsd	%xmm1, %xmm0
	movsd	%xmm0, 328(%rbp)
	.loc 6 179 14 discriminator 1
	movq	712(%rbp), %rax
	movsd	368(%rax), %xmm0
	movsd	%xmm0, 320(%rbp)
	.loc 6 180 16 discriminator 1
	movq	712(%rbp), %rax
	movsd	368(%rax), %xmm1
	.loc 6 180 23 discriminator 1
	movsd	88(%rbp), %xmm0
	mulsd	536(%rbp), %xmm0
	.loc 6 180 25 discriminator 1
	movsd	.LC6(%rip), %xmm2
	divsd	%xmm2, %xmm0
	.loc 6 180 14 discriminator 1
	addsd	%xmm1, %xmm0
	movsd	%xmm0, 312(%rbp)
	.loc 6 181 16 discriminator 1
	movq	712(%rbp), %rax
	movsd	368(%rax), %xmm1
	.loc 6 181 23 discriminator 1
	movsd	88(%rbp), %xmm0
	mulsd	488(%rbp), %xmm0
	.loc 6 181 25 discriminator 1
	movsd	.LC6(%rip), %xmm2
	divsd	%xmm2, %xmm0
	.loc 6 181 14 discriminator 1
	addsd	%xmm1, %xmm0
	movsd	%xmm0, 304(%rbp)
	.loc 6 182 16 discriminator 1
	movq	712(%rbp), %rax
	movsd	368(%rax), %xmm1
	.loc 6 182 23 discriminator 1
	movsd	88(%rbp), %xmm0
	mulsd	440(%rbp), %xmm0
	.loc 6 182 14 discriminator 1
	addsd	%xmm1, %xmm0
	movsd	%xmm0, 296(%rbp)
	.loc 6 185 23 discriminator 1
	movq	712(%rbp), %rax
	movsd	320(%rbp), %xmm2
	movsd	352(%rbp), %xmm1
	movsd	384(%rbp), %xmm0
	movapd	%xmm2, %xmm3
	movapd	%xmm1, %xmm2
	movapd	%xmm0, %xmm1
	movq	%rax, %rcx
	call	_ZN10Calculador1vEddd
	movq	%xmm0, %rax
	movq	%rax, 288(%rbp)
	.loc 6 186 33 discriminator 1
	movq	712(%rbp), %rax
	movq	712(%rbp), %rdx
	movsd	336(%rdx), %xmm1
	movsd	288(%rbp), %xmm0
	movapd	%xmm1, %xmm2
	movapd	%xmm0, %xmm1
	movq	%rax, %rcx
	call	_ZN21CalculadorAtmosferico8vel_machEdd
	movq	%xmm0, %rax
	movq	%rax, 280(%rbp)
	.loc 6 187 23 discriminator 1
	movq	712(%rbp), %rax
	movsd	312(%rbp), %xmm2
	movsd	344(%rbp), %xmm1
	movsd	376(%rbp), %xmm0
	movapd	%xmm2, %xmm3
	movapd	%xmm1, %xmm2
	movapd	%xmm0, %xmm1
	movq	%rax, %rcx
	call	_ZN10Calculador1vEddd
	movq	%xmm0, %rax
	movq	%rax, 272(%rbp)
	.loc 6 188 33 discriminator 1
	movq	712(%rbp), %rax
	movq	712(%rbp), %rdx
	movsd	336(%rdx), %xmm1
	movsd	272(%rbp), %xmm0
	movapd	%xmm1, %xmm2
	movapd	%xmm0, %xmm1
	movq	%rax, %rcx
	call	_ZN21CalculadorAtmosferico8vel_machEdd
	movq	%xmm0, %rax
	movq	%rax, 264(%rbp)
	.loc 6 189 23 discriminator 1
	movq	712(%rbp), %rax
	movsd	304(%rbp), %xmm2
	movsd	336(%rbp), %xmm1
	movsd	368(%rbp), %xmm0
	movapd	%xmm2, %xmm3
	movapd	%xmm1, %xmm2
	movapd	%xmm0, %xmm1
	movq	%rax, %rcx
	call	_ZN10Calculador1vEddd
	movq	%xmm0, %rax
	movq	%rax, 256(%rbp)
	.loc 6 190 33 discriminator 1
	movq	712(%rbp), %rax
	movq	712(%rbp), %rdx
	movsd	336(%rdx), %xmm1
	movsd	256(%rbp), %xmm0
	movapd	%xmm1, %xmm2
	movapd	%xmm0, %xmm1
	movq	%rax, %rcx
	call	_ZN21CalculadorAtmosferico8vel_machEdd
	movq	%xmm0, %rax
	movq	%rax, 248(%rbp)
	.loc 6 191 23 discriminator 1
	movq	712(%rbp), %rax
	movsd	296(%rbp), %xmm2
	movsd	328(%rbp), %xmm1
	movsd	360(%rbp), %xmm0
	movapd	%xmm2, %xmm3
	movapd	%xmm1, %xmm2
	movapd	%xmm0, %xmm1
	movq	%rax, %rcx
	call	_ZN10Calculador1vEddd
	movq	%xmm0, %rax
	movq	%rax, 240(%rbp)
	.loc 6 192 33 discriminator 1
	movq	712(%rbp), %rax
	movq	712(%rbp), %rdx
	movsd	336(%rdx), %xmm1
	movsd	240(%rbp), %xmm0
	movapd	%xmm1, %xmm2
	movapd	%xmm0, %xmm1
	movq	%rax, %rcx
	call	_ZN21CalculadorAtmosferico8vel_machEdd
	movq	%xmm0, %rax
	movq	%rax, 232(%rbp)
	.loc 6 194 41 discriminator 1
	movq	712(%rbp), %rax
	movq	232(%rax), %rdx
	movq	712(%rbp), %rax
	movq	232(%rax), %rax
	.loc 6 194 60 discriminator 1
	movq	(%rax), %rax
	addq	$32, %rax
	movq	(%rax), %rax
	.loc 6 194 57 discriminator 1
	movq	712(%rbp), %rcx
	movsd	336(%rcx), %xmm0
	movapd	%xmm0, %xmm1
	movq	%rdx, %rcx
	call	*%rax
.LVL5:
	movapd	%xmm0, %xmm1
	.loc 6 194 62 discriminator 1
	movq	712(%rbp), %rax
	movsd	256(%rax), %xmm0
	.loc 6 194 61 discriminator 1
	mulsd	%xmm0, %xmm1
	.loc 6 194 65 discriminator 1
	movq	712(%rbp), %rax
	movsd	248(%rax), %xmm0
	.loc 6 194 63 discriminator 1
	mulsd	%xmm0, %xmm1
	.loc 6 194 76 discriminator 1
	movq	712(%rbp), %rax
	movsd	248(%rax), %xmm0
	.loc 6 194 74 discriminator 1
	mulsd	%xmm1, %xmm0
	.loc 6 194 85 discriminator 1
	movapd	%xmm0, %xmm6
	mulsd	616(%rbp), %xmm6
	.loc 6 194 112 discriminator 1
	movq	712(%rbp), %rax
	addq	$96, %rax
	movq	%rax, %rcx
	call	_ZN8Projetil5getIxEv
	.loc 6 194 97 discriminator 1
	addsd	%xmm0, %xmm0
	.loc 6 194 114 discriminator 1
	divsd	%xmm0, %xmm6
	movapd	%xmm6, %xmm0
	movsd	%xmm0, 224(%rbp)
	.loc 6 195 51 discriminator 1
	movsd	224(%rbp), %xmm0
	movapd	%xmm0, %xmm6
	mulsd	288(%rbp), %xmm6
	.loc 6 195 86 discriminator 1
	movq	712(%rbp), %rax
	addq	$744, %rax
	movsd	280(%rbp), %xmm0
	movapd	%xmm0, %xmm1
	movq	%rax, %rcx
	call	_ZN23CoeficienteAerodinamico8getValorEd
	.loc 6 195 93 discriminator 1
	mulsd	%xmm6, %xmm0
	movsd	%xmm0, 216(%rbp)
	.loc 6 196 51 discriminator 1
	movsd	224(%rbp), %xmm0
	movapd	%xmm0, %xmm6
	mulsd	272(%rbp), %xmm6
	.loc 6 196 86 discriminator 1
	movq	712(%rbp), %rax
	addq	$744, %rax
	movsd	264(%rbp), %xmm0
	movapd	%xmm0, %xmm1
	movq	%rax, %rcx
	call	_ZN23CoeficienteAerodinamico8getValorEd
	.loc 6 196 93 discriminator 1
	mulsd	%xmm6, %xmm0
	movsd	%xmm0, 208(%rbp)
	.loc 6 197 51 discriminator 1
	movsd	224(%rbp), %xmm0
	movapd	%xmm0, %xmm6
	mulsd	256(%rbp), %xmm6
	.loc 6 197 86 discriminator 1
	movq	712(%rbp), %rax
	addq	$744, %rax
	movsd	248(%rbp), %xmm0
	movapd	%xmm0, %xmm1
	movq	%rax, %rcx
	call	_ZN23CoeficienteAerodinamico8getValorEd
	.loc 6 197 93 discriminator 1
	mulsd	%xmm6, %xmm0
	movsd	%xmm0, 200(%rbp)
	.loc 6 198 51 discriminator 1
	movsd	224(%rbp), %xmm0
	movapd	%xmm0, %xmm6
	mulsd	240(%rbp), %xmm6
	.loc 6 198 86 discriminator 1
	movq	712(%rbp), %rax
	addq	$744, %rax
	movsd	232(%rbp), %xmm0
	movapd	%xmm0, %xmm1
	movq	%rax, %rcx
	call	_ZN23CoeficienteAerodinamico8getValorEd
	.loc 6 198 93 discriminator 1
	mulsd	%xmm6, %xmm0
	movsd	%xmm0, 192(%rbp)
	.loc 6 200 36 discriminator 1
	movsd	208(%rbp), %xmm0
	addsd	%xmm0, %xmm0
	.loc 6 200 33 discriminator 1
	movapd	%xmm0, %xmm1
	addsd	216(%rbp), %xmm1
	.loc 6 200 51 discriminator 1
	movsd	200(%rbp), %xmm0
	addsd	%xmm0, %xmm0
	.loc 6 200 48 discriminator 1
	addsd	%xmm1, %xmm0
	.loc 6 200 63 discriminator 1
	movapd	%xmm0, %xmm1
	addsd	192(%rbp), %xmm1
	.loc 6 200 79 discriminator 1
	movsd	88(%rbp), %xmm0
	movsd	.LC5(%rip), %xmm2
	divsd	%xmm2, %xmm0
	.loc 6 200 76 discriminator 1
	mulsd	%xmm1, %xmm0
	.loc 6 200 18 discriminator 1
	movsd	616(%rbp), %xmm1
	addsd	%xmm1, %xmm0
	movsd	%xmm0, 616(%rbp)
	.loc 6 203 12 discriminator 1
	movq	712(%rbp), %rax
	movsd	352(%rax), %xmm0
	addsd	600(%rbp), %xmm0
	movq	712(%rbp), %rax
	movsd	%xmm0, 352(%rax)
	.loc 6 204 12 discriminator 1
	movq	712(%rbp), %rax
	movsd	360(%rax), %xmm0
	addsd	592(%rbp), %xmm0
	movq	712(%rbp), %rax
	movsd	%xmm0, 360(%rax)
	.loc 6 205 12 discriminator 1
	movq	712(%rbp), %rax
	movsd	368(%rax), %xmm0
	addsd	584(%rbp), %xmm0
	movq	712(%rbp), %rax
	movsd	%xmm0, 368(%rax)
	.loc 6 208 12 discriminator 1
	movq	712(%rbp), %rax
	movsd	328(%rax), %xmm1
	.loc 6 208 24 discriminator 1
	movsd	376(%rbp), %xmm0
	addsd	%xmm0, %xmm0
	.loc 6 208 21 discriminator 1
	movapd	%xmm0, %xmm2
	addsd	384(%rbp), %xmm2
	.loc 6 208 33 discriminator 1
	movsd	368(%rbp), %xmm0
	addsd	%xmm0, %xmm0
	.loc 6 208 30 discriminator 1
	addsd	%xmm2, %xmm0
	.loc 6 208 39 discriminator 1
	movapd	%xmm0, %xmm2
	addsd	360(%rbp), %xmm2
	.loc 6 208 49 discriminator 1
	movsd	88(%rbp), %xmm0
	movsd	.LC5(%rip), %xmm3
	divsd	%xmm3, %xmm0
	.loc 6 208 46 discriminator 1
	mulsd	%xmm2, %xmm0
	.loc 6 208 12 discriminator 1
	addsd	%xmm1, %xmm0
	movq	712(%rbp), %rax
	movsd	%xmm0, 328(%rax)
	.loc 6 209 12 discriminator 1
	movq	712(%rbp), %rax
	movsd	336(%rax), %xmm1
	.loc 6 209 24 discriminator 1
	movsd	344(%rbp), %xmm0
	addsd	%xmm0, %xmm0
	.loc 6 209 21 discriminator 1
	movapd	%xmm0, %xmm2
	addsd	352(%rbp), %xmm2
	.loc 6 209 33 discriminator 1
	movsd	336(%rbp), %xmm0
	addsd	%xmm0, %xmm0
	.loc 6 209 30 discriminator 1
	addsd	%xmm2, %xmm0
	.loc 6 209 39 discriminator 1
	movapd	%xmm0, %xmm2
	addsd	328(%rbp), %xmm2
	.loc 6 209 49 discriminator 1
	movsd	88(%rbp), %xmm0
	movsd	.LC5(%rip), %xmm3
	divsd	%xmm3, %xmm0
	.loc 6 209 46 discriminator 1
	mulsd	%xmm2, %xmm0
	.loc 6 209 12 discriminator 1
	addsd	%xmm1, %xmm0
	movq	712(%rbp), %rax
	movsd	%xmm0, 336(%rax)
	.loc 6 210 12 discriminator 1
	movq	712(%rbp), %rax
	movsd	344(%rax), %xmm1
	.loc 6 210 24 discriminator 1
	movsd	312(%rbp), %xmm0
	addsd	%xmm0, %xmm0
	.loc 6 210 21 discriminator 1
	movapd	%xmm0, %xmm2
	addsd	320(%rbp), %xmm2
	.loc 6 210 33 discriminator 1
	movsd	304(%rbp), %xmm0
	addsd	%xmm0, %xmm0
	.loc 6 210 30 discriminator 1
	addsd	%xmm2, %xmm0
	.loc 6 210 39 discriminator 1
	movapd	%xmm0, %xmm2
	addsd	296(%rbp), %xmm2
	.loc 6 210 49 discriminator 1
	movsd	88(%rbp), %xmm0
	movsd	.LC5(%rip), %xmm3
	divsd	%xmm3, %xmm0
	.loc 6 210 46 discriminator 1
	mulsd	%xmm2, %xmm0
	.loc 6 210 12 discriminator 1
	addsd	%xmm1, %xmm0
	movq	712(%rbp), %rax
	movsd	%xmm0, 344(%rax)
	.loc 6 212 22 discriminator 1
	movq	712(%rbp), %rax
	movsd	336(%rax), %xmm1
	.loc 6 212 28 discriminator 1
	movq	712(%rbp), %rax
	movsd	328(%rax), %xmm2
	.loc 6 212 31 discriminator 1
	movq	712(%rbp), %rax
	movsd	328(%rax), %xmm0
	.loc 6 212 30 discriminator 1
	mulsd	%xmm0, %xmm2
	.loc 6 212 36 discriminator 1
	movq	712(%rbp), %rax
	movsd	344(%rax), %xmm3
	.loc 6 212 39 discriminator 1
	movq	712(%rbp), %rax
	movsd	344(%rax), %xmm0
	.loc 6 212 38 discriminator 1
	mulsd	%xmm3, %xmm0
	.loc 6 212 34 discriminator 1
	addsd	%xmm2, %xmm0
	.loc 6 212 42 discriminator 1
	movsd	.LC7(%rip), %xmm2
	divsd	%xmm2, %xmm0
	.loc 6 212 25 discriminator 1
	addsd	%xmm1, %xmm0
	.loc 6 212 20 discriminator 1
	movq	712(%rbp), %rax
	movsd	%xmm0, 400(%rax)
	.loc 6 215 15 discriminator 1
	movq	712(%rbp), %rax
	movsd	376(%rax), %xmm1
	movsd	88(%rbp), %xmm0
	addsd	%xmm1, %xmm0
	movq	712(%rbp), %rax
	movsd	%xmm0, 376(%rax)
	.loc 6 216 12 discriminator 1
	movq	712(%rbp), %rax
	movsd	360(%rax), %xmm1
	.loc 6 216 9 discriminator 1
	pxor	%xmm0, %xmm0
	comisd	%xmm1, %xmm0
	jbe	.L22
	.loc 6 216 23 discriminator 1
	movq	712(%rbp), %rax
	movzbl	392(%rax), %eax
	.loc 6 216 22 discriminator 1
	xorl	$1, %eax
	.loc 6 216 19 discriminator 1
	testb	%al, %al
	je	.L22
	.loc 6 217 19
	movq	712(%rbp), %rax
	movb	$1, 392(%rax)
.L22:
	.loc 6 221 11
	movq	712(%rbp), %rax
	movsd	384(%rax), %xmm0
	.loc 6 221 8
	movsd	.LC8(%rip), %xmm1
	comisd	%xmm1, %xmm0
	jbe	.L47
	.loc 6 223 17
	movq	712(%rbp), %rax
	movsd	56(%rax), %xmm2
	movq	712(%rbp), %rax
	movsd	336(%rax), %xmm1
	movq	712(%rbp), %rax
	movsd	328(%rax), %xmm0
	movq	%xmm2, %rax
	movq	%rax, %rdx
	movq	%rdx, %r8
	movq	%rax, %xmm2
	movq	%xmm1, %rax
	movq	%rax, %rdx
	movq	%rdx, %rcx
	movq	%rax, %xmm1
	movq	%xmm0, %rax
	movq	%rax, %rdx
	movq	%r8, %xmm3
	movq	%xmm2, %r9
	movq	%rcx, %xmm2
	movq	%xmm1, %r8
	movq	%rdx, %xmm1
	movq	%rax, %rdx
	leaq	.LC9(%rip), %rcx
	call	_ZL6printfPKcz
	.loc 6 224 27
	movq	712(%rbp), %rax
	movsd	376(%rax), %xmm5
	movq	712(%rbp), %rax
	movsd	384(%rax), %xmm4
	movq	712(%rbp), %rax
	movsd	368(%rax), %xmm3
	movq	712(%rbp), %rax
	movsd	360(%rax), %xmm2
	movq	712(%rbp), %rax
	movsd	352(%rax), %xmm1
	movq	712(%rbp), %rax
	movsd	344(%rax), %xmm0
	movq	712(%rbp), %rax
	movsd	336(%rax), %xmm8
	movq	712(%rbp), %rax
	movsd	328(%rax), %xmm7
	movsd	720(%rbp), %xmm6
	leaq	96(%rbp), %rax
	movsd	%xmm5, 72(%rsp)
	movsd	%xmm4, 64(%rsp)
	movsd	%xmm3, 56(%rsp)
	movsd	%xmm2, 48(%rsp)
	movsd	%xmm1, 40(%rsp)
	movsd	%xmm0, 32(%rsp)
	movapd	%xmm8, %xmm3
	movapd	%xmm7, %xmm2
	movapd	%xmm6, %xmm1
	movq	%rax, %rcx
	call	_ZN12ElementosVoo3setEddddddddd
	.loc 6 225 32
	movq	712(%rbp), %rax
	movsd	384(%rax), %xmm0
	leaq	96(%rbp), %rax
	movapd	%xmm0, %xmm1
	movq	%rax, %rcx
	call	_ZN12ElementosVoo8setArMaxEd
	.loc 6 226 36
	movq	712(%rbp), %rax
	movsd	408(%rax), %xmm0
	leaq	96(%rbp), %rax
	movapd	%xmm0, %xmm1
	movq	%rax, %rcx
	call	_ZN12ElementosVoo12setAlturaMaxEd
	.loc 6 227 39
	movq	712(%rbp), %rax
	leaq	304(%rax), %rcx
	leaq	96(%rbp), %rax
	movq	%rax, %rdx
	call	_ZNSt6vectorI12ElementosVooSaIS0_EE9push_backERKS0_
	.loc 6 228 18
	movq	712(%rbp), %rax
	addq	$304, %rax
	movq	%rax, %rdx
	movq	704(%rbp), %rcx
	call	_ZNSt6vectorI12ElementosVooSaIS0_EEC1ERKS2_
	jmp	.L26
.L47:
	.loc 6 230 11
	movq	712(%rbp), %rax
	movsd	384(%rax), %xmm0
	.loc 6 230 22
	movq	712(%rbp), %rax
	movsd	416(%rax), %xmm1
	.loc 6 230 8
	comisd	%xmm1, %xmm0
	jbe	.L27
	.loc 6 231 21
	movq	712(%rbp), %rax
	movsd	384(%rax), %xmm0
	.loc 6 231 19
	movq	712(%rbp), %rax
	movsd	%xmm0, 416(%rax)
.L27:
	.loc 6 233 11
	movq	712(%rbp), %rax
	movsd	400(%rax), %xmm0
	.loc 6 233 24
	movq	712(%rbp), %rax
	movsd	408(%rax), %xmm1
	.loc 6 233 8
	comisd	%xmm1, %xmm0
	jbe	.L29
	.loc 6 233 49 discriminator 1
	movq	712(%rbp), %rax
	movsd	400(%rax), %xmm0
	.loc 6 233 47 discriminator 1
	movq	712(%rbp), %rax
	movsd	%xmm0, 408(%rax)
.L29:
.LBB6:
	.loc 6 237 8
	cmpb	$0, -20(%rbp)
	jne	.L31
	.loc 6 237 47 discriminator 1
	movq	712(%rbp), %rax
	movzbl	393(%rax), %eax
	.loc 6 237 44 discriminator 1
	testb	%al, %al
	je	.L32
.L31:
.LBB7:
	.loc 6 239 25
	leaq	-16(%rbp), %rax
	movq	%rax, %rcx
	call	_ZN12ElementosVooC1Ev
.LEHE1:
	.loc 6 240 24
	movq	712(%rbp), %rax
	movl	72(%rax), %eax
	movl	%eax, %ecx
	.loc 6 240 23
	movl	612(%rbp), %eax
	movl	$0, %edx
	divl	%ecx
	movl	%edx, %eax
	.loc 6 240 12
	testl	%eax, %eax
	je	.L33
	.loc 6 240 50 discriminator 1
	movq	712(%rbp), %rax
	movzbl	393(%rax), %eax
	.loc 6 240 47 discriminator 1
	testb	%al, %al
	je	.L34
.L33:
	.loc 6 242 32
	movq	712(%rbp), %rax
	movsd	376(%rax), %xmm5
	movq	712(%rbp), %rax
	movsd	384(%rax), %xmm4
	movq	712(%rbp), %rax
	movsd	368(%rax), %xmm3
	movq	712(%rbp), %rax
	movsd	360(%rax), %xmm2
	movq	712(%rbp), %rax
	movsd	352(%rax), %xmm1
	movq	712(%rbp), %rax
	movsd	344(%rax), %xmm0
	movq	712(%rbp), %rax
	movsd	400(%rax), %xmm8
	movq	712(%rbp), %rax
	movsd	328(%rax), %xmm7
	movsd	720(%rbp), %xmm6
	leaq	-16(%rbp), %rax
	movsd	%xmm5, 72(%rsp)
	movsd	%xmm4, 64(%rsp)
	movsd	%xmm3, 56(%rsp)
	movsd	%xmm2, 48(%rsp)
	movsd	%xmm1, 40(%rsp)
	movsd	%xmm0, 32(%rsp)
	movapd	%xmm8, %xmm3
	movapd	%xmm7, %xmm2
	movapd	%xmm6, %xmm1
	movq	%rax, %rcx
.LEHB2:
	call	_ZN12ElementosVoo3setEddddddddd
	.loc 6 243 19
	movq	712(%rbp), %rax
	movzbl	393(%rax), %eax
	.loc 6 243 16
	testb	%al, %al
	je	.L35
	.loc 6 245 30
	movq	712(%rbp), %rax
	movb	$1, 394(%rax)
	.loc 6 246 41
	movq	712(%rbp), %rax
	movsd	416(%rax), %xmm0
	leaq	-16(%rbp), %rax
	movapd	%xmm0, %xmm1
	movq	%rax, %rcx
	call	_ZN12ElementosVoo8setArMaxEd
	.loc 6 247 45
	movq	712(%rbp), %rax
	movsd	408(%rax), %xmm0
	leaq	-16(%rbp), %rax
	movapd	%xmm0, %xmm1
	movq	%rax, %rcx
	call	_ZN12ElementosVoo12setAlturaMaxEd
.L35:
	.loc 6 249 44
	movq	712(%rbp), %rax
	leaq	304(%rax), %rcx
	leaq	-16(%rbp), %rax
	movq	%rax, %rdx
	call	_ZNSt6vectorI12ElementosVooSaIS0_EE9push_backERKS0_
.LEHE2:
.L34:
	.loc 6 251 20
	addl	$1, 612(%rbp)
	.loc 6 239 25
	leaq	-16(%rbp), %rax
	movq	%rax, %rcx
	call	_ZN12ElementosVooD1Ev
.L32:
.LBE7:
.LBE6:
	.loc 6 255 29
	movq	712(%rbp), %rdx
	movzbl	-20(%rbp), %ecx
	movsd	736(%rbp), %xmm1
	movsd	720(%rbp), %xmm0
	movl	760(%rbp), %eax
	movl	%eax, 40(%rsp)
	leaq	88(%rbp), %rax
	movq	%rax, 32(%rsp)
	movl	%ecx, %r9d
	movapd	%xmm1, %xmm2
	movapd	%xmm0, %xmm1
	movq	%rdx, %rcx
.LEHB3:
	call	_ZN21CalculadorAtmosferico21checaCondicaoDeParadaEddbRd4RAMO
.LBE5:
	.loc 6 259 12
	movq	712(%rbp), %rax
	movzbl	394(%rax), %eax
	.loc 6 259 11
	testb	%al, %al
	jne	.L36
	.loc 6 123 5
	jmp	.L37
.L36:
	.loc 6 261 12
	movq	712(%rbp), %rax
	addq	$304, %rax
	movq	%rax, %rdx
	movq	704(%rbp), %rcx
	call	_ZNSt6vectorI12ElementosVooSaIS0_EEC1ERKS2_
.LEHE3:
.L26:
	.loc 6 104 18
	leaq	96(%rbp), %rax
	movq	%rax, %rcx
	call	_ZN12ElementosVooD1Ev
	jmp	.L48
.L42:
	movq	%rax, %rbx
.LBB10:
.LBB9:
.LBB8:
	.loc 6 239 25
	leaq	-16(%rbp), %rax
	movq	%rax, %rcx
	call	_ZN12ElementosVooD1Ev
	jmp	.L40
.L41:
	movq	%rax, %rbx
.L40:
.LBE8:
.LBE9:
.LBE10:
	.loc 6 104 18
	leaq	96(%rbp), %rax
	movq	%rax, %rcx
	call	_ZN12ElementosVooD1Ev
	movq	%rbx, %rax
	movq	%rax, %rcx
.LEHB4:
	call	_Unwind_Resume
.LEHE4:
.L48:
	.loc 6 262 1
	movq	704(%rbp), %rax
	movaps	624(%rbp), %xmm6
	movaps	640(%rbp), %xmm7
	movaps	656(%rbp), %xmm8
	addq	$808, %rsp
	.cfi_restore 25
	.cfi_restore 24
	.cfi_restore 23
	popq	%rbx
	.cfi_restore 3
	popq	%rbp
	.cfi_restore 6
	.cfi_def_cfa 7, -792
	ret
	.cfi_endproc
.LFE2644:
	.def	__gxx_personality_seh0;	.scl	2;	.type	32;	.endef
	.seh_handler	__gxx_personality_seh0, @unwind, @except
	.seh_handlerdata
.LLSDA2644:
	.byte	0xff
	.byte	0xff
	.byte	0x1
	.uleb128 .LLSDACSE2644-.LLSDACSB2644
.LLSDACSB2644:
	.uleb128 .LEHB0-.LFB2644
	.uleb128 .LEHE0-.LEHB0
	.uleb128 0
	.uleb128 0
	.uleb128 .LEHB1-.LFB2644
	.uleb128 .LEHE1-.LEHB1
	.uleb128 .L41-.LFB2644
	.uleb128 0
	.uleb128 .LEHB2-.LFB2644
	.uleb128 .LEHE2-.LEHB2
	.uleb128 .L42-.LFB2644
	.uleb128 0
	.uleb128 .LEHB3-.LFB2644
	.uleb128 .LEHE3-.LEHB3
	.uleb128 .L41-.LFB2644
	.uleb128 0
	.uleb128 .LEHB4-.LFB2644
	.uleb128 .LEHE4-.LEHB4
	.uleb128 0
	.uleb128 0
.LLSDACSE2644:
	.text
	.seh_endproc
	.section	.text$_ZNSt6vectorI12ElementosVooSaIS0_EE5clearEv,"x"
	.linkonce discard
	.align 2
	.globl	_ZNSt6vectorI12ElementosVooSaIS0_EE5clearEv
	.def	_ZNSt6vectorI12ElementosVooSaIS0_EE5clearEv;	.scl	2;	.type	32;	.endef
	.seh_proc	_ZNSt6vectorI12ElementosVooSaIS0_EE5clearEv
_ZNSt6vectorI12ElementosVooSaIS0_EE5clearEv:
.LFB2868:
	.file 8 "C:/Program Files/CodeBlocks/MinGW/lib/gcc/x86_64-w64-mingw32/8.1.0/include/c++/bits/stl_vector.h"
	.loc 8 1385 7
	.cfi_startproc
	pushq	%rbp
	.seh_pushreg	%rbp
	.cfi_def_cfa_offset 16
	.cfi_offset 6, -16
	movq	%rsp, %rbp
	.seh_setframe	%rbp, 0
	.cfi_def_cfa_register 6
	subq	$32, %rsp
	.seh_stackalloc	32
	.seh_endprologue
	movq	%rcx, 16(%rbp)
	.loc 8 1386 9
	movq	16(%rbp), %rax
	movq	(%rax), %rax
	movq	%rax, %rdx
	movq	16(%rbp), %rcx
	call	_ZNSt6vectorI12ElementosVooSaIS0_EE15_M_erase_at_endEPS0_
	.loc 8 1386 50
	nop
	addq	$32, %rsp
	popq	%rbp
	.cfi_restore 6
	.cfi_def_cfa 7, 8
	ret
	.cfi_endproc
.LFE2868:
	.seh_endproc
	.section	.text$_ZNSt6vectorI12ElementosVooSaIS0_EE9push_backERKS0_,"x"
	.linkonce discard
	.align 2
	.globl	_ZNSt6vectorI12ElementosVooSaIS0_EE9push_backERKS0_
	.def	_ZNSt6vectorI12ElementosVooSaIS0_EE9push_backERKS0_;	.scl	2;	.type	32;	.endef
	.seh_proc	_ZNSt6vectorI12ElementosVooSaIS0_EE9push_backERKS0_
_ZNSt6vectorI12ElementosVooSaIS0_EE9push_backERKS0_:
.LFB2869:
	.loc 8 1074 7
	.cfi_startproc
	pushq	%rbp
	.seh_pushreg	%rbp
	.cfi_def_cfa_offset 16
	.cfi_offset 6, -16
	movq	%rsp, %rbp
	.seh_setframe	%rbp, 0
	.cfi_def_cfa_register 6
	subq	$32, %rsp
	.seh_stackalloc	32
	.seh_endprologue
	movq	%rcx, 16(%rbp)
	movq	%rdx, 24(%rbp)
	.loc 8 1076 20
	movq	16(%rbp), %rax
	movq	8(%rax), %rdx
	.loc 8 1076 47
	movq	16(%rbp), %rax
	movq	16(%rax), %rax
	.loc 8 1076 2
	cmpq	%rax, %rdx
	je	.L51
	.loc 8 1079 30
	movq	16(%rbp), %rax
	movq	8(%rax), %rdx
	.loc 8 1079 37
	movq	16(%rbp), %rax
	.loc 8 1079 30
	movq	24(%rbp), %rcx
	movq	%rcx, %r8
	movq	%rax, %rcx
	call	_ZNSt16allocator_traitsISaI12ElementosVooEE9constructIS0_JRKS0_EEEvRS1_PT_DpOT0_
	.loc 8 1081 22
	movq	16(%rbp), %rax
	movq	8(%rax), %rax
	.loc 8 1081 6
	leaq	96(%rax), %rdx
	movq	16(%rbp), %rax
	movq	%rdx, 8(%rax)
	.loc 8 1086 7
	jmp	.L53
.L51:
	.loc 8 1085 4
	movq	16(%rbp), %rcx
	call	_ZNSt6vectorI12ElementosVooSaIS0_EE3endEv
	movq	%rax, %rdx
	movq	24(%rbp), %rax
	movq	%rax, %r8
	movq	16(%rbp), %rcx
	call	_ZNSt6vectorI12ElementosVooSaIS0_EE17_M_realloc_insertIJRKS0_EEEvN9__gnu_cxx17__normal_iteratorIPS0_S2_EEDpOT_
.L53:
	.loc 8 1086 7
	nop
	addq	$32, %rsp
	popq	%rbp
	.cfi_restore 6
	.cfi_def_cfa 7, 8
	ret
	.cfi_endproc
.LFE2869:
	.seh_endproc
	.section	.text$_ZNSt6vectorI12ElementosVooSaIS0_EEC1ERKS2_,"x"
	.linkonce discard
	.align 2
	.globl	_ZNSt6vectorI12ElementosVooSaIS0_EEC1ERKS2_
	.def	_ZNSt6vectorI12ElementosVooSaIS0_EEC1ERKS2_;	.scl	2;	.type	32;	.endef
	.seh_proc	_ZNSt6vectorI12ElementosVooSaIS0_EEC1ERKS2_
_ZNSt6vectorI12ElementosVooSaIS0_EEC1ERKS2_:
.LFB2872:
	.loc 8 458 7
	.cfi_startproc
	pushq	%rbp
	.seh_pushreg	%rbp
	.cfi_def_cfa_offset 16
	.cfi_offset 6, -16
	pushq	%rdi
	.seh_pushreg	%rdi
	.cfi_def_cfa_offset 24
	.cfi_offset 5, -24
	pushq	%rsi
	.seh_pushreg	%rsi
	.cfi_def_cfa_offset 32
	.cfi_offset 4, -32
	pushq	%rbx
	.seh_pushreg	%rbx
	.cfi_def_cfa_offset 40
	.cfi_offset 3, -40
	subq	$56, %rsp
	.seh_stackalloc	56
	.cfi_def_cfa_offset 96
	leaq	128(%rsp), %rbp
	.seh_setframe	%rbp, 128
	.cfi_def_cfa 6, -32
	.seh_endprologue
	movq	%rcx, -32(%rbp)
	movq	%rdx, -24(%rbp)
.LBB11:
	.loc 8 460 61
	movq	-32(%rbp), %rbx
	.loc 8 460 34
	movq	-24(%rbp), %rax
	movq	%rax, %rcx
	call	_ZNKSt12_Vector_baseI12ElementosVooSaIS0_EE19_M_get_Tp_allocatorEv
	movq	%rax, %rdx
	.loc 8 460 61
	leaq	-81(%rbp), %rax
	movq	%rax, %rcx
.LEHB5:
	call	_ZN9__gnu_cxx14__alloc_traitsISaI12ElementosVooES1_E17_S_select_on_copyERKS2_
.LEHE5:
	movq	-24(%rbp), %rax
	movq	%rax, %rcx
	call	_ZNKSt6vectorI12ElementosVooSaIS0_EE4sizeEv
	movq	%rax, %rdx
	leaq	-81(%rbp), %rax
	movq	%rax, %r8
	movq	%rbx, %rcx
.LEHB6:
	call	_ZNSt12_Vector_baseI12ElementosVooSaIS0_EEC2EyRKS1_
.LEHE6:
	.loc 8 460 61 is_stmt 0 discriminator 2
	leaq	-81(%rbp), %rax
	movq	%rax, %rcx
	call	_ZNSaI12ElementosVooED1Ev
	.loc 8 465 30 is_stmt 1 discriminator 2
	movq	-32(%rbp), %rax
	movq	%rax, %rcx
	call	_ZNSt12_Vector_baseI12ElementosVooSaIS0_EE19_M_get_Tp_allocatorEv
	movq	%rax, %rdi
	.loc 8 463 31 discriminator 2
	movq	-32(%rbp), %rax
	movq	(%rax), %rbx
	movq	-24(%rbp), %rax
	movq	%rax, %rcx
	call	_ZNKSt6vectorI12ElementosVooSaIS0_EE3endEv
	movq	%rax, %rsi
	movq	-24(%rbp), %rax
	movq	%rax, %rcx
	call	_ZNKSt6vectorI12ElementosVooSaIS0_EE5beginEv
	movq	%rdi, %r9
	movq	%rbx, %r8
	movq	%rsi, %rdx
	movq	%rax, %rcx
.LEHB7:
	call	_ZSt22__uninitialized_copy_aIN9__gnu_cxx17__normal_iteratorIPK12ElementosVooSt6vectorIS2_SaIS2_EEEEPS2_S2_ET0_T_SB_SA_RSaIT1_E
.LEHE7:
	movq	%rax, %rdx
	.loc 8 462 2 discriminator 2
	movq	-32(%rbp), %rax
	movq	%rdx, 8(%rax)
.LBE11:
	.loc 8 466 7 discriminator 2
	jmp	.L59
.L57:
	movq	%rax, %rbx
.LBB12:
	.loc 8 460 61
	leaq	-81(%rbp), %rax
	movq	%rax, %rcx
	call	_ZNSaI12ElementosVooED1Ev
	movq	%rbx, %rax
	movq	%rax, %rcx
.LEHB8:
	call	_Unwind_Resume
.L58:
	movq	%rax, %rbx
	movq	-32(%rbp), %rax
	movq	%rax, %rcx
	call	_ZNSt12_Vector_baseI12ElementosVooSaIS0_EED2Ev
	movq	%rbx, %rax
	movq	%rax, %rcx
	call	_Unwind_Resume
	nop
.LEHE8:
.L59:
.LBE12:
	.loc 8 466 7
	addq	$56, %rsp
	popq	%rbx
	.cfi_restore 3
	popq	%rsi
	.cfi_restore 4
	popq	%rdi
	.cfi_restore 5
	popq	%rbp
	.cfi_restore 6
	.cfi_def_cfa 7, -24
	ret
	.cfi_endproc
.LFE2872:
	.seh_handler	__gxx_personality_seh0, @unwind, @except
	.seh_handlerdata
.LLSDA2872:
	.byte	0xff
	.byte	0xff
	.byte	0x1
	.uleb128 .LLSDACSE2872-.LLSDACSB2872
.LLSDACSB2872:
	.uleb128 .LEHB5-.LFB2872
	.uleb128 .LEHE5-.LEHB5
	.uleb128 0
	.uleb128 0
	.uleb128 .LEHB6-.LFB2872
	.uleb128 .LEHE6-.LEHB6
	.uleb128 .L57-.LFB2872
	.uleb128 0
	.uleb128 .LEHB7-.LFB2872
	.uleb128 .LEHE7-.LEHB7
	.uleb128 .L58-.LFB2872
	.uleb128 0
	.uleb128 .LEHB8-.LFB2872
	.uleb128 .LEHE8-.LEHB8
	.uleb128 0
	.uleb128 0
.LLSDACSE2872:
	.section	.text$_ZNSt6vectorI12ElementosVooSaIS0_EEC1ERKS2_,"x"
	.linkonce discard
	.seh_endproc
	.section	.text$_ZNSt12_Vector_baseI12ElementosVooSaIS0_EE12_Vector_implD1Ev,"x"
	.linkonce discard
	.align 2
	.globl	_ZNSt12_Vector_baseI12ElementosVooSaIS0_EE12_Vector_implD1Ev
	.def	_ZNSt12_Vector_baseI12ElementosVooSaIS0_EE12_Vector_implD1Ev;	.scl	2;	.type	32;	.endef
	.seh_proc	_ZNSt12_Vector_baseI12ElementosVooSaIS0_EE12_Vector_implD1Ev
_ZNSt12_Vector_baseI12ElementosVooSaIS0_EE12_Vector_implD1Ev:
.LFB2984:
	.loc 8 88 14
	.cfi_startproc
	pushq	%rbp
	.seh_pushreg	%rbp
	.cfi_def_cfa_offset 16
	.cfi_offset 6, -16
	movq	%rsp, %rbp
	.seh_setframe	%rbp, 0
	.cfi_def_cfa_register 6
	subq	$32, %rsp
	.seh_stackalloc	32
	.seh_endprologue
	movq	%rcx, 16(%rbp)
.LBB13:
	.loc 8 88 14
	movq	16(%rbp), %rcx
	call	_ZNSaI12ElementosVooED2Ev
.LBE13:
	nop
	addq	$32, %rsp
	popq	%rbp
	.cfi_restore 6
	.cfi_def_cfa 7, 8
	ret
	.cfi_endproc
.LFE2984:
	.seh_endproc
	.section	.text$_ZNSt12_Vector_baseI12ElementosVooSaIS0_EED2Ev,"x"
	.linkonce discard
	.align 2
	.globl	_ZNSt12_Vector_baseI12ElementosVooSaIS0_EED2Ev
	.def	_ZNSt12_Vector_baseI12ElementosVooSaIS0_EED2Ev;	.scl	2;	.type	32;	.endef
	.seh_proc	_ZNSt12_Vector_baseI12ElementosVooSaIS0_EED2Ev
_ZNSt12_Vector_baseI12ElementosVooSaIS0_EED2Ev:
.LFB2985:
	.loc 8 283 7
	.cfi_startproc
	pushq	%rbp
	.seh_pushreg	%rbp
	.cfi_def_cfa_offset 16
	.cfi_offset 6, -16
	movq	%rsp, %rbp
	.seh_setframe	%rbp, 0
	.cfi_def_cfa_register 6
	subq	$32, %rsp
	.seh_stackalloc	32
	.seh_endprologue
	movq	%rcx, 16(%rbp)
.LBB14:
	.loc 8 286 17
	movq	16(%rbp), %rax
	movq	16(%rax), %rdx
	.loc 8 286 45
	movq	16(%rbp), %rax
	movq	(%rax), %rax
	.loc 8 286 35
	subq	%rax, %rdx
	movq	%rdx, %rax
	sarq	$5, %rax
	movq	%rax, %rdx
	movabsq	$-6148914691236517205, %rax
	imulq	%rdx, %rax
	.loc 8 285 2
	movq	%rax, %rdx
	movq	16(%rbp), %rax
	movq	(%rax), %rax
	movq	%rdx, %r8
	movq	%rax, %rdx
	movq	16(%rbp), %rcx
	call	_ZNSt12_Vector_baseI12ElementosVooSaIS0_EE13_M_deallocateEPS0_y
	.loc 8 287 7
	movq	16(%rbp), %rax
	movq	%rax, %rcx
	call	_ZNSt12_Vector_baseI12ElementosVooSaIS0_EE12_Vector_implD1Ev
.LBE14:
	nop
	addq	$32, %rsp
	popq	%rbp
	.cfi_restore 6
	.cfi_def_cfa 7, 8
	ret
	.cfi_endproc
.LFE2985:
	.seh_handler	__gxx_personality_seh0, @unwind, @except
	.seh_handlerdata
.LLSDA2985:
	.byte	0xff
	.byte	0xff
	.byte	0x1
	.uleb128 .LLSDACSE2985-.LLSDACSB2985
.LLSDACSB2985:
.LLSDACSE2985:
	.section	.text$_ZNSt12_Vector_baseI12ElementosVooSaIS0_EED2Ev,"x"
	.linkonce discard
	.seh_endproc
	.section	.text$_ZNSt12_Vector_baseI12ElementosVooSaIS0_EE19_M_get_Tp_allocatorEv,"x"
	.linkonce discard
	.align 2
	.globl	_ZNSt12_Vector_baseI12ElementosVooSaIS0_EE19_M_get_Tp_allocatorEv
	.def	_ZNSt12_Vector_baseI12ElementosVooSaIS0_EE19_M_get_Tp_allocatorEv;	.scl	2;	.type	32;	.endef
	.seh_proc	_ZNSt12_Vector_baseI12ElementosVooSaIS0_EE19_M_get_Tp_allocatorEv
_ZNSt12_Vector_baseI12ElementosVooSaIS0_EE19_M_get_Tp_allocatorEv:
.LFB2987:
	.loc 8 237 7
	.cfi_startproc
	pushq	%rbp
	.seh_pushreg	%rbp
	.cfi_def_cfa_offset 16
	.cfi_offset 6, -16
	movq	%rsp, %rbp
	.seh_setframe	%rbp, 0
	.cfi_def_cfa_register 6
	.seh_endprologue
	movq	%rcx, 16(%rbp)
	.loc 8 238 60
	movq	16(%rbp), %rax
	.loc 8 238 63
	popq	%rbp
	.cfi_restore 6
	.cfi_def_cfa 7, 8
	ret
	.cfi_endproc
.LFE2987:
	.seh_endproc
	.section	.text$_ZSt8_DestroyIP12ElementosVooS0_EvT_S2_RSaIT0_E,"x"
	.linkonce discard
	.globl	_ZSt8_DestroyIP12ElementosVooS0_EvT_S2_RSaIT0_E
	.def	_ZSt8_DestroyIP12ElementosVooS0_EvT_S2_RSaIT0_E;	.scl	2;	.type	32;	.endef
	.seh_proc	_ZSt8_DestroyIP12ElementosVooS0_EvT_S2_RSaIT0_E
_ZSt8_DestroyIP12ElementosVooS0_EvT_S2_RSaIT0_E:
.LFB2988:
	.file 9 "C:/Program Files/CodeBlocks/MinGW/lib/gcc/x86_64-w64-mingw32/8.1.0/include/c++/bits/stl_construct.h"
	.loc 9 203 5
	.cfi_startproc
	pushq	%rbp
	.seh_pushreg	%rbp
	.cfi_def_cfa_offset 16
	.cfi_offset 6, -16
	movq	%rsp, %rbp
	.seh_setframe	%rbp, 0
	.cfi_def_cfa_register 6
	subq	$32, %rsp
	.seh_stackalloc	32
	.seh_endprologue
	movq	%rcx, 16(%rbp)
	movq	%rdx, 24(%rbp)
	movq	%r8, 32(%rbp)
	.loc 9 206 15
	movq	24(%rbp), %rax
	movq	%rax, %rdx
	movq	16(%rbp), %rcx
	call	_ZSt8_DestroyIP12ElementosVooEvT_S2_
	.loc 9 207 5
	nop
	addq	$32, %rsp
	popq	%rbp
	.cfi_restore 6
	.cfi_def_cfa 7, 8
	ret
	.cfi_endproc
.LFE2988:
	.seh_endproc
	.section	.text$_ZNSt6vectorI12ElementosVooSaIS0_EE15_M_erase_at_endEPS0_,"x"
	.linkonce discard
	.align 2
	.globl	_ZNSt6vectorI12ElementosVooSaIS0_EE15_M_erase_at_endEPS0_
	.def	_ZNSt6vectorI12ElementosVooSaIS0_EE15_M_erase_at_endEPS0_;	.scl	2;	.type	32;	.endef
	.seh_proc	_ZNSt6vectorI12ElementosVooSaIS0_EE15_M_erase_at_endEPS0_
_ZNSt6vectorI12ElementosVooSaIS0_EE15_M_erase_at_endEPS0_:
.LFB2989:
	.loc 8 1649 7
	.cfi_startproc
	pushq	%rbp
	.seh_pushreg	%rbp
	.cfi_def_cfa_offset 16
	.cfi_offset 6, -16
	movq	%rsp, %rbp
	.seh_setframe	%rbp, 0
	.cfi_def_cfa_register 6
	subq	$48, %rsp
	.seh_stackalloc	48
	.seh_endprologue
	movq	%rcx, 16(%rbp)
	movq	%rdx, 24(%rbp)
.LBB15:
	.loc 8 1651 36
	movq	16(%rbp), %rax
	movq	8(%rax), %rax
	.loc 8 1651 46
	subq	24(%rbp), %rax
	sarq	$5, %rax
	movq	%rax, %rdx
	movabsq	$-6148914691236517205, %rax
	imulq	%rdx, %rax
	.loc 8 1651 16
	movq	%rax, -8(%rbp)
	.loc 8 1651 2
	cmpq	$0, -8(%rbp)
	je	.L67
	.loc 8 1654 25
	movq	16(%rbp), %rax
	movq	%rax, %rcx
	call	_ZNSt12_Vector_baseI12ElementosVooSaIS0_EE19_M_get_Tp_allocatorEv
	movq	%rax, %rcx
	.loc 8 1653 19
	movq	16(%rbp), %rax
	movq	8(%rax), %rdx
	movq	24(%rbp), %rax
	movq	%rcx, %r8
	movq	%rax, %rcx
	call	_ZSt8_DestroyIP12ElementosVooS0_EvT_S2_RSaIT0_E
	.loc 8 1655 6
	movq	16(%rbp), %rax
	movq	24(%rbp), %rdx
	movq	%rdx, 8(%rax)
.L67:
.LBE15:
	.loc 8 1658 7
	nop
	addq	$48, %rsp
	popq	%rbp
	.cfi_restore 6
	.cfi_def_cfa 7, 8
	ret
	.cfi_endproc
.LFE2989:
	.seh_handler	__gxx_personality_seh0, @unwind, @except
	.seh_handlerdata
.LLSDA2989:
	.byte	0xff
	.byte	0xff
	.byte	0x1
	.uleb128 .LLSDACSE2989-.LLSDACSB2989
.LLSDACSB2989:
.LLSDACSE2989:
	.section	.text$_ZNSt6vectorI12ElementosVooSaIS0_EE15_M_erase_at_endEPS0_,"x"
	.linkonce discard
	.seh_endproc
	.section	.text$_ZSt7forwardIRK12ElementosVooEOT_RNSt16remove_referenceIS3_E4typeE,"x"
	.linkonce discard
	.globl	_ZSt7forwardIRK12ElementosVooEOT_RNSt16remove_referenceIS3_E4typeE
	.def	_ZSt7forwardIRK12ElementosVooEOT_RNSt16remove_referenceIS3_E4typeE;	.scl	2;	.type	32;	.endef
	.seh_proc	_ZSt7forwardIRK12ElementosVooEOT_RNSt16remove_referenceIS3_E4typeE
_ZSt7forwardIRK12ElementosVooEOT_RNSt16remove_referenceIS3_E4typeE:
.LFB2991:
	.file 10 "C:/Program Files/CodeBlocks/MinGW/lib/gcc/x86_64-w64-mingw32/8.1.0/include/c++/bits/move.h"
	.loc 10 74 5
	.cfi_startproc
	pushq	%rbp
	.seh_pushreg	%rbp
	.cfi_def_cfa_offset 16
	.cfi_offset 6, -16
	movq	%rsp, %rbp
	.seh_setframe	%rbp, 0
	.cfi_def_cfa_register 6
	.seh_endprologue
	movq	%rcx, 16(%rbp)
	.loc 10 75 36
	movq	16(%rbp), %rax
	.loc 10 75 39
	popq	%rbp
	.cfi_restore 6
	.cfi_def_cfa 7, 8
	ret
	.cfi_endproc
.LFE2991:
	.seh_endproc
	.section	.text$_ZNSt16allocator_traitsISaI12ElementosVooEE9constructIS0_JRKS0_EEEvRS1_PT_DpOT0_,"x"
	.linkonce discard
	.globl	_ZNSt16allocator_traitsISaI12ElementosVooEE9constructIS0_JRKS0_EEEvRS1_PT_DpOT0_
	.def	_ZNSt16allocator_traitsISaI12ElementosVooEE9constructIS0_JRKS0_EEEvRS1_PT_DpOT0_;	.scl	2;	.type	32;	.endef
	.seh_proc	_ZNSt16allocator_traitsISaI12ElementosVooEE9constructIS0_JRKS0_EEEvRS1_PT_DpOT0_
_ZNSt16allocator_traitsISaI12ElementosVooEE9constructIS0_JRKS0_EEEvRS1_PT_DpOT0_:
.LFB2990:
	.file 11 "C:/Program Files/CodeBlocks/MinGW/lib/gcc/x86_64-w64-mingw32/8.1.0/include/c++/bits/alloc_traits.h"
	.loc 11 474 2
	.cfi_startproc
	pushq	%rbp
	.seh_pushreg	%rbp
	.cfi_def_cfa_offset 16
	.cfi_offset 6, -16
	movq	%rsp, %rbp
	.seh_setframe	%rbp, 0
	.cfi_def_cfa_register 6
	subq	$32, %rsp
	.seh_stackalloc	32
	.seh_endprologue
	movq	%rcx, 16(%rbp)
	movq	%rdx, 24(%rbp)
	movq	%r8, 32(%rbp)
	.loc 11 475 4
	movq	32(%rbp), %rax
	movq	%rax, %rcx
	call	_ZSt7forwardIRK12ElementosVooEOT_RNSt16remove_referenceIS3_E4typeE
	movq	%rax, %rdx
	movq	24(%rbp), %rax
	movq	%rdx, %r8
	movq	%rax, %rdx
	movq	16(%rbp), %rcx
	call	_ZN9__gnu_cxx13new_allocatorI12ElementosVooE9constructIS1_JRKS1_EEEvPT_DpOT0_
	.loc 11 475 56
	nop
	addq	$32, %rsp
	popq	%rbp
	.cfi_restore 6
	.cfi_def_cfa 7, 8
	ret
	.cfi_endproc
.LFE2990:
	.seh_endproc
	.section	.text$_ZNSt6vectorI12ElementosVooSaIS0_EE3endEv,"x"
	.linkonce discard
	.align 2
	.globl	_ZNSt6vectorI12ElementosVooSaIS0_EE3endEv
	.def	_ZNSt6vectorI12ElementosVooSaIS0_EE3endEv;	.scl	2;	.type	32;	.endef
	.seh_proc	_ZNSt6vectorI12ElementosVooSaIS0_EE3endEv
_ZNSt6vectorI12ElementosVooSaIS0_EE3endEv:
.LFB2992:
	.loc 8 716 7
	.cfi_startproc
	pushq	%rbp
	.seh_pushreg	%rbp
	.cfi_def_cfa_offset 16
	.cfi_offset 6, -16
	movq	%rsp, %rbp
	.seh_setframe	%rbp, 0
	.cfi_def_cfa_register 6
	subq	$48, %rsp
	.seh_stackalloc	48
	.seh_endprologue
	movq	%rcx, 16(%rbp)
	.loc 8 717 39
	movq	16(%rbp), %rax
	leaq	8(%rax), %rdx
	.loc 8 717 48
	leaq	-8(%rbp), %rax
	movq	%rax, %rcx
	call	_ZN9__gnu_cxx17__normal_iteratorIP12ElementosVooSt6vectorIS1_SaIS1_EEEC1ERKS2_
	movq	-8(%rbp), %rax
	.loc 8 717 51
	addq	$48, %rsp
	popq	%rbp
	.cfi_restore 6
	.cfi_def_cfa 7, 8
	ret
	.cfi_endproc
.LFE2992:
	.seh_endproc
	.section .rdata,"dr"
.LC10:
	.ascii "vector::_M_realloc_insert\0"
	.section	.text$_ZNSt6vectorI12ElementosVooSaIS0_EE17_M_realloc_insertIJRKS0_EEEvN9__gnu_cxx17__normal_iteratorIPS0_S2_EEDpOT_,"x"
	.linkonce discard
	.align 2
	.globl	_ZNSt6vectorI12ElementosVooSaIS0_EE17_M_realloc_insertIJRKS0_EEEvN9__gnu_cxx17__normal_iteratorIPS0_S2_EEDpOT_
	.def	_ZNSt6vectorI12ElementosVooSaIS0_EE17_M_realloc_insertIJRKS0_EEEvN9__gnu_cxx17__normal_iteratorIPS0_S2_EEDpOT_;	.scl	2;	.type	32;	.endef
	.seh_proc	_ZNSt6vectorI12ElementosVooSaIS0_EE17_M_realloc_insertIJRKS0_EEEvN9__gnu_cxx17__normal_iteratorIPS0_S2_EEDpOT_
_ZNSt6vectorI12ElementosVooSaIS0_EE17_M_realloc_insertIJRKS0_EEEvN9__gnu_cxx17__normal_iteratorIPS0_S2_EEDpOT_:
.LFB2993:
	.file 12 "C:/Program Files/CodeBlocks/MinGW/lib/gcc/x86_64-w64-mingw32/8.1.0/include/c++/bits/vector.tcc"
	.loc 12 413 7
	.cfi_startproc
	pushq	%rbp
	.seh_pushreg	%rbp
	.cfi_def_cfa_offset 16
	.cfi_offset 6, -16
	pushq	%rbx
	.seh_pushreg	%rbx
	.cfi_def_cfa_offset 24
	.cfi_offset 3, -24
	subq	$104, %rsp
	.seh_stackalloc	104
	.cfi_def_cfa_offset 128
	leaq	128(%rsp), %rbp
	.seh_setframe	%rbp, 128
	.cfi_def_cfa 6, 0
	.seh_endprologue
	movq	%rcx, 0(%rbp)
	movq	%rdx, 8(%rbp)
	movq	%r8, 16(%rbp)
	.loc 12 422 23
	leaq	.LC10(%rip), %r8
	movl	$1, %edx
	movq	0(%rbp), %rcx
.LEHB9:
	call	_ZNKSt6vectorI12ElementosVooSaIS0_EE12_M_check_lenEyPKc
	movq	%rax, -48(%rbp)
	.loc 12 424 15
	movq	0(%rbp), %rax
	movq	(%rax), %rax
	movq	%rax, -56(%rbp)
	.loc 12 425 15
	movq	0(%rbp), %rax
	movq	8(%rax), %rax
	movq	%rax, -64(%rbp)
	.loc 12 426 51
	movq	0(%rbp), %rcx
	call	_ZNSt6vectorI12ElementosVooSaIS0_EE5beginEv
	movq	%rax, -88(%rbp)
	leaq	-88(%rbp), %rdx
	leaq	8(%rbp), %rax
	movq	%rax, %rcx
	call	_ZN9__gnu_cxxmiIP12ElementosVooSt6vectorIS1_SaIS1_EEEENS_17__normal_iteratorIT_T0_E15difference_typeERKS9_SC_
	.loc 12 426 23
	movq	%rax, -72(%rbp)
	.loc 12 427 15
	movq	0(%rbp), %rax
	movq	-48(%rbp), %rdx
	movq	%rax, %rcx
	call	_ZNSt12_Vector_baseI12ElementosVooSaIS0_EE11_M_allocateEy
.LEHE9:
	movq	%rax, -80(%rbp)
	.loc 12 428 15
	movq	-80(%rbp), %rax
	movq	%rax, -40(%rbp)
	.loc 12 436 28
	movq	16(%rbp), %rax
	movq	%rax, %rcx
	call	_ZSt7forwardIRK12ElementosVooEOT_RNSt16remove_referenceIS3_E4typeE
	movq	%rax, %rcx
	.loc 12 437 20
	movq	-72(%rbp), %rdx
	movq	%rdx, %rax
	addq	%rax, %rax
	addq	%rdx, %rax
	salq	$5, %rax
	movq	%rax, %rdx
	.loc 12 436 28
	movq	-80(%rbp), %rax
	addq	%rax, %rdx
	.loc 12 436 35
	movq	0(%rbp), %rax
	.loc 12 436 28
	movq	%rcx, %r8
	movq	%rax, %rcx
	call	_ZNSt16allocator_traitsISaI12ElementosVooEE9constructIS0_JRKS0_EEEvRS1_PT_DpOT0_
	.loc 12 443 4
	movq	$0, -40(%rbp)
	.loc 12 448 39
	movq	0(%rbp), %rax
	movq	%rax, %rcx
	call	_ZNSt12_Vector_baseI12ElementosVooSaIS0_EE19_M_get_Tp_allocatorEv
	movq	%rax, %rbx
	.loc 12 447 6
	leaq	8(%rbp), %rax
	movq	%rax, %rcx
	call	_ZNK9__gnu_cxx17__normal_iteratorIP12ElementosVooSt6vectorIS1_SaIS1_EEE4baseEv
	movq	(%rax), %rdx
	movq	-80(%rbp), %rcx
	movq	-56(%rbp), %rax
	movq	%rbx, %r9
	movq	%rcx, %r8
	movq	%rax, %rcx
.LEHB10:
	call	_ZSt34__uninitialized_move_if_noexcept_aIP12ElementosVooS1_SaIS0_EET0_T_S4_S3_RT1_
	movq	%rax, -40(%rbp)
	.loc 12 450 4
	addq	$96, -40(%rbp)
	.loc 12 455 40
	movq	0(%rbp), %rax
	movq	%rax, %rcx
	call	_ZNSt12_Vector_baseI12ElementosVooSaIS0_EE19_M_get_Tp_allocatorEv
	movq	%rax, %rbx
	.loc 12 454 6
	leaq	8(%rbp), %rax
	movq	%rax, %rcx
	call	_ZNK9__gnu_cxx17__normal_iteratorIP12ElementosVooSt6vectorIS1_SaIS1_EEE4baseEv
	movq	(%rax), %rax
	movq	-40(%rbp), %rcx
	movq	-64(%rbp), %rdx
	movq	%rbx, %r9
	movq	%rcx, %r8
	movq	%rax, %rcx
	call	_ZSt34__uninitialized_move_if_noexcept_aIP12ElementosVooS1_SaIS0_EET0_T_S4_S3_RT1_
.LEHE10:
	.loc 12 454 6 is_stmt 0 discriminator 1
	movq	%rax, -40(%rbp)
	.loc 12 468 67 is_stmt 1 discriminator 1
	movq	0(%rbp), %rax
	movq	%rax, %rcx
	call	_ZNSt12_Vector_baseI12ElementosVooSaIS0_EE19_M_get_Tp_allocatorEv
	movq	%rax, %rcx
	.loc 12 468 20 discriminator 1
	movq	-64(%rbp), %rdx
	movq	-56(%rbp), %rax
	movq	%rcx, %r8
	movq	%rax, %rcx
.LEHB11:
	call	_ZSt8_DestroyIP12ElementosVooS0_EvT_S2_RSaIT0_E
	.loc 12 469 20 discriminator 1
	movq	0(%rbp), %rax
	.loc 12 470 21 discriminator 1
	movq	0(%rbp), %rdx
	movq	16(%rdx), %rdx
	.loc 12 470 39 discriminator 1
	subq	-56(%rbp), %rdx
	movq	%rdx, %rcx
	sarq	$5, %rcx
	movabsq	$-6148914691236517205, %rdx
	imulq	%rcx, %rdx
	.loc 12 469 20 discriminator 1
	movq	%rdx, %rcx
	movq	-56(%rbp), %rdx
	movq	%rcx, %r8
	movq	%rax, %rcx
	call	_ZNSt12_Vector_baseI12ElementosVooSaIS0_EE13_M_deallocateEPS0_y
.LEHE11:
	.loc 12 471 7 discriminator 1
	movq	0(%rbp), %rax
	movq	-80(%rbp), %rdx
	movq	%rdx, (%rax)
	.loc 12 472 7 discriminator 1
	movq	0(%rbp), %rax
	movq	-40(%rbp), %rdx
	movq	%rdx, 8(%rax)
	.loc 12 473 53 discriminator 1
	movq	-48(%rbp), %rdx
	movq	%rdx, %rax
	addq	%rax, %rax
	addq	%rdx, %rax
	salq	$5, %rax
	movq	%rax, %rdx
	movq	-80(%rbp), %rax
	addq	%rax, %rdx
	.loc 12 473 7 discriminator 1
	movq	0(%rbp), %rax
	movq	%rdx, 16(%rax)
	.loc 12 474 5 discriminator 1
	jmp	.L80
.L78:
	.loc 12 457 7
	movq	%rax, %rcx
	call	__cxa_begin_catch
	.loc 12 459 4
	cmpq	$0, -40(%rbp)
	jne	.L75
	.loc 12 461 20
	movq	-72(%rbp), %rdx
	movq	%rdx, %rax
	addq	%rax, %rax
	addq	%rdx, %rax
	salq	$5, %rax
	movq	%rax, %rdx
	.loc 12 460 28
	movq	-80(%rbp), %rax
	addq	%rax, %rdx
	.loc 12 460 35
	movq	0(%rbp), %rax
	.loc 12 460 28
	movq	%rax, %rcx
.LEHB12:
	call	_ZNSt16allocator_traitsISaI12ElementosVooEE7destroyIS0_EEvRS1_PT_
	jmp	.L76
.L75:
	.loc 12 463 66
	movq	0(%rbp), %rax
	movq	%rax, %rcx
	call	_ZNSt12_Vector_baseI12ElementosVooSaIS0_EE19_M_get_Tp_allocatorEv
	movq	%rax, %rcx
	.loc 12 463 19
	movq	-40(%rbp), %rdx
	movq	-80(%rbp), %rax
	movq	%rcx, %r8
	movq	%rax, %rcx
	call	_ZSt8_DestroyIP12ElementosVooS0_EvT_S2_RSaIT0_E
.L76:
	.loc 12 464 17
	movq	0(%rbp), %rax
	movq	-48(%rbp), %rcx
	movq	-80(%rbp), %rdx
	movq	%rcx, %r8
	movq	%rax, %rcx
	call	_ZNSt12_Vector_baseI12ElementosVooSaIS0_EE13_M_deallocateEPS0_y
	.loc 12 465 4
	call	__cxa_rethrow
.LEHE12:
.L79:
	movq	%rax, %rbx
	.loc 12 457 7
	call	__cxa_end_catch
	movq	%rbx, %rax
	movq	%rax, %rcx
.LEHB13:
	call	_Unwind_Resume
	nop
.LEHE13:
.L80:
	.loc 12 474 5
	addq	$104, %rsp
	popq	%rbx
	.cfi_restore 3
	popq	%rbp
	.cfi_restore 6
	.cfi_def_cfa 7, -88
	ret
	.cfi_endproc
.LFE2993:
	.seh_handler	__gxx_personality_seh0, @unwind, @except
	.seh_handlerdata
	.align 4
.LLSDA2993:
	.byte	0xff
	.byte	0x9b
	.uleb128 .LLSDATT2993-.LLSDATTD2993
.LLSDATTD2993:
	.byte	0x1
	.uleb128 .LLSDACSE2993-.LLSDACSB2993
.LLSDACSB2993:
	.uleb128 .LEHB9-.LFB2993
	.uleb128 .LEHE9-.LEHB9
	.uleb128 0
	.uleb128 0
	.uleb128 .LEHB10-.LFB2993
	.uleb128 .LEHE10-.LEHB10
	.uleb128 .L78-.LFB2993
	.uleb128 0x1
	.uleb128 .LEHB11-.LFB2993
	.uleb128 .LEHE11-.LEHB11
	.uleb128 0
	.uleb128 0
	.uleb128 .LEHB12-.LFB2993
	.uleb128 .LEHE12-.LEHB12
	.uleb128 .L79-.LFB2993
	.uleb128 0
	.uleb128 .LEHB13-.LFB2993
	.uleb128 .LEHE13-.LEHB13
	.uleb128 0
	.uleb128 0
.LLSDACSE2993:
	.byte	0x1
	.byte	0
	.align 4
	.long	0

.LLSDATT2993:
	.section	.text$_ZNSt6vectorI12ElementosVooSaIS0_EE17_M_realloc_insertIJRKS0_EEEvN9__gnu_cxx17__normal_iteratorIPS0_S2_EEDpOT_,"x"
	.linkonce discard
	.seh_endproc
	.section	.text$_ZNKSt6vectorI12ElementosVooSaIS0_EE4sizeEv,"x"
	.linkonce discard
	.align 2
	.globl	_ZNKSt6vectorI12ElementosVooSaIS0_EE4sizeEv
	.def	_ZNKSt6vectorI12ElementosVooSaIS0_EE4sizeEv;	.scl	2;	.type	32;	.endef
	.seh_proc	_ZNKSt6vectorI12ElementosVooSaIS0_EE4sizeEv
_ZNKSt6vectorI12ElementosVooSaIS0_EE4sizeEv:
.LFB2994:
	.loc 8 805 7
	.cfi_startproc
	pushq	%rbp
	.seh_pushreg	%rbp
	.cfi_def_cfa_offset 16
	.cfi_offset 6, -16
	movq	%rsp, %rbp
	.seh_setframe	%rbp, 0
	.cfi_def_cfa_register 6
	.seh_endprologue
	movq	%rcx, 16(%rbp)
	.loc 8 806 40
	movq	16(%rbp), %rax
	movq	8(%rax), %rdx
	.loc 8 806 66
	movq	16(%rbp), %rax
	movq	(%rax), %rax
	.loc 8 806 50
	subq	%rax, %rdx
	movq	%rdx, %rax
	sarq	$5, %rax
	movq	%rax, %rdx
	movabsq	$-6148914691236517205, %rax
	imulq	%rdx, %rax
	.loc 8 806 77
	popq	%rbp
	.cfi_restore 6
	.cfi_def_cfa 7, 8
	ret
	.cfi_endproc
.LFE2994:
	.seh_endproc
	.section	.text$_ZN9__gnu_cxx14__alloc_traitsISaI12ElementosVooES1_E17_S_select_on_copyERKS2_,"x"
	.linkonce discard
	.globl	_ZN9__gnu_cxx14__alloc_traitsISaI12ElementosVooES1_E17_S_select_on_copyERKS2_
	.def	_ZN9__gnu_cxx14__alloc_traitsISaI12ElementosVooES1_E17_S_select_on_copyERKS2_;	.scl	2;	.type	32;	.endef
	.seh_proc	_ZN9__gnu_cxx14__alloc_traitsISaI12ElementosVooES1_E17_S_select_on_copyERKS2_
_ZN9__gnu_cxx14__alloc_traitsISaI12ElementosVooES1_E17_S_select_on_copyERKS2_:
.LFB2995:
	.file 13 "C:/Program Files/CodeBlocks/MinGW/lib/gcc/x86_64-w64-mingw32/8.1.0/include/c++/ext/alloc_traits.h"
	.loc 13 94 19
	.cfi_startproc
	pushq	%rbp
	.seh_pushreg	%rbp
	.cfi_def_cfa_offset 16
	.cfi_offset 6, -16
	movq	%rsp, %rbp
	.seh_setframe	%rbp, 0
	.cfi_def_cfa_register 6
	subq	$32, %rsp
	.seh_stackalloc	32
	.seh_endprologue
	movq	%rcx, 16(%rbp)
	movq	%rdx, 24(%rbp)
	.loc 13 95 67
	movq	16(%rbp), %rax
	movq	24(%rbp), %rdx
	movq	%rax, %rcx
	call	_ZNSt16allocator_traitsISaI12ElementosVooEE37select_on_container_copy_constructionERKS1_
	.loc 13 95 70
	movq	16(%rbp), %rax
	addq	$32, %rsp
	popq	%rbp
	.cfi_restore 6
	.cfi_def_cfa 7, 8
	ret
	.cfi_endproc
.LFE2995:
	.seh_endproc
	.section	.text$_ZNKSt12_Vector_baseI12ElementosVooSaIS0_EE19_M_get_Tp_allocatorEv,"x"
	.linkonce discard
	.align 2
	.globl	_ZNKSt12_Vector_baseI12ElementosVooSaIS0_EE19_M_get_Tp_allocatorEv
	.def	_ZNKSt12_Vector_baseI12ElementosVooSaIS0_EE19_M_get_Tp_allocatorEv;	.scl	2;	.type	32;	.endef
	.seh_proc	_ZNKSt12_Vector_baseI12ElementosVooSaIS0_EE19_M_get_Tp_allocatorEv
_ZNKSt12_Vector_baseI12ElementosVooSaIS0_EE19_M_get_Tp_allocatorEv:
.LFB2996:
	.loc 8 241 7
	.cfi_startproc
	pushq	%rbp
	.seh_pushreg	%rbp
	.cfi_def_cfa_offset 16
	.cfi_offset 6, -16
	movq	%rsp, %rbp
	.seh_setframe	%rbp, 0
	.cfi_def_cfa_register 6
	.seh_endprologue
	movq	%rcx, 16(%rbp)
	.loc 8 242 66
	movq	16(%rbp), %rax
	.loc 8 242 69
	popq	%rbp
	.cfi_restore 6
	.cfi_def_cfa 7, 8
	ret
	.cfi_endproc
.LFE2996:
	.seh_endproc
	.section	.text$_ZNSaI12ElementosVooED2Ev,"x"
	.linkonce discard
	.align 2
	.globl	_ZNSaI12ElementosVooED2Ev
	.def	_ZNSaI12ElementosVooED2Ev;	.scl	2;	.type	32;	.endef
	.seh_proc	_ZNSaI12ElementosVooED2Ev
_ZNSaI12ElementosVooED2Ev:
.LFB2998:
	.file 14 "C:/Program Files/CodeBlocks/MinGW/lib/gcc/x86_64-w64-mingw32/8.1.0/include/c++/bits/allocator.h"
	.loc 14 139 7
	.cfi_startproc
	pushq	%rbp
	.seh_pushreg	%rbp
	.cfi_def_cfa_offset 16
	.cfi_offset 6, -16
	movq	%rsp, %rbp
	.seh_setframe	%rbp, 0
	.cfi_def_cfa_register 6
	subq	$32, %rsp
	.seh_stackalloc	32
	.seh_endprologue
	movq	%rcx, 16(%rbp)
.LBB16:
	.loc 14 139 30
	movq	16(%rbp), %rcx
	call	_ZN9__gnu_cxx13new_allocatorI12ElementosVooED2Ev
.LBE16:
	nop
	addq	$32, %rsp
	popq	%rbp
	.cfi_restore 6
	.cfi_def_cfa 7, 8
	ret
	.cfi_endproc
.LFE2998:
	.seh_endproc
	.section	.text$_ZNSaI12ElementosVooED1Ev,"x"
	.linkonce discard
	.align 2
	.globl	_ZNSaI12ElementosVooED1Ev
	.def	_ZNSaI12ElementosVooED1Ev;	.scl	2;	.type	32;	.endef
	.seh_proc	_ZNSaI12ElementosVooED1Ev
_ZNSaI12ElementosVooED1Ev:
.LFB2999:
	.loc 14 139 7
	.cfi_startproc
	pushq	%rbp
	.seh_pushreg	%rbp
	.cfi_def_cfa_offset 16
	.cfi_offset 6, -16
	movq	%rsp, %rbp
	.seh_setframe	%rbp, 0
	.cfi_def_cfa_register 6
	subq	$32, %rsp
	.seh_stackalloc	32
	.seh_endprologue
	movq	%rcx, 16(%rbp)
.LBB17:
	.loc 14 139 30
	movq	16(%rbp), %rcx
	call	_ZN9__gnu_cxx13new_allocatorI12ElementosVooED2Ev
.LBE17:
	nop
	addq	$32, %rsp
	popq	%rbp
	.cfi_restore 6
	.cfi_def_cfa 7, 8
	ret
	.cfi_endproc
.LFE2999:
	.seh_endproc
	.section	.text$_ZNSt12_Vector_baseI12ElementosVooSaIS0_EEC2EyRKS1_,"x"
	.linkonce discard
	.align 2
	.globl	_ZNSt12_Vector_baseI12ElementosVooSaIS0_EEC2EyRKS1_
	.def	_ZNSt12_Vector_baseI12ElementosVooSaIS0_EEC2EyRKS1_;	.scl	2;	.type	32;	.endef
	.seh_proc	_ZNSt12_Vector_baseI12ElementosVooSaIS0_EEC2EyRKS1_
_ZNSt12_Vector_baseI12ElementosVooSaIS0_EEC2EyRKS1_:
.LFB3001:
	.loc 8 258 7
	.cfi_startproc
	pushq	%rbp
	.seh_pushreg	%rbp
	.cfi_def_cfa_offset 16
	.cfi_offset 6, -16
	pushq	%rbx
	.seh_pushreg	%rbx
	.cfi_def_cfa_offset 24
	.cfi_offset 3, -24
	subq	$40, %rsp
	.seh_stackalloc	40
	.cfi_def_cfa_offset 64
	leaq	128(%rsp), %rbp
	.seh_setframe	%rbp, 128
	.cfi_def_cfa 6, -64
	.seh_endprologue
	movq	%rcx, -64(%rbp)
	movq	%rdx, -56(%rbp)
	movq	%r8, -48(%rbp)
.LBB18:
	.loc 8 259 20
	movq	-64(%rbp), %rax
	movq	-48(%rbp), %rdx
	movq	%rax, %rcx
	call	_ZNSt12_Vector_baseI12ElementosVooSaIS0_EE12_Vector_implC1ERKS1_
	.loc 8 260 9
	movq	-56(%rbp), %rax
	movq	%rax, %rdx
	movq	-64(%rbp), %rcx
.LEHB14:
	call	_ZNSt12_Vector_baseI12ElementosVooSaIS0_EE17_M_create_storageEy
.LEHE14:
.LBE18:
	.loc 8 260 33
	jmp	.L92
.L91:
	movq	%rax, %rbx
.LBB19:
	.loc 8 259 20
	movq	-64(%rbp), %rax
	movq	%rax, %rcx
	call	_ZNSt12_Vector_baseI12ElementosVooSaIS0_EE12_Vector_implD1Ev
	movq	%rbx, %rax
	movq	%rax, %rcx
.LEHB15:
	call	_Unwind_Resume
	nop
.LEHE15:
.L92:
.LBE19:
	.loc 8 260 33
	addq	$40, %rsp
	popq	%rbx
	.cfi_restore 3
	popq	%rbp
	.cfi_restore 6
	.cfi_def_cfa 7, -24
	ret
	.cfi_endproc
.LFE3001:
	.seh_handler	__gxx_personality_seh0, @unwind, @except
	.seh_handlerdata
.LLSDA3001:
	.byte	0xff
	.byte	0xff
	.byte	0x1
	.uleb128 .LLSDACSE3001-.LLSDACSB3001
.LLSDACSB3001:
	.uleb128 .LEHB14-.LFB3001
	.uleb128 .LEHE14-.LEHB14
	.uleb128 .L91-.LFB3001
	.uleb128 0
	.uleb128 .LEHB15-.LFB3001
	.uleb128 .LEHE15-.LEHB15
	.uleb128 0
	.uleb128 0
.LLSDACSE3001:
	.section	.text$_ZNSt12_Vector_baseI12ElementosVooSaIS0_EEC2EyRKS1_,"x"
	.linkonce discard
	.seh_endproc
	.section	.text$_ZNKSt6vectorI12ElementosVooSaIS0_EE5beginEv,"x"
	.linkonce discard
	.align 2
	.globl	_ZNKSt6vectorI12ElementosVooSaIS0_EE5beginEv
	.def	_ZNKSt6vectorI12ElementosVooSaIS0_EE5beginEv;	.scl	2;	.type	32;	.endef
	.seh_proc	_ZNKSt6vectorI12ElementosVooSaIS0_EE5beginEv
_ZNKSt6vectorI12ElementosVooSaIS0_EE5beginEv:
.LFB3003:
	.loc 8 707 7
	.cfi_startproc
	pushq	%rbp
	.seh_pushreg	%rbp
	.cfi_def_cfa_offset 16
	.cfi_offset 6, -16
	movq	%rsp, %rbp
	.seh_setframe	%rbp, 0
	.cfi_def_cfa_register 6
	subq	$48, %rsp
	.seh_stackalloc	48
	.seh_endprologue
	movq	%rcx, 16(%rbp)
	.loc 8 708 45
	movq	16(%rbp), %rax
	movq	(%rax), %rax
	movq	%rax, -8(%rbp)
	.loc 8 708 53
	leaq	-8(%rbp), %rdx
	leaq	-16(%rbp), %rax
	movq	%rax, %rcx
	call	_ZN9__gnu_cxx17__normal_iteratorIPK12ElementosVooSt6vectorIS1_SaIS1_EEEC1ERKS3_
	movq	-16(%rbp), %rax
	.loc 8 708 56
	addq	$48, %rsp
	popq	%rbp
	.cfi_restore 6
	.cfi_def_cfa 7, 8
	ret
	.cfi_endproc
.LFE3003:
	.seh_endproc
	.section	.text$_ZNKSt6vectorI12ElementosVooSaIS0_EE3endEv,"x"
	.linkonce discard
	.align 2
	.globl	_ZNKSt6vectorI12ElementosVooSaIS0_EE3endEv
	.def	_ZNKSt6vectorI12ElementosVooSaIS0_EE3endEv;	.scl	2;	.type	32;	.endef
	.seh_proc	_ZNKSt6vectorI12ElementosVooSaIS0_EE3endEv
_ZNKSt6vectorI12ElementosVooSaIS0_EE3endEv:
.LFB3004:
	.loc 8 725 7
	.cfi_startproc
	pushq	%rbp
	.seh_pushreg	%rbp
	.cfi_def_cfa_offset 16
	.cfi_offset 6, -16
	movq	%rsp, %rbp
	.seh_setframe	%rbp, 0
	.cfi_def_cfa_register 6
	subq	$48, %rsp
	.seh_stackalloc	48
	.seh_endprologue
	movq	%rcx, 16(%rbp)
	.loc 8 726 45
	movq	16(%rbp), %rax
	movq	8(%rax), %rax
	movq	%rax, -8(%rbp)
	.loc 8 726 54
	leaq	-8(%rbp), %rdx
	leaq	-16(%rbp), %rax
	movq	%rax, %rcx
	call	_ZN9__gnu_cxx17__normal_iteratorIPK12ElementosVooSt6vectorIS1_SaIS1_EEEC1ERKS3_
	movq	-16(%rbp), %rax
	.loc 8 726 57
	addq	$48, %rsp
	popq	%rbp
	.cfi_restore 6
	.cfi_def_cfa 7, 8
	ret
	.cfi_endproc
.LFE3004:
	.seh_endproc
	.section	.text$_ZSt22__uninitialized_copy_aIN9__gnu_cxx17__normal_iteratorIPK12ElementosVooSt6vectorIS2_SaIS2_EEEEPS2_S2_ET0_T_SB_SA_RSaIT1_E,"x"
	.linkonce discard
	.globl	_ZSt22__uninitialized_copy_aIN9__gnu_cxx17__normal_iteratorIPK12ElementosVooSt6vectorIS2_SaIS2_EEEEPS2_S2_ET0_T_SB_SA_RSaIT1_E
	.def	_ZSt22__uninitialized_copy_aIN9__gnu_cxx17__normal_iteratorIPK12ElementosVooSt6vectorIS2_SaIS2_EEEEPS2_S2_ET0_T_SB_SA_RSaIT1_E;	.scl	2;	.type	32;	.endef
	.seh_proc	_ZSt22__uninitialized_copy_aIN9__gnu_cxx17__normal_iteratorIPK12ElementosVooSt6vectorIS2_SaIS2_EEEEPS2_S2_ET0_T_SB_SA_RSaIT1_E
_ZSt22__uninitialized_copy_aIN9__gnu_cxx17__normal_iteratorIPK12ElementosVooSt6vectorIS2_SaIS2_EEEEPS2_S2_ET0_T_SB_SA_RSaIT1_E:
.LFB3005:
	.file 15 "C:/Program Files/CodeBlocks/MinGW/lib/gcc/x86_64-w64-mingw32/8.1.0/include/c++/bits/stl_uninitialized.h"
	.loc 15 287 5
	.cfi_startproc
	pushq	%rbp
	.seh_pushreg	%rbp
	.cfi_def_cfa_offset 16
	.cfi_offset 6, -16
	movq	%rsp, %rbp
	.seh_setframe	%rbp, 0
	.cfi_def_cfa_register 6
	subq	$32, %rsp
	.seh_stackalloc	32
	.seh_endprologue
	movq	%rcx, 16(%rbp)
	movq	%rdx, 24(%rbp)
	movq	%r8, 32(%rbp)
	movq	%r9, 40(%rbp)
	.loc 15 289 37
	movq	32(%rbp), %rdx
	movq	24(%rbp), %rax
	movq	%rdx, %r8
	movq	%rax, %rdx
	movq	16(%rbp), %rcx
	call	_ZSt18uninitialized_copyIN9__gnu_cxx17__normal_iteratorIPK12ElementosVooSt6vectorIS2_SaIS2_EEEEPS2_ET0_T_SB_SA_
	.loc 15 289 66
	addq	$32, %rsp
	popq	%rbp
	.cfi_restore 6
	.cfi_def_cfa 7, 8
	ret
	.cfi_endproc
.LFE3005:
	.seh_endproc
	.section	.text$_ZNSt12_Vector_baseI12ElementosVooSaIS0_EE13_M_deallocateEPS0_y,"x"
	.linkonce discard
	.align 2
	.globl	_ZNSt12_Vector_baseI12ElementosVooSaIS0_EE13_M_deallocateEPS0_y
	.def	_ZNSt12_Vector_baseI12ElementosVooSaIS0_EE13_M_deallocateEPS0_y;	.scl	2;	.type	32;	.endef
	.seh_proc	_ZNSt12_Vector_baseI12ElementosVooSaIS0_EE13_M_deallocateEPS0_y
_ZNSt12_Vector_baseI12ElementosVooSaIS0_EE13_M_deallocateEPS0_y:
.LFB3069:
	.loc 8 300 7
	.cfi_startproc
	pushq	%rbp
	.seh_pushreg	%rbp
	.cfi_def_cfa_offset 16
	.cfi_offset 6, -16
	movq	%rsp, %rbp
	.seh_setframe	%rbp, 0
	.cfi_def_cfa_register 6
	subq	$32, %rsp
	.seh_stackalloc	32
	.seh_endprologue
	movq	%rcx, 16(%rbp)
	movq	%rdx, 24(%rbp)
	movq	%r8, 32(%rbp)
	.loc 8 303 2
	cmpq	$0, 24(%rbp)
	je	.L101
	.loc 8 304 20
	movq	16(%rbp), %rax
	.loc 8 304 19
	movq	32(%rbp), %rcx
	movq	24(%rbp), %rdx
	movq	%rcx, %r8
	movq	%rax, %rcx
	call	_ZNSt16allocator_traitsISaI12ElementosVooEE10deallocateERS1_PS0_y
.L101:
	.loc 8 305 7
	nop
	addq	$32, %rsp
	popq	%rbp
	.cfi_restore 6
	.cfi_def_cfa 7, 8
	ret
	.cfi_endproc
.LFE3069:
	.seh_endproc
	.section	.text$_ZSt8_DestroyIP12ElementosVooEvT_S2_,"x"
	.linkonce discard
	.globl	_ZSt8_DestroyIP12ElementosVooEvT_S2_
	.def	_ZSt8_DestroyIP12ElementosVooEvT_S2_;	.scl	2;	.type	32;	.endef
	.seh_proc	_ZSt8_DestroyIP12ElementosVooEvT_S2_
_ZSt8_DestroyIP12ElementosVooEvT_S2_:
.LFB3070:
	.loc 9 127 5
	.cfi_startproc
	pushq	%rbp
	.seh_pushreg	%rbp
	.cfi_def_cfa_offset 16
	.cfi_offset 6, -16
	movq	%rsp, %rbp
	.seh_setframe	%rbp, 0
	.cfi_def_cfa_register 6
	subq	$32, %rsp
	.seh_stackalloc	32
	.seh_endprologue
	movq	%rcx, 16(%rbp)
	movq	%rdx, 24(%rbp)
	.loc 9 137 11
	movq	24(%rbp), %rax
	movq	%rax, %rdx
	movq	16(%rbp), %rcx
	call	_ZNSt12_Destroy_auxILb0EE9__destroyIP12ElementosVooEEvT_S4_
	.loc 9 138 5
	nop
	addq	$32, %rsp
	popq	%rbp
	.cfi_restore 6
	.cfi_def_cfa 7, 8
	ret
	.cfi_endproc
.LFE3070:
	.seh_endproc
	.section	.text$_ZN10BaseObjectC2ERKS_,"x"
	.linkonce discard
	.align 2
	.globl	_ZN10BaseObjectC2ERKS_
	.def	_ZN10BaseObjectC2ERKS_;	.scl	2;	.type	32;	.endef
	.seh_proc	_ZN10BaseObjectC2ERKS_
_ZN10BaseObjectC2ERKS_:
.LFB3074:
	.loc 3 5 7
	.cfi_startproc
	pushq	%rbp
	.seh_pushreg	%rbp
	.cfi_def_cfa_offset 16
	.cfi_offset 6, -16
	movq	%rsp, %rbp
	.seh_setframe	%rbp, 0
	.cfi_def_cfa_register 6
	.seh_endprologue
	movq	%rcx, 16(%rbp)
	movq	%rdx, 24(%rbp)
.LBB20:
	.loc 3 5 7
	leaq	16+_ZTV10BaseObject(%rip), %rdx
	movq	16(%rbp), %rax
	movq	%rdx, (%rax)
.LBE20:
	nop
	popq	%rbp
	.cfi_restore 6
	.cfi_def_cfa 7, 8
	ret
	.cfi_endproc
.LFE3074:
	.seh_endproc
	.section	.text$_ZN12ElementosVooC1ERKS_,"x"
	.linkonce discard
	.align 2
	.globl	_ZN12ElementosVooC1ERKS_
	.def	_ZN12ElementosVooC1ERKS_;	.scl	2;	.type	32;	.endef
	.seh_proc	_ZN12ElementosVooC1ERKS_
_ZN12ElementosVooC1ERKS_:
.LFB3077:
	.loc 4 7 7
	.cfi_startproc
	pushq	%rbp
	.seh_pushreg	%rbp
	.cfi_def_cfa_offset 16
	.cfi_offset 6, -16
	movq	%rsp, %rbp
	.seh_setframe	%rbp, 0
	.cfi_def_cfa_register 6
	subq	$32, %rsp
	.seh_stackalloc	32
	.seh_endprologue
	movq	%rcx, 16(%rbp)
	movq	%rdx, 24(%rbp)
.LBB21:
	.loc 4 7 7
	movq	16(%rbp), %rax
	movq	24(%rbp), %rdx
	movq	%rax, %rcx
	call	_ZN10BaseObjectC2ERKS_
	leaq	16+_ZTV12ElementosVoo(%rip), %rdx
	movq	16(%rbp), %rax
	movq	%rdx, (%rax)
	movq	24(%rbp), %rax
	movsd	8(%rax), %xmm0
	movq	16(%rbp), %rax
	movsd	%xmm0, 8(%rax)
	movq	24(%rbp), %rax
	movsd	16(%rax), %xmm0
	movq	16(%rbp), %rax
	movsd	%xmm0, 16(%rax)
	movq	24(%rbp), %rax
	movsd	24(%rax), %xmm0
	movq	16(%rbp), %rax
	movsd	%xmm0, 24(%rax)
	movq	24(%rbp), %rax
	movsd	32(%rax), %xmm0
	movq	16(%rbp), %rax
	movsd	%xmm0, 32(%rax)
	movq	24(%rbp), %rax
	movsd	40(%rax), %xmm0
	movq	16(%rbp), %rax
	movsd	%xmm0, 40(%rax)
	movq	24(%rbp), %rax
	movsd	48(%rax), %xmm0
	movq	16(%rbp), %rax
	movsd	%xmm0, 48(%rax)
	movq	24(%rbp), %rax
	movsd	56(%rax), %xmm0
	movq	16(%rbp), %rax
	movsd	%xmm0, 56(%rax)
	movq	24(%rbp), %rax
	movsd	64(%rax), %xmm0
	movq	16(%rbp), %rax
	movsd	%xmm0, 64(%rax)
	movq	24(%rbp), %rax
	movsd	72(%rax), %xmm0
	movq	16(%rbp), %rax
	movsd	%xmm0, 72(%rax)
	movq	24(%rbp), %rax
	movsd	80(%rax), %xmm0
	movq	16(%rbp), %rax
	movsd	%xmm0, 80(%rax)
	movq	24(%rbp), %rax
	movsd	88(%rax), %xmm0
	movq	16(%rbp), %rax
	movsd	%xmm0, 88(%rax)
.LBE21:
	nop
	addq	$32, %rsp
	popq	%rbp
	.cfi_restore 6
	.cfi_def_cfa 7, 8
	ret
	.cfi_endproc
.LFE3077:
	.seh_endproc
	.section	.text$_ZN9__gnu_cxx13new_allocatorI12ElementosVooE9constructIS1_JRKS1_EEEvPT_DpOT0_,"x"
	.linkonce discard
	.align 2
	.globl	_ZN9__gnu_cxx13new_allocatorI12ElementosVooE9constructIS1_JRKS1_EEEvPT_DpOT0_
	.def	_ZN9__gnu_cxx13new_allocatorI12ElementosVooE9constructIS1_JRKS1_EEEvPT_DpOT0_;	.scl	2;	.type	32;	.endef
	.seh_proc	_ZN9__gnu_cxx13new_allocatorI12ElementosVooE9constructIS1_JRKS1_EEEvPT_DpOT0_
_ZN9__gnu_cxx13new_allocatorI12ElementosVooE9constructIS1_JRKS1_EEEvPT_DpOT0_:
.LFB3071:
	.file 16 "C:/Program Files/CodeBlocks/MinGW/lib/gcc/x86_64-w64-mingw32/8.1.0/include/c++/ext/new_allocator.h"
	.loc 16 135 2
	.cfi_startproc
	pushq	%rbp
	.seh_pushreg	%rbp
	.cfi_def_cfa_offset 16
	.cfi_offset 6, -16
	pushq	%rbx
	.seh_pushreg	%rbx
	.cfi_def_cfa_offset 24
	.cfi_offset 3, -24
	subq	$40, %rsp
	.seh_stackalloc	40
	.cfi_def_cfa_offset 64
	leaq	128(%rsp), %rbp
	.seh_setframe	%rbp, 128
	.cfi_def_cfa 6, -64
	.seh_endprologue
	movq	%rcx, -64(%rbp)
	movq	%rdx, -56(%rbp)
	movq	%r8, -48(%rbp)
	.loc 16 136 46
	movq	-48(%rbp), %rax
	movq	%rax, %rcx
	call	_ZSt7forwardIRK12ElementosVooEOT_RNSt16remove_referenceIS3_E4typeE
	movq	%rax, %rbx
	.loc 16 136 4
	movq	-56(%rbp), %rax
	movq	%rax, %rdx
	movl	$96, %ecx
	call	_ZnwyPv
	movq	%rbx, %rdx
	movq	%rax, %rcx
	call	_ZN12ElementosVooC1ERKS_
	.loc 16 136 60
	nop
	addq	$40, %rsp
	popq	%rbx
	.cfi_restore 3
	popq	%rbp
	.cfi_restore 6
	.cfi_def_cfa 7, -24
	ret
	.cfi_endproc
.LFE3071:
	.seh_endproc
	.section	.text$_ZN9__gnu_cxx17__normal_iteratorIP12ElementosVooSt6vectorIS1_SaIS1_EEEC1ERKS2_,"x"
	.linkonce discard
	.align 2
	.globl	_ZN9__gnu_cxx17__normal_iteratorIP12ElementosVooSt6vectorIS1_SaIS1_EEEC1ERKS2_
	.def	_ZN9__gnu_cxx17__normal_iteratorIP12ElementosVooSt6vectorIS1_SaIS1_EEEC1ERKS2_;	.scl	2;	.type	32;	.endef
	.seh_proc	_ZN9__gnu_cxx17__normal_iteratorIP12ElementosVooSt6vectorIS1_SaIS1_EEEC1ERKS2_
_ZN9__gnu_cxx17__normal_iteratorIP12ElementosVooSt6vectorIS1_SaIS1_EEEC1ERKS2_:
.LFB3080:
	.file 17 "C:/Program Files/CodeBlocks/MinGW/lib/gcc/x86_64-w64-mingw32/8.1.0/include/c++/bits/stl_iterator.h"
	.loc 17 780 7
	.cfi_startproc
	pushq	%rbp
	.seh_pushreg	%rbp
	.cfi_def_cfa_offset 16
	.cfi_offset 6, -16
	movq	%rsp, %rbp
	.seh_setframe	%rbp, 0
	.cfi_def_cfa_register 6
	.seh_endprologue
	movq	%rcx, 16(%rbp)
	movq	%rdx, 24(%rbp)
.LBB22:
	.loc 17 781 23
	movq	24(%rbp), %rax
	movq	(%rax), %rdx
	movq	16(%rbp), %rax
	movq	%rdx, (%rax)
.LBE22:
	.loc 17 781 27
	nop
	popq	%rbp
	.cfi_restore 6
	.cfi_def_cfa 7, 8
	ret
	.cfi_endproc
.LFE3080:
	.seh_endproc
	.section	.text$_ZNKSt6vectorI12ElementosVooSaIS0_EE12_M_check_lenEyPKc,"x"
	.linkonce discard
	.align 2
	.globl	_ZNKSt6vectorI12ElementosVooSaIS0_EE12_M_check_lenEyPKc
	.def	_ZNKSt6vectorI12ElementosVooSaIS0_EE12_M_check_lenEyPKc;	.scl	2;	.type	32;	.endef
	.seh_proc	_ZNKSt6vectorI12ElementosVooSaIS0_EE12_M_check_lenEyPKc
_ZNKSt6vectorI12ElementosVooSaIS0_EE12_M_check_lenEyPKc:
.LFB3081:
	.loc 8 1635 7
	.cfi_startproc
	pushq	%rbp
	.seh_pushreg	%rbp
	.cfi_def_cfa_offset 16
	.cfi_offset 6, -16
	pushq	%rbx
	.seh_pushreg	%rbx
	.cfi_def_cfa_offset 24
	.cfi_offset 3, -24
	subq	$56, %rsp
	.seh_stackalloc	56
	.cfi_def_cfa_offset 80
	leaq	128(%rsp), %rbp
	.seh_setframe	%rbp, 128
	.cfi_def_cfa 6, -48
	.seh_endprologue
	movq	%rcx, -48(%rbp)
	movq	%rdx, -40(%rbp)
	movq	%r8, -32(%rbp)
	.loc 8 1637 17
	movq	-48(%rbp), %rcx
	call	_ZNKSt6vectorI12ElementosVooSaIS0_EE8max_sizeEv
	movq	%rax, %rbx
	movq	-48(%rbp), %rcx
	call	_ZNKSt6vectorI12ElementosVooSaIS0_EE4sizeEv
	subq	%rax, %rbx
	movq	%rbx, %rdx
	.loc 8 1637 26
	movq	-40(%rbp), %rax
	cmpq	%rax, %rdx
	setb	%al
	.loc 8 1637 2
	testb	%al, %al
	je	.L108
	.loc 8 1638 24
	movq	-32(%rbp), %rax
	movq	%rax, %rcx
	call	_ZSt20__throw_length_errorPKc
.L108:
	.loc 8 1640 33
	movq	-48(%rbp), %rcx
	call	_ZNKSt6vectorI12ElementosVooSaIS0_EE4sizeEv
	movq	%rax, %rbx
	.loc 8 1640 43
	movq	-48(%rbp), %rcx
	call	_ZNKSt6vectorI12ElementosVooSaIS0_EE4sizeEv
	movq	%rax, -96(%rbp)
	leaq	-40(%rbp), %rdx
	leaq	-96(%rbp), %rax
	movq	%rax, %rcx
	call	_ZSt3maxIyERKT_S2_S2_
	.loc 8 1640 33
	movq	(%rax), %rax
	.loc 8 1640 18
	addq	%rbx, %rax
	movq	%rax, -88(%rbp)
	.loc 8 1641 16
	movq	-48(%rbp), %rcx
	call	_ZNKSt6vectorI12ElementosVooSaIS0_EE4sizeEv
	.loc 8 1641 48
	cmpq	%rax, -88(%rbp)
	jb	.L109
	.loc 8 1641 34 discriminator 2
	movq	-48(%rbp), %rcx
	call	_ZNKSt6vectorI12ElementosVooSaIS0_EE8max_sizeEv
	.loc 8 1641 25 discriminator 2
	cmpq	%rax, -88(%rbp)
	jbe	.L110
.L109:
	.loc 8 1641 48 discriminator 3
	movq	-48(%rbp), %rcx
	call	_ZNKSt6vectorI12ElementosVooSaIS0_EE8max_sizeEv
	jmp	.L111
.L110:
	.loc 8 1641 48 is_stmt 0 discriminator 4
	movq	-88(%rbp), %rax
.L111:
	.loc 8 1642 7 is_stmt 1 discriminator 6
	addq	$56, %rsp
	popq	%rbx
	.cfi_restore 3
	popq	%rbp
	.cfi_restore 6
	.cfi_def_cfa 7, -40
	ret
	.cfi_endproc
.LFE3081:
	.seh_endproc
	.section	.text$_ZNSt6vectorI12ElementosVooSaIS0_EE5beginEv,"x"
	.linkonce discard
	.align 2
	.globl	_ZNSt6vectorI12ElementosVooSaIS0_EE5beginEv
	.def	_ZNSt6vectorI12ElementosVooSaIS0_EE5beginEv;	.scl	2;	.type	32;	.endef
	.seh_proc	_ZNSt6vectorI12ElementosVooSaIS0_EE5beginEv
_ZNSt6vectorI12ElementosVooSaIS0_EE5beginEv:
.LFB3082:
	.loc 8 698 7
	.cfi_startproc
	pushq	%rbp
	.seh_pushreg	%rbp
	.cfi_def_cfa_offset 16
	.cfi_offset 6, -16
	movq	%rsp, %rbp
	.seh_setframe	%rbp, 0
	.cfi_def_cfa_register 6
	subq	$48, %rsp
	.seh_stackalloc	48
	.seh_endprologue
	movq	%rcx, 16(%rbp)
	.loc 8 699 39
	movq	16(%rbp), %rdx
	.loc 8 699 47
	leaq	-8(%rbp), %rax
	movq	%rax, %rcx
	call	_ZN9__gnu_cxx17__normal_iteratorIP12ElementosVooSt6vectorIS1_SaIS1_EEEC1ERKS2_
	movq	-8(%rbp), %rax
	.loc 8 699 50
	addq	$48, %rsp
	popq	%rbp
	.cfi_restore 6
	.cfi_def_cfa 7, 8
	ret
	.cfi_endproc
.LFE3082:
	.seh_endproc
	.section	.text$_ZN9__gnu_cxxmiIP12ElementosVooSt6vectorIS1_SaIS1_EEEENS_17__normal_iteratorIT_T0_E15difference_typeERKS9_SC_,"x"
	.linkonce discard
	.globl	_ZN9__gnu_cxxmiIP12ElementosVooSt6vectorIS1_SaIS1_EEEENS_17__normal_iteratorIT_T0_E15difference_typeERKS9_SC_
	.def	_ZN9__gnu_cxxmiIP12ElementosVooSt6vectorIS1_SaIS1_EEEENS_17__normal_iteratorIT_T0_E15difference_typeERKS9_SC_;	.scl	2;	.type	32;	.endef
	.seh_proc	_ZN9__gnu_cxxmiIP12ElementosVooSt6vectorIS1_SaIS1_EEEENS_17__normal_iteratorIT_T0_E15difference_typeERKS9_SC_
_ZN9__gnu_cxxmiIP12ElementosVooSt6vectorIS1_SaIS1_EEEENS_17__normal_iteratorIT_T0_E15difference_typeERKS9_SC_:
.LFB3083:
	.loc 17 963 5
	.cfi_startproc
	pushq	%rbp
	.seh_pushreg	%rbp
	.cfi_def_cfa_offset 16
	.cfi_offset 6, -16
	pushq	%rbx
	.seh_pushreg	%rbx
	.cfi_def_cfa_offset 24
	.cfi_offset 3, -24
	subq	$40, %rsp
	.seh_stackalloc	40
	.cfi_def_cfa_offset 64
	leaq	128(%rsp), %rbp
	.seh_setframe	%rbp, 128
	.cfi_def_cfa 6, -64
	.seh_endprologue
	movq	%rcx, -64(%rbp)
	movq	%rdx, -56(%rbp)
	.loc 17 966 27
	movq	-64(%rbp), %rcx
	call	_ZNK9__gnu_cxx17__normal_iteratorIP12ElementosVooSt6vectorIS1_SaIS1_EEE4baseEv
	movq	(%rax), %rbx
	movq	-56(%rbp), %rax
	movq	%rax, %rcx
	call	_ZNK9__gnu_cxx17__normal_iteratorIP12ElementosVooSt6vectorIS1_SaIS1_EEE4baseEv
	movq	(%rax), %rax
	subq	%rax, %rbx
	movq	%rbx, %rax
	.loc 17 966 40
	sarq	$5, %rax
	movq	%rax, %rdx
	movabsq	$-6148914691236517205, %rax
	imulq	%rdx, %rax
	.loc 17 966 43
	addq	$40, %rsp
	popq	%rbx
	.cfi_restore 3
	popq	%rbp
	.cfi_restore 6
	.cfi_def_cfa 7, -24
	ret
	.cfi_endproc
.LFE3083:
	.seh_endproc
	.section	.text$_ZNSt12_Vector_baseI12ElementosVooSaIS0_EE11_M_allocateEy,"x"
	.linkonce discard
	.align 2
	.globl	_ZNSt12_Vector_baseI12ElementosVooSaIS0_EE11_M_allocateEy
	.def	_ZNSt12_Vector_baseI12ElementosVooSaIS0_EE11_M_allocateEy;	.scl	2;	.type	32;	.endef
	.seh_proc	_ZNSt12_Vector_baseI12ElementosVooSaIS0_EE11_M_allocateEy
_ZNSt12_Vector_baseI12ElementosVooSaIS0_EE11_M_allocateEy:
.LFB3084:
	.loc 8 293 7
	.cfi_startproc
	pushq	%rbp
	.seh_pushreg	%rbp
	.cfi_def_cfa_offset 16
	.cfi_offset 6, -16
	movq	%rsp, %rbp
	.seh_setframe	%rbp, 0
	.cfi_def_cfa_register 6
	subq	$32, %rsp
	.seh_stackalloc	32
	.seh_endprologue
	movq	%rcx, 16(%rbp)
	movq	%rdx, 24(%rbp)
	.loc 8 296 18
	cmpq	$0, 24(%rbp)
	je	.L118
	.loc 8 296 34 discriminator 1
	movq	16(%rbp), %rax
	.loc 8 296 33 discriminator 1
	movq	24(%rbp), %rdx
	movq	%rax, %rcx
	call	_ZNSt16allocator_traitsISaI12ElementosVooEE8allocateERS1_y
	.loc 8 296 58 discriminator 1
	jmp	.L120
.L118:
	.loc 8 296 18 discriminator 2
	movl	$0, %eax
.L120:
	.loc 8 297 7 discriminator 5
	addq	$32, %rsp
	popq	%rbp
	.cfi_restore 6
	.cfi_def_cfa 7, 8
	ret
	.cfi_endproc
.LFE3084:
	.seh_endproc
	.section	.text$_ZNK9__gnu_cxx17__normal_iteratorIP12ElementosVooSt6vectorIS1_SaIS1_EEE4baseEv,"x"
	.linkonce discard
	.align 2
	.globl	_ZNK9__gnu_cxx17__normal_iteratorIP12ElementosVooSt6vectorIS1_SaIS1_EEE4baseEv
	.def	_ZNK9__gnu_cxx17__normal_iteratorIP12ElementosVooSt6vectorIS1_SaIS1_EEE4baseEv;	.scl	2;	.type	32;	.endef
	.seh_proc	_ZNK9__gnu_cxx17__normal_iteratorIP12ElementosVooSt6vectorIS1_SaIS1_EEE4baseEv
_ZNK9__gnu_cxx17__normal_iteratorIP12ElementosVooSt6vectorIS1_SaIS1_EEE4baseEv:
.LFB3085:
	.loc 17 845 7
	.cfi_startproc
	pushq	%rbp
	.seh_pushreg	%rbp
	.cfi_def_cfa_offset 16
	.cfi_offset 6, -16
	movq	%rsp, %rbp
	.seh_setframe	%rbp, 0
	.cfi_def_cfa_register 6
	.seh_endprologue
	movq	%rcx, 16(%rbp)
	.loc 17 846 16
	movq	16(%rbp), %rax
	.loc 17 846 28
	popq	%rbp
	.cfi_restore 6
	.cfi_def_cfa 7, 8
	ret
	.cfi_endproc
.LFE3085:
	.seh_endproc
	.section	.text$_ZSt34__uninitialized_move_if_noexcept_aIP12ElementosVooS1_SaIS0_EET0_T_S4_S3_RT1_,"x"
	.linkonce discard
	.globl	_ZSt34__uninitialized_move_if_noexcept_aIP12ElementosVooS1_SaIS0_EET0_T_S4_S3_RT1_
	.def	_ZSt34__uninitialized_move_if_noexcept_aIP12ElementosVooS1_SaIS0_EET0_T_S4_S3_RT1_;	.scl	2;	.type	32;	.endef
	.seh_proc	_ZSt34__uninitialized_move_if_noexcept_aIP12ElementosVooS1_SaIS0_EET0_T_S4_S3_RT1_
_ZSt34__uninitialized_move_if_noexcept_aIP12ElementosVooS1_SaIS0_EET0_T_S4_S3_RT1_:
.LFB3086:
	.loc 15 305 5
	.cfi_startproc
	pushq	%rbp
	.seh_pushreg	%rbp
	.cfi_def_cfa_offset 16
	.cfi_offset 6, -16
	pushq	%rbx
	.seh_pushreg	%rbx
	.cfi_def_cfa_offset 24
	.cfi_offset 3, -24
	subq	$40, %rsp
	.seh_stackalloc	40
	.cfi_def_cfa_offset 64
	leaq	128(%rsp), %rbp
	.seh_setframe	%rbp, 128
	.cfi_def_cfa 6, -64
	.seh_endprologue
	movq	%rcx, -64(%rbp)
	movq	%rdx, -56(%rbp)
	movq	%r8, -48(%rbp)
	movq	%r9, -40(%rbp)
	.loc 15 311 2
	movq	-56(%rbp), %rax
	movq	%rax, %rcx
	call	_ZSt32__make_move_if_noexcept_iteratorI12ElementosVooSt13move_iteratorIPS0_EET0_PT_
	movq	%rax, %rbx
	movq	-64(%rbp), %rcx
	call	_ZSt32__make_move_if_noexcept_iteratorI12ElementosVooSt13move_iteratorIPS0_EET0_PT_
	movq	%rax, %rcx
	movq	-40(%rbp), %rdx
	movq	-48(%rbp), %rax
	movq	%rdx, %r9
	movq	%rax, %r8
	movq	%rbx, %rdx
	call	_ZSt22__uninitialized_copy_aISt13move_iteratorIP12ElementosVooES2_S1_ET0_T_S5_S4_RSaIT1_E
	.loc 15 313 5
	addq	$40, %rsp
	popq	%rbx
	.cfi_restore 3
	popq	%rbp
	.cfi_restore 6
	.cfi_def_cfa 7, -24
	ret
	.cfi_endproc
.LFE3086:
	.seh_endproc
	.section	.text$_ZNSt16allocator_traitsISaI12ElementosVooEE7destroyIS0_EEvRS1_PT_,"x"
	.linkonce discard
	.globl	_ZNSt16allocator_traitsISaI12ElementosVooEE7destroyIS0_EEvRS1_PT_
	.def	_ZNSt16allocator_traitsISaI12ElementosVooEE7destroyIS0_EEvRS1_PT_;	.scl	2;	.type	32;	.endef
	.seh_proc	_ZNSt16allocator_traitsISaI12ElementosVooEE7destroyIS0_EEvRS1_PT_
_ZNSt16allocator_traitsISaI12ElementosVooEE7destroyIS0_EEvRS1_PT_:
.LFB3087:
	.loc 11 486 2
	.cfi_startproc
	pushq	%rbp
	.seh_pushreg	%rbp
	.cfi_def_cfa_offset 16
	.cfi_offset 6, -16
	movq	%rsp, %rbp
	.seh_setframe	%rbp, 0
	.cfi_def_cfa_register 6
	subq	$32, %rsp
	.seh_stackalloc	32
	.seh_endprologue
	movq	%rcx, 16(%rbp)
	movq	%rdx, 24(%rbp)
	.loc 11 487 4
	movq	24(%rbp), %rax
	movq	%rax, %rdx
	movq	16(%rbp), %rcx
	call	_ZN9__gnu_cxx13new_allocatorI12ElementosVooE7destroyIS1_EEvPT_
	.loc 11 487 22
	nop
	addq	$32, %rsp
	popq	%rbp
	.cfi_restore 6
	.cfi_def_cfa 7, 8
	ret
	.cfi_endproc
.LFE3087:
	.seh_endproc
	.section	.text$_ZNSt16allocator_traitsISaI12ElementosVooEE37select_on_container_copy_constructionERKS1_,"x"
	.linkonce discard
	.globl	_ZNSt16allocator_traitsISaI12ElementosVooEE37select_on_container_copy_constructionERKS1_
	.def	_ZNSt16allocator_traitsISaI12ElementosVooEE37select_on_container_copy_constructionERKS1_;	.scl	2;	.type	32;	.endef
	.seh_proc	_ZNSt16allocator_traitsISaI12ElementosVooEE37select_on_container_copy_constructionERKS1_
_ZNSt16allocator_traitsISaI12ElementosVooEE37select_on_container_copy_constructionERKS1_:
.LFB3088:
	.loc 11 504 7
	.cfi_startproc
	pushq	%rbp
	.seh_pushreg	%rbp
	.cfi_def_cfa_offset 16
	.cfi_offset 6, -16
	movq	%rsp, %rbp
	.seh_setframe	%rbp, 0
	.cfi_def_cfa_register 6
	subq	$32, %rsp
	.seh_stackalloc	32
	.seh_endprologue
	movq	%rcx, 16(%rbp)
	movq	%rdx, 24(%rbp)
	.loc 11 505 16
	movq	24(%rbp), %rax
	movq	%rax, %rdx
	movq	16(%rbp), %rcx
	call	_ZNSaI12ElementosVooEC1ERKS0_
	.loc 11 505 23
	movq	16(%rbp), %rax
	addq	$32, %rsp
	popq	%rbp
	.cfi_restore 6
	.cfi_def_cfa 7, 8
	ret
	.cfi_endproc
.LFE3088:
	.seh_endproc
	.section	.text$_ZNSaI12ElementosVooEC2ERKS0_,"x"
	.linkonce discard
	.align 2
	.globl	_ZNSaI12ElementosVooEC2ERKS0_
	.def	_ZNSaI12ElementosVooEC2ERKS0_;	.scl	2;	.type	32;	.endef
	.seh_proc	_ZNSaI12ElementosVooEC2ERKS0_
_ZNSaI12ElementosVooEC2ERKS0_:
.LFB3090:
	.loc 14 133 7
	.cfi_startproc
	pushq	%rbp
	.seh_pushreg	%rbp
	.cfi_def_cfa_offset 16
	.cfi_offset 6, -16
	movq	%rsp, %rbp
	.seh_setframe	%rbp, 0
	.cfi_def_cfa_register 6
	subq	$32, %rsp
	.seh_stackalloc	32
	.seh_endprologue
	movq	%rcx, 16(%rbp)
	movq	%rdx, 24(%rbp)
.LBB23:
	.loc 14 134 34
	movq	24(%rbp), %rax
	movq	%rax, %rdx
	movq	16(%rbp), %rcx
	call	_ZN9__gnu_cxx13new_allocatorI12ElementosVooEC2ERKS2_
.LBE23:
	.loc 14 134 38
	nop
	addq	$32, %rsp
	popq	%rbp
	.cfi_restore 6
	.cfi_def_cfa 7, 8
	ret
	.cfi_endproc
.LFE3090:
	.seh_endproc
	.section	.text$_ZNSaI12ElementosVooEC1ERKS0_,"x"
	.linkonce discard
	.align 2
	.globl	_ZNSaI12ElementosVooEC1ERKS0_
	.def	_ZNSaI12ElementosVooEC1ERKS0_;	.scl	2;	.type	32;	.endef
	.seh_proc	_ZNSaI12ElementosVooEC1ERKS0_
_ZNSaI12ElementosVooEC1ERKS0_:
.LFB3091:
	.loc 14 133 7
	.cfi_startproc
	pushq	%rbp
	.seh_pushreg	%rbp
	.cfi_def_cfa_offset 16
	.cfi_offset 6, -16
	movq	%rsp, %rbp
	.seh_setframe	%rbp, 0
	.cfi_def_cfa_register 6
	subq	$32, %rsp
	.seh_stackalloc	32
	.seh_endprologue
	movq	%rcx, 16(%rbp)
	movq	%rdx, 24(%rbp)
.LBB24:
	.loc 14 134 34
	movq	24(%rbp), %rax
	movq	%rax, %rdx
	movq	16(%rbp), %rcx
	call	_ZN9__gnu_cxx13new_allocatorI12ElementosVooEC2ERKS2_
.LBE24:
	.loc 14 134 38
	nop
	addq	$32, %rsp
	popq	%rbp
	.cfi_restore 6
	.cfi_def_cfa 7, 8
	ret
	.cfi_endproc
.LFE3091:
	.seh_endproc
	.section	.text$_ZN9__gnu_cxx13new_allocatorI12ElementosVooED2Ev,"x"
	.linkonce discard
	.align 2
	.globl	_ZN9__gnu_cxx13new_allocatorI12ElementosVooED2Ev
	.def	_ZN9__gnu_cxx13new_allocatorI12ElementosVooED2Ev;	.scl	2;	.type	32;	.endef
	.seh_proc	_ZN9__gnu_cxx13new_allocatorI12ElementosVooED2Ev
_ZN9__gnu_cxx13new_allocatorI12ElementosVooED2Ev:
.LFB3093:
	.loc 16 86 7
	.cfi_startproc
	pushq	%rbp
	.seh_pushreg	%rbp
	.cfi_def_cfa_offset 16
	.cfi_offset 6, -16
	movq	%rsp, %rbp
	.seh_setframe	%rbp, 0
	.cfi_def_cfa_register 6
	.seh_endprologue
	movq	%rcx, 16(%rbp)
	.loc 16 86 35
	nop
	popq	%rbp
	.cfi_restore 6
	.cfi_def_cfa 7, 8
	ret
	.cfi_endproc
.LFE3093:
	.seh_endproc
	.section	.text$_ZNSt12_Vector_baseI12ElementosVooSaIS0_EE12_Vector_implC1ERKS1_,"x"
	.linkonce discard
	.align 2
	.globl	_ZNSt12_Vector_baseI12ElementosVooSaIS0_EE12_Vector_implC1ERKS1_
	.def	_ZNSt12_Vector_baseI12ElementosVooSaIS0_EE12_Vector_implC1ERKS1_;	.scl	2;	.type	32;	.endef
	.seh_proc	_ZNSt12_Vector_baseI12ElementosVooSaIS0_EE12_Vector_implC1ERKS1_
_ZNSt12_Vector_baseI12ElementosVooSaIS0_EE12_Vector_implC1ERKS1_:
.LFB3097:
	.loc 8 99 2
	.cfi_startproc
	pushq	%rbp
	.seh_pushreg	%rbp
	.cfi_def_cfa_offset 16
	.cfi_offset 6, -16
	movq	%rsp, %rbp
	.seh_setframe	%rbp, 0
	.cfi_def_cfa_register 6
	subq	$32, %rsp
	.seh_stackalloc	32
	.seh_endprologue
	movq	%rcx, 16(%rbp)
	movq	%rdx, 24(%rbp)
.LBB25:
	.loc 8 100 68
	movq	24(%rbp), %rax
	movq	%rax, %rdx
	movq	16(%rbp), %rcx
	call	_ZNSaI12ElementosVooEC2ERKS0_
	movq	16(%rbp), %rax
	movq	$0, (%rax)
	movq	16(%rbp), %rax
	movq	$0, 8(%rax)
	movq	16(%rbp), %rax
	movq	$0, 16(%rax)
.LBE25:
	.loc 8 101 4
	nop
	addq	$32, %rsp
	popq	%rbp
	.cfi_restore 6
	.cfi_def_cfa 7, 8
	ret
	.cfi_endproc
.LFE3097:
	.seh_endproc
	.section	.text$_ZNSt12_Vector_baseI12ElementosVooSaIS0_EE17_M_create_storageEy,"x"
	.linkonce discard
	.align 2
	.globl	_ZNSt12_Vector_baseI12ElementosVooSaIS0_EE17_M_create_storageEy
	.def	_ZNSt12_Vector_baseI12ElementosVooSaIS0_EE17_M_create_storageEy;	.scl	2;	.type	32;	.endef
	.seh_proc	_ZNSt12_Vector_baseI12ElementosVooSaIS0_EE17_M_create_storageEy
_ZNSt12_Vector_baseI12ElementosVooSaIS0_EE17_M_create_storageEy:
.LFB3098:
	.loc 8 309 7
	.cfi_startproc
	pushq	%rbp
	.seh_pushreg	%rbp
	.cfi_def_cfa_offset 16
	.cfi_offset 6, -16
	movq	%rsp, %rbp
	.seh_setframe	%rbp, 0
	.cfi_def_cfa_register 6
	subq	$32, %rsp
	.seh_stackalloc	32
	.seh_endprologue
	movq	%rcx, 16(%rbp)
	movq	%rdx, 24(%rbp)
	.loc 8 311 25
	movq	24(%rbp), %rax
	movq	%rax, %rdx
	movq	16(%rbp), %rcx
	call	_ZNSt12_Vector_baseI12ElementosVooSaIS0_EE11_M_allocateEy
	movq	%rax, %rdx
	.loc 8 311 2
	movq	16(%rbp), %rax
	movq	%rdx, (%rax)
	.loc 8 312 42
	movq	16(%rbp), %rax
	movq	(%rax), %rdx
	.loc 8 312 2
	movq	16(%rbp), %rax
	movq	%rdx, 8(%rax)
	.loc 8 313 50
	movq	16(%rbp), %rax
	movq	(%rax), %rcx
	.loc 8 313 59
	movq	24(%rbp), %rdx
	movq	%rdx, %rax
	addq	%rax, %rax
	addq	%rdx, %rax
	salq	$5, %rax
	leaq	(%rcx,%rax), %rdx
	.loc 8 313 2
	movq	16(%rbp), %rax
	movq	%rdx, 16(%rax)
	.loc 8 314 7
	nop
	addq	$32, %rsp
	popq	%rbp
	.cfi_restore 6
	.cfi_def_cfa 7, 8
	ret
	.cfi_endproc
.LFE3098:
	.seh_endproc
	.section	.text$_ZN9__gnu_cxx17__normal_iteratorIPK12ElementosVooSt6vectorIS1_SaIS1_EEEC1ERKS3_,"x"
	.linkonce discard
	.align 2
	.globl	_ZN9__gnu_cxx17__normal_iteratorIPK12ElementosVooSt6vectorIS1_SaIS1_EEEC1ERKS3_
	.def	_ZN9__gnu_cxx17__normal_iteratorIPK12ElementosVooSt6vectorIS1_SaIS1_EEEC1ERKS3_;	.scl	2;	.type	32;	.endef
	.seh_proc	_ZN9__gnu_cxx17__normal_iteratorIPK12ElementosVooSt6vectorIS1_SaIS1_EEEC1ERKS3_
_ZN9__gnu_cxx17__normal_iteratorIPK12ElementosVooSt6vectorIS1_SaIS1_EEEC1ERKS3_:
.LFB3101:
	.loc 17 780 7
	.cfi_startproc
	pushq	%rbp
	.seh_pushreg	%rbp
	.cfi_def_cfa_offset 16
	.cfi_offset 6, -16
	movq	%rsp, %rbp
	.seh_setframe	%rbp, 0
	.cfi_def_cfa_register 6
	.seh_endprologue
	movq	%rcx, 16(%rbp)
	movq	%rdx, 24(%rbp)
.LBB26:
	.loc 17 781 23
	movq	24(%rbp), %rax
	movq	(%rax), %rdx
	movq	16(%rbp), %rax
	movq	%rdx, (%rax)
.LBE26:
	.loc 17 781 27
	nop
	popq	%rbp
	.cfi_restore 6
	.cfi_def_cfa 7, 8
	ret
	.cfi_endproc
.LFE3101:
	.seh_endproc
	.section	.text$_ZSt18uninitialized_copyIN9__gnu_cxx17__normal_iteratorIPK12ElementosVooSt6vectorIS2_SaIS2_EEEEPS2_ET0_T_SB_SA_,"x"
	.linkonce discard
	.globl	_ZSt18uninitialized_copyIN9__gnu_cxx17__normal_iteratorIPK12ElementosVooSt6vectorIS2_SaIS2_EEEEPS2_ET0_T_SB_SA_
	.def	_ZSt18uninitialized_copyIN9__gnu_cxx17__normal_iteratorIPK12ElementosVooSt6vectorIS2_SaIS2_EEEEPS2_ET0_T_SB_SA_;	.scl	2;	.type	32;	.endef
	.seh_proc	_ZSt18uninitialized_copyIN9__gnu_cxx17__normal_iteratorIPK12ElementosVooSt6vectorIS2_SaIS2_EEEEPS2_ET0_T_SB_SA_
_ZSt18uninitialized_copyIN9__gnu_cxx17__normal_iteratorIPK12ElementosVooSt6vectorIS2_SaIS2_EEEEPS2_ET0_T_SB_SA_:
.LFB3102:
	.loc 15 115 5
	.cfi_startproc
	pushq	%rbp
	.seh_pushreg	%rbp
	.cfi_def_cfa_offset 16
	.cfi_offset 6, -16
	movq	%rsp, %rbp
	.seh_setframe	%rbp, 0
	.cfi_def_cfa_register 6
	subq	$48, %rsp
	.seh_stackalloc	48
	.seh_endprologue
	movq	%rcx, 16(%rbp)
	movq	%rdx, 24(%rbp)
	movq	%r8, 32(%rbp)
	.loc 15 128 18
	movb	$1, -1(%rbp)
	.loc 15 134 15
	movq	32(%rbp), %rdx
	movq	24(%rbp), %rax
	movq	%rdx, %r8
	movq	%rax, %rdx
	movq	16(%rbp), %rcx
	call	_ZNSt20__uninitialized_copyILb0EE13__uninit_copyIN9__gnu_cxx17__normal_iteratorIPK12ElementosVooSt6vectorIS4_SaIS4_EEEEPS4_EET0_T_SD_SC_
	.loc 15 135 5
	addq	$48, %rsp
	popq	%rbp
	.cfi_restore 6
	.cfi_def_cfa 7, 8
	ret
	.cfi_endproc
.LFE3102:
	.seh_endproc
	.section	.text$_ZNSt16allocator_traitsISaI12ElementosVooEE10deallocateERS1_PS0_y,"x"
	.linkonce discard
	.globl	_ZNSt16allocator_traitsISaI12ElementosVooEE10deallocateERS1_PS0_y
	.def	_ZNSt16allocator_traitsISaI12ElementosVooEE10deallocateERS1_PS0_y;	.scl	2;	.type	32;	.endef
	.seh_proc	_ZNSt16allocator_traitsISaI12ElementosVooEE10deallocateERS1_PS0_y
_ZNSt16allocator_traitsISaI12ElementosVooEE10deallocateERS1_PS0_y:
.LFB3141:
	.loc 11 461 7
	.cfi_startproc
	pushq	%rbp
	.seh_pushreg	%rbp
	.cfi_def_cfa_offset 16
	.cfi_offset 6, -16
	movq	%rsp, %rbp
	.seh_setframe	%rbp, 0
	.cfi_def_cfa_register 6
	subq	$32, %rsp
	.seh_stackalloc	32
	.seh_endprologue
	movq	%rcx, 16(%rbp)
	movq	%rdx, 24(%rbp)
	movq	%r8, 32(%rbp)
	.loc 11 462 9
	movq	32(%rbp), %rdx
	movq	24(%rbp), %rax
	movq	%rdx, %r8
	movq	%rax, %rdx
	movq	16(%rbp), %rcx
	call	_ZN9__gnu_cxx13new_allocatorI12ElementosVooE10deallocateEPS1_y
	.loc 11 462 35
	nop
	addq	$32, %rsp
	popq	%rbp
	.cfi_restore 6
	.cfi_def_cfa 7, 8
	ret
	.cfi_endproc
.LFE3141:
	.seh_endproc
	.section	.text$_ZSt11__addressofI12ElementosVooEPT_RS1_,"x"
	.linkonce discard
	.globl	_ZSt11__addressofI12ElementosVooEPT_RS1_
	.def	_ZSt11__addressofI12ElementosVooEPT_RS1_;	.scl	2;	.type	32;	.endef
	.seh_proc	_ZSt11__addressofI12ElementosVooEPT_RS1_
_ZSt11__addressofI12ElementosVooEPT_RS1_:
.LFB3143:
	.loc 10 47 5
	.cfi_startproc
	pushq	%rbp
	.seh_pushreg	%rbp
	.cfi_def_cfa_offset 16
	.cfi_offset 6, -16
	movq	%rsp, %rbp
	.seh_setframe	%rbp, 0
	.cfi_def_cfa_register 6
	.seh_endprologue
	movq	%rcx, 16(%rbp)
	.loc 10 48 37
	movq	16(%rbp), %rax
	.loc 10 48 40
	popq	%rbp
	.cfi_restore 6
	.cfi_def_cfa 7, 8
	ret
	.cfi_endproc
.LFE3143:
	.seh_endproc
	.section	.text$_ZNSt12_Destroy_auxILb0EE9__destroyIP12ElementosVooEEvT_S4_,"x"
	.linkonce discard
	.globl	_ZNSt12_Destroy_auxILb0EE9__destroyIP12ElementosVooEEvT_S4_
	.def	_ZNSt12_Destroy_auxILb0EE9__destroyIP12ElementosVooEEvT_S4_;	.scl	2;	.type	32;	.endef
	.seh_proc	_ZNSt12_Destroy_auxILb0EE9__destroyIP12ElementosVooEEvT_S4_
_ZNSt12_Destroy_auxILb0EE9__destroyIP12ElementosVooEEvT_S4_:
.LFB3142:
	.loc 9 105 9
	.cfi_startproc
	pushq	%rbp
	.seh_pushreg	%rbp
	.cfi_def_cfa_offset 16
	.cfi_offset 6, -16
	movq	%rsp, %rbp
	.seh_setframe	%rbp, 0
	.cfi_def_cfa_register 6
	subq	$32, %rsp
	.seh_stackalloc	32
	.seh_endprologue
	movq	%rcx, 16(%rbp)
	movq	%rdx, 24(%rbp)
.L141:
	.loc 9 107 19 discriminator 2
	movq	16(%rbp), %rax
	cmpq	24(%rbp), %rax
	je	.L142
	.loc 9 108 19 discriminator 1
	movq	16(%rbp), %rcx
	call	_ZSt11__addressofI12ElementosVooEPT_RS1_
	movq	%rax, %rcx
	call	_ZSt8_DestroyI12ElementosVooEvPT_
	.loc 9 107 4 discriminator 1
	addq	$96, 16(%rbp)
	jmp	.L141
.L142:
	.loc 9 109 2
	nop
	addq	$32, %rsp
	popq	%rbp
	.cfi_restore 6
	.cfi_def_cfa 7, 8
	ret
	.cfi_endproc
.LFE3142:
	.seh_endproc
	.section	.text$_ZNKSt6vectorI12ElementosVooSaIS0_EE8max_sizeEv,"x"
	.linkonce discard
	.align 2
	.globl	_ZNKSt6vectorI12ElementosVooSaIS0_EE8max_sizeEv
	.def	_ZNKSt6vectorI12ElementosVooSaIS0_EE8max_sizeEv;	.scl	2;	.type	32;	.endef
	.seh_proc	_ZNKSt6vectorI12ElementosVooSaIS0_EE8max_sizeEv
_ZNKSt6vectorI12ElementosVooSaIS0_EE8max_sizeEv:
.LFB3144:
	.loc 8 810 7
	.cfi_startproc
	pushq	%rbp
	.seh_pushreg	%rbp
	.cfi_def_cfa_offset 16
	.cfi_offset 6, -16
	movq	%rsp, %rbp
	.seh_setframe	%rbp, 0
	.cfi_def_cfa_register 6
	subq	$32, %rsp
	.seh_stackalloc	32
	.seh_endprologue
	movq	%rcx, 16(%rbp)
	.loc 8 811 59
	movq	16(%rbp), %rax
	movq	%rax, %rcx
	call	_ZNKSt12_Vector_baseI12ElementosVooSaIS0_EE19_M_get_Tp_allocatorEv
	.loc 8 811 39
	movq	%rax, %rcx
	call	_ZNSt16allocator_traitsISaI12ElementosVooEE8max_sizeERKS1_
	.loc 8 811 64
	addq	$32, %rsp
	popq	%rbp
	.cfi_restore 6
	.cfi_def_cfa 7, 8
	ret
	.cfi_endproc
.LFE3144:
	.seh_endproc
	.section	.text$_ZSt3maxIyERKT_S2_S2_,"x"
	.linkonce discard
	.globl	_ZSt3maxIyERKT_S2_S2_
	.def	_ZSt3maxIyERKT_S2_S2_;	.scl	2;	.type	32;	.endef
	.seh_proc	_ZSt3maxIyERKT_S2_S2_
_ZSt3maxIyERKT_S2_S2_:
.LFB3145:
	.file 18 "C:/Program Files/CodeBlocks/MinGW/lib/gcc/x86_64-w64-mingw32/8.1.0/include/c++/bits/stl_algobase.h"
	.loc 18 219 5
	.cfi_startproc
	pushq	%rbp
	.seh_pushreg	%rbp
	.cfi_def_cfa_offset 16
	.cfi_offset 6, -16
	movq	%rsp, %rbp
	.seh_setframe	%rbp, 0
	.cfi_def_cfa_register 6
	.seh_endprologue
	movq	%rcx, 16(%rbp)
	movq	%rdx, 24(%rbp)
	.loc 18 224 15
	movq	16(%rbp), %rax
	movq	(%rax), %rdx
	movq	24(%rbp), %rax
	movq	(%rax), %rax
	.loc 18 224 7
	cmpq	%rax, %rdx
	jnb	.L146
	.loc 18 225 9
	movq	24(%rbp), %rax
	jmp	.L147
.L146:
	.loc 18 226 14
	movq	16(%rbp), %rax
.L147:
	.loc 18 227 5
	popq	%rbp
	.cfi_restore 6
	.cfi_def_cfa 7, 8
	ret
	.cfi_endproc
.LFE3145:
	.seh_endproc
	.section	.text$_ZNSt16allocator_traitsISaI12ElementosVooEE8allocateERS1_y,"x"
	.linkonce discard
	.globl	_ZNSt16allocator_traitsISaI12ElementosVooEE8allocateERS1_y
	.def	_ZNSt16allocator_traitsISaI12ElementosVooEE8allocateERS1_y;	.scl	2;	.type	32;	.endef
	.seh_proc	_ZNSt16allocator_traitsISaI12ElementosVooEE8allocateERS1_y
_ZNSt16allocator_traitsISaI12ElementosVooEE8allocateERS1_y:
.LFB3146:
	.loc 11 435 7
	.cfi_startproc
	pushq	%rbp
	.seh_pushreg	%rbp
	.cfi_def_cfa_offset 16
	.cfi_offset 6, -16
	movq	%rsp, %rbp
	.seh_setframe	%rbp, 0
	.cfi_def_cfa_register 6
	subq	$32, %rsp
	.seh_stackalloc	32
	.seh_endprologue
	movq	%rcx, 16(%rbp)
	movq	%rdx, 24(%rbp)
	.loc 11 436 32
	movq	24(%rbp), %rax
	movl	$0, %r8d
	movq	%rax, %rdx
	movq	16(%rbp), %rcx
	call	_ZN9__gnu_cxx13new_allocatorI12ElementosVooE8allocateEyPKv
	.loc 11 436 35
	addq	$32, %rsp
	popq	%rbp
	.cfi_restore 6
	.cfi_def_cfa 7, 8
	ret
	.cfi_endproc
.LFE3146:
	.seh_endproc
	.section	.text$_ZSt32__make_move_if_noexcept_iteratorI12ElementosVooSt13move_iteratorIPS0_EET0_PT_,"x"
	.linkonce discard
	.globl	_ZSt32__make_move_if_noexcept_iteratorI12ElementosVooSt13move_iteratorIPS0_EET0_PT_
	.def	_ZSt32__make_move_if_noexcept_iteratorI12ElementosVooSt13move_iteratorIPS0_EET0_PT_;	.scl	2;	.type	32;	.endef
	.seh_proc	_ZSt32__make_move_if_noexcept_iteratorI12ElementosVooSt13move_iteratorIPS0_EET0_PT_
_ZSt32__make_move_if_noexcept_iteratorI12ElementosVooSt13move_iteratorIPS0_EET0_PT_:
.LFB3147:
	.loc 17 1215 5
	.cfi_startproc
	pushq	%rbp
	.seh_pushreg	%rbp
	.cfi_def_cfa_offset 16
	.cfi_offset 6, -16
	movq	%rsp, %rbp
	.seh_setframe	%rbp, 0
	.cfi_def_cfa_register 6
	subq	$48, %rsp
	.seh_stackalloc	48
	.seh_endprologue
	movq	%rcx, 16(%rbp)
	.loc 17 1216 29
	leaq	-8(%rbp), %rax
	movq	16(%rbp), %rdx
	movq	%rax, %rcx
	call	_ZNSt13move_iteratorIP12ElementosVooEC1ES1_
	movq	-8(%rbp), %rax
	.loc 17 1216 32
	addq	$48, %rsp
	popq	%rbp
	.cfi_restore 6
	.cfi_def_cfa 7, 8
	ret
	.cfi_endproc
.LFE3147:
	.seh_endproc
	.section	.text$_ZSt22__uninitialized_copy_aISt13move_iteratorIP12ElementosVooES2_S1_ET0_T_S5_S4_RSaIT1_E,"x"
	.linkonce discard
	.globl	_ZSt22__uninitialized_copy_aISt13move_iteratorIP12ElementosVooES2_S1_ET0_T_S5_S4_RSaIT1_E
	.def	_ZSt22__uninitialized_copy_aISt13move_iteratorIP12ElementosVooES2_S1_ET0_T_S5_S4_RSaIT1_E;	.scl	2;	.type	32;	.endef
	.seh_proc	_ZSt22__uninitialized_copy_aISt13move_iteratorIP12ElementosVooES2_S1_ET0_T_S5_S4_RSaIT1_E
_ZSt22__uninitialized_copy_aISt13move_iteratorIP12ElementosVooES2_S1_ET0_T_S5_S4_RSaIT1_E:
.LFB3148:
	.loc 15 287 5
	.cfi_startproc
	pushq	%rbp
	.seh_pushreg	%rbp
	.cfi_def_cfa_offset 16
	.cfi_offset 6, -16
	movq	%rsp, %rbp
	.seh_setframe	%rbp, 0
	.cfi_def_cfa_register 6
	subq	$32, %rsp
	.seh_stackalloc	32
	.seh_endprologue
	movq	%rcx, 16(%rbp)
	movq	%rdx, 24(%rbp)
	movq	%r8, 32(%rbp)
	movq	%r9, 40(%rbp)
	.loc 15 289 37
	movq	32(%rbp), %rdx
	movq	24(%rbp), %rax
	movq	%rdx, %r8
	movq	%rax, %rdx
	movq	16(%rbp), %rcx
	call	_ZSt18uninitialized_copyISt13move_iteratorIP12ElementosVooES2_ET0_T_S5_S4_
	.loc 15 289 66
	addq	$32, %rsp
	popq	%rbp
	.cfi_restore 6
	.cfi_def_cfa 7, 8
	ret
	.cfi_endproc
.LFE3148:
	.seh_endproc
	.section	.text$_ZN9__gnu_cxx13new_allocatorI12ElementosVooE7destroyIS1_EEvPT_,"x"
	.linkonce discard
	.align 2
	.globl	_ZN9__gnu_cxx13new_allocatorI12ElementosVooE7destroyIS1_EEvPT_
	.def	_ZN9__gnu_cxx13new_allocatorI12ElementosVooE7destroyIS1_EEvPT_;	.scl	2;	.type	32;	.endef
	.seh_proc	_ZN9__gnu_cxx13new_allocatorI12ElementosVooE7destroyIS1_EEvPT_
_ZN9__gnu_cxx13new_allocatorI12ElementosVooE7destroyIS1_EEvPT_:
.LFB3149:
	.loc 16 140 2
	.cfi_startproc
	pushq	%rbp
	.seh_pushreg	%rbp
	.cfi_def_cfa_offset 16
	.cfi_offset 6, -16
	movq	%rsp, %rbp
	.seh_setframe	%rbp, 0
	.cfi_def_cfa_register 6
	subq	$32, %rsp
	.seh_stackalloc	32
	.seh_endprologue
	movq	%rcx, 16(%rbp)
	movq	%rdx, 24(%rbp)
	.loc 16 140 22
	movq	24(%rbp), %rax
	movq	(%rax), %rax
	movq	(%rax), %rax
	movq	24(%rbp), %rdx
	movq	%rdx, %rcx
	call	*%rax
.LVL6:
	.loc 16 140 35
	nop
	addq	$32, %rsp
	popq	%rbp
	.cfi_restore 6
	.cfi_def_cfa 7, 8
	ret
	.cfi_endproc
.LFE3149:
	.seh_endproc
	.section	.text$_ZN9__gnu_cxx13new_allocatorI12ElementosVooEC2ERKS2_,"x"
	.linkonce discard
	.align 2
	.globl	_ZN9__gnu_cxx13new_allocatorI12ElementosVooEC2ERKS2_
	.def	_ZN9__gnu_cxx13new_allocatorI12ElementosVooEC2ERKS2_;	.scl	2;	.type	32;	.endef
	.seh_proc	_ZN9__gnu_cxx13new_allocatorI12ElementosVooEC2ERKS2_
_ZN9__gnu_cxx13new_allocatorI12ElementosVooEC2ERKS2_:
.LFB3151:
	.loc 16 81 7
	.cfi_startproc
	pushq	%rbp
	.seh_pushreg	%rbp
	.cfi_def_cfa_offset 16
	.cfi_offset 6, -16
	movq	%rsp, %rbp
	.seh_setframe	%rbp, 0
	.cfi_def_cfa_register 6
	.seh_endprologue
	movq	%rcx, 16(%rbp)
	movq	%rdx, 24(%rbp)
	.loc 16 81 54
	nop
	popq	%rbp
	.cfi_restore 6
	.cfi_def_cfa 7, 8
	ret
	.cfi_endproc
.LFE3151:
	.seh_endproc
	.section	.text$_ZNSt20__uninitialized_copyILb0EE13__uninit_copyIN9__gnu_cxx17__normal_iteratorIPK12ElementosVooSt6vectorIS4_SaIS4_EEEEPS4_EET0_T_SD_SC_,"x"
	.linkonce discard
	.globl	_ZNSt20__uninitialized_copyILb0EE13__uninit_copyIN9__gnu_cxx17__normal_iteratorIPK12ElementosVooSt6vectorIS4_SaIS4_EEEEPS4_EET0_T_SD_SC_
	.def	_ZNSt20__uninitialized_copyILb0EE13__uninit_copyIN9__gnu_cxx17__normal_iteratorIPK12ElementosVooSt6vectorIS4_SaIS4_EEEEPS4_EET0_T_SD_SC_;	.scl	2;	.type	32;	.endef
	.seh_proc	_ZNSt20__uninitialized_copyILb0EE13__uninit_copyIN9__gnu_cxx17__normal_iteratorIPK12ElementosVooSt6vectorIS4_SaIS4_EEEEPS4_EET0_T_SD_SC_
_ZNSt20__uninitialized_copyILb0EE13__uninit_copyIN9__gnu_cxx17__normal_iteratorIPK12ElementosVooSt6vectorIS4_SaIS4_EEEEPS4_EET0_T_SD_SC_:
.LFB3153:
	.loc 15 76 9
	.cfi_startproc
	pushq	%rbp
	.seh_pushreg	%rbp
	.cfi_def_cfa_offset 16
	.cfi_offset 6, -16
	pushq	%rbx
	.seh_pushreg	%rbx
	.cfi_def_cfa_offset 24
	.cfi_offset 3, -24
	subq	$56, %rsp
	.seh_stackalloc	56
	.cfi_def_cfa_offset 80
	leaq	128(%rsp), %rbp
	.seh_setframe	%rbp, 128
	.cfi_def_cfa 6, -48
	.seh_endprologue
	movq	%rcx, -48(%rbp)
	movq	%rdx, -40(%rbp)
	movq	%r8, -32(%rbp)
	.loc 15 79 21
	movq	-32(%rbp), %rax
	movq	%rax, -88(%rbp)
.L158:
	.loc 15 82 23 discriminator 2
	leaq	-40(%rbp), %rax
	movq	%rax, %rdx
	leaq	-48(%rbp), %rcx
	call	_ZN9__gnu_cxxneIPK12ElementosVooSt6vectorIS1_SaIS1_EEEEbRKNS_17__normal_iteratorIT_T0_EESC_
	testb	%al, %al
	je	.L157
	.loc 15 83 45 discriminator 1
	leaq	-48(%rbp), %rcx
	call	_ZNK9__gnu_cxx17__normal_iteratorIPK12ElementosVooSt6vectorIS1_SaIS1_EEEdeEv
	movq	%rax, %rbx
	.loc 15 83 18 discriminator 1
	movq	-88(%rbp), %rax
	movq	%rax, %rcx
	call	_ZSt11__addressofI12ElementosVooEPT_RS1_
	movq	%rbx, %rdx
	movq	%rax, %rcx
	call	_ZSt10_ConstructI12ElementosVooJRKS0_EEvPT_DpOT0_
	.loc 15 82 34 discriminator 1
	leaq	-48(%rbp), %rcx
	call	_ZN9__gnu_cxx17__normal_iteratorIPK12ElementosVooSt6vectorIS1_SaIS1_EEEppEv
	.loc 15 82 8 discriminator 1
	addq	$96, -88(%rbp)
	jmp	.L158
.L157:
	.loc 15 84 15
	movq	-88(%rbp), %rax
	.loc 15 91 2
	addq	$56, %rsp
	popq	%rbx
	.cfi_restore 3
	popq	%rbp
	.cfi_restore 6
	.cfi_def_cfa 7, -40
	ret
	.cfi_endproc
.LFE3153:
	.seh_endproc
	.section	.text$_ZN9__gnu_cxx13new_allocatorI12ElementosVooE10deallocateEPS1_y,"x"
	.linkonce discard
	.align 2
	.globl	_ZN9__gnu_cxx13new_allocatorI12ElementosVooE10deallocateEPS1_y
	.def	_ZN9__gnu_cxx13new_allocatorI12ElementosVooE10deallocateEPS1_y;	.scl	2;	.type	32;	.endef
	.seh_proc	_ZN9__gnu_cxx13new_allocatorI12ElementosVooE10deallocateEPS1_y
_ZN9__gnu_cxx13new_allocatorI12ElementosVooE10deallocateEPS1_y:
.LFB3180:
	.loc 16 116 7
	.cfi_startproc
	pushq	%rbp
	.seh_pushreg	%rbp
	.cfi_def_cfa_offset 16
	.cfi_offset 6, -16
	movq	%rsp, %rbp
	.seh_setframe	%rbp, 0
	.cfi_def_cfa_register 6
	subq	$32, %rsp
	.seh_stackalloc	32
	.seh_endprologue
	movq	%rcx, 16(%rbp)
	movq	%rdx, 24(%rbp)
	movq	%r8, 32(%rbp)
	.loc 16 125 19
	movq	24(%rbp), %rax
	movq	%rax, %rcx
	call	_ZdlPv
	.loc 16 126 7
	nop
	addq	$32, %rsp
	popq	%rbp
	.cfi_restore 6
	.cfi_def_cfa 7, 8
	ret
	.cfi_endproc
.LFE3180:
	.seh_endproc
	.section	.text$_ZSt8_DestroyI12ElementosVooEvPT_,"x"
	.linkonce discard
	.globl	_ZSt8_DestroyI12ElementosVooEvPT_
	.def	_ZSt8_DestroyI12ElementosVooEvPT_;	.scl	2;	.type	32;	.endef
	.seh_proc	_ZSt8_DestroyI12ElementosVooEvPT_
_ZSt8_DestroyI12ElementosVooEvPT_:
.LFB3181:
	.loc 9 97 5
	.cfi_startproc
	pushq	%rbp
	.seh_pushreg	%rbp
	.cfi_def_cfa_offset 16
	.cfi_offset 6, -16
	movq	%rsp, %rbp
	.seh_setframe	%rbp, 0
	.cfi_def_cfa_register 6
	subq	$32, %rsp
	.seh_stackalloc	32
	.seh_endprologue
	movq	%rcx, 16(%rbp)
	.loc 9 98 7
	movq	16(%rbp), %rax
	movq	(%rax), %rax
	movq	(%rax), %rax
	movq	16(%rbp), %rcx
	call	*%rax
.LVL7:
	.loc 9 98 26
	nop
	addq	$32, %rsp
	popq	%rbp
	.cfi_restore 6
	.cfi_def_cfa 7, 8
	ret
	.cfi_endproc
.LFE3181:
	.seh_endproc
	.section	.text$_ZNSt16allocator_traitsISaI12ElementosVooEE8max_sizeERKS1_,"x"
	.linkonce discard
	.globl	_ZNSt16allocator_traitsISaI12ElementosVooEE8max_sizeERKS1_
	.def	_ZNSt16allocator_traitsISaI12ElementosVooEE8max_sizeERKS1_;	.scl	2;	.type	32;	.endef
	.seh_proc	_ZNSt16allocator_traitsISaI12ElementosVooEE8max_sizeERKS1_
_ZNSt16allocator_traitsISaI12ElementosVooEE8max_sizeERKS1_:
.LFB3182:
	.loc 11 495 7
	.cfi_startproc
	pushq	%rbp
	.seh_pushreg	%rbp
	.cfi_def_cfa_offset 16
	.cfi_offset 6, -16
	movq	%rsp, %rbp
	.seh_setframe	%rbp, 0
	.cfi_def_cfa_register 6
	subq	$32, %rsp
	.seh_stackalloc	32
	.seh_endprologue
	movq	%rcx, 16(%rbp)
	.loc 11 496 29
	movq	16(%rbp), %rcx
	call	_ZNK9__gnu_cxx13new_allocatorI12ElementosVooE8max_sizeEv
	.loc 11 496 32
	addq	$32, %rsp
	popq	%rbp
	.cfi_restore 6
	.cfi_def_cfa 7, 8
	ret
	.cfi_endproc
.LFE3182:
	.seh_endproc
	.section	.text$_ZN9__gnu_cxx13new_allocatorI12ElementosVooE8allocateEyPKv,"x"
	.linkonce discard
	.align 2
	.globl	_ZN9__gnu_cxx13new_allocatorI12ElementosVooE8allocateEyPKv
	.def	_ZN9__gnu_cxx13new_allocatorI12ElementosVooE8allocateEyPKv;	.scl	2;	.type	32;	.endef
	.seh_proc	_ZN9__gnu_cxx13new_allocatorI12ElementosVooE8allocateEyPKv
_ZN9__gnu_cxx13new_allocatorI12ElementosVooE8allocateEyPKv:
.LFB3183:
	.loc 16 99 7
	.cfi_startproc
	pushq	%rbp
	.seh_pushreg	%rbp
	.cfi_def_cfa_offset 16
	.cfi_offset 6, -16
	movq	%rsp, %rbp
	.seh_setframe	%rbp, 0
	.cfi_def_cfa_register 6
	subq	$32, %rsp
	.seh_stackalloc	32
	.seh_endprologue
	movq	%rcx, 16(%rbp)
	movq	%rdx, 24(%rbp)
	movq	%r8, 32(%rbp)
	.loc 16 101 10
	movq	16(%rbp), %rcx
	call	_ZNK9__gnu_cxx13new_allocatorI12ElementosVooE8max_sizeEv
	cmpq	%rax, 24(%rbp)
	seta	%al
	.loc 16 101 2
	testb	%al, %al
	je	.L165
	.loc 16 102 26
	call	_ZSt17__throw_bad_allocv
.L165:
	.loc 16 111 41
	movq	24(%rbp), %rdx
	movq	%rdx, %rax
	addq	%rax, %rax
	addq	%rdx, %rax
	salq	$5, %rax
	movq	%rax, %rcx
	call	_Znwy
	.loc 16 112 7
	addq	$32, %rsp
	popq	%rbp
	.cfi_restore 6
	.cfi_def_cfa 7, 8
	ret
	.cfi_endproc
.LFE3183:
	.seh_endproc
	.section	.text$_ZNSt13move_iteratorIP12ElementosVooEC1ES1_,"x"
	.linkonce discard
	.align 2
	.globl	_ZNSt13move_iteratorIP12ElementosVooEC1ES1_
	.def	_ZNSt13move_iteratorIP12ElementosVooEC1ES1_;	.scl	2;	.type	32;	.endef
	.seh_proc	_ZNSt13move_iteratorIP12ElementosVooEC1ES1_
_ZNSt13move_iteratorIP12ElementosVooEC1ES1_:
.LFB3186:
	.loc 17 1030 7
	.cfi_startproc
	pushq	%rbp
	.seh_pushreg	%rbp
	.cfi_def_cfa_offset 16
	.cfi_offset 6, -16
	movq	%rsp, %rbp
	.seh_setframe	%rbp, 0
	.cfi_def_cfa_register 6
	.seh_endprologue
	movq	%rcx, 16(%rbp)
	movq	%rdx, 24(%rbp)
.LBB27:
	.loc 17 1031 23
	movq	16(%rbp), %rax
	movq	24(%rbp), %rdx
	movq	%rdx, (%rax)
.LBE27:
	.loc 17 1031 27
	nop
	popq	%rbp
	.cfi_restore 6
	.cfi_def_cfa 7, 8
	ret
	.cfi_endproc
.LFE3186:
	.seh_endproc
	.section	.text$_ZSt18uninitialized_copyISt13move_iteratorIP12ElementosVooES2_ET0_T_S5_S4_,"x"
	.linkonce discard
	.globl	_ZSt18uninitialized_copyISt13move_iteratorIP12ElementosVooES2_ET0_T_S5_S4_
	.def	_ZSt18uninitialized_copyISt13move_iteratorIP12ElementosVooES2_ET0_T_S5_S4_;	.scl	2;	.type	32;	.endef
	.seh_proc	_ZSt18uninitialized_copyISt13move_iteratorIP12ElementosVooES2_ET0_T_S5_S4_
_ZSt18uninitialized_copyISt13move_iteratorIP12ElementosVooES2_ET0_T_S5_S4_:
.LFB3187:
	.loc 15 115 5
	.cfi_startproc
	pushq	%rbp
	.seh_pushreg	%rbp
	.cfi_def_cfa_offset 16
	.cfi_offset 6, -16
	movq	%rsp, %rbp
	.seh_setframe	%rbp, 0
	.cfi_def_cfa_register 6
	subq	$48, %rsp
	.seh_stackalloc	48
	.seh_endprologue
	movq	%rcx, 16(%rbp)
	movq	%rdx, 24(%rbp)
	movq	%r8, 32(%rbp)
	.loc 15 128 18
	movb	$1, -1(%rbp)
	.loc 15 134 15
	movq	32(%rbp), %rdx
	movq	24(%rbp), %rax
	movq	%rdx, %r8
	movq	%rax, %rdx
	movq	16(%rbp), %rcx
	call	_ZNSt20__uninitialized_copyILb0EE13__uninit_copyISt13move_iteratorIP12ElementosVooES4_EET0_T_S7_S6_
	.loc 15 135 5
	addq	$48, %rsp
	popq	%rbp
	.cfi_restore 6
	.cfi_def_cfa 7, 8
	ret
	.cfi_endproc
.LFE3187:
	.seh_endproc
	.section	.text$_ZN9__gnu_cxxneIPK12ElementosVooSt6vectorIS1_SaIS1_EEEEbRKNS_17__normal_iteratorIT_T0_EESC_,"x"
	.linkonce discard
	.globl	_ZN9__gnu_cxxneIPK12ElementosVooSt6vectorIS1_SaIS1_EEEEbRKNS_17__normal_iteratorIT_T0_EESC_
	.def	_ZN9__gnu_cxxneIPK12ElementosVooSt6vectorIS1_SaIS1_EEEEbRKNS_17__normal_iteratorIT_T0_EESC_;	.scl	2;	.type	32;	.endef
	.seh_proc	_ZN9__gnu_cxxneIPK12ElementosVooSt6vectorIS1_SaIS1_EEEEbRKNS_17__normal_iteratorIT_T0_EESC_
_ZN9__gnu_cxxneIPK12ElementosVooSt6vectorIS1_SaIS1_EEEEbRKNS_17__normal_iteratorIT_T0_EESC_:
.LFB3188:
	.loc 17 881 5
	.cfi_startproc
	pushq	%rbp
	.seh_pushreg	%rbp
	.cfi_def_cfa_offset 16
	.cfi_offset 6, -16
	pushq	%rbx
	.seh_pushreg	%rbx
	.cfi_def_cfa_offset 24
	.cfi_offset 3, -24
	subq	$40, %rsp
	.seh_stackalloc	40
	.cfi_def_cfa_offset 64
	leaq	128(%rsp), %rbp
	.seh_setframe	%rbp, 128
	.cfi_def_cfa 6, -64
	.seh_endprologue
	movq	%rcx, -64(%rbp)
	movq	%rdx, -56(%rbp)
	.loc 17 884 27
	movq	-64(%rbp), %rcx
	call	_ZNK9__gnu_cxx17__normal_iteratorIPK12ElementosVooSt6vectorIS1_SaIS1_EEE4baseEv
	movq	(%rax), %rbx
	movq	-56(%rbp), %rax
	movq	%rax, %rcx
	call	_ZNK9__gnu_cxx17__normal_iteratorIPK12ElementosVooSt6vectorIS1_SaIS1_EEE4baseEv
	movq	(%rax), %rax
	.loc 17 884 41
	cmpq	%rax, %rbx
	setne	%al
	.loc 17 884 44
	addq	$40, %rsp
	popq	%rbx
	.cfi_restore 3
	popq	%rbp
	.cfi_restore 6
	.cfi_def_cfa 7, -24
	ret
	.cfi_endproc
.LFE3188:
	.seh_endproc
	.section	.text$_ZN9__gnu_cxx17__normal_iteratorIPK12ElementosVooSt6vectorIS1_SaIS1_EEEppEv,"x"
	.linkonce discard
	.align 2
	.globl	_ZN9__gnu_cxx17__normal_iteratorIPK12ElementosVooSt6vectorIS1_SaIS1_EEEppEv
	.def	_ZN9__gnu_cxx17__normal_iteratorIPK12ElementosVooSt6vectorIS1_SaIS1_EEEppEv;	.scl	2;	.type	32;	.endef
	.seh_proc	_ZN9__gnu_cxx17__normal_iteratorIPK12ElementosVooSt6vectorIS1_SaIS1_EEEppEv
_ZN9__gnu_cxx17__normal_iteratorIPK12ElementosVooSt6vectorIS1_SaIS1_EEEppEv:
.LFB3189:
	.loc 17 801 7
	.cfi_startproc
	pushq	%rbp
	.seh_pushreg	%rbp
	.cfi_def_cfa_offset 16
	.cfi_offset 6, -16
	movq	%rsp, %rbp
	.seh_setframe	%rbp, 0
	.cfi_def_cfa_register 6
	.seh_endprologue
	movq	%rcx, 16(%rbp)
	.loc 17 803 4
	movq	16(%rbp), %rax
	movq	(%rax), %rax
	.loc 17 803 2
	leaq	96(%rax), %rdx
	movq	16(%rbp), %rax
	movq	%rdx, (%rax)
	.loc 17 804 10
	movq	16(%rbp), %rax
	.loc 17 805 7
	popq	%rbp
	.cfi_restore 6
	.cfi_def_cfa 7, 8
	ret
	.cfi_endproc
.LFE3189:
	.seh_endproc
	.section	.text$_ZNK9__gnu_cxx17__normal_iteratorIPK12ElementosVooSt6vectorIS1_SaIS1_EEEdeEv,"x"
	.linkonce discard
	.align 2
	.globl	_ZNK9__gnu_cxx17__normal_iteratorIPK12ElementosVooSt6vectorIS1_SaIS1_EEEdeEv
	.def	_ZNK9__gnu_cxx17__normal_iteratorIPK12ElementosVooSt6vectorIS1_SaIS1_EEEdeEv;	.scl	2;	.type	32;	.endef
	.seh_proc	_ZNK9__gnu_cxx17__normal_iteratorIPK12ElementosVooSt6vectorIS1_SaIS1_EEEdeEv
_ZNK9__gnu_cxx17__normal_iteratorIPK12ElementosVooSt6vectorIS1_SaIS1_EEEdeEv:
.LFB3190:
	.loc 17 793 7
	.cfi_startproc
	pushq	%rbp
	.seh_pushreg	%rbp
	.cfi_def_cfa_offset 16
	.cfi_offset 6, -16
	movq	%rsp, %rbp
	.seh_setframe	%rbp, 0
	.cfi_def_cfa_register 6
	.seh_endprologue
	movq	%rcx, 16(%rbp)
	.loc 17 794 17
	movq	16(%rbp), %rax
	movq	(%rax), %rax
	.loc 17 794 29
	popq	%rbp
	.cfi_restore 6
	.cfi_def_cfa 7, 8
	ret
	.cfi_endproc
.LFE3190:
	.seh_endproc
	.section	.text$_ZSt10_ConstructI12ElementosVooJRKS0_EEvPT_DpOT0_,"x"
	.linkonce discard
	.globl	_ZSt10_ConstructI12ElementosVooJRKS0_EEvPT_DpOT0_
	.def	_ZSt10_ConstructI12ElementosVooJRKS0_EEvPT_DpOT0_;	.scl	2;	.type	32;	.endef
	.seh_proc	_ZSt10_ConstructI12ElementosVooJRKS0_EEvPT_DpOT0_
_ZSt10_ConstructI12ElementosVooJRKS0_EEvPT_DpOT0_:
.LFB3191:
	.loc 9 74 5
	.cfi_startproc
	pushq	%rbp
	.seh_pushreg	%rbp
	.cfi_def_cfa_offset 16
	.cfi_offset 6, -16
	pushq	%rbx
	.seh_pushreg	%rbx
	.cfi_def_cfa_offset 24
	.cfi_offset 3, -24
	subq	$40, %rsp
	.seh_stackalloc	40
	.cfi_def_cfa_offset 64
	leaq	128(%rsp), %rbp
	.seh_setframe	%rbp, 128
	.cfi_def_cfa 6, -64
	.seh_endprologue
	movq	%rcx, -64(%rbp)
	movq	%rdx, -56(%rbp)
	.loc 9 75 61
	movq	-56(%rbp), %rax
	movq	%rax, %rcx
	call	_ZSt7forwardIRK12ElementosVooEOT_RNSt16remove_referenceIS3_E4typeE
	movq	%rax, %rbx
	.loc 9 75 7
	movq	-64(%rbp), %rax
	movq	%rax, %rdx
	movl	$96, %ecx
	call	_ZnwyPv
	movq	%rbx, %rdx
	movq	%rax, %rcx
	call	_ZN12ElementosVooC1ERKS_
	.loc 9 75 75
	nop
	addq	$40, %rsp
	popq	%rbx
	.cfi_restore 3
	popq	%rbp
	.cfi_restore 6
	.cfi_def_cfa 7, -24
	ret
	.cfi_endproc
.LFE3191:
	.seh_endproc
	.section	.text$_ZNK9__gnu_cxx13new_allocatorI12ElementosVooE8max_sizeEv,"x"
	.linkonce discard
	.align 2
	.globl	_ZNK9__gnu_cxx13new_allocatorI12ElementosVooE8max_sizeEv
	.def	_ZNK9__gnu_cxx13new_allocatorI12ElementosVooE8max_sizeEv;	.scl	2;	.type	32;	.endef
	.seh_proc	_ZNK9__gnu_cxx13new_allocatorI12ElementosVooE8max_sizeEv
_ZNK9__gnu_cxx13new_allocatorI12ElementosVooE8max_sizeEv:
.LFB3205:
	.loc 16 129 7
	.cfi_startproc
	pushq	%rbp
	.seh_pushreg	%rbp
	.cfi_def_cfa_offset 16
	.cfi_offset 6, -16
	movq	%rsp, %rbp
	.seh_setframe	%rbp, 0
	.cfi_def_cfa_register 6
	.seh_endprologue
	movq	%rcx, 16(%rbp)
	.loc 16 130 39
	movabsq	$192153584101141162, %rax
	.loc 16 130 42
	popq	%rbp
	.cfi_restore 6
	.cfi_def_cfa 7, 8
	ret
	.cfi_endproc
.LFE3205:
	.seh_endproc
	.section	.text$_ZNSt20__uninitialized_copyILb0EE13__uninit_copyISt13move_iteratorIP12ElementosVooES4_EET0_T_S7_S6_,"x"
	.linkonce discard
	.globl	_ZNSt20__uninitialized_copyILb0EE13__uninit_copyISt13move_iteratorIP12ElementosVooES4_EET0_T_S7_S6_
	.def	_ZNSt20__uninitialized_copyILb0EE13__uninit_copyISt13move_iteratorIP12ElementosVooES4_EET0_T_S7_S6_;	.scl	2;	.type	32;	.endef
	.seh_proc	_ZNSt20__uninitialized_copyILb0EE13__uninit_copyISt13move_iteratorIP12ElementosVooES4_EET0_T_S7_S6_
_ZNSt20__uninitialized_copyILb0EE13__uninit_copyISt13move_iteratorIP12ElementosVooES4_EET0_T_S7_S6_:
.LFB3206:
	.loc 15 76 9
	.cfi_startproc
	pushq	%rbp
	.seh_pushreg	%rbp
	.cfi_def_cfa_offset 16
	.cfi_offset 6, -16
	pushq	%rbx
	.seh_pushreg	%rbx
	.cfi_def_cfa_offset 24
	.cfi_offset 3, -24
	subq	$56, %rsp
	.seh_stackalloc	56
	.cfi_def_cfa_offset 80
	leaq	128(%rsp), %rbp
	.seh_setframe	%rbp, 128
	.cfi_def_cfa 6, -48
	.seh_endprologue
	movq	%rcx, -48(%rbp)
	movq	%rdx, -40(%rbp)
	movq	%r8, -32(%rbp)
	.loc 15 79 21
	movq	-32(%rbp), %rax
	movq	%rax, -88(%rbp)
.L181:
	.loc 15 82 23 discriminator 3
	leaq	-40(%rbp), %rax
	movq	%rax, %rdx
	leaq	-48(%rbp), %rcx
.LEHB16:
	call	_ZStneIP12ElementosVooEbRKSt13move_iteratorIT_ES6_
.LEHE16:
	testb	%al, %al
	je	.L180
	.loc 15 83 45 discriminator 2
	leaq	-48(%rbp), %rcx
	call	_ZNKSt13move_iteratorIP12ElementosVooEdeEv
	movq	%rax, %rbx
	.loc 15 83 18 discriminator 2
	movq	-88(%rbp), %rax
	movq	%rax, %rcx
	call	_ZSt11__addressofI12ElementosVooEPT_RS1_
	movq	%rbx, %rdx
	movq	%rax, %rcx
	call	_ZSt10_ConstructI12ElementosVooJS0_EEvPT_DpOT0_
	.loc 15 82 34 discriminator 2
	leaq	-48(%rbp), %rcx
	call	_ZNSt13move_iteratorIP12ElementosVooEppEv
	.loc 15 82 8 discriminator 2
	addq	$96, -88(%rbp)
	jmp	.L181
.L180:
	.loc 15 84 15
	movq	-88(%rbp), %rax
	jmp	.L187
.L185:
	.loc 15 86 4
	movq	%rax, %rcx
	call	__cxa_begin_catch
	.loc 15 88 21
	movq	-88(%rbp), %rdx
	movq	-32(%rbp), %rax
	movq	%rax, %rcx
.LEHB17:
	call	_ZSt8_DestroyIP12ElementosVooEvT_S2_
	.loc 15 89 8
	call	__cxa_rethrow
.LEHE17:
.L186:
	movq	%rax, %rbx
	.loc 15 86 4
	call	__cxa_end_catch
	movq	%rbx, %rax
	movq	%rax, %rcx
.LEHB18:
	call	_Unwind_Resume
.LEHE18:
.L187:
	.loc 15 91 2
	addq	$56, %rsp
	popq	%rbx
	.cfi_restore 3
	popq	%rbp
	.cfi_restore 6
	.cfi_def_cfa 7, -40
	ret
	.cfi_endproc
.LFE3206:
	.seh_handler	__gxx_personality_seh0, @unwind, @except
	.seh_handlerdata
	.align 4
.LLSDA3206:
	.byte	0xff
	.byte	0x9b
	.uleb128 .LLSDATT3206-.LLSDATTD3206
.LLSDATTD3206:
	.byte	0x1
	.uleb128 .LLSDACSE3206-.LLSDACSB3206
.LLSDACSB3206:
	.uleb128 .LEHB16-.LFB3206
	.uleb128 .LEHE16-.LEHB16
	.uleb128 .L185-.LFB3206
	.uleb128 0x1
	.uleb128 .LEHB17-.LFB3206
	.uleb128 .LEHE17-.LEHB17
	.uleb128 .L186-.LFB3206
	.uleb128 0
	.uleb128 .LEHB18-.LFB3206
	.uleb128 .LEHE18-.LEHB18
	.uleb128 0
	.uleb128 0
.LLSDACSE3206:
	.byte	0x1
	.byte	0
	.align 4
	.long	0

.LLSDATT3206:
	.section	.text$_ZNSt20__uninitialized_copyILb0EE13__uninit_copyISt13move_iteratorIP12ElementosVooES4_EET0_T_S7_S6_,"x"
	.linkonce discard
	.seh_endproc
	.section	.text$_ZNK9__gnu_cxx17__normal_iteratorIPK12ElementosVooSt6vectorIS1_SaIS1_EEE4baseEv,"x"
	.linkonce discard
	.align 2
	.globl	_ZNK9__gnu_cxx17__normal_iteratorIPK12ElementosVooSt6vectorIS1_SaIS1_EEE4baseEv
	.def	_ZNK9__gnu_cxx17__normal_iteratorIPK12ElementosVooSt6vectorIS1_SaIS1_EEE4baseEv;	.scl	2;	.type	32;	.endef
	.seh_proc	_ZNK9__gnu_cxx17__normal_iteratorIPK12ElementosVooSt6vectorIS1_SaIS1_EEE4baseEv
_ZNK9__gnu_cxx17__normal_iteratorIPK12ElementosVooSt6vectorIS1_SaIS1_EEE4baseEv:
.LFB3207:
	.loc 17 845 7
	.cfi_startproc
	pushq	%rbp
	.seh_pushreg	%rbp
	.cfi_def_cfa_offset 16
	.cfi_offset 6, -16
	movq	%rsp, %rbp
	.seh_setframe	%rbp, 0
	.cfi_def_cfa_register 6
	.seh_endprologue
	movq	%rcx, 16(%rbp)
	.loc 17 846 16
	movq	16(%rbp), %rax
	.loc 17 846 28
	popq	%rbp
	.cfi_restore 6
	.cfi_def_cfa 7, 8
	ret
	.cfi_endproc
.LFE3207:
	.seh_endproc
	.section	.text$_ZStneIP12ElementosVooEbRKSt13move_iteratorIT_ES6_,"x"
	.linkonce discard
	.globl	_ZStneIP12ElementosVooEbRKSt13move_iteratorIT_ES6_
	.def	_ZStneIP12ElementosVooEbRKSt13move_iteratorIT_ES6_;	.scl	2;	.type	32;	.endef
	.seh_proc	_ZStneIP12ElementosVooEbRKSt13move_iteratorIT_ES6_
_ZStneIP12ElementosVooEbRKSt13move_iteratorIT_ES6_:
.LFB3215:
	.loc 17 1130 5
	.cfi_startproc
	pushq	%rbp
	.seh_pushreg	%rbp
	.cfi_def_cfa_offset 16
	.cfi_offset 6, -16
	movq	%rsp, %rbp
	.seh_setframe	%rbp, 0
	.cfi_def_cfa_register 6
	subq	$32, %rsp
	.seh_stackalloc	32
	.seh_endprologue
	movq	%rcx, 16(%rbp)
	movq	%rdx, 24(%rbp)
	.loc 17 1132 20
	movq	24(%rbp), %rax
	movq	%rax, %rdx
	movq	16(%rbp), %rcx
	call	_ZSteqIP12ElementosVooEbRKSt13move_iteratorIT_ES6_
	.loc 17 1132 26
	xorl	$1, %eax
	.loc 17 1132 29
	addq	$32, %rsp
	popq	%rbp
	.cfi_restore 6
	.cfi_def_cfa 7, 8
	ret
	.cfi_endproc
.LFE3215:
	.seh_endproc
	.section	.text$_ZNSt13move_iteratorIP12ElementosVooEppEv,"x"
	.linkonce discard
	.align 2
	.globl	_ZNSt13move_iteratorIP12ElementosVooEppEv
	.def	_ZNSt13move_iteratorIP12ElementosVooEppEv;	.scl	2;	.type	32;	.endef
	.seh_proc	_ZNSt13move_iteratorIP12ElementosVooEppEv
_ZNSt13move_iteratorIP12ElementosVooEppEv:
.LFB3216:
	.loc 17 1051 7
	.cfi_startproc
	pushq	%rbp
	.seh_pushreg	%rbp
	.cfi_def_cfa_offset 16
	.cfi_offset 6, -16
	movq	%rsp, %rbp
	.seh_setframe	%rbp, 0
	.cfi_def_cfa_register 6
	.seh_endprologue
	movq	%rcx, 16(%rbp)
	.loc 17 1053 4
	movq	16(%rbp), %rax
	movq	(%rax), %rax
	.loc 17 1053 2
	leaq	96(%rax), %rdx
	movq	16(%rbp), %rax
	movq	%rdx, (%rax)
	.loc 17 1054 10
	movq	16(%rbp), %rax
	.loc 17 1055 7
	popq	%rbp
	.cfi_restore 6
	.cfi_def_cfa 7, 8
	ret
	.cfi_endproc
.LFE3216:
	.seh_endproc
	.section	.text$_ZNKSt13move_iteratorIP12ElementosVooEdeEv,"x"
	.linkonce discard
	.align 2
	.globl	_ZNKSt13move_iteratorIP12ElementosVooEdeEv
	.def	_ZNKSt13move_iteratorIP12ElementosVooEdeEv;	.scl	2;	.type	32;	.endef
	.seh_proc	_ZNKSt13move_iteratorIP12ElementosVooEdeEv
_ZNKSt13move_iteratorIP12ElementosVooEdeEv:
.LFB3217:
	.loc 17 1043 7
	.cfi_startproc
	pushq	%rbp
	.seh_pushreg	%rbp
	.cfi_def_cfa_offset 16
	.cfi_offset 6, -16
	movq	%rsp, %rbp
	.seh_setframe	%rbp, 0
	.cfi_def_cfa_register 6
	.seh_endprologue
	movq	%rcx, 16(%rbp)
	.loc 17 1044 50
	movq	16(%rbp), %rax
	movq	(%rax), %rax
	.loc 17 1044 53
	popq	%rbp
	.cfi_restore 6
	.cfi_def_cfa 7, 8
	ret
	.cfi_endproc
.LFE3217:
	.seh_endproc
	.section	.text$_ZSt7forwardI12ElementosVooEOT_RNSt16remove_referenceIS1_E4typeE,"x"
	.linkonce discard
	.globl	_ZSt7forwardI12ElementosVooEOT_RNSt16remove_referenceIS1_E4typeE
	.def	_ZSt7forwardI12ElementosVooEOT_RNSt16remove_referenceIS1_E4typeE;	.scl	2;	.type	32;	.endef
	.seh_proc	_ZSt7forwardI12ElementosVooEOT_RNSt16remove_referenceIS1_E4typeE
_ZSt7forwardI12ElementosVooEOT_RNSt16remove_referenceIS1_E4typeE:
.LFB3219:
	.loc 10 74 5
	.cfi_startproc
	pushq	%rbp
	.seh_pushreg	%rbp
	.cfi_def_cfa_offset 16
	.cfi_offset 6, -16
	movq	%rsp, %rbp
	.seh_setframe	%rbp, 0
	.cfi_def_cfa_register 6
	.seh_endprologue
	movq	%rcx, 16(%rbp)
	.loc 10 75 36
	movq	16(%rbp), %rax
	.loc 10 75 39
	popq	%rbp
	.cfi_restore 6
	.cfi_def_cfa 7, 8
	ret
	.cfi_endproc
.LFE3219:
	.seh_endproc
	.section	.text$_ZN12ElementosVooC1EOS_,"x"
	.linkonce discard
	.align 2
	.globl	_ZN12ElementosVooC1EOS_
	.def	_ZN12ElementosVooC1EOS_;	.scl	2;	.type	32;	.endef
	.seh_proc	_ZN12ElementosVooC1EOS_
_ZN12ElementosVooC1EOS_:
.LFB3222:
	.loc 4 7 7
	.cfi_startproc
	pushq	%rbp
	.seh_pushreg	%rbp
	.cfi_def_cfa_offset 16
	.cfi_offset 6, -16
	movq	%rsp, %rbp
	.seh_setframe	%rbp, 0
	.cfi_def_cfa_register 6
	subq	$32, %rsp
	.seh_stackalloc	32
	.seh_endprologue
	movq	%rcx, 16(%rbp)
	movq	%rdx, 24(%rbp)
.LBB28:
	.loc 4 7 7
	movq	16(%rbp), %rax
	movq	24(%rbp), %rdx
	movq	%rax, %rcx
	call	_ZN10BaseObjectC2ERKS_
	leaq	16+_ZTV12ElementosVoo(%rip), %rdx
	movq	16(%rbp), %rax
	movq	%rdx, (%rax)
	movq	24(%rbp), %rax
	movsd	8(%rax), %xmm0
	movq	16(%rbp), %rax
	movsd	%xmm0, 8(%rax)
	movq	24(%rbp), %rax
	movsd	16(%rax), %xmm0
	movq	16(%rbp), %rax
	movsd	%xmm0, 16(%rax)
	movq	24(%rbp), %rax
	movsd	24(%rax), %xmm0
	movq	16(%rbp), %rax
	movsd	%xmm0, 24(%rax)
	movq	24(%rbp), %rax
	movsd	32(%rax), %xmm0
	movq	16(%rbp), %rax
	movsd	%xmm0, 32(%rax)
	movq	24(%rbp), %rax
	movsd	40(%rax), %xmm0
	movq	16(%rbp), %rax
	movsd	%xmm0, 40(%rax)
	movq	24(%rbp), %rax
	movsd	48(%rax), %xmm0
	movq	16(%rbp), %rax
	movsd	%xmm0, 48(%rax)
	movq	24(%rbp), %rax
	movsd	56(%rax), %xmm0
	movq	16(%rbp), %rax
	movsd	%xmm0, 56(%rax)
	movq	24(%rbp), %rax
	movsd	64(%rax), %xmm0
	movq	16(%rbp), %rax
	movsd	%xmm0, 64(%rax)
	movq	24(%rbp), %rax
	movsd	72(%rax), %xmm0
	movq	16(%rbp), %rax
	movsd	%xmm0, 72(%rax)
	movq	24(%rbp), %rax
	movsd	80(%rax), %xmm0
	movq	16(%rbp), %rax
	movsd	%xmm0, 80(%rax)
	movq	24(%rbp), %rax
	movsd	88(%rax), %xmm0
	movq	16(%rbp), %rax
	movsd	%xmm0, 88(%rax)
.LBE28:
	nop
	addq	$32, %rsp
	popq	%rbp
	.cfi_restore 6
	.cfi_def_cfa 7, 8
	ret
	.cfi_endproc
.LFE3222:
	.seh_endproc
	.section	.text$_ZSt10_ConstructI12ElementosVooJS0_EEvPT_DpOT0_,"x"
	.linkonce discard
	.globl	_ZSt10_ConstructI12ElementosVooJS0_EEvPT_DpOT0_
	.def	_ZSt10_ConstructI12ElementosVooJS0_EEvPT_DpOT0_;	.scl	2;	.type	32;	.endef
	.seh_proc	_ZSt10_ConstructI12ElementosVooJS0_EEvPT_DpOT0_
_ZSt10_ConstructI12ElementosVooJS0_EEvPT_DpOT0_:
.LFB3218:
	.loc 9 74 5
	.cfi_startproc
	pushq	%rbp
	.seh_pushreg	%rbp
	.cfi_def_cfa_offset 16
	.cfi_offset 6, -16
	pushq	%rbx
	.seh_pushreg	%rbx
	.cfi_def_cfa_offset 24
	.cfi_offset 3, -24
	subq	$40, %rsp
	.seh_stackalloc	40
	.cfi_def_cfa_offset 64
	leaq	128(%rsp), %rbp
	.seh_setframe	%rbp, 128
	.cfi_def_cfa 6, -64
	.seh_endprologue
	movq	%rcx, -64(%rbp)
	movq	%rdx, -56(%rbp)
	.loc 9 75 61
	movq	-56(%rbp), %rax
	movq	%rax, %rcx
	call	_ZSt7forwardI12ElementosVooEOT_RNSt16remove_referenceIS1_E4typeE
	movq	%rax, %rbx
	.loc 9 75 7
	movq	-64(%rbp), %rax
	movq	%rax, %rdx
	movl	$96, %ecx
	call	_ZnwyPv
	movq	%rbx, %rdx
	movq	%rax, %rcx
	call	_ZN12ElementosVooC1EOS_
	.loc 9 75 75
	nop
	addq	$40, %rsp
	popq	%rbx
	.cfi_restore 3
	popq	%rbp
	.cfi_restore 6
	.cfi_def_cfa 7, -24
	ret
	.cfi_endproc
.LFE3218:
	.seh_endproc
	.section	.text$_ZSteqIP12ElementosVooEbRKSt13move_iteratorIT_ES6_,"x"
	.linkonce discard
	.globl	_ZSteqIP12ElementosVooEbRKSt13move_iteratorIT_ES6_
	.def	_ZSteqIP12ElementosVooEbRKSt13move_iteratorIT_ES6_;	.scl	2;	.type	32;	.endef
	.seh_proc	_ZSteqIP12ElementosVooEbRKSt13move_iteratorIT_ES6_
_ZSteqIP12ElementosVooEbRKSt13move_iteratorIT_ES6_:
.LFB3225:
	.loc 17 1118 5
	.cfi_startproc
	pushq	%rbp
	.seh_pushreg	%rbp
	.cfi_def_cfa_offset 16
	.cfi_offset 6, -16
	pushq	%rbx
	.seh_pushreg	%rbx
	.cfi_def_cfa_offset 24
	.cfi_offset 3, -24
	subq	$40, %rsp
	.seh_stackalloc	40
	.cfi_def_cfa_offset 64
	leaq	128(%rsp), %rbp
	.seh_setframe	%rbp, 128
	.cfi_def_cfa 6, -64
	.seh_endprologue
	movq	%rcx, -64(%rbp)
	movq	%rdx, -56(%rbp)
	.loc 17 1120 25
	movq	-64(%rbp), %rcx
	call	_ZNKSt13move_iteratorIP12ElementosVooE4baseEv
	movq	%rax, %rbx
	movq	-56(%rbp), %rax
	movq	%rax, %rcx
	call	_ZNKSt13move_iteratorIP12ElementosVooE4baseEv
	.loc 17 1120 37
	cmpq	%rax, %rbx
	sete	%al
	.loc 17 1120 40
	addq	$40, %rsp
	popq	%rbx
	.cfi_restore 3
	popq	%rbp
	.cfi_restore 6
	.cfi_def_cfa 7, -24
	ret
	.cfi_endproc
.LFE3225:
	.seh_endproc
	.section	.text$_ZNKSt13move_iteratorIP12ElementosVooE4baseEv,"x"
	.linkonce discard
	.align 2
	.globl	_ZNKSt13move_iteratorIP12ElementosVooE4baseEv
	.def	_ZNKSt13move_iteratorIP12ElementosVooE4baseEv;	.scl	2;	.type	32;	.endef
	.seh_proc	_ZNKSt13move_iteratorIP12ElementosVooE4baseEv
_ZNKSt13move_iteratorIP12ElementosVooE4baseEv:
.LFB3226:
	.loc 17 1039 7
	.cfi_startproc
	pushq	%rbp
	.seh_pushreg	%rbp
	.cfi_def_cfa_offset 16
	.cfi_offset 6, -16
	movq	%rsp, %rbp
	.seh_setframe	%rbp, 0
	.cfi_def_cfa_register 6
	.seh_endprologue
	movq	%rcx, 16(%rbp)
	.loc 17 1040 16
	movq	16(%rbp), %rax
	movq	(%rax), %rax
	.loc 17 1040 28
	popq	%rbp
	.cfi_restore 6
	.cfi_def_cfa 7, 8
	ret
	.cfi_endproc
.LFE3226:
	.seh_endproc
	.globl	_ZTV34CalculadorPontoMassaModificado1990
	.section	.rdata$_ZTV34CalculadorPontoMassaModificado1990,"dr"
	.linkonce same_size
	.align 8
_ZTV34CalculadorPontoMassaModificado1990:
	.quad	0
	.quad	_ZTI34CalculadorPontoMassaModificado1990
	.quad	_ZN34CalculadorPontoMassaModificado199013solucaoDiretaEddddb4RAMO
	.quad	_ZN30CalculadorPontoMassaModificado14solucaoReversaEddd15TIPO_TRAJETORIAddd4RAMO
	.globl	_ZTV12ElementosVoo
	.section	.rdata$_ZTV12ElementosVoo,"dr"
	.linkonce same_size
	.align 8
_ZTV12ElementosVoo:
	.quad	0
	.quad	_ZTI12ElementosVoo
	.quad	_ZN12ElementosVooD1Ev
	.quad	_ZN12ElementosVooD0Ev
	.section	.text$_ZN12ElementosVooD1Ev,"x"
	.linkonce discard
	.align 2
	.globl	_ZN12ElementosVooD1Ev
	.def	_ZN12ElementosVooD1Ev;	.scl	2;	.type	32;	.endef
	.seh_proc	_ZN12ElementosVooD1Ev
_ZN12ElementosVooD1Ev:
.LFB3233:
	.loc 4 7 7
	.cfi_startproc
	pushq	%rbp
	.seh_pushreg	%rbp
	.cfi_def_cfa_offset 16
	.cfi_offset 6, -16
	movq	%rsp, %rbp
	.seh_setframe	%rbp, 0
	.cfi_def_cfa_register 6
	subq	$32, %rsp
	.seh_stackalloc	32
	.seh_endprologue
	movq	%rcx, 16(%rbp)
.LBB29:
	.loc 4 7 7
	leaq	16+_ZTV12ElementosVoo(%rip), %rdx
	movq	16(%rbp), %rax
	movq	%rdx, (%rax)
	movq	16(%rbp), %rax
	movq	%rax, %rcx
	call	_ZN10BaseObjectD2Ev
.LBE29:
	nop
	addq	$32, %rsp
	popq	%rbp
	.cfi_restore 6
	.cfi_def_cfa 7, 8
	ret
	.cfi_endproc
.LFE3233:
	.seh_endproc
	.section	.text$_ZN12ElementosVooD0Ev,"x"
	.linkonce discard
	.align 2
	.globl	_ZN12ElementosVooD0Ev
	.def	_ZN12ElementosVooD0Ev;	.scl	2;	.type	32;	.endef
	.seh_proc	_ZN12ElementosVooD0Ev
_ZN12ElementosVooD0Ev:
.LFB3234:
	.loc 4 7 7
	.cfi_startproc
	pushq	%rbp
	.seh_pushreg	%rbp
	.cfi_def_cfa_offset 16
	.cfi_offset 6, -16
	movq	%rsp, %rbp
	.seh_setframe	%rbp, 0
	.cfi_def_cfa_register 6
	subq	$32, %rsp
	.seh_stackalloc	32
	.seh_endprologue
	movq	%rcx, 16(%rbp)
	.loc 4 7 7
	movq	16(%rbp), %rcx
	call	_ZN12ElementosVooD1Ev
	movq	16(%rbp), %rcx
	call	_ZdlPv
	nop
	addq	$32, %rsp
	popq	%rbp
	.cfi_restore 6
	.cfi_def_cfa 7, 8
	ret
	.cfi_endproc
.LFE3234:
	.seh_endproc
	.globl	_ZTV10BaseObject
	.section	.rdata$_ZTV10BaseObject,"dr"
	.linkonce same_size
	.align 8
_ZTV10BaseObject:
	.quad	0
	.quad	_ZTI10BaseObject
	.quad	_ZN10BaseObjectD1Ev
	.quad	_ZN10BaseObjectD0Ev
	.globl	_ZTI34CalculadorPontoMassaModificado1990
	.section	.rdata$_ZTI34CalculadorPontoMassaModificado1990,"dr"
	.linkonce same_size
	.align 8
_ZTI34CalculadorPontoMassaModificado1990:
	.quad	_ZTVN10__cxxabiv120__si_class_type_infoE+16
	.quad	_ZTS34CalculadorPontoMassaModificado1990
	.quad	_ZTI30CalculadorPontoMassaModificado
	.globl	_ZTS34CalculadorPontoMassaModificado1990
	.section	.rdata$_ZTS34CalculadorPontoMassaModificado1990,"dr"
	.linkonce same_size
	.align 32
_ZTS34CalculadorPontoMassaModificado1990:
	.ascii "34CalculadorPontoMassaModificado1990\0"
	.globl	_ZTI30CalculadorPontoMassaModificado
	.section	.rdata$_ZTI30CalculadorPontoMassaModificado,"dr"
	.linkonce same_size
	.align 8
_ZTI30CalculadorPontoMassaModificado:
	.quad	_ZTVN10__cxxabiv120__si_class_type_infoE+16
	.quad	_ZTS30CalculadorPontoMassaModificado
	.quad	_ZTI20CalculadorPontoMassa
	.globl	_ZTS30CalculadorPontoMassaModificado
	.section	.rdata$_ZTS30CalculadorPontoMassaModificado,"dr"
	.linkonce same_size
	.align 32
_ZTS30CalculadorPontoMassaModificado:
	.ascii "30CalculadorPontoMassaModificado\0"
	.globl	_ZTI20CalculadorPontoMassa
	.section	.rdata$_ZTI20CalculadorPontoMassa,"dr"
	.linkonce same_size
	.align 8
_ZTI20CalculadorPontoMassa:
	.quad	_ZTVN10__cxxabiv120__si_class_type_infoE+16
	.quad	_ZTS20CalculadorPontoMassa
	.quad	_ZTI21CalculadorAtmosferico
	.globl	_ZTS20CalculadorPontoMassa
	.section	.rdata$_ZTS20CalculadorPontoMassa,"dr"
	.linkonce same_size
	.align 16
_ZTS20CalculadorPontoMassa:
	.ascii "20CalculadorPontoMassa\0"
	.globl	_ZTI21CalculadorAtmosferico
	.section	.rdata$_ZTI21CalculadorAtmosferico,"dr"
	.linkonce same_size
	.align 8
_ZTI21CalculadorAtmosferico:
	.quad	_ZTVN10__cxxabiv120__si_class_type_infoE+16
	.quad	_ZTS21CalculadorAtmosferico
	.quad	_ZTI10Calculador
	.globl	_ZTS21CalculadorAtmosferico
	.section	.rdata$_ZTS21CalculadorAtmosferico,"dr"
	.linkonce same_size
	.align 16
_ZTS21CalculadorAtmosferico:
	.ascii "21CalculadorAtmosferico\0"
	.globl	_ZTI10Calculador
	.section	.rdata$_ZTI10Calculador,"dr"
	.linkonce same_size
	.align 8
_ZTI10Calculador:
	.quad	_ZTVN10__cxxabiv117__class_type_infoE+16
	.quad	_ZTS10Calculador
	.globl	_ZTS10Calculador
	.section	.rdata$_ZTS10Calculador,"dr"
	.linkonce same_size
	.align 8
_ZTS10Calculador:
	.ascii "10Calculador\0"
	.globl	_ZTI12ElementosVoo
	.section	.rdata$_ZTI12ElementosVoo,"dr"
	.linkonce same_size
	.align 8
_ZTI12ElementosVoo:
	.quad	_ZTVN10__cxxabiv120__si_class_type_infoE+16
	.quad	_ZTS12ElementosVoo
	.quad	_ZTI10BaseObject
	.globl	_ZTS12ElementosVoo
	.section	.rdata$_ZTS12ElementosVoo,"dr"
	.linkonce same_size
	.align 8
_ZTS12ElementosVoo:
	.ascii "12ElementosVoo\0"
	.globl	_ZTI10BaseObject
	.section	.rdata$_ZTI10BaseObject,"dr"
	.linkonce same_size
	.align 8
_ZTI10BaseObject:
	.quad	_ZTVN10__cxxabiv117__class_type_infoE+16
	.quad	_ZTS10BaseObject
	.globl	_ZTS10BaseObject
	.section	.rdata$_ZTS10BaseObject,"dr"
	.linkonce same_size
	.align 8
_ZTS10BaseObject:
	.ascii "10BaseObject\0"
	.section .rdata,"dr"
	.align 8
.LC1:
	.long	1413754136
	.long	1074340347
	.align 8
.LC2:
	.long	0
	.long	1084817408
	.align 8
.LC3:
	.long	1413754136
	.long	1075388923
	.align 8
.LC4:
	.long	0
	.long	1071644672
	.align 8
.LC5:
	.long	0
	.long	1075314688
	.align 8
.LC6:
	.long	0
	.long	1073741824
	.align 8
.LC7:
	.long	-2147483648
	.long	1097351111
	.align 8
.LC8:
	.long	0
	.long	1072693248
	.text
.Letext0:
	.file 19 "C:/Program Files/CodeBlocks/MinGW/lib/gcc/x86_64-w64-mingw32/8.1.0/include/c++/bits/basic_string.h"
	.file 20 "C:/Program Files/CodeBlocks/MinGW/lib/gcc/x86_64-w64-mingw32/8.1.0/include/c++/bits/stringfwd.h"
	.file 21 "C:/Program Files/CodeBlocks/MinGW/lib/gcc/x86_64-w64-mingw32/8.1.0/include/c++/bits/stl_list.h"
	.file 22 "C:/Program Files/CodeBlocks/MinGW/lib/gcc/x86_64-w64-mingw32/8.1.0/include/c++/bits/list.tcc"
	.file 23 "C:/Program Files/CodeBlocks/MinGW/lib/gcc/x86_64-w64-mingw32/8.1.0/include/c++/bits/std_abs.h"
	.file 24 "C:/Program Files/CodeBlocks/MinGW/lib/gcc/x86_64-w64-mingw32/8.1.0/include/c++/type_traits"
	.file 25 "C:/Program Files/CodeBlocks/MinGW/lib/gcc/x86_64-w64-mingw32/8.1.0/include/c++/bits/stl_pair.h"
	.file 26 "C:/Program Files/CodeBlocks/MinGW/lib/gcc/x86_64-w64-mingw32/8.1.0/include/c++/debug/debug.h"
	.file 27 "C:/Program Files/CodeBlocks/MinGW/lib/gcc/x86_64-w64-mingw32/8.1.0/include/c++/cwchar"
	.file 28 "C:/Program Files/CodeBlocks/MinGW/lib/gcc/x86_64-w64-mingw32/8.1.0/include/c++/bits/char_traits.h"
	.file 29 "C:/Program Files/CodeBlocks/MinGW/lib/gcc/x86_64-w64-mingw32/8.1.0/include/c++/x86_64-w64-mingw32/bits/c++config.h"
	.file 30 "C:/Program Files/CodeBlocks/MinGW/lib/gcc/x86_64-w64-mingw32/8.1.0/include/c++/cstdint"
	.file 31 "C:/Program Files/CodeBlocks/MinGW/lib/gcc/x86_64-w64-mingw32/8.1.0/include/c++/bits/exception_ptr.h"
	.file 32 "C:/Program Files/CodeBlocks/MinGW/lib/gcc/x86_64-w64-mingw32/8.1.0/include/c++/clocale"
	.file 33 "C:/Program Files/CodeBlocks/MinGW/lib/gcc/x86_64-w64-mingw32/8.1.0/include/c++/cstdlib"
	.file 34 "C:/Program Files/CodeBlocks/MinGW/lib/gcc/x86_64-w64-mingw32/8.1.0/include/c++/cstdio"
	.file 35 "C:/Program Files/CodeBlocks/MinGW/lib/gcc/x86_64-w64-mingw32/8.1.0/include/c++/initializer_list"
	.file 36 "C:/Program Files/CodeBlocks/MinGW/lib/gcc/x86_64-w64-mingw32/8.1.0/include/c++/system_error"
	.file 37 "C:/Program Files/CodeBlocks/MinGW/lib/gcc/x86_64-w64-mingw32/8.1.0/include/c++/cwctype"
	.file 38 "C:/Program Files/CodeBlocks/MinGW/lib/gcc/x86_64-w64-mingw32/8.1.0/include/c++/bits/uses_allocator.h"
	.file 39 "C:/Program Files/CodeBlocks/MinGW/lib/gcc/x86_64-w64-mingw32/8.1.0/include/c++/tuple"
	.file 40 "C:/Program Files/CodeBlocks/MinGW/lib/gcc/x86_64-w64-mingw32/8.1.0/include/c++/bits/stl_iterator_base_types.h"
	.file 41 "C:/Program Files/CodeBlocks/MinGW/lib/gcc/x86_64-w64-mingw32/8.1.0/include/c++/bits/cpp_type_traits.h"
	.file 42 "C:/Program Files/CodeBlocks/MinGW/lib/gcc/x86_64-w64-mingw32/8.1.0/include/c++/bits/predefined_ops.h"
	.file 43 "C:/Program Files/CodeBlocks/MinGW/lib/gcc/x86_64-w64-mingw32/8.1.0/include/c++/ext/numeric_traits.h"
	.file 44 "C:/Program Files/CodeBlocks/MinGW/lib/gcc/x86_64-w64-mingw32/8.1.0/include/c++/ext/type_traits.h"
	.file 45 "C:/Program Files/CodeBlocks/MinGW/lib/gcc/x86_64-w64-mingw32/8.1.0/include/c++/ext/aligned_buffer.h"
	.file 46 "C:/Program Files/CodeBlocks/MinGW/x86_64-w64-mingw32/include/crtdefs.h"
	.file 47 "C:/Program Files/CodeBlocks/MinGW/x86_64-w64-mingw32/include/locale.h"
	.file 48 "C:/Program Files/CodeBlocks/MinGW/x86_64-w64-mingw32/include/math.h"
	.file 49 "C:/Program Files/CodeBlocks/MinGW/x86_64-w64-mingw32/include/stdlib.h"
	.file 50 "C:/Program Files/CodeBlocks/MinGW/x86_64-w64-mingw32/include/malloc.h"
	.file 51 "C:/Program Files/CodeBlocks/MinGW/lib/gcc/x86_64-w64-mingw32/8.1.0/include/c++/math.h"
	.file 52 "C:/Program Files/CodeBlocks/MinGW/x86_64-w64-mingw32/include/wchar.h"
	.file 53 "C:/Program Files/CodeBlocks/MinGW/x86_64-w64-mingw32/include/swprintf.inl"
	.file 54 "C:/Program Files/CodeBlocks/MinGW/x86_64-w64-mingw32/include/stdint.h"
	.file 55 "C:/Program Files/CodeBlocks/MinGW/x86_64-w64-mingw32/include/ctype.h"
	.file 56 "C:/Program Files/CodeBlocks/MinGW/x86_64-w64-mingw32/include/process.h"
	.file 57 "C:/Program Files/CodeBlocks/MinGW/x86_64-w64-mingw32/include/pthread.h"
	.file 58 "C:/Program Files/CodeBlocks/MinGW/x86_64-w64-mingw32/include/wctype.h"
	.file 59 "C:/PFC 2021/ballisticKernelCpp/CalculadorNumerico/padroes/observable.h"
	.file 60 "C:/PFC 2021/ballisticKernelCpp/CalculadorNumerico/calculador/calculador.h"
	.file 61 "C:/PFC 2021/ballisticKernelCpp/CalculadorNumerico/coeficientes/coeficienteAerodinamico.h"
	.file 62 "<built-in>"
	.file 63 "C:/PFC 2021/ballisticKernelCpp/CalculadorNumerico/calculador/calculadorPontoMassaModificado1990.h"