	.file	"calculador.cpp"
	.text
.Ltext0:
	.cfi_sections	.debug_frame
	.section .rdata,"dr"
_ZStL19piecewise_construct:
	.space 1
	.section	.text$_ZN10BaseObjectD2Ev,"x"
	.linkonce discard
	.align 2
	.globl	_ZN10BaseObjectD2Ev
	.def	_ZN10BaseObjectD2Ev;	.scl	2;	.type	32;	.endef
	.seh_proc	_ZN10BaseObjectD2Ev
_ZN10BaseObjectD2Ev:
.LFB1349:
	.file 1 "C:/PFC 2021/ballisticKernelCpp/CalculadorNumerico/padroes/baseobject.h"
	.loc 1 8 17
	.cfi_startproc
	pushq	%rbp
	.seh_pushreg	%rbp
	.cfi_def_cfa_offset 16
	.cfi_offset 6, -16
	movq	%rsp, %rbp
	.seh_setframe	%rbp, 0
	.cfi_def_cfa_register 6
	.seh_endprologue
	movq	%rcx, 16(%rbp)
.LBB2:
	.loc 1 8 31
	leaq	16+_ZTV10BaseObject(%rip), %rdx
	movq	16(%rbp), %rax
	movq	%rdx, (%rax)
.LBE2:
	.loc 1 8 32
	nop
	popq	%rbp
	.cfi_restore 6
	.cfi_def_cfa 7, 8
	ret
	.cfi_endproc
.LFE1349:
	.seh_endproc
	.section	.text$_ZN10BaseObjectD1Ev,"x"
	.linkonce discard
	.align 2
	.globl	_ZN10BaseObjectD1Ev
	.def	_ZN10BaseObjectD1Ev;	.scl	2;	.type	32;	.endef
	.seh_proc	_ZN10BaseObjectD1Ev
_ZN10BaseObjectD1Ev:
.LFB1350:
	.loc 1 8 17
	.cfi_startproc
	pushq	%rbp
	.seh_pushreg	%rbp
	.cfi_def_cfa_offset 16
	.cfi_offset 6, -16
	movq	%rsp, %rbp
	.seh_setframe	%rbp, 0
	.cfi_def_cfa_register 6
	.seh_endprologue
	movq	%rcx, 16(%rbp)
.LBB3:
	.loc 1 8 31
	leaq	16+_ZTV10BaseObject(%rip), %rdx
	movq	16(%rbp), %rax
	movq	%rdx, (%rax)
.LBE3:
	.loc 1 8 32
	nop
	popq	%rbp
	.cfi_restore 6
	.cfi_def_cfa 7, 8
	ret
	.cfi_endproc
.LFE1350:
	.seh_endproc
	.section	.text$_ZN10BaseObjectD0Ev,"x"
	.linkonce discard
	.align 2
	.globl	_ZN10BaseObjectD0Ev
	.def	_ZN10BaseObjectD0Ev;	.scl	2;	.type	32;	.endef
	.seh_proc	_ZN10BaseObjectD0Ev
_ZN10BaseObjectD0Ev:
.LFB1351:
	.loc 1 8 17
	.cfi_startproc
	pushq	%rbp
	.seh_pushreg	%rbp
	.cfi_def_cfa_offset 16
	.cfi_offset 6, -16
	movq	%rsp, %rbp
	.seh_setframe	%rbp, 0
	.cfi_def_cfa_register 6
	subq	$32, %rsp
	.seh_stackalloc	32
	.seh_endprologue
	movq	%rcx, 16(%rbp)
	.loc 1 8 32
	movq	16(%rbp), %rcx
	call	_ZN10BaseObjectD1Ev
	movq	16(%rbp), %rcx
	call	_ZdlPv
	nop
	addq	$32, %rsp
	popq	%rbp
	.cfi_restore 6
	.cfi_def_cfa 7, 8
	ret
	.cfi_endproc
.LFE1351:
	.seh_endproc
.lcomm _ZStL8__ioinit,1,1
	.section .rdata,"dr"
_ZStL13allocator_arg:
	.space 1
_ZStL6ignore:
	.space 1
.LC2:
	.ascii "\0"
	.text
	.align 2
	.globl	_ZN10CalculadorC2Ev
	.def	_ZN10CalculadorC2Ev;	.scl	2;	.type	32;	.endef
	.seh_proc	_ZN10CalculadorC2Ev
_ZN10CalculadorC2Ev:
.LFB2578:
	.file 2 "C:/PFC 2021/ballisticKernelCpp/CalculadorNumerico/calculador/calculador.cpp"
	.loc 2 8 1
	.cfi_startproc
	pushq	%rbp
	.seh_pushreg	%rbp
	.cfi_def_cfa_offset 16
	.cfi_offset 6, -16
	pushq	%rsi
	.seh_pushreg	%rsi
	.cfi_def_cfa_offset 24
	.cfi_offset 4, -24
	pushq	%rbx
	.seh_pushreg	%rbx
	.cfi_def_cfa_offset 32
	.cfi_offset 3, -32
	movq	%rsp, %rbp
	.seh_setframe	%rbp, 0
	.cfi_def_cfa_register 6
	subq	$32, %rsp
	.seh_stackalloc	32
	.seh_endprologue
	movq	%rcx, 32(%rbp)
.LBB4:
	.loc 2 8 24
	leaq	16+_ZTV10Calculador(%rip), %rdx
	movq	32(%rbp), %rax
	movq	%rdx, (%rax)
	movq	32(%rbp), %rax
	addq	$16, %rax
	movq	%rax, %rcx
	call	_ZNSt7__cxx1112basic_stringIcSt11char_traitsIcESaIcEEC1Ev
	.loc 2 12 9
	movq	32(%rbp), %rax
	pxor	%xmm0, %xmm0
	movsd	%xmm0, 56(%rax)
	.loc 2 13 8
	movq	32(%rbp), %rax
	movsd	.LC1(%rip), %xmm0
	movsd	%xmm0, 64(%rax)
	.loc 2 14 23
	movq	32(%rbp), %rax
	movl	$10, 72(%rax)
	.loc 2 15 13
	movq	32(%rbp), %rax
	movb	$0, 88(%rax)
	.loc 2 16 12
	movq	32(%rbp), %rax
	movb	$0, 89(%rax)
	.loc 2 17 33
	movl	$48, %ecx
.LEHB0:
	call	_Znwy
.LEHE0:
	movq	%rax, %rbx
	movq	%rbx, %rcx
.LEHB1:
	call	_ZN10ObservableC1Ev
.LEHE1:
	.loc 2 17 16
	movq	32(%rbp), %rax
	movq	%rbx, 8(%rax)
	.loc 2 18 12
	movq	32(%rbp), %rax
	addq	$16, %rax
	leaq	.LC2(%rip), %rdx
	movq	%rax, %rcx
.LEHB2:
	call	_ZNSt7__cxx1112basic_stringIcSt11char_traitsIcESaIcEEaSEPKc
.LEHE2:
	.loc 2 19 20
	movq	32(%rbp), %rax
	movsd	.LC3(%rip), %xmm0
	movsd	%xmm0, 48(%rax)
.LBE4:
	.loc 2 21 1
	jmp	.L9
.L8:
	movq	%rax, %rsi
.LBB5:
	.loc 2 17 33
	movq	%rbx, %rcx
	call	_ZdlPv
	movq	%rsi, %rbx
	jmp	.L6
.L7:
	movq	%rax, %rbx
.L6:
	.loc 2 8 24
	movq	32(%rbp), %rax
	addq	$16, %rax
	movq	%rax, %rcx
	call	_ZNSt7__cxx1112basic_stringIcSt11char_traitsIcESaIcEED1Ev
	movq	%rbx, %rax
	movq	%rax, %rcx
.LEHB3:
	call	_Unwind_Resume
	nop
.LEHE3:
.L9:
.LBE5:
	.loc 2 21 1
	addq	$32, %rsp
	popq	%rbx
	.cfi_restore 3
	popq	%rsi
	.cfi_restore 4
	popq	%rbp
	.cfi_restore 6
	.cfi_def_cfa 7, 24
	ret
	.cfi_endproc
.LFE2578:
	.def	__gxx_personality_seh0;	.scl	2;	.type	32;	.endef
	.seh_handler	__gxx_personality_seh0, @unwind, @except
	.seh_handlerdata
.LLSDA2578:
	.byte	0xff
	.byte	0xff
	.byte	0x1
	.uleb128 .LLSDACSE2578-.LLSDACSB2578
.LLSDACSB2578:
	.uleb128 .LEHB0-.LFB2578
	.uleb128 .LEHE0-.LEHB0
	.uleb128 .L7-.LFB2578
	.uleb128 0
	.uleb128 .LEHB1-.LFB2578
	.uleb128 .LEHE1-.LEHB1
	.uleb128 .L8-.LFB2578
	.uleb128 0
	.uleb128 .LEHB2-.LFB2578
	.uleb128 .LEHE2-.LEHB2
	.uleb128 .L7-.LFB2578
	.uleb128 0
	.uleb128 .LEHB3-.LFB2578
	.uleb128 .LEHE3-.LEHB3
	.uleb128 0
	.uleb128 0
.LLSDACSE2578:
	.text
	.seh_endproc
	.globl	_ZN10CalculadorC1Ev
	.def	_ZN10CalculadorC1Ev;	.scl	2;	.type	32;	.endef
	.set	_ZN10CalculadorC1Ev,_ZN10CalculadorC2Ev
	.align 2
	.globl	_ZN10CalculadorD2Ev
	.def	_ZN10CalculadorD2Ev;	.scl	2;	.type	32;	.endef
	.seh_proc	_ZN10CalculadorD2Ev
_ZN10CalculadorD2Ev:
.LFB2581:
	.loc 2 23 1
	.cfi_startproc
	pushq	%rbp
	.seh_pushreg	%rbp
	.cfi_def_cfa_offset 16
	.cfi_offset 6, -16
	movq	%rsp, %rbp
	.seh_setframe	%rbp, 0
	.cfi_def_cfa_register 6
	subq	$32, %rsp
	.seh_stackalloc	32
	.seh_endprologue
	movq	%rcx, 16(%rbp)
.LBB6:
	.loc 2 23 25
	leaq	16+_ZTV10Calculador(%rip), %rdx
	movq	16(%rbp), %rax
	movq	%rdx, (%rax)
	.loc 2 25 12
	movq	16(%rbp), %rax
	movq	8(%rax), %rax
	.loc 2 25 22
	testq	%rax, %rax
	je	.L11
	.loc 2 25 12 discriminator 1
	movq	16(%rbp), %rax
	movq	8(%rax), %rdx
	movq	16(%rbp), %rax
	movq	8(%rax), %rax
	movq	(%rax), %rax
	addq	$8, %rax
	movq	(%rax), %rax
	movq	%rdx, %rcx
	call	*%rax
.LVL0:
.L11:
	.loc 2 23 25
	movq	16(%rbp), %rax
	addq	$16, %rax
	movq	%rax, %rcx
	call	_ZNSt7__cxx1112basic_stringIcSt11char_traitsIcESaIcEED1Ev
.LBE6:
	.loc 2 26 1
	nop
	addq	$32, %rsp
	popq	%rbp
	.cfi_restore 6
	.cfi_def_cfa 7, 8
	ret
	.cfi_endproc
.LFE2581:
	.seh_endproc
	.globl	_ZN10CalculadorD1Ev
	.def	_ZN10CalculadorD1Ev;	.scl	2;	.type	32;	.endef
	.set	_ZN10CalculadorD1Ev,_ZN10CalculadorD2Ev
	.align 2
	.globl	_ZN10Calculador14ehRamoDeParadaE4RAMOd
	.def	_ZN10Calculador14ehRamoDeParadaE4RAMOd;	.scl	2;	.type	32;	.endef
	.seh_proc	_ZN10Calculador14ehRamoDeParadaE4RAMOd
_ZN10Calculador14ehRamoDeParadaE4RAMOd:
.LFB2583:
	.loc 2 29 1
	.cfi_startproc
	pushq	%rbp
	.seh_pushreg	%rbp
	.cfi_def_cfa_offset 16
	.cfi_offset 6, -16
	movq	%rsp, %rbp
	.seh_setframe	%rbp, 0
	.cfi_def_cfa_register 6
	.seh_endprologue
	movq	%rcx, 16(%rbp)
	movl	%edx, 24(%rbp)
	movsd	%xmm2, 32(%rbp)
	.loc 2 30 5
	cmpl	$1, 24(%rbp)
	jne	.L13
	.loc 2 32 9
	pxor	%xmm0, %xmm0
	comisd	32(%rbp), %xmm0
	jb	.L21
	.loc 2 33 20
	movl	$1, %eax
	jmp	.L16
.L21:
	.loc 2 35 20
	movl	$0, %eax
	jmp	.L16
.L13:
	.loc 2 39 9
	movsd	32(%rbp), %xmm0
	pxor	%xmm1, %xmm1
	comisd	%xmm1, %xmm0
	jb	.L22
	.loc 2 40 20
	movl	$1, %eax
	jmp	.L16
.L22:
	.loc 2 42 20
	movl	$0, %eax
.L16:
	.loc 2 46 1
	popq	%rbp
	.cfi_restore 6
	.cfi_def_cfa 7, 8
	ret
	.cfi_endproc
.LFE2583:
	.seh_endproc
	.align 2
	.globl	_ZN10Calculador21calculaGravidadeLocalEd
	.def	_ZN10Calculador21calculaGravidadeLocalEd;	.scl	2;	.type	32;	.endef
	.seh_proc	_ZN10Calculador21calculaGravidadeLocalEd
_ZN10Calculador21calculaGravidadeLocalEd:
.LFB2584:
	.loc 2 49 1
	.cfi_startproc
	pushq	%rbp
	.seh_pushreg	%rbp
	.cfi_def_cfa_offset 16
	.cfi_offset 6, -16
	movq	%rsp, %rbp
	.seh_setframe	%rbp, 0
	.cfi_def_cfa_register 6
	subq	$32, %rsp
	.seh_stackalloc	32
	.seh_endprologue
	movq	%rcx, 16(%rbp)
	movsd	%xmm1, 24(%rbp)
	.loc 2 50 8
	movq	16(%rbp), %rax
	movzbl	76(%rax), %eax
	.loc 2 50 5
	testb	%al, %al
	je	.L24
	.loc 2 51 39
	movsd	24(%rbp), %xmm1
	movsd	.LC4(%rip), %xmm0
	mulsd	%xmm1, %xmm0
	call	cos
	movapd	%xmm0, %xmm1
	.loc 2 51 35
	movsd	.LC5(%rip), %xmm0
	mulsd	%xmm0, %xmm1
	.loc 2 51 27
	movsd	.LC6(%rip), %xmm0
	subsd	%xmm1, %xmm0
	movapd	%xmm0, %xmm1
	.loc 2 51 81
	movsd	.LC3(%rip), %xmm0
	mulsd	%xmm1, %xmm0
	jmp	.L25
.L24:
	.loc 2 53 12
	movsd	.LC3(%rip), %xmm0
.L25:
	movq	%xmm0, %rax
	.loc 2 54 1
	movq	%rax, %xmm0
	addq	$32, %rsp
	popq	%rbp
	.cfi_restore 6
	.cfi_def_cfa 7, 8
	ret
	.cfi_endproc
.LFE2584:
	.seh_endproc
	.align 2
	.globl	_ZN10Calculador5gravxEd
	.def	_ZN10Calculador5gravxEd;	.scl	2;	.type	32;	.endef
	.seh_proc	_ZN10Calculador5gravxEd
_ZN10Calculador5gravxEd:
.LFB2585:
	.loc 2 63 1
	.cfi_startproc
	pushq	%rbp
	.seh_pushreg	%rbp
	.cfi_def_cfa_offset 16
	.cfi_offset 6, -16
	movq	%rsp, %rbp
	.seh_setframe	%rbp, 0
	.cfi_def_cfa_register 6
	.seh_endprologue
	movq	%rcx, 16(%rbp)
	movsd	%xmm1, 24(%rbp)
	.loc 2 64 12
	movsd	24(%rbp), %xmm0
	movq	.LC7(%rip), %xmm1
	xorpd	%xmm0, %xmm1
	.loc 2 64 24
	movq	16(%rbp), %rax
	movsd	48(%rax), %xmm0
	.loc 2 64 23
	mulsd	%xmm1, %xmm0
	.loc 2 64 49
	movsd	.LC8(%rip), %xmm1
	divsd	%xmm1, %xmm0
	movq	%xmm0, %rax
	.loc 2 65 1
	movq	%rax, %xmm0
	popq	%rbp
	.cfi_restore 6
	.cfi_def_cfa 7, 8
	ret
	.cfi_endproc
.LFE2585:
	.seh_endproc
	.align 2
	.globl	_ZN10Calculador5gravyEd
	.def	_ZN10Calculador5gravyEd;	.scl	2;	.type	32;	.endef
	.seh_proc	_ZN10Calculador5gravyEd
_ZN10Calculador5gravyEd:
.LFB2586:
	.loc 2 73 1
	.cfi_startproc
	pushq	%rbp
	.seh_pushreg	%rbp
	.cfi_def_cfa_offset 16
	.cfi_offset 6, -16
	movq	%rsp, %rbp
	.seh_setframe	%rbp, 0
	.cfi_def_cfa_register 6
	.seh_endprologue
	movq	%rcx, 16(%rbp)
	movsd	%xmm1, 24(%rbp)
	.loc 2 74 14
	movq	16(%rbp), %rax
	movsd	48(%rax), %xmm0
	.loc 2 74 12
	movq	.LC7(%rip), %xmm1
	xorpd	%xmm0, %xmm1
	.loc 2 74 40
	movsd	24(%rbp), %xmm0
	movsd	.LC8(%rip), %xmm2
	divsd	%xmm2, %xmm0
	movapd	%xmm0, %xmm2
	.loc 2 74 31
	movsd	.LC6(%rip), %xmm0
	subsd	%xmm2, %xmm0
	.loc 2 74 28
	mulsd	%xmm0, %xmm1
	.loc 2 74 65
	movsd	24(%rbp), %xmm0
	movsd	.LC8(%rip), %xmm2
	divsd	%xmm2, %xmm0
	movapd	%xmm0, %xmm2
	.loc 2 74 56
	movsd	.LC6(%rip), %xmm0
	subsd	%xmm2, %xmm0
	.loc 2 74 77
	mulsd	%xmm1, %xmm0
	movq	%xmm0, %rax
	.loc 2 75 1
	movq	%rax, %xmm0
	popq	%rbp
	.cfi_restore 6
	.cfi_def_cfa 7, 8
	ret
	.cfi_endproc
.LFE2586:
	.seh_endproc
	.align 2
	.globl	_ZN10Calculador5gravzEd
	.def	_ZN10Calculador5gravzEd;	.scl	2;	.type	32;	.endef
	.seh_proc	_ZN10Calculador5gravzEd
_ZN10Calculador5gravzEd:
.LFB2587:
	.loc 2 83 1
	.cfi_startproc
	pushq	%rbp
	.seh_pushreg	%rbp
	.cfi_def_cfa_offset 16
	.cfi_offset 6, -16
	movq	%rsp, %rbp
	.seh_setframe	%rbp, 0
	.cfi_def_cfa_register 6
	.seh_endprologue
	movq	%rcx, 16(%rbp)
	movsd	%xmm1, 24(%rbp)
	.loc 2 84 12
	movsd	24(%rbp), %xmm0
	movq	.LC7(%rip), %xmm1
	xorpd	%xmm0, %xmm1
	.loc 2 84 22
	movq	16(%rbp), %rax
	movsd	48(%rax), %xmm0
	.loc 2 84 21
	mulsd	%xmm1, %xmm0
	.loc 2 84 47
	movsd	.LC8(%rip), %xmm1
	divsd	%xmm1, %xmm0
	movq	%xmm0, %rax
	.loc 2 85 1
	movq	%rax, %xmm0
	popq	%rbp
	.cfi_restore 6
	.cfi_def_cfa 7, 8
	ret
	.cfi_endproc
.LFE2587:
	.seh_endproc
	.align 2
	.globl	_ZN10Calculador8isParadoEv
	.def	_ZN10Calculador8isParadoEv;	.scl	2;	.type	32;	.endef
	.seh_proc	_ZN10Calculador8isParadoEv
_ZN10Calculador8isParadoEv:
.LFB2588:
	.loc 2 88 1
	.cfi_startproc
	pushq	%rbp
	.seh_pushreg	%rbp
	.cfi_def_cfa_offset 16
	.cfi_offset 6, -16
	movq	%rsp, %rbp
	.seh_setframe	%rbp, 0
	.cfi_def_cfa_register 6
	.seh_endprologue
	movq	%rcx, 16(%rbp)
	.loc 2 89 12
	movq	16(%rbp), %rax
	movzbl	89(%rax), %eax
	.loc 2 90 1
	popq	%rbp
	.cfi_restore 6
	.cfi_def_cfa 7, 8
	ret
	.cfi_endproc
.LFE2588:
	.seh_endproc
	.align 2
	.globl	_ZN10Calculador9isPausadoEv
	.def	_ZN10Calculador9isPausadoEv;	.scl	2;	.type	32;	.endef
	.seh_proc	_ZN10Calculador9isPausadoEv
_ZN10Calculador9isPausadoEv:
.LFB2589:
	.loc 2 94 1
	.cfi_startproc
	pushq	%rbp
	.seh_pushreg	%rbp
	.cfi_def_cfa_offset 16
	.cfi_offset 6, -16
	movq	%rsp, %rbp
	.seh_setframe	%rbp, 0
	.cfi_def_cfa_register 6
	.seh_endprologue
	movq	%rcx, 16(%rbp)
	.loc 2 95 12
	movq	16(%rbp), %rax
	movzbl	88(%rax), %eax
	.loc 2 97 1
	popq	%rbp
	.cfi_restore 6
	.cfi_def_cfa 7, 8
	ret
	.cfi_endproc
.LFE2589:
	.seh_endproc
	.align 2
	.globl	_ZN10Calculador4polyEdiPd
	.def	_ZN10Calculador4polyEdiPd;	.scl	2;	.type	32;	.endef
	.seh_proc	_ZN10Calculador4polyEdiPd
_ZN10Calculador4polyEdiPd:
.LFB2590:
	.loc 2 110 1
	.cfi_startproc
	pushq	%rbp
	.seh_pushreg	%rbp
	.cfi_def_cfa_offset 16
	.cfi_offset 6, -16
	movq	%rsp, %rbp
	.seh_setframe	%rbp, 0
	.cfi_def_cfa_register 6
	subq	$32, %rsp
	.seh_stackalloc	32
	.seh_endprologue
	movq	%rcx, 16(%rbp)
	movsd	%xmm1, 24(%rbp)
	movl	%r8d, 32(%rbp)
	movq	%r9, 40(%rbp)
	.loc 2 112 12
	movsd	.LC6(%rip), %xmm0
	movsd	%xmm0, -16(%rbp)
	.loc 2 113 12
	pxor	%xmm0, %xmm0
	movsd	%xmm0, -24(%rbp)
	.loc 2 114 11
	movl	$0, -4(%rbp)
.L38:
	.loc 2 114 17 discriminator 3
	movl	-4(%rbp), %eax
	cmpl	32(%rbp), %eax
	jg	.L37
	.loc 2 116 26 discriminator 2
	movl	-4(%rbp), %eax
	cltq
	leaq	0(,%rax,8), %rdx
	movq	40(%rbp), %rax
	addq	%rdx, %rax
	movsd	(%rax), %xmm0
	.loc 2 116 27 discriminator 2
	mulsd	-16(%rbp), %xmm0
	.loc 2 116 17 discriminator 2
	movsd	-24(%rbp), %xmm1
	addsd	%xmm1, %xmm0
	movsd	%xmm0, -24(%rbp)
	.loc 2 117 11 discriminator 2
	movsd	-16(%rbp), %xmm0
	mulsd	24(%rbp), %xmm0
	movsd	%xmm0, -16(%rbp)
	.loc 2 114 5 discriminator 2
	addl	$1, -4(%rbp)
	jmp	.L38
.L37:
	.loc 2 119 12
	movsd	-24(%rbp), %xmm0
	movq	%xmm0, %rax
	.loc 2 120 1
	movq	%rax, %xmm0
	addq	$32, %rsp
	popq	%rbp
	.cfi_restore 6
	.cfi_def_cfa 7, 8
	ret
	.cfi_endproc
.LFE2590:
	.seh_endproc
	.align 2
	.globl	_ZN10Calculador22intervaloEntreAmostrasEd
	.def	_ZN10Calculador22intervaloEntreAmostrasEd;	.scl	2;	.type	32;	.endef
	.seh_proc	_ZN10Calculador22intervaloEntreAmostrasEd
_ZN10Calculador22intervaloEntreAmostrasEd:
.LFB2591:
	.loc 2 130 1
	.cfi_startproc
	pushq	%rbp
	.seh_pushreg	%rbp
	.cfi_def_cfa_offset 16
	.cfi_offset 6, -16
	movq	%rsp, %rbp
	.seh_setframe	%rbp, 0
	.cfi_def_cfa_register 6
	.seh_endprologue
	movq	%rcx, 16(%rbp)
	movsd	%xmm1, 24(%rbp)
	.loc 2 131 5
	movsd	24(%rbp), %xmm0
	comisd	.LC9(%rip), %xmm0
	jbe	.L45
	.loc 2 132 16
	movl	$1, %eax
	jmp	.L43
.L45:
	.loc 2 133 16
	movsd	.LC9(%rip), %xmm0
	divsd	24(%rbp), %xmm0
	.loc 2 133 22
	cvttsd2si	%xmm0, %eax
.L43:
	.loc 2 134 1
	popq	%rbp
	.cfi_restore 6
	.cfi_def_cfa 7, 8
	ret
	.cfi_endproc
.LFE2591:
	.seh_endproc
	.align 2
	.globl	_ZN10Calculador5setVoEd
	.def	_ZN10Calculador5setVoEd;	.scl	2;	.type	32;	.endef
	.seh_proc	_ZN10Calculador5setVoEd
_ZN10Calculador5setVoEd:
.LFB2592:
	.loc 2 139 1
	.cfi_startproc
	pushq	%rbp
	.seh_pushreg	%rbp
	.cfi_def_cfa_offset 16
	.cfi_offset 6, -16
	movq	%rsp, %rbp
	.seh_setframe	%rbp, 0
	.cfi_def_cfa_register 6
	.seh_endprologue
	movq	%rcx, 16(%rbp)
	movsd	%xmm1, 24(%rbp)
	.loc 2 140 8
	movq	16(%rbp), %rax
	movsd	24(%rbp), %xmm0
	movsd	%xmm0, 64(%rax)
	.loc 2 141 1
	nop
	popq	%rbp
	.cfi_restore 6
	.cfi_def_cfa 7, 8
	ret
	.cfi_endproc
.LFE2592:
	.seh_endproc
	.align 2
	.globl	_ZN10Calculador10setPausadoEb
	.def	_ZN10Calculador10setPausadoEb;	.scl	2;	.type	32;	.endef
	.seh_proc	_ZN10Calculador10setPausadoEb
_ZN10Calculador10setPausadoEb:
.LFB2593:
	.loc 2 145 1
	.cfi_startproc
	pushq	%rbp
	.seh_pushreg	%rbp
	.cfi_def_cfa_offset 16
	.cfi_offset 6, -16
	movq	%rsp, %rbp
	.seh_setframe	%rbp, 0
	.cfi_def_cfa_register 6
	.seh_endprologue
	movq	%rcx, 16(%rbp)
	movl	%edx, %eax
	movb	%al, 24(%rbp)
	.loc 2 146 13
	movq	16(%rbp), %rdx
	movzbl	24(%rbp), %eax
	movb	%al, 88(%rdx)
	.loc 2 147 1
	nop
	popq	%rbp
	.cfi_restore 6
	.cfi_def_cfa 7, 8
	ret
	.cfi_endproc
.LFE2593:
	.seh_endproc
	.align 2
	.globl	_ZN10Calculador9setParadoEb
	.def	_ZN10Calculador9setParadoEb;	.scl	2;	.type	32;	.endef
	.seh_proc	_ZN10Calculador9setParadoEb
_ZN10Calculador9setParadoEb:
.LFB2594:
	.loc 2 151 1
	.cfi_startproc
	pushq	%rbp
	.seh_pushreg	%rbp
	.cfi_def_cfa_offset 16
	.cfi_offset 6, -16
	movq	%rsp, %rbp
	.seh_setframe	%rbp, 0
	.cfi_def_cfa_register 6
	.seh_endprologue
	movq	%rcx, 16(%rbp)
	movl	%edx, %eax
	movb	%al, 24(%rbp)
	.loc 2 152 12
	movq	16(%rbp), %rdx
	movzbl	24(%rbp), %eax
	movb	%al, 89(%rdx)
	.loc 2 153 1
	nop
	popq	%rbp
	.cfi_restore 6
	.cfi_def_cfa 7, 8
	ret
	.cfi_endproc
.LFE2594:
	.seh_endproc
	.section	.text$_ZN10BaseObjectC2ERKS_,"x"
	.linkonce discard
	.align 2
	.globl	_ZN10BaseObjectC2ERKS_
	.def	_ZN10BaseObjectC2ERKS_;	.scl	2;	.type	32;	.endef
	.seh_proc	_ZN10BaseObjectC2ERKS_
_ZN10BaseObjectC2ERKS_:
.LFB2598:
	.loc 1 5 7
	.cfi_startproc
	pushq	%rbp
	.seh_pushreg	%rbp
	.cfi_def_cfa_offset 16
	.cfi_offset 6, -16
	movq	%rsp, %rbp
	.seh_setframe	%rbp, 0
	.cfi_def_cfa_register 6
	.seh_endprologue
	movq	%rcx, 16(%rbp)
	movq	%rdx, 24(%rbp)
.LBB7:
	.loc 1 5 7
	leaq	16+_ZTV10BaseObject(%rip), %rdx
	movq	16(%rbp), %rax
	movq	%rdx, (%rax)
.LBE7:
	nop
	popq	%rbp
	.cfi_restore 6
	.cfi_def_cfa 7, 8
	ret
	.cfi_endproc
.LFE2598:
	.seh_endproc
	.section	.text$_ZN12ElementosVooC1ERKS_,"x"
	.linkonce discard
	.align 2
	.globl	_ZN12ElementosVooC1ERKS_
	.def	_ZN12ElementosVooC1ERKS_;	.scl	2;	.type	32;	.endef
	.seh_proc	_ZN12ElementosVooC1ERKS_
_ZN12ElementosVooC1ERKS_:
.LFB2601:
	.file 3 "C:/PFC 2021/ballisticKernelCpp/CalculadorNumerico/calculador/elementosvoo.h"
	.loc 3 7 7
	.cfi_startproc
	pushq	%rbp
	.seh_pushreg	%rbp
	.cfi_def_cfa_offset 16
	.cfi_offset 6, -16
	movq	%rsp, %rbp
	.seh_setframe	%rbp, 0
	.cfi_def_cfa_register 6
	subq	$32, %rsp
	.seh_stackalloc	32
	.seh_endprologue
	movq	%rcx, 16(%rbp)
	movq	%rdx, 24(%rbp)
.LBB8:
	.loc 3 7 7
	movq	16(%rbp), %rax
	movq	24(%rbp), %rdx
	movq	%rax, %rcx
	call	_ZN10BaseObjectC2ERKS_
	leaq	16+_ZTV12ElementosVoo(%rip), %rdx
	movq	16(%rbp), %rax
	movq	%rdx, (%rax)
	movq	24(%rbp), %rax
	movsd	8(%rax), %xmm0
	movq	16(%rbp), %rax
	movsd	%xmm0, 8(%rax)
	movq	24(%rbp), %rax
	movsd	16(%rax), %xmm0
	movq	16(%rbp), %rax
	movsd	%xmm0, 16(%rax)
	movq	24(%rbp), %rax
	movsd	24(%rax), %xmm0
	movq	16(%rbp), %rax
	movsd	%xmm0, 24(%rax)
	movq	24(%rbp), %rax
	movsd	32(%rax), %xmm0
	movq	16(%rbp), %rax
	movsd	%xmm0, 32(%rax)
	movq	24(%rbp), %rax
	movsd	40(%rax), %xmm0
	movq	16(%rbp), %rax
	movsd	%xmm0, 40(%rax)
	movq	24(%rbp), %rax
	movsd	48(%rax), %xmm0
	movq	16(%rbp), %rax
	movsd	%xmm0, 48(%rax)
	movq	24(%rbp), %rax
	movsd	56(%rax), %xmm0
	movq	16(%rbp), %rax
	movsd	%xmm0, 56(%rax)
	movq	24(%rbp), %rax
	movsd	64(%rax), %xmm0
	movq	16(%rbp), %rax
	movsd	%xmm0, 64(%rax)
	movq	24(%rbp), %rax
	movsd	72(%rax), %xmm0
	movq	16(%rbp), %rax
	movsd	%xmm0, 72(%rax)
	movq	24(%rbp), %rax
	movsd	80(%rax), %xmm0
	movq	16(%rbp), %rax
	movsd	%xmm0, 80(%rax)
	movq	24(%rbp), %rax
	movsd	88(%rax), %xmm0
	movq	16(%rbp), %rax
	movsd	%xmm0, 88(%rax)
.LBE8:
	nop
	addq	$32, %rsp
	popq	%rbp
	.cfi_restore 6
	.cfi_def_cfa 7, 8
	ret
	.cfi_endproc
.LFE2601:
	.seh_endproc
	.text
	.align 2
	.globl	_ZN10Calculador27solucaoDiretaUltimoElementoEdddd4RAMO
	.def	_ZN10Calculador27solucaoDiretaUltimoElementoEdddd4RAMO;	.scl	2;	.type	32;	.endef
	.seh_proc	_ZN10Calculador27solucaoDiretaUltimoElementoEdddd4RAMO
_ZN10Calculador27solucaoDiretaUltimoElementoEdddd4RAMO:
.LFB2595:
	.loc 2 156 1
	.cfi_startproc
	pushq	%rbp
	.seh_pushreg	%rbp
	.cfi_def_cfa_offset 16
	.cfi_offset 6, -16
	movq	%rsp, %rbp
	.seh_setframe	%rbp, 0
	.cfi_def_cfa_register 6
	subq	$96, %rsp
	.seh_stackalloc	96
	.seh_endprologue
	movq	%rcx, 16(%rbp)
	movq	%rdx, 24(%rbp)
	movsd	%xmm2, 32(%rbp)
	movsd	%xmm3, 40(%rbp)
	.loc 2 157 67
	movq	24(%rbp), %rax
	movq	(%rax), %rax
	movq	(%rax), %r8
	.loc 2 157 26
	leaq	-32(%rbp), %rax
	movsd	40(%rbp), %xmm2
	movsd	32(%rbp), %xmm1
	movq	24(%rbp), %rdx
	movl	64(%rbp), %ecx
	movl	%ecx, 56(%rsp)
	movl	$0, 48(%rsp)
	movsd	56(%rbp), %xmm0
	movsd	%xmm0, 40(%rsp)
	movsd	48(%rbp), %xmm0
	movsd	%xmm0, 32(%rsp)
	movapd	%xmm2, %xmm3
	movapd	%xmm1, %xmm2
	movq	%rax, %rcx
	call	*%r8
.LVL1:
	.loc 2 157 75
	leaq	-32(%rbp), %rax
	movq	%rax, %rcx
	call	_ZNSt6vectorI12ElementosVooSaIS0_EE4backEv
	movq	%rax, %rdx
	movq	16(%rbp), %rcx
	call	_ZN12ElementosVooC1ERKS_
	.loc 2 157 26
	leaq	-32(%rbp), %rax
	movq	%rax, %rcx
	call	_ZNSt6vectorI12ElementosVooSaIS0_EED1Ev
	.loc 2 157 75
	nop
	.loc 2 158 1
	movq	16(%rbp), %rax
	addq	$96, %rsp
	popq	%rbp
	.cfi_restore 6
	.cfi_def_cfa 7, 8
	ret
	.cfi_endproc
.LFE2595:
	.seh_endproc
	.align 2
	.globl	_ZN10Calculador1vEddd
	.def	_ZN10Calculador1vEddd;	.scl	2;	.type	32;	.endef
	.seh_proc	_ZN10Calculador1vEddd
_ZN10Calculador1vEddd:
.LFB2602:
	.loc 2 169 1
	.cfi_startproc
	pushq	%rbp
	.seh_pushreg	%rbp
	.cfi_def_cfa_offset 16
	.cfi_offset 6, -16
	movq	%rsp, %rbp
	.seh_setframe	%rbp, 0
	.cfi_def_cfa_register 6
	subq	$32, %rsp
	.seh_stackalloc	32
	.seh_endprologue
	movq	%rcx, 16(%rbp)
	movsd	%xmm1, 24(%rbp)
	movsd	%xmm2, 32(%rbp)
	movsd	%xmm3, 40(%rbp)
	.loc 2 170 19
	movsd	24(%rbp), %xmm0
	movapd	%xmm0, %xmm1
	mulsd	24(%rbp), %xmm1
	.loc 2 170 27
	movsd	32(%rbp), %xmm0
	mulsd	32(%rbp), %xmm0
	.loc 2 170 23
	addsd	%xmm0, %xmm1
	.loc 2 170 35
	movsd	40(%rbp), %xmm0
	mulsd	40(%rbp), %xmm0
	.loc 2 170 16
	addsd	%xmm1, %xmm0
	call	sqrt
	movq	%xmm0, %rax
	.loc 2 171 1
	movq	%rax, %xmm0
	addq	$32, %rsp
	popq	%rbp
	.cfi_restore 6
	.cfi_def_cfa 7, 8
	ret
	.cfi_endproc
.LFE2602:
	.seh_endproc
	.section	.text$_ZNSt6vectorI12ElementosVooSaIS0_EED1Ev,"x"
	.linkonce discard
	.align 2
	.globl	_ZNSt6vectorI12ElementosVooSaIS0_EED1Ev
	.def	_ZNSt6vectorI12ElementosVooSaIS0_EED1Ev;	.scl	2;	.type	32;	.endef
	.seh_proc	_ZNSt6vectorI12ElementosVooSaIS0_EED1Ev
_ZNSt6vectorI12ElementosVooSaIS0_EED1Ev:
.LFB2804:
	.file 4 "C:/Program Files/CodeBlocks/MinGW/lib/gcc/x86_64-w64-mingw32/8.1.0/include/c++/bits/stl_vector.h"
	.loc 4 565 7
	.cfi_startproc
	pushq	%rbp
	.seh_pushreg	%rbp
	.cfi_def_cfa_offset 16
	.cfi_offset 6, -16
	movq	%rsp, %rbp
	.seh_setframe	%rbp, 0
	.cfi_def_cfa_register 6
	subq	$32, %rsp
	.seh_stackalloc	32
	.seh_endprologue
	movq	%rcx, 16(%rbp)
.LBB9:
	.loc 4 568 28
	movq	16(%rbp), %rax
	movq	%rax, %rcx
	call	_ZNSt12_Vector_baseI12ElementosVooSaIS0_EE19_M_get_Tp_allocatorEv
	movq	%rax, %rcx
	.loc 4 567 15
	movq	16(%rbp), %rax
	movq	8(%rax), %rdx
	movq	16(%rbp), %rax
	movq	(%rax), %rax
	movq	%rcx, %r8
	movq	%rax, %rcx
	call	_ZSt8_DestroyIP12ElementosVooS0_EvT_S2_RSaIT0_E
	.loc 4 570 7
	movq	16(%rbp), %rax
	movq	%rax, %rcx
	call	_ZNSt12_Vector_baseI12ElementosVooSaIS0_EED2Ev
.LBE9:
	nop
	addq	$32, %rsp
	popq	%rbp
	.cfi_restore 6
	.cfi_def_cfa 7, 8
	ret
	.cfi_endproc
.LFE2804:
	.seh_handler	__gxx_personality_seh0, @unwind, @except
	.seh_handlerdata
.LLSDA2804:
	.byte	0xff
	.byte	0xff
	.byte	0x1
	.uleb128 .LLSDACSE2804-.LLSDACSB2804
.LLSDACSB2804:
.LLSDACSE2804:
	.section	.text$_ZNSt6vectorI12ElementosVooSaIS0_EED1Ev,"x"
	.linkonce discard
	.seh_endproc
	.section	.text$_ZNSt6vectorI12ElementosVooSaIS0_EE4backEv,"x"
	.linkonce discard
	.align 2
	.globl	_ZNSt6vectorI12ElementosVooSaIS0_EE4backEv
	.def	_ZNSt6vectorI12ElementosVooSaIS0_EE4backEv;	.scl	2;	.type	32;	.endef
	.seh_proc	_ZNSt6vectorI12ElementosVooSaIS0_EE4backEv
_ZNSt6vectorI12ElementosVooSaIS0_EE4backEv:
.LFB2805:
	.loc 4 1030 7
	.cfi_startproc
	pushq	%rbp
	.seh_pushreg	%rbp
	.cfi_def_cfa_offset 16
	.cfi_offset 6, -16
	movq	%rsp, %rbp
	.seh_setframe	%rbp, 0
	.cfi_def_cfa_register 6
	subq	$48, %rsp
	.seh_stackalloc	48
	.seh_endprologue
	movq	%rcx, 16(%rbp)
	.loc 4 1033 17
	movq	16(%rbp), %rcx
	call	_ZNSt6vectorI12ElementosVooSaIS0_EE3endEv
	movq	%rax, -8(%rbp)
	leaq	-8(%rbp), %rax
	movl	$1, %edx
	movq	%rax, %rcx
	call	_ZNK9__gnu_cxx17__normal_iteratorIP12ElementosVooSt6vectorIS1_SaIS1_EEEmiEx
	movq	%rax, -16(%rbp)
	.loc 4 1033 9
	leaq	-16(%rbp), %rax
	movq	%rax, %rcx
	call	_ZNK9__gnu_cxx17__normal_iteratorIP12ElementosVooSt6vectorIS1_SaIS1_EEEdeEv
	.loc 4 1033 20
	nop
	.loc 4 1034 7
	addq	$48, %rsp
	popq	%rbp
	.cfi_restore 6
	.cfi_def_cfa 7, 8
	ret
	.cfi_endproc
.LFE2805:
	.seh_endproc
	.section	.text$_ZNSt12_Vector_baseI12ElementosVooSaIS0_EE12_Vector_implD1Ev,"x"
	.linkonce discard
	.align 2
	.globl	_ZNSt12_Vector_baseI12ElementosVooSaIS0_EE12_Vector_implD1Ev
	.def	_ZNSt12_Vector_baseI12ElementosVooSaIS0_EE12_Vector_implD1Ev;	.scl	2;	.type	32;	.endef
	.seh_proc	_ZNSt12_Vector_baseI12ElementosVooSaIS0_EE12_Vector_implD1Ev
_ZNSt12_Vector_baseI12ElementosVooSaIS0_EE12_Vector_implD1Ev:
.LFB2882:
	.loc 4 88 14
	.cfi_startproc
	pushq	%rbp
	.seh_pushreg	%rbp
	.cfi_def_cfa_offset 16
	.cfi_offset 6, -16
	movq	%rsp, %rbp
	.seh_setframe	%rbp, 0
	.cfi_def_cfa_register 6
	subq	$32, %rsp
	.seh_stackalloc	32
	.seh_endprologue
	movq	%rcx, 16(%rbp)
.LBB10:
	.loc 4 88 14
	movq	16(%rbp), %rcx
	call	_ZNSaI12ElementosVooED2Ev
.LBE10:
	nop
	addq	$32, %rsp
	popq	%rbp
	.cfi_restore 6
	.cfi_def_cfa 7, 8
	ret
	.cfi_endproc
.LFE2882:
	.seh_endproc
	.section	.text$_ZNSt12_Vector_baseI12ElementosVooSaIS0_EED2Ev,"x"
	.linkonce discard
	.align 2
	.globl	_ZNSt12_Vector_baseI12ElementosVooSaIS0_EED2Ev
	.def	_ZNSt12_Vector_baseI12ElementosVooSaIS0_EED2Ev;	.scl	2;	.type	32;	.endef
	.seh_proc	_ZNSt12_Vector_baseI12ElementosVooSaIS0_EED2Ev
_ZNSt12_Vector_baseI12ElementosVooSaIS0_EED2Ev:
.LFB2883:
	.loc 4 283 7
	.cfi_startproc
	pushq	%rbp
	.seh_pushreg	%rbp
	.cfi_def_cfa_offset 16
	.cfi_offset 6, -16
	movq	%rsp, %rbp
	.seh_setframe	%rbp, 0
	.cfi_def_cfa_register 6
	subq	$32, %rsp
	.seh_stackalloc	32
	.seh_endprologue
	movq	%rcx, 16(%rbp)
.LBB11:
	.loc 4 286 17
	movq	16(%rbp), %rax
	movq	16(%rax), %rdx
	.loc 4 286 45
	movq	16(%rbp), %rax
	movq	(%rax), %rax
	.loc 4 286 35
	subq	%rax, %rdx
	movq	%rdx, %rax
	sarq	$5, %rax
	movq	%rax, %rdx
	movabsq	$-6148914691236517205, %rax
	imulq	%rdx, %rax
	.loc 4 285 2
	movq	%rax, %rdx
	movq	16(%rbp), %rax
	movq	(%rax), %rax
	movq	%rdx, %r8
	movq	%rax, %rdx
	movq	16(%rbp), %rcx
	call	_ZNSt12_Vector_baseI12ElementosVooSaIS0_EE13_M_deallocateEPS0_y
	.loc 4 287 7
	movq	16(%rbp), %rax
	movq	%rax, %rcx
	call	_ZNSt12_Vector_baseI12ElementosVooSaIS0_EE12_Vector_implD1Ev
.LBE11:
	nop
	addq	$32, %rsp
	popq	%rbp
	.cfi_restore 6
	.cfi_def_cfa 7, 8
	ret
	.cfi_endproc
.LFE2883:
	.seh_handler	__gxx_personality_seh0, @unwind, @except
	.seh_handlerdata
.LLSDA2883:
	.byte	0xff
	.byte	0xff
	.byte	0x1
	.uleb128 .LLSDACSE2883-.LLSDACSB2883
.LLSDACSB2883:
.LLSDACSE2883:
	.section	.text$_ZNSt12_Vector_baseI12ElementosVooSaIS0_EED2Ev,"x"
	.linkonce discard
	.seh_endproc
	.section	.text$_ZNSt12_Vector_baseI12ElementosVooSaIS0_EE19_M_get_Tp_allocatorEv,"x"
	.linkonce discard
	.align 2
	.globl	_ZNSt12_Vector_baseI12ElementosVooSaIS0_EE19_M_get_Tp_allocatorEv
	.def	_ZNSt12_Vector_baseI12ElementosVooSaIS0_EE19_M_get_Tp_allocatorEv;	.scl	2;	.type	32;	.endef
	.seh_proc	_ZNSt12_Vector_baseI12ElementosVooSaIS0_EE19_M_get_Tp_allocatorEv
_ZNSt12_Vector_baseI12ElementosVooSaIS0_EE19_M_get_Tp_allocatorEv:
.LFB2885:
	.loc 4 237 7
	.cfi_startproc
	pushq	%rbp
	.seh_pushreg	%rbp
	.cfi_def_cfa_offset 16
	.cfi_offset 6, -16
	movq	%rsp, %rbp
	.seh_setframe	%rbp, 0
	.cfi_def_cfa_register 6
	.seh_endprologue
	movq	%rcx, 16(%rbp)
	.loc 4 238 60
	movq	16(%rbp), %rax
	.loc 4 238 63
	popq	%rbp
	.cfi_restore 6
	.cfi_def_cfa 7, 8
	ret
	.cfi_endproc
.LFE2885:
	.seh_endproc
	.section	.text$_ZSt8_DestroyIP12ElementosVooS0_EvT_S2_RSaIT0_E,"x"
	.linkonce discard
	.globl	_ZSt8_DestroyIP12ElementosVooS0_EvT_S2_RSaIT0_E
	.def	_ZSt8_DestroyIP12ElementosVooS0_EvT_S2_RSaIT0_E;	.scl	2;	.type	32;	.endef
	.seh_proc	_ZSt8_DestroyIP12ElementosVooS0_EvT_S2_RSaIT0_E
_ZSt8_DestroyIP12ElementosVooS0_EvT_S2_RSaIT0_E:
.LFB2886:
	.file 5 "C:/Program Files/CodeBlocks/MinGW/lib/gcc/x86_64-w64-mingw32/8.1.0/include/c++/bits/stl_construct.h"
	.loc 5 203 5
	.cfi_startproc
	pushq	%rbp
	.seh_pushreg	%rbp
	.cfi_def_cfa_offset 16
	.cfi_offset 6, -16
	movq	%rsp, %rbp
	.seh_setframe	%rbp, 0
	.cfi_def_cfa_register 6
	subq	$32, %rsp
	.seh_stackalloc	32
	.seh_endprologue
	movq	%rcx, 16(%rbp)
	movq	%rdx, 24(%rbp)
	movq	%r8, 32(%rbp)
	.loc 5 206 15
	movq	24(%rbp), %rax
	movq	%rax, %rdx
	movq	16(%rbp), %rcx
	call	_ZSt8_DestroyIP12ElementosVooEvT_S2_
	.loc 5 207 5
	nop
	addq	$32, %rsp
	popq	%rbp
	.cfi_restore 6
	.cfi_def_cfa 7, 8
	ret
	.cfi_endproc
.LFE2886:
	.seh_endproc
	.section	.text$_ZNSt6vectorI12ElementosVooSaIS0_EE3endEv,"x"
	.linkonce discard
	.align 2
	.globl	_ZNSt6vectorI12ElementosVooSaIS0_EE3endEv
	.def	_ZNSt6vectorI12ElementosVooSaIS0_EE3endEv;	.scl	2;	.type	32;	.endef
	.seh_proc	_ZNSt6vectorI12ElementosVooSaIS0_EE3endEv
_ZNSt6vectorI12ElementosVooSaIS0_EE3endEv:
.LFB2887:
	.loc 4 716 7
	.cfi_startproc
	pushq	%rbp
	.seh_pushreg	%rbp
	.cfi_def_cfa_offset 16
	.cfi_offset 6, -16
	movq	%rsp, %rbp
	.seh_setframe	%rbp, 0
	.cfi_def_cfa_register 6
	subq	$48, %rsp
	.seh_stackalloc	48
	.seh_endprologue
	movq	%rcx, 16(%rbp)
	.loc 4 717 39
	movq	16(%rbp), %rax
	leaq	8(%rax), %rdx
	.loc 4 717 48
	leaq	-8(%rbp), %rax
	movq	%rax, %rcx
	call	_ZN9__gnu_cxx17__normal_iteratorIP12ElementosVooSt6vectorIS1_SaIS1_EEEC1ERKS2_
	movq	-8(%rbp), %rax
	.loc 4 717 51
	addq	$48, %rsp
	popq	%rbp
	.cfi_restore 6
	.cfi_def_cfa 7, 8
	ret
	.cfi_endproc
.LFE2887:
	.seh_endproc
	.section	.text$_ZNK9__gnu_cxx17__normal_iteratorIP12ElementosVooSt6vectorIS1_SaIS1_EEEmiEx,"x"
	.linkonce discard
	.align 2
	.globl	_ZNK9__gnu_cxx17__normal_iteratorIP12ElementosVooSt6vectorIS1_SaIS1_EEEmiEx
	.def	_ZNK9__gnu_cxx17__normal_iteratorIP12ElementosVooSt6vectorIS1_SaIS1_EEEmiEx;	.scl	2;	.type	32;	.endef
	.seh_proc	_ZNK9__gnu_cxx17__normal_iteratorIP12ElementosVooSt6vectorIS1_SaIS1_EEEmiEx
_ZNK9__gnu_cxx17__normal_iteratorIP12ElementosVooSt6vectorIS1_SaIS1_EEEmiEx:
.LFB2888:
	.file 6 "C:/Program Files/CodeBlocks/MinGW/lib/gcc/x86_64-w64-mingw32/8.1.0/include/c++/bits/stl_iterator.h"
	.loc 6 841 7
	.cfi_startproc
	pushq	%rbp
	.seh_pushreg	%rbp
	.cfi_def_cfa_offset 16
	.cfi_offset 6, -16
	movq	%rsp, %rbp
	.seh_setframe	%rbp, 0
	.cfi_def_cfa_register 6
	subq	$48, %rsp
	.seh_stackalloc	48
	.seh_endprologue
	movq	%rcx, 16(%rbp)
	movq	%rdx, 24(%rbp)
	.loc 6 842 34
	movq	16(%rbp), %rax
	movq	(%rax), %rcx
	.loc 6 842 45
	movq	24(%rbp), %rdx
	movq	%rdx, %rax
	addq	%rax, %rax
	addq	%rdx, %rax
	salq	$5, %rax
	negq	%rax
	addq	%rcx, %rax
	movq	%rax, -8(%rbp)
	.loc 6 842 50
	leaq	-8(%rbp), %rdx
	leaq	-16(%rbp), %rax
	movq	%rax, %rcx
	call	_ZN9__gnu_cxx17__normal_iteratorIP12ElementosVooSt6vectorIS1_SaIS1_EEEC1ERKS2_
	movq	-16(%rbp), %rax
	.loc 6 842 53
	addq	$48, %rsp
	popq	%rbp
	.cfi_restore 6
	.cfi_def_cfa 7, 8
	ret
	.cfi_endproc
.LFE2888:
	.seh_endproc
	.section	.text$_ZNK9__gnu_cxx17__normal_iteratorIP12ElementosVooSt6vectorIS1_SaIS1_EEEdeEv,"x"
	.linkonce discard
	.align 2
	.globl	_ZNK9__gnu_cxx17__normal_iteratorIP12ElementosVooSt6vectorIS1_SaIS1_EEEdeEv
	.def	_ZNK9__gnu_cxx17__normal_iteratorIP12ElementosVooSt6vectorIS1_SaIS1_EEEdeEv;	.scl	2;	.type	32;	.endef
	.seh_proc	_ZNK9__gnu_cxx17__normal_iteratorIP12ElementosVooSt6vectorIS1_SaIS1_EEEdeEv
_ZNK9__gnu_cxx17__normal_iteratorIP12ElementosVooSt6vectorIS1_SaIS1_EEEdeEv:
.LFB2889:
	.loc 6 793 7
	.cfi_startproc
	pushq	%rbp
	.seh_pushreg	%rbp
	.cfi_def_cfa_offset 16
	.cfi_offset 6, -16
	movq	%rsp, %rbp
	.seh_setframe	%rbp, 0
	.cfi_def_cfa_register 6
	.seh_endprologue
	movq	%rcx, 16(%rbp)
	.loc 6 794 17
	movq	16(%rbp), %rax
	movq	(%rax), %rax
	.loc 6 794 29
	popq	%rbp
	.cfi_restore 6
	.cfi_def_cfa 7, 8
	ret
	.cfi_endproc
.LFE2889:
	.seh_endproc
	.section	.text$_ZNSaI12ElementosVooED2Ev,"x"
	.linkonce discard
	.align 2
	.globl	_ZNSaI12ElementosVooED2Ev
	.def	_ZNSaI12ElementosVooED2Ev;	.scl	2;	.type	32;	.endef
	.seh_proc	_ZNSaI12ElementosVooED2Ev
_ZNSaI12ElementosVooED2Ev:
.LFB2940:
	.file 7 "C:/Program Files/CodeBlocks/MinGW/lib/gcc/x86_64-w64-mingw32/8.1.0/include/c++/bits/allocator.h"
	.loc 7 139 7
	.cfi_startproc
	pushq	%rbp
	.seh_pushreg	%rbp
	.cfi_def_cfa_offset 16
	.cfi_offset 6, -16
	movq	%rsp, %rbp
	.seh_setframe	%rbp, 0
	.cfi_def_cfa_register 6
	subq	$32, %rsp
	.seh_stackalloc	32
	.seh_endprologue
	movq	%rcx, 16(%rbp)
.LBB12:
	.loc 7 139 30
	movq	16(%rbp), %rcx
	call	_ZN9__gnu_cxx13new_allocatorI12ElementosVooED2Ev
.LBE12:
	nop
	addq	$32, %rsp
	popq	%rbp
	.cfi_restore 6
	.cfi_def_cfa 7, 8
	ret
	.cfi_endproc
.LFE2940:
	.seh_endproc
	.section	.text$_ZNSt12_Vector_baseI12ElementosVooSaIS0_EE13_M_deallocateEPS0_y,"x"
	.linkonce discard
	.align 2
	.globl	_ZNSt12_Vector_baseI12ElementosVooSaIS0_EE13_M_deallocateEPS0_y
	.def	_ZNSt12_Vector_baseI12ElementosVooSaIS0_EE13_M_deallocateEPS0_y;	.scl	2;	.type	32;	.endef
	.seh_proc	_ZNSt12_Vector_baseI12ElementosVooSaIS0_EE13_M_deallocateEPS0_y
_ZNSt12_Vector_baseI12ElementosVooSaIS0_EE13_M_deallocateEPS0_y:
.LFB2942:
	.loc 4 300 7
	.cfi_startproc
	pushq	%rbp
	.seh_pushreg	%rbp
	.cfi_def_cfa_offset 16
	.cfi_offset 6, -16
	movq	%rsp, %rbp
	.seh_setframe	%rbp, 0
	.cfi_def_cfa_register 6
	subq	$32, %rsp
	.seh_stackalloc	32
	.seh_endprologue
	movq	%rcx, 16(%rbp)
	movq	%rdx, 24(%rbp)
	movq	%r8, 32(%rbp)
	.loc 4 303 2
	cmpq	$0, 24(%rbp)
	je	.L72
	.loc 4 304 20
	movq	16(%rbp), %rax
	.loc 4 304 19
	movq	32(%rbp), %rcx
	movq	24(%rbp), %rdx
	movq	%rcx, %r8
	movq	%rax, %rcx
	call	_ZNSt16allocator_traitsISaI12ElementosVooEE10deallocateERS1_PS0_y
.L72:
	.loc 4 305 7
	nop
	addq	$32, %rsp
	popq	%rbp
	.cfi_restore 6
	.cfi_def_cfa 7, 8
	ret
	.cfi_endproc
.LFE2942:
	.seh_endproc
	.section	.text$_ZSt8_DestroyIP12ElementosVooEvT_S2_,"x"
	.linkonce discard
	.globl	_ZSt8_DestroyIP12ElementosVooEvT_S2_
	.def	_ZSt8_DestroyIP12ElementosVooEvT_S2_;	.scl	2;	.type	32;	.endef
	.seh_proc	_ZSt8_DestroyIP12ElementosVooEvT_S2_
_ZSt8_DestroyIP12ElementosVooEvT_S2_:
.LFB2943:
	.loc 5 127 5
	.cfi_startproc
	pushq	%rbp
	.seh_pushreg	%rbp
	.cfi_def_cfa_offset 16
	.cfi_offset 6, -16
	movq	%rsp, %rbp
	.seh_setframe	%rbp, 0
	.cfi_def_cfa_register 6
	subq	$32, %rsp
	.seh_stackalloc	32
	.seh_endprologue
	movq	%rcx, 16(%rbp)
	movq	%rdx, 24(%rbp)
	.loc 5 137 11
	movq	24(%rbp), %rax
	movq	%rax, %rdx
	movq	16(%rbp), %rcx
	call	_ZNSt12_Destroy_auxILb0EE9__destroyIP12ElementosVooEEvT_S4_
	.loc 5 138 5
	nop
	addq	$32, %rsp
	popq	%rbp
	.cfi_restore 6
	.cfi_def_cfa 7, 8
	ret
	.cfi_endproc
.LFE2943:
	.seh_endproc
	.section	.text$_ZN9__gnu_cxx17__normal_iteratorIP12ElementosVooSt6vectorIS1_SaIS1_EEEC1ERKS2_,"x"
	.linkonce discard
	.align 2
	.globl	_ZN9__gnu_cxx17__normal_iteratorIP12ElementosVooSt6vectorIS1_SaIS1_EEEC1ERKS2_
	.def	_ZN9__gnu_cxx17__normal_iteratorIP12ElementosVooSt6vectorIS1_SaIS1_EEEC1ERKS2_;	.scl	2;	.type	32;	.endef
	.seh_proc	_ZN9__gnu_cxx17__normal_iteratorIP12ElementosVooSt6vectorIS1_SaIS1_EEEC1ERKS2_
_ZN9__gnu_cxx17__normal_iteratorIP12ElementosVooSt6vectorIS1_SaIS1_EEEC1ERKS2_:
.LFB2946:
	.loc 6 780 7
	.cfi_startproc
	pushq	%rbp
	.seh_pushreg	%rbp
	.cfi_def_cfa_offset 16
	.cfi_offset 6, -16
	movq	%rsp, %rbp
	.seh_setframe	%rbp, 0
	.cfi_def_cfa_register 6
	.seh_endprologue
	movq	%rcx, 16(%rbp)
	movq	%rdx, 24(%rbp)
.LBB13:
	.loc 6 781 23
	movq	24(%rbp), %rax
	movq	(%rax), %rdx
	movq	16(%rbp), %rax
	movq	%rdx, (%rax)
.LBE13:
	.loc 6 781 27
	nop
	popq	%rbp
	.cfi_restore 6
	.cfi_def_cfa 7, 8
	ret
	.cfi_endproc
.LFE2946:
	.seh_endproc
	.section	.text$_ZN9__gnu_cxx13new_allocatorI12ElementosVooED2Ev,"x"
	.linkonce discard
	.align 2
	.globl	_ZN9__gnu_cxx13new_allocatorI12ElementosVooED2Ev
	.def	_ZN9__gnu_cxx13new_allocatorI12ElementosVooED2Ev;	.scl	2;	.type	32;	.endef
	.seh_proc	_ZN9__gnu_cxx13new_allocatorI12ElementosVooED2Ev
_ZN9__gnu_cxx13new_allocatorI12ElementosVooED2Ev:
.LFB2977:
	.file 8 "C:/Program Files/CodeBlocks/MinGW/lib/gcc/x86_64-w64-mingw32/8.1.0/include/c++/ext/new_allocator.h"
	.loc 8 86 7
	.cfi_startproc
	pushq	%rbp
	.seh_pushreg	%rbp
	.cfi_def_cfa_offset 16
	.cfi_offset 6, -16
	movq	%rsp, %rbp
	.seh_setframe	%rbp, 0
	.cfi_def_cfa_register 6
	.seh_endprologue
	movq	%rcx, 16(%rbp)
	.loc 8 86 35
	nop
	popq	%rbp
	.cfi_restore 6
	.cfi_def_cfa 7, 8
	ret
	.cfi_endproc
.LFE2977:
	.seh_endproc
	.section	.text$_ZNSt16allocator_traitsISaI12ElementosVooEE10deallocateERS1_PS0_y,"x"
	.linkonce discard
	.globl	_ZNSt16allocator_traitsISaI12ElementosVooEE10deallocateERS1_PS0_y
	.def	_ZNSt16allocator_traitsISaI12ElementosVooEE10deallocateERS1_PS0_y;	.scl	2;	.type	32;	.endef
	.seh_proc	_ZNSt16allocator_traitsISaI12ElementosVooEE10deallocateERS1_PS0_y
_ZNSt16allocator_traitsISaI12ElementosVooEE10deallocateERS1_PS0_y:
.LFB2979:
	.file 9 "C:/Program Files/CodeBlocks/MinGW/lib/gcc/x86_64-w64-mingw32/8.1.0/include/c++/bits/alloc_traits.h"
	.loc 9 461 7
	.cfi_startproc
	pushq	%rbp
	.seh_pushreg	%rbp
	.cfi_def_cfa_offset 16
	.cfi_offset 6, -16
	movq	%rsp, %rbp
	.seh_setframe	%rbp, 0
	.cfi_def_cfa_register 6
	subq	$32, %rsp
	.seh_stackalloc	32
	.seh_endprologue
	movq	%rcx, 16(%rbp)
	movq	%rdx, 24(%rbp)
	movq	%r8, 32(%rbp)
	.loc 9 462 9
	movq	32(%rbp), %rdx
	movq	24(%rbp), %rax
	movq	%rdx, %r8
	movq	%rax, %rdx
	movq	16(%rbp), %rcx
	call	_ZN9__gnu_cxx13new_allocatorI12ElementosVooE10deallocateEPS1_y
	.loc 9 462 35
	nop
	addq	$32, %rsp
	popq	%rbp
	.cfi_restore 6
	.cfi_def_cfa 7, 8
	ret
	.cfi_endproc
.LFE2979:
	.seh_endproc
	.section	.text$_ZSt11__addressofI12ElementosVooEPT_RS1_,"x"
	.linkonce discard
	.globl	_ZSt11__addressofI12ElementosVooEPT_RS1_
	.def	_ZSt11__addressofI12ElementosVooEPT_RS1_;	.scl	2;	.type	32;	.endef
	.seh_proc	_ZSt11__addressofI12ElementosVooEPT_RS1_
_ZSt11__addressofI12ElementosVooEPT_RS1_:
.LFB2981:
	.file 10 "C:/Program Files/CodeBlocks/MinGW/lib/gcc/x86_64-w64-mingw32/8.1.0/include/c++/bits/move.h"
	.loc 10 47 5
	.cfi_startproc
	pushq	%rbp
	.seh_pushreg	%rbp
	.cfi_def_cfa_offset 16
	.cfi_offset 6, -16
	movq	%rsp, %rbp
	.seh_setframe	%rbp, 0
	.cfi_def_cfa_register 6
	.seh_endprologue
	movq	%rcx, 16(%rbp)
	.loc 10 48 37
	movq	16(%rbp), %rax
	.loc 10 48 40
	popq	%rbp
	.cfi_restore 6
	.cfi_def_cfa 7, 8
	ret
	.cfi_endproc
.LFE2981:
	.seh_endproc
	.section	.text$_ZNSt12_Destroy_auxILb0EE9__destroyIP12ElementosVooEEvT_S4_,"x"
	.linkonce discard
	.globl	_ZNSt12_Destroy_auxILb0EE9__destroyIP12ElementosVooEEvT_S4_
	.def	_ZNSt12_Destroy_auxILb0EE9__destroyIP12ElementosVooEEvT_S4_;	.scl	2;	.type	32;	.endef
	.seh_proc	_ZNSt12_Destroy_auxILb0EE9__destroyIP12ElementosVooEEvT_S4_
_ZNSt12_Destroy_auxILb0EE9__destroyIP12ElementosVooEEvT_S4_:
.LFB2980:
	.loc 5 105 9
	.cfi_startproc
	pushq	%rbp
	.seh_pushreg	%rbp
	.cfi_def_cfa_offset 16
	.cfi_offset 6, -16
	movq	%rsp, %rbp
	.seh_setframe	%rbp, 0
	.cfi_def_cfa_register 6
	subq	$32, %rsp
	.seh_stackalloc	32
	.seh_endprologue
	movq	%rcx, 16(%rbp)
	movq	%rdx, 24(%rbp)
.L81:
	.loc 5 107 19 discriminator 2
	movq	16(%rbp), %rax
	cmpq	24(%rbp), %rax
	je	.L82
	.loc 5 108 19 discriminator 1
	movq	16(%rbp), %rcx
	call	_ZSt11__addressofI12ElementosVooEPT_RS1_
	movq	%rax, %rcx
	call	_ZSt8_DestroyI12ElementosVooEvPT_
	.loc 5 107 4 discriminator 1
	addq	$96, 16(%rbp)
	jmp	.L81
.L82:
	.loc 5 109 2
	nop
	addq	$32, %rsp
	popq	%rbp
	.cfi_restore 6
	.cfi_def_cfa 7, 8
	ret
	.cfi_endproc
.LFE2980:
	.seh_endproc
	.section	.text$_ZN9__gnu_cxx13new_allocatorI12ElementosVooE10deallocateEPS1_y,"x"
	.linkonce discard
	.align 2
	.globl	_ZN9__gnu_cxx13new_allocatorI12ElementosVooE10deallocateEPS1_y
	.def	_ZN9__gnu_cxx13new_allocatorI12ElementosVooE10deallocateEPS1_y;	.scl	2;	.type	32;	.endef
	.seh_proc	_ZN9__gnu_cxx13new_allocatorI12ElementosVooE10deallocateEPS1_y
_ZN9__gnu_cxx13new_allocatorI12ElementosVooE10deallocateEPS1_y:
.LFB2999:
	.loc 8 116 7
	.cfi_startproc
	pushq	%rbp
	.seh_pushreg	%rbp
	.cfi_def_cfa_offset 16
	.cfi_offset 6, -16
	movq	%rsp, %rbp
	.seh_setframe	%rbp, 0
	.cfi_def_cfa_register 6
	subq	$32, %rsp
	.seh_stackalloc	32
	.seh_endprologue
	movq	%rcx, 16(%rbp)
	movq	%rdx, 24(%rbp)
	movq	%r8, 32(%rbp)
	.loc 8 125 19
	movq	24(%rbp), %rax
	movq	%rax, %rcx
	call	_ZdlPv
	.loc 8 126 7
	nop
	addq	$32, %rsp
	popq	%rbp
	.cfi_restore 6
	.cfi_def_cfa 7, 8
	ret
	.cfi_endproc
.LFE2999:
	.seh_endproc
	.section	.text$_ZSt8_DestroyI12ElementosVooEvPT_,"x"
	.linkonce discard
	.globl	_ZSt8_DestroyI12ElementosVooEvPT_
	.def	_ZSt8_DestroyI12ElementosVooEvPT_;	.scl	2;	.type	32;	.endef
	.seh_proc	_ZSt8_DestroyI12ElementosVooEvPT_
_ZSt8_DestroyI12ElementosVooEvPT_:
.LFB3000:
	.loc 5 97 5
	.cfi_startproc
	pushq	%rbp
	.seh_pushreg	%rbp
	.cfi_def_cfa_offset 16
	.cfi_offset 6, -16
	movq	%rsp, %rbp
	.seh_setframe	%rbp, 0
	.cfi_def_cfa_register 6
	subq	$32, %rsp
	.seh_stackalloc	32
	.seh_endprologue
	movq	%rcx, 16(%rbp)
	.loc 5 98 7
	movq	16(%rbp), %rax
	movq	(%rax), %rax
	movq	(%rax), %rax
	movq	16(%rbp), %rcx
	call	*%rax
.LVL2:
	.loc 5 98 26
	nop
	addq	$32, %rsp
	popq	%rbp
	.cfi_restore 6
	.cfi_def_cfa 7, 8
	ret
	.cfi_endproc
.LFE3000:
	.seh_endproc
	.globl	_ZTV10Calculador
	.section	.rdata$_ZTV10Calculador,"dr"
	.linkonce same_size
	.align 8
_ZTV10Calculador:
	.quad	0
	.quad	_ZTI10Calculador
	.quad	__cxa_pure_virtual
	.quad	__cxa_pure_virtual
	.globl	_ZTV12ElementosVoo
	.section	.rdata$_ZTV12ElementosVoo,"dr"
	.linkonce same_size
	.align 8
_ZTV12ElementosVoo:
	.quad	0
	.quad	_ZTI12ElementosVoo
	.quad	_ZN12ElementosVooD1Ev
	.quad	_ZN12ElementosVooD0Ev
	.section	.text$_ZN12ElementosVooD1Ev,"x"
	.linkonce discard
	.align 2
	.globl	_ZN12ElementosVooD1Ev
	.def	_ZN12ElementosVooD1Ev;	.scl	2;	.type	32;	.endef
	.seh_proc	_ZN12ElementosVooD1Ev
_ZN12ElementosVooD1Ev:
.LFB3016:
	.loc 3 7 7
	.cfi_startproc
	pushq	%rbp
	.seh_pushreg	%rbp
	.cfi_def_cfa_offset 16
	.cfi_offset 6, -16
	movq	%rsp, %rbp
	.seh_setframe	%rbp, 0
	.cfi_def_cfa_register 6
	subq	$32, %rsp
	.seh_stackalloc	32
	.seh_endprologue
	movq	%rcx, 16(%rbp)
.LBB14:
	.loc 3 7 7
	leaq	16+_ZTV12ElementosVoo(%rip), %rdx
	movq	16(%rbp), %rax
	movq	%rdx, (%rax)
	movq	16(%rbp), %rax
	movq	%rax, %rcx
	call	_ZN10BaseObjectD2Ev
.LBE14:
	nop
	addq	$32, %rsp
	popq	%rbp
	.cfi_restore 6
	.cfi_def_cfa 7, 8
	ret
	.cfi_endproc
.LFE3016:
	.seh_endproc
	.section	.text$_ZN12ElementosVooD0Ev,"x"
	.linkonce discard
	.align 2
	.globl	_ZN12ElementosVooD0Ev
	.def	_ZN12ElementosVooD0Ev;	.scl	2;	.type	32;	.endef
	.seh_proc	_ZN12ElementosVooD0Ev
_ZN12ElementosVooD0Ev:
.LFB3017:
	.loc 3 7 7
	.cfi_startproc
	pushq	%rbp
	.seh_pushreg	%rbp
	.cfi_def_cfa_offset 16
	.cfi_offset 6, -16
	movq	%rsp, %rbp
	.seh_setframe	%rbp, 0
	.cfi_def_cfa_register 6
	subq	$32, %rsp
	.seh_stackalloc	32
	.seh_endprologue
	movq	%rcx, 16(%rbp)
	.loc 3 7 7
	movq	16(%rbp), %rcx
	call	_ZN12ElementosVooD1Ev
	movq	16(%rbp), %rcx
	call	_ZdlPv
	nop
	addq	$32, %rsp
	popq	%rbp
	.cfi_restore 6
	.cfi_def_cfa 7, 8
	ret
	.cfi_endproc
.LFE3017:
	.seh_endproc
	.globl	_ZTV10BaseObject
	.section	.rdata$_ZTV10BaseObject,"dr"
	.linkonce same_size
	.align 8
_ZTV10BaseObject:
	.quad	0
	.quad	_ZTI10BaseObject
	.quad	_ZN10BaseObjectD1Ev
	.quad	_ZN10BaseObjectD0Ev
	.globl	_ZTI10Calculador
	.section	.rdata$_ZTI10Calculador,"dr"
	.linkonce same_size
	.align 8
_ZTI10Calculador:
	.quad	_ZTVN10__cxxabiv117__class_type_infoE+16
	.quad	_ZTS10Calculador
	.globl	_ZTS10Calculador
	.section	.rdata$_ZTS10Calculador,"dr"
	.linkonce same_size
	.align 8
_ZTS10Calculador:
	.ascii "10Calculador\0"
	.globl	_ZTI12ElementosVoo
	.section	.rdata$_ZTI12ElementosVoo,"dr"
	.linkonce same_size
	.align 8
_ZTI12ElementosVoo:
	.quad	_ZTVN10__cxxabiv120__si_class_type_infoE+16
	.quad	_ZTS12ElementosVoo
	.quad	_ZTI10BaseObject
	.globl	_ZTS12ElementosVoo
	.section	.rdata$_ZTS12ElementosVoo,"dr"
	.linkonce same_size
	.align 8
_ZTS12ElementosVoo:
	.ascii "12ElementosVoo\0"
	.globl	_ZTI10BaseObject
	.section	.rdata$_ZTI10BaseObject,"dr"
	.linkonce same_size
	.align 8
_ZTI10BaseObject:
	.quad	_ZTVN10__cxxabiv117__class_type_infoE+16
	.quad	_ZTS10BaseObject
	.globl	_ZTS10BaseObject
	.section	.rdata$_ZTS10BaseObject,"dr"
	.linkonce same_size
	.align 8
_ZTS10BaseObject:
	.ascii "10BaseObject\0"
	.text
	.def	__tcf_0;	.scl	3;	.type	32;	.endef
	.seh_proc	__tcf_0
__tcf_0:
.LFB3019:
	.file 11 "C:/Program Files/CodeBlocks/MinGW/lib/gcc/x86_64-w64-mingw32/8.1.0/include/c++/iostream"
	.loc 11 74 25
	.cfi_startproc
	pushq	%rbp
	.seh_pushreg	%rbp
	.cfi_def_cfa_offset 16
	.cfi_offset 6, -16
	movq	%rsp, %rbp
	.seh_setframe	%rbp, 0
	.cfi_def_cfa_register 6
	subq	$32, %rsp
	.seh_stackalloc	32
	.seh_endprologue
	.loc 11 74 25
	leaq	_ZStL8__ioinit(%rip), %rcx
	call	_ZNSt8ios_base4InitD1Ev
	nop
	addq	$32, %rsp
	popq	%rbp
	.cfi_restore 6
	.cfi_def_cfa 7, 8
	ret
	.cfi_endproc
.LFE3019:
	.seh_endproc
	.def	_Z41__static_initialization_and_destruction_0ii;	.scl	3;	.type	32;	.endef
	.seh_proc	_Z41__static_initialization_and_destruction_0ii
_Z41__static_initialization_and_destruction_0ii:
.LFB3018:
	.loc 2 171 1
	.cfi_startproc
	pushq	%rbp
	.seh_pushreg	%rbp
	.cfi_def_cfa_offset 16
	.cfi_offset 6, -16
	movq	%rsp, %rbp
	.seh_setframe	%rbp, 0
	.cfi_def_cfa_register 6
	subq	$32, %rsp
	.seh_stackalloc	32
	.seh_endprologue
	movl	%ecx, 16(%rbp)
	movl	%edx, 24(%rbp)
	.loc 2 171 1
	cmpl	$1, 16(%rbp)
	jne	.L90
	.loc 2 171 1 is_stmt 0 discriminator 1
	cmpl	$65535, 24(%rbp)
	jne	.L90
	.loc 11 74 25 is_stmt 1
	leaq	_ZStL8__ioinit(%rip), %rcx
	call	_ZNSt8ios_base4InitC1Ev
	leaq	__tcf_0(%rip), %rcx
	call	atexit
.L90:
	.loc 2 171 1
	nop
	addq	$32, %rsp
	popq	%rbp
	.cfi_restore 6
	.cfi_def_cfa 7, 8
	ret
	.cfi_endproc
.LFE3018:
	.seh_endproc
	.def	_GLOBAL__sub_I_calculador.cpp;	.scl	3;	.type	32;	.endef
	.seh_proc	_GLOBAL__sub_I_calculador.cpp
_GLOBAL__sub_I_calculador.cpp:
.LFB3020:
	.loc 2 171 1
	.cfi_startproc
	pushq	%rbp
	.seh_pushreg	%rbp
	.cfi_def_cfa_offset 16
	.cfi_offset 6, -16
	movq	%rsp, %rbp
	.seh_setframe	%rbp, 0
	.cfi_def_cfa_register 6
	subq	$32, %rsp
	.seh_stackalloc	32
	.seh_endprologue
	.loc 2 171 1
	movl	$65535, %edx
	movl	$1, %ecx
	call	_Z41__static_initialization_and_destruction_0ii
	nop
	addq	$32, %rsp
	popq	%rbp
	.cfi_restore 6
	.cfi_def_cfa 7, 8
	ret
	.cfi_endproc
.LFE3020:
	.seh_endproc
	.section	.ctors,"w"
	.align 8
	.quad	_GLOBAL__sub_I_calculador.cpp
	.section .rdata,"dr"
	.align 8
.LC1:
	.long	-858993459
	.long	1081937100
	.align 8
.LC3:
	.long	982688517
	.long	1076075777
	.align 8
.LC4:
	.long	-1571644103
	.long	1067573062
	.align 8
.LC5:
	.long	1594291860
	.long	1063603352
	.align 8
.LC6:
	.long	0
	.long	1072693248
	.align 16
.LC7:
	.long	0
	.long	-2147483648
	.long	0
	.long	0
	.align 8
.LC8:
	.long	-2147483648
	.long	1096302535
	.align 8
.LC9:
	.long	-1717986918
	.long	1069128089
	.text
.Letext0:
	.file 12 "C:/Program Files/CodeBlocks/MinGW/lib/gcc/x86_64-w64-mingw32/8.1.0/include/c++/bits/basic_string.h"
	.file 13 "C:/Program Files/CodeBlocks/MinGW/lib/gcc/x86_64-w64-mingw32/8.1.0/include/c++/bits/stl_list.h"
	.file 14 "C:/Program Files/CodeBlocks/MinGW/lib/gcc/x86_64-w64-mingw32/8.1.0/include/c++/bits/list.tcc"
	.file 15 "C:/Program Files/CodeBlocks/MinGW/lib/gcc/x86_64-w64-mingw32/8.1.0/include/c++/bits/cpp_type_traits.h"
	.file 16 "C:/Program Files/CodeBlocks/MinGW/lib/gcc/x86_64-w64-mingw32/8.1.0/include/c++/type_traits"
	.file 17 "C:/Program Files/CodeBlocks/MinGW/lib/gcc/x86_64-w64-mingw32/8.1.0/include/c++/bits/stringfwd.h"
	.file 18 "C:/Program Files/CodeBlocks/MinGW/lib/gcc/x86_64-w64-mingw32/8.1.0/include/c++/bits/stl_pair.h"
	.file 19 "C:/Program Files/CodeBlocks/MinGW/lib/gcc/x86_64-w64-mingw32/8.1.0/include/c++/debug/debug.h"
	.file 20 "C:/Program Files/CodeBlocks/MinGW/lib/gcc/x86_64-w64-mingw32/8.1.0/include/c++/bits/exception_ptr.h"
	.file 21 "C:/Program Files/CodeBlocks/MinGW/lib/gcc/x86_64-w64-mingw32/8.1.0/include/c++/x86_64-w64-mingw32/bits/c++config.h"
	.file 22 "C:/Program Files/CodeBlocks/MinGW/lib/gcc/x86_64-w64-mingw32/8.1.0/include/c++/new"
	.file 23 "C:/Program Files/CodeBlocks/MinGW/lib/gcc/x86_64-w64-mingw32/8.1.0/include/c++/cwchar"
	.file 24 "C:/Program Files/CodeBlocks/MinGW/lib/gcc/x86_64-w64-mingw32/8.1.0/include/c++/bits/char_traits.h"
	.file 25 "C:/Program Files/CodeBlocks/MinGW/lib/gcc/x86_64-w64-mingw32/8.1.0/include/c++/cstdint"
	.file 26 "C:/Program Files/CodeBlocks/MinGW/lib/gcc/x86_64-w64-mingw32/8.1.0/include/c++/clocale"
	.file 27 "C:/Program Files/CodeBlocks/MinGW/lib/gcc/x86_64-w64-mingw32/8.1.0/include/c++/cstdlib"
	.file 28 "C:/Program Files/CodeBlocks/MinGW/lib/gcc/x86_64-w64-mingw32/8.1.0/include/c++/cstdio"
	.file 29 "C:/Program Files/CodeBlocks/MinGW/lib/gcc/x86_64-w64-mingw32/8.1.0/include/c++/initializer_list"
	.file 30 "C:/Program Files/CodeBlocks/MinGW/lib/gcc/x86_64-w64-mingw32/8.1.0/include/c++/system_error"
	.file 31 "C:/Program Files/CodeBlocks/MinGW/lib/gcc/x86_64-w64-mingw32/8.1.0/include/c++/bits/ios_base.h"
	.file 32 "C:/Program Files/CodeBlocks/MinGW/lib/gcc/x86_64-w64-mingw32/8.1.0/include/c++/cwctype"
	.file 33 "C:/Program Files/CodeBlocks/MinGW/lib/gcc/x86_64-w64-mingw32/8.1.0/include/c++/iosfwd"
	.file 34 "C:/Program Files/CodeBlocks/MinGW/lib/gcc/x86_64-w64-mingw32/8.1.0/include/c++/cmath"
	.file 35 "C:/Program Files/CodeBlocks/MinGW/lib/gcc/x86_64-w64-mingw32/8.1.0/include/c++/bits/std_abs.h"
	.file 36 "C:/Program Files/CodeBlocks/MinGW/lib/gcc/x86_64-w64-mingw32/8.1.0/include/c++/bits/uses_allocator.h"
	.file 37 "C:/Program Files/CodeBlocks/MinGW/lib/gcc/x86_64-w64-mingw32/8.1.0/include/c++/bits/stl_iterator_base_types.h"
	.file 38 "C:/Program Files/CodeBlocks/MinGW/lib/gcc/x86_64-w64-mingw32/8.1.0/include/c++/tuple"
	.file 39 "C:/Program Files/CodeBlocks/MinGW/lib/gcc/x86_64-w64-mingw32/8.1.0/include/c++/bits/vector.tcc"
	.file 40 "C:/Program Files/CodeBlocks/MinGW/lib/gcc/x86_64-w64-mingw32/8.1.0/include/c++/bits/predefined_ops.h"
	.file 41 "C:/Program Files/CodeBlocks/MinGW/lib/gcc/x86_64-w64-mingw32/8.1.0/include/c++/ext/numeric_traits.h"
	.file 42 "C:/Program Files/CodeBlocks/MinGW/lib/gcc/x86_64-w64-mingw32/8.1.0/include/c++/ext/alloc_traits.h"
	.file 43 "C:/Program Files/CodeBlocks/MinGW/lib/gcc/x86_64-w64-mingw32/8.1.0/include/c++/ext/aligned_buffer.h"
	.file 44 "C:/Program Files/CodeBlocks/MinGW/x86_64-w64-mingw32/include/crtdefs.h"
	.file 45 "C:/Program Files/CodeBlocks/MinGW/x86_64-w64-mingw32/include/locale.h"
	.file 46 "C:/Program Files/CodeBlocks/MinGW/x86_64-w64-mingw32/include/wchar.h"
	.file 47 "C:/Program Files/CodeBlocks/MinGW/x86_64-w64-mingw32/include/swprintf.inl"
	.file 48 "C:/Program Files/CodeBlocks/MinGW/x86_64-w64-mingw32/include/stdint.h"
	.file 49 "C:/Program Files/CodeBlocks/MinGW/x86_64-w64-mingw32/include/stdio.h"
	.file 50 "C:/Program Files/CodeBlocks/MinGW/x86_64-w64-mingw32/include/ctype.h"
	.file 51 "C:/Program Files/CodeBlocks/MinGW/x86_64-w64-mingw32/include/process.h"
	.file 52 "C:/Program Files/CodeBlocks/MinGW/x86_64-w64-mingw32/include/pthread.h"
	.file 53 "C:/Program Files/CodeBlocks/MinGW/lib/gcc/x86_64-w64-mingw32/8.1.0/include/c++/x86_64-w64-mingw32/bits/atomic_word.h"
	.file 54 "C:/Program Files/CodeBlocks/MinGW/x86_64-w64-mingw32/include/stdlib.h"
	.file 55 "C:/Program Files/CodeBlocks/MinGW/x86_64-w64-mingw32/include/malloc.h"
	.file 56 "C:/PFC 2021/ballisticKernelCpp/CalculadorNumerico/padroes/observable.h"
	.file 57 "C:/Program Files/CodeBlocks/MinGW/x86_64-w64-mingw32/include/wctype.h"
	.file 58 "C:/Program Files/CodeBlocks/MinGW/x86_64-w64-mingw32/include/math.h"
	.file 59 "C:/Program Files/CodeBlocks/MinGW/lib/gcc/x86_64-w64-mingw32/8.1.0/include/c++/math.h"
	.file 60 "C:/PFC 2021/ballisticKernelCpp/CalculadorNumerico/calculador/calculador.h"
	.file 61 "<built-in>"