	.file	"calculadorAtmosferico.cpp"
	.text
.Ltext0:
	.cfi_sections	.debug_frame
	.section .rdata,"dr"
_ZStL19piecewise_construct:
	.space 1
	.section	.text$_ZNSt9exceptionC2Ev,"x"
	.linkonce discard
	.align 2
	.globl	_ZNSt9exceptionC2Ev
	.def	_ZNSt9exceptionC2Ev;	.scl	2;	.type	32;	.endef
	.seh_proc	_ZNSt9exceptionC2Ev
_ZNSt9exceptionC2Ev:
.LFB325:
	.file 1 "C:/Program Files/CodeBlocks/MinGW/lib/gcc/x86_64-w64-mingw32/8.1.0/include/c++/bits/exception.h"
	.loc 1 63 5
	.cfi_startproc
	pushq	%rbp
	.seh_pushreg	%rbp
	.cfi_def_cfa_offset 16
	.cfi_offset 6, -16
	movq	%rsp, %rbp
	.seh_setframe	%rbp, 0
	.cfi_def_cfa_register 6
	.seh_endprologue
	movq	%rcx, 16(%rbp)
.LBB2:
	.loc 1 63 26
	movq	.refptr._ZTVSt9exception(%rip), %rax
	leaq	16(%rax), %rdx
	movq	16(%rbp), %rax
	movq	%rdx, (%rax)
.LBE2:
	.loc 1 63 28
	nop
	popq	%rbp
	.cfi_restore 6
	.cfi_def_cfa 7, 8
	ret
	.cfi_endproc
.LFE325:
	.seh_endproc
	.section	.text$_ZnwyPv,"x"
	.linkonce discard
	.globl	_ZnwyPv
	.def	_ZnwyPv;	.scl	2;	.type	32;	.endef
	.seh_proc	_ZnwyPv
_ZnwyPv:
.LFB372:
	.file 2 "C:/Program Files/CodeBlocks/MinGW/lib/gcc/x86_64-w64-mingw32/8.1.0/include/c++/new"
	.loc 2 169 1
	.cfi_startproc
	pushq	%rbp
	.seh_pushreg	%rbp
	.cfi_def_cfa_offset 16
	.cfi_offset 6, -16
	movq	%rsp, %rbp
	.seh_setframe	%rbp, 0
	.cfi_def_cfa_register 6
	.seh_endprologue
	movq	%rcx, 16(%rbp)
	movq	%rdx, 24(%rbp)
	.loc 2 169 10
	movq	24(%rbp), %rax
	.loc 2 169 15
	popq	%rbp
	.cfi_restore 6
	.cfi_def_cfa 7, 8
	ret
	.cfi_endproc
.LFE372:
	.seh_endproc
	.section	.text$_ZN10BaseObjectD2Ev,"x"
	.linkonce discard
	.align 2
	.globl	_ZN10BaseObjectD2Ev
	.def	_ZN10BaseObjectD2Ev;	.scl	2;	.type	32;	.endef
	.seh_proc	_ZN10BaseObjectD2Ev
_ZN10BaseObjectD2Ev:
.LFB1346:
	.file 3 "C:/PFC 2021/ballisticKernelCpp/CalculadorNumerico/padroes/baseobject.h"
	.loc 3 8 17
	.cfi_startproc
	pushq	%rbp
	.seh_pushreg	%rbp
	.cfi_def_cfa_offset 16
	.cfi_offset 6, -16
	movq	%rsp, %rbp
	.seh_setframe	%rbp, 0
	.cfi_def_cfa_register 6
	.seh_endprologue
	movq	%rcx, 16(%rbp)
.LBB3:
	.loc 3 8 31
	leaq	16+_ZTV10BaseObject(%rip), %rdx
	movq	16(%rbp), %rax
	movq	%rdx, (%rax)
.LBE3:
	.loc 3 8 32
	nop
	popq	%rbp
	.cfi_restore 6
	.cfi_def_cfa 7, 8
	ret
	.cfi_endproc
.LFE1346:
	.seh_endproc
	.section	.text$_ZN10BaseObjectD1Ev,"x"
	.linkonce discard
	.align 2
	.globl	_ZN10BaseObjectD1Ev
	.def	_ZN10BaseObjectD1Ev;	.scl	2;	.type	32;	.endef
	.seh_proc	_ZN10BaseObjectD1Ev
_ZN10BaseObjectD1Ev:
.LFB1347:
	.loc 3 8 17
	.cfi_startproc
	pushq	%rbp
	.seh_pushreg	%rbp
	.cfi_def_cfa_offset 16
	.cfi_offset 6, -16
	movq	%rsp, %rbp
	.seh_setframe	%rbp, 0
	.cfi_def_cfa_register 6
	.seh_endprologue
	movq	%rcx, 16(%rbp)
.LBB4:
	.loc 3 8 31
	leaq	16+_ZTV10BaseObject(%rip), %rdx
	movq	16(%rbp), %rax
	movq	%rdx, (%rax)
.LBE4:
	.loc 3 8 32
	nop
	popq	%rbp
	.cfi_restore 6
	.cfi_def_cfa 7, 8
	ret
	.cfi_endproc
.LFE1347:
	.seh_endproc
	.section	.text$_ZN10BaseObjectD0Ev,"x"
	.linkonce discard
	.align 2
	.globl	_ZN10BaseObjectD0Ev
	.def	_ZN10BaseObjectD0Ev;	.scl	2;	.type	32;	.endef
	.seh_proc	_ZN10BaseObjectD0Ev
_ZN10BaseObjectD0Ev:
.LFB1348:
	.loc 3 8 17
	.cfi_startproc
	pushq	%rbp
	.seh_pushreg	%rbp
	.cfi_def_cfa_offset 16
	.cfi_offset 6, -16
	movq	%rsp, %rbp
	.seh_setframe	%rbp, 0
	.cfi_def_cfa_register 6
	subq	$32, %rsp
	.seh_stackalloc	32
	.seh_endprologue
	movq	%rcx, 16(%rbp)
	.loc 3 8 32
	movq	16(%rbp), %rcx
	call	_ZN10BaseObjectD1Ev
	movq	16(%rbp), %rcx
	call	_ZdlPv
	nop
	addq	$32, %rsp
	popq	%rbp
	.cfi_restore 6
	.cfi_def_cfa 7, 8
	ret
	.cfi_endproc
.LFE1348:
	.seh_endproc
	.section	.text$_ZN10Observable8setDatumEP10BaseObject,"x"
	.linkonce discard
	.align 2
	.globl	_ZN10Observable8setDatumEP10BaseObject
	.def	_ZN10Observable8setDatumEP10BaseObject;	.scl	2;	.type	32;	.endef
	.seh_proc	_ZN10Observable8setDatumEP10BaseObject
_ZN10Observable8setDatumEP10BaseObject:
.LFB1538:
	.file 4 "C:/PFC 2021/ballisticKernelCpp/CalculadorNumerico/padroes/observable.h"
	.loc 4 51 10
	.cfi_startproc
	pushq	%rbp
	.seh_pushreg	%rbp
	.cfi_def_cfa_offset 16
	.cfi_offset 6, -16
	movq	%rsp, %rbp
	.seh_setframe	%rbp, 0
	.cfi_def_cfa_register 6
	.seh_endprologue
	movq	%rcx, 16(%rbp)
	movq	%rdx, 24(%rbp)
	.loc 4 53 21
	movq	16(%rbp), %rax
	movq	24(%rbp), %rdx
	movq	%rdx, 40(%rax)
	.loc 4 55 5
	nop
	popq	%rbp
	.cfi_restore 6
	.cfi_def_cfa 7, 8
	ret
	.cfi_endproc
.LFE1538:
	.seh_endproc
	.section	.text$_ZN12ElementosVoo8setArMaxEd,"x"
	.linkonce discard
	.align 2
	.globl	_ZN12ElementosVoo8setArMaxEd
	.def	_ZN12ElementosVoo8setArMaxEd;	.scl	2;	.type	32;	.endef
	.seh_proc	_ZN12ElementosVoo8setArMaxEd
_ZN12ElementosVoo8setArMaxEd:
.LFB1544:
	.file 5 "C:/PFC 2021/ballisticKernelCpp/CalculadorNumerico/calculador/elementosvoo.h"
	.loc 5 11 10
	.cfi_startproc
	pushq	%rbp
	.seh_pushreg	%rbp
	.cfi_def_cfa_offset 16
	.cfi_offset 6, -16
	movq	%rsp, %rbp
	.seh_setframe	%rbp, 0
	.cfi_def_cfa_register 6
	.seh_endprologue
	movq	%rcx, 16(%rbp)
	movsd	%xmm1, 24(%rbp)
	.loc 5 11 47
	movq	16(%rbp), %rax
	movsd	24(%rbp), %xmm0
	movsd	%xmm0, 72(%rax)
	.loc 5 11 56
	nop
	popq	%rbp
	.cfi_restore 6
	.cfi_def_cfa 7, 8
	ret
	.cfi_endproc
.LFE1544:
	.seh_endproc
	.section	.text$_ZN12ElementosVoo12setAlturaMaxEd,"x"
	.linkonce discard
	.align 2
	.globl	_ZN12ElementosVoo12setAlturaMaxEd
	.def	_ZN12ElementosVoo12setAlturaMaxEd;	.scl	2;	.type	32;	.endef
	.seh_proc	_ZN12ElementosVoo12setAlturaMaxEd
_ZN12ElementosVoo12setAlturaMaxEd:
.LFB1545:
	.loc 5 12 10
	.cfi_startproc
	pushq	%rbp
	.seh_pushreg	%rbp
	.cfi_def_cfa_offset 16
	.cfi_offset 6, -16
	movq	%rsp, %rbp
	.seh_setframe	%rbp, 0
	.cfi_def_cfa_register 6
	.seh_endprologue
	movq	%rcx, 16(%rbp)
	movsd	%xmm1, 24(%rbp)
	.loc 5 12 59
	movq	16(%rbp), %rax
	movsd	24(%rbp), %xmm0
	movsd	%xmm0, 64(%rax)
	.loc 5 12 72
	nop
	popq	%rbp
	.cfi_restore 6
	.cfi_def_cfa 7, 8
	ret
	.cfi_endproc
.LFE1545:
	.seh_endproc
	.section	.text$_ZN10BaseObjectC2Ev,"x"
	.linkonce discard
	.align 2
	.globl	_ZN10BaseObjectC2Ev
	.def	_ZN10BaseObjectC2Ev;	.scl	2;	.type	32;	.endef
	.seh_proc	_ZN10BaseObjectC2Ev
_ZN10BaseObjectC2Ev:
.LFB1556:
	.loc 3 5 7
	.cfi_startproc
	pushq	%rbp
	.seh_pushreg	%rbp
	.cfi_def_cfa_offset 16
	.cfi_offset 6, -16
	movq	%rsp, %rbp
	.seh_setframe	%rbp, 0
	.cfi_def_cfa_register 6
	.seh_endprologue
	movq	%rcx, 16(%rbp)
.LBB5:
	.loc 3 5 7
	leaq	16+_ZTV10BaseObject(%rip), %rdx
	movq	16(%rbp), %rax
	movq	%rdx, (%rax)
.LBE5:
	nop
	popq	%rbp
	.cfi_restore 6
	.cfi_def_cfa 7, 8
	ret
	.cfi_endproc
.LFE1556:
	.seh_endproc
	.section	.text$_ZN8ProjetilC1Ev,"x"
	.linkonce discard
	.align 2
	.globl	_ZN8ProjetilC1Ev
	.def	_ZN8ProjetilC1Ev;	.scl	2;	.type	32;	.endef
	.seh_proc	_ZN8ProjetilC1Ev
_ZN8ProjetilC1Ev:
.LFB1559:
	.file 6 "C:/PFC 2021/ballisticKernelCpp/CalculadorNumerico/projetil/projetil.h"
	.loc 6 13 9
	.cfi_startproc
	pushq	%rbp
	.seh_pushreg	%rbp
	.cfi_def_cfa_offset 16
	.cfi_offset 6, -16
	movq	%rsp, %rbp
	.seh_setframe	%rbp, 0
	.cfi_def_cfa_register 6
	subq	$32, %rsp
	.seh_stackalloc	32
	.seh_endprologue
	movq	%rcx, 16(%rbp)
.LBB6:
	.loc 6 13 19
	movq	16(%rbp), %rax
	movq	%rax, %rcx
	call	_ZN10BaseObjectC2Ev
	leaq	16+_ZTV8Projetil(%rip), %rdx
	movq	16(%rbp), %rax
	movq	%rdx, (%rax)
	movq	16(%rbp), %rax
	addq	$16, %rax
	movq	%rax, %rcx
	call	_ZNSt7__cxx1112basic_stringIcSt11char_traitsIcESaIcEEC1Ev
	movq	16(%rbp), %rax
	addq	$48, %rax
	movq	%rax, %rcx
	call	_ZNSt7__cxx1112basic_stringIcSt11char_traitsIcESaIcEEC1Ev
.LBE6:
	.loc 6 13 20
	nop
	addq	$32, %rsp
	popq	%rbp
	.cfi_restore 6
	.cfi_def_cfa 7, 8
	ret
	.cfi_endproc
.LFE1559:
	.seh_endproc
	.section	.text$_ZN8Projetil11getDiametroEv,"x"
	.linkonce discard
	.align 2
	.globl	_ZN8Projetil11getDiametroEv
	.def	_ZN8Projetil11getDiametroEv;	.scl	2;	.type	32;	.endef
	.seh_proc	_ZN8Projetil11getDiametroEv
_ZN8Projetil11getDiametroEv:
.LFB1562:
	.loc 6 17 16
	.cfi_startproc
	pushq	%rbp
	.seh_pushreg	%rbp
	.cfi_def_cfa_offset 16
	.cfi_offset 6, -16
	movq	%rsp, %rbp
	.seh_setframe	%rbp, 0
	.cfi_def_cfa_register 6
	.seh_endprologue
	movq	%rcx, 16(%rbp)
	.loc 6 17 37
	movq	16(%rbp), %rax
	movsd	88(%rax), %xmm0
	movq	%xmm0, %rax
	.loc 6 17 46
	movq	%rax, %xmm0
	popq	%rbp
	.cfi_restore 6
	.cfi_def_cfa 7, 8
	ret
	.cfi_endproc
.LFE1562:
	.seh_endproc
	.section	.text$_ZN8Projetil8getMassaEv,"x"
	.linkonce discard
	.align 2
	.globl	_ZN8Projetil8getMassaEv
	.def	_ZN8Projetil8getMassaEv;	.scl	2;	.type	32;	.endef
	.seh_proc	_ZN8Projetil8getMassaEv
_ZN8Projetil8getMassaEv:
.LFB1564:
	.loc 6 19 16
	.cfi_startproc
	pushq	%rbp
	.seh_pushreg	%rbp
	.cfi_def_cfa_offset 16
	.cfi_offset 6, -16
	movq	%rsp, %rbp
	.seh_setframe	%rbp, 0
	.cfi_def_cfa_register 6
	.seh_endprologue
	movq	%rcx, 16(%rbp)
	.loc 6 19 34
	movq	16(%rbp), %rax
	movsd	96(%rax), %xmm0
	movq	%xmm0, %rax
	.loc 6 19 40
	movq	%rax, %xmm0
	popq	%rbp
	.cfi_restore 6
	.cfi_def_cfa 7, 8
	ret
	.cfi_endproc
.LFE1564:
	.seh_endproc
	.section	.text$_ZN8Projetil13getMassaTotalEv,"x"
	.linkonce discard
	.align 2
	.globl	_ZN8Projetil13getMassaTotalEv
	.def	_ZN8Projetil13getMassaTotalEv;	.scl	2;	.type	32;	.endef
	.seh_proc	_ZN8Projetil13getMassaTotalEv
_ZN8Projetil13getMassaTotalEv:
.LFB1565:
	.loc 6 20 16
	.cfi_startproc
	pushq	%rbp
	.seh_pushreg	%rbp
	.cfi_def_cfa_offset 16
	.cfi_offset 6, -16
	movq	%rsp, %rbp
	.seh_setframe	%rbp, 0
	.cfi_def_cfa_register 6
	.seh_endprologue
	movq	%rcx, 16(%rbp)
	.loc 6 20 39
	movq	16(%rbp), %rax
	movsd	96(%rax), %xmm1
	.loc 6 20 48
	movq	16(%rbp), %rax
	movsd	104(%rax), %xmm0
	.loc 6 20 67
	movq	16(%rbp), %rax
	movsd	112(%rax), %xmm2
	.loc 6 20 65
	subsd	%xmm2, %xmm0
	movapd	%xmm0, %xmm2
	.loc 6 20 85
	movq	16(%rbp), %rax
	movsd	120(%rax), %xmm0
	.loc 6 20 84
	mulsd	%xmm2, %xmm0
	.loc 6 20 85
	addsd	%xmm1, %xmm0
	movq	%xmm0, %rax
	.loc 6 20 100
	movq	%rax, %xmm0
	popq	%rbp
	.cfi_restore 6
	.cfi_def_cfa 7, 8
	ret
	.cfi_endproc
.LFE1565:
	.seh_endproc
	.section	.text$_ZN8Projetil18getQuadradosPadraoEv,"x"
	.linkonce discard
	.align 2
	.globl	_ZN8Projetil18getQuadradosPadraoEv
	.def	_ZN8Projetil18getQuadradosPadraoEv;	.scl	2;	.type	32;	.endef
	.seh_proc	_ZN8Projetil18getQuadradosPadraoEv
_ZN8Projetil18getQuadradosPadraoEv:
.LFB1567:
	.loc 6 22 16
	.cfi_startproc
	pushq	%rbp
	.seh_pushreg	%rbp
	.cfi_def_cfa_offset 16
	.cfi_offset 6, -16
	movq	%rsp, %rbp
	.seh_setframe	%rbp, 0
	.cfi_def_cfa_register 6
	.seh_endprologue
	movq	%rcx, 16(%rbp)
	.loc 6 22 44
	movq	16(%rbp), %rax
	movsd	112(%rax), %xmm0
	movq	%xmm0, %rax
	.loc 6 22 61
	movq	%rax, %xmm0
	popq	%rbp
	.cfi_restore 6
	.cfi_def_cfa 7, 8
	ret
	.cfi_endproc
.LFE1567:
	.seh_endproc
	.section	.text$_ZN8Projetil18setNumeroQuadradosEd,"x"
	.linkonce discard
	.align 2
	.globl	_ZN8Projetil18setNumeroQuadradosEd
	.def	_ZN8Projetil18setNumeroQuadradosEd;	.scl	2;	.type	32;	.endef
	.seh_proc	_ZN8Projetil18setNumeroQuadradosEd
_ZN8Projetil18setNumeroQuadradosEd:
.LFB1578:
	.loc 6 34 14
	.cfi_startproc
	pushq	%rbp
	.seh_pushreg	%rbp
	.cfi_def_cfa_offset 16
	.cfi_offset 6, -16
	movq	%rsp, %rbp
	.seh_setframe	%rbp, 0
	.cfi_def_cfa_register 6
	.seh_endprologue
	movq	%rcx, 16(%rbp)
	movsd	%xmm1, 24(%rbp)
	.loc 6 34 81
	movq	16(%rbp), %rax
	movsd	24(%rbp), %xmm0
	movsd	%xmm0, 104(%rax)
	.loc 6 34 100
	nop
	popq	%rbp
	.cfi_restore 6
	.cfi_def_cfa 7, 8
	ret
	.cfi_endproc
.LFE1578:
	.seh_endproc
	.section	.text$_ZN9Atmosfera16setPesoDensidadeEP13PesoDensidade,"x"
	.linkonce discard
	.align 2
	.globl	_ZN9Atmosfera16setPesoDensidadeEP13PesoDensidade
	.def	_ZN9Atmosfera16setPesoDensidadeEP13PesoDensidade;	.scl	2;	.type	32;	.endef
	.seh_proc	_ZN9Atmosfera16setPesoDensidadeEP13PesoDensidade
_ZN9Atmosfera16setPesoDensidadeEP13PesoDensidade:
.LFB1584:
	.file 7 "C:/PFC 2021/ballisticKernelCpp/CalculadorNumerico/atmosfera/atmosfera.h"
	.loc 7 27 10
	.cfi_startproc
	pushq	%rbp
	.seh_pushreg	%rbp
	.cfi_def_cfa_offset 16
	.cfi_offset 6, -16
	movq	%rsp, %rbp
	.seh_setframe	%rbp, 0
	.cfi_def_cfa_register 6
	.seh_endprologue
	movq	%rcx, 16(%rbp)
	movq	%rdx, 24(%rbp)
	.loc 7 27 67
	movq	16(%rbp), %rax
	movq	24(%rbp), %rdx
	movq	%rdx, 8(%rax)
	.loc 7 27 78
	nop
	popq	%rbp
	.cfi_restore 6
	.cfi_def_cfa 7, 8
	ret
	.cfi_endproc
.LFE1584:
	.seh_endproc
	.section	.text$_ZN9Atmosfera18setPesoTemperaturaEP15PesoTemperatura,"x"
	.linkonce discard
	.align 2
	.globl	_ZN9Atmosfera18setPesoTemperaturaEP15PesoTemperatura
	.def	_ZN9Atmosfera18setPesoTemperaturaEP15PesoTemperatura;	.scl	2;	.type	32;	.endef
	.seh_proc	_ZN9Atmosfera18setPesoTemperaturaEP15PesoTemperatura
_ZN9Atmosfera18setPesoTemperaturaEP15PesoTemperatura:
.LFB1585:
	.loc 7 28 10
	.cfi_startproc
	pushq	%rbp
	.seh_pushreg	%rbp
	.cfi_def_cfa_offset 16
	.cfi_offset 6, -16
	movq	%rsp, %rbp
	.seh_setframe	%rbp, 0
	.cfi_def_cfa_register 6
	.seh_endprologue
	movq	%rcx, 16(%rbp)
	movq	%rdx, 24(%rbp)
	.loc 7 28 71
	movq	16(%rbp), %rax
	movq	24(%rbp), %rdx
	movq	%rdx, 16(%rax)
	.loc 7 28 82
	nop
	popq	%rbp
	.cfi_restore 6
	.cfi_def_cfa 7, 8
	ret
	.cfi_endproc
.LFE1585:
	.seh_endproc
	.section	.text$_ZN21CalculadorAtmosferico19getLimiteHorizontalEv,"x"
	.linkonce discard
	.align 2
	.globl	_ZN21CalculadorAtmosferico19getLimiteHorizontalEv
	.def	_ZN21CalculadorAtmosferico19getLimiteHorizontalEv;	.scl	2;	.type	32;	.endef
	.seh_proc	_ZN21CalculadorAtmosferico19getLimiteHorizontalEv
_ZN21CalculadorAtmosferico19getLimiteHorizontalEv:
.LFB1590:
	.file 8 "C:/PFC 2021/ballisticKernelCpp/CalculadorNumerico/calculador/calculadorAtmosferico.h"
	.loc 8 28 16
	.cfi_startproc
	pushq	%rbp
	.seh_pushreg	%rbp
	.cfi_def_cfa_offset 16
	.cfi_offset 6, -16
	movq	%rsp, %rbp
	.seh_setframe	%rbp, 0
	.cfi_def_cfa_register 6
	.seh_endprologue
	movq	%rcx, 16(%rbp)
	.loc 8 28 45
	movq	16(%rbp), %rax
	movsd	288(%rax), %xmm0
	movq	%xmm0, %rax
	.loc 8 28 62
	movq	%rax, %xmm0
	popq	%rbp
	.cfi_restore 6
	.cfi_def_cfa 7, 8
	ret
	.cfi_endproc
.LFE1590:
	.seh_endproc
	.section	.text$_ZN21CalculadorAtmosferico23isLimiteHorizontalAtivoEv,"x"
	.linkonce discard
	.align 2
	.globl	_ZN21CalculadorAtmosferico23isLimiteHorizontalAtivoEv
	.def	_ZN21CalculadorAtmosferico23isLimiteHorizontalAtivoEv;	.scl	2;	.type	32;	.endef
	.seh_proc	_ZN21CalculadorAtmosferico23isLimiteHorizontalAtivoEv
_ZN21CalculadorAtmosferico23isLimiteHorizontalAtivoEv:
.LFB1595:
	.loc 8 35 14
	.cfi_startproc
	pushq	%rbp
	.seh_pushreg	%rbp
	.cfi_def_cfa_offset 16
	.cfi_offset 6, -16
	movq	%rsp, %rbp
	.seh_setframe	%rbp, 0
	.cfi_def_cfa_register 6
	.seh_endprologue
	movq	%rcx, 16(%rbp)
	.loc 8 35 47
	movq	16(%rbp), %rax
	movzbl	296(%rax), %eax
	.loc 8 35 69
	popq	%rbp
	.cfi_restore 6
	.cfi_def_cfa 7, 8
	ret
	.cfi_endproc
.LFE1595:
	.seh_endproc
	.section	.text$_ZN10BaseObjectaSERKS_,"x"
	.linkonce discard
	.align 2
	.globl	_ZN10BaseObjectaSERKS_
	.def	_ZN10BaseObjectaSERKS_;	.scl	2;	.type	32;	.endef
	.seh_proc	_ZN10BaseObjectaSERKS_
_ZN10BaseObjectaSERKS_:
.LFB1604:
	.loc 3 5 7
	.cfi_startproc
	pushq	%rbp
	.seh_pushreg	%rbp
	.cfi_def_cfa_offset 16
	.cfi_offset 6, -16
	movq	%rsp, %rbp
	.seh_setframe	%rbp, 0
	.cfi_def_cfa_register 6
	.seh_endprologue
	movq	%rcx, 16(%rbp)
	movq	%rdx, 24(%rbp)
	.loc 3 5 7
	movq	16(%rbp), %rax
	popq	%rbp
	.cfi_restore 6
	.cfi_def_cfa 7, 8
	ret
	.cfi_endproc
.LFE1604:
	.seh_endproc
	.section	.text$_ZN16ElementosDisparoaSERKS_,"x"
	.linkonce discard
	.align 2
	.globl	_ZN16ElementosDisparoaSERKS_
	.def	_ZN16ElementosDisparoaSERKS_;	.scl	2;	.type	32;	.endef
	.seh_proc	_ZN16ElementosDisparoaSERKS_
_ZN16ElementosDisparoaSERKS_:
.LFB1603:
	.file 9 "C:/PFC 2021/ballisticKernelCpp/CalculadorNumerico/calculador/elementosdisparo.h"
	.loc 9 6 7
	.cfi_startproc
	pushq	%rbp
	.seh_pushreg	%rbp
	.cfi_def_cfa_offset 16
	.cfi_offset 6, -16
	movq	%rsp, %rbp
	.seh_setframe	%rbp, 0
	.cfi_def_cfa_register 6
	subq	$32, %rsp
	.seh_stackalloc	32
	.seh_endprologue
	movq	%rcx, 16(%rbp)
	movq	%rdx, 24(%rbp)
	.loc 9 6 7
	movq	16(%rbp), %rax
	movq	24(%rbp), %rdx
	movq	%rax, %rcx
	call	_ZN10BaseObjectaSERKS_
	movq	24(%rbp), %rax
	movzbl	8(%rax), %eax
	movq	16(%rbp), %rdx
	movb	%al, 8(%rdx)
	movq	24(%rbp), %rax
	movsd	16(%rax), %xmm0
	movq	16(%rbp), %rax
	movsd	%xmm0, 16(%rax)
	movq	24(%rbp), %rax
	movsd	24(%rax), %xmm0
	movq	16(%rbp), %rax
	movsd	%xmm0, 24(%rax)
	movq	16(%rbp), %rax
	addq	$32, %rsp
	popq	%rbp
	.cfi_restore 6
	.cfi_def_cfa 7, 8
	ret
	.cfi_endproc
.LFE1603:
	.seh_endproc
	.section	.text$_ZN20ExceptionConvergenceC1E16ElementosDisparo,"x"
	.linkonce discard
	.align 2
	.globl	_ZN20ExceptionConvergenceC1E16ElementosDisparo
	.def	_ZN20ExceptionConvergenceC1E16ElementosDisparo;	.scl	2;	.type	32;	.endef
	.seh_proc	_ZN20ExceptionConvergenceC1E16ElementosDisparo
_ZN20ExceptionConvergenceC1E16ElementosDisparo:
.LFB1606:
	.file 10 "C:/PFC 2021/ballisticKernelCpp/CalculadorNumerico/excecoes/ExceptionConvergence.h"
	.loc 10 11 9
	.cfi_startproc
	pushq	%rbp
	.seh_pushreg	%rbp
	.cfi_def_cfa_offset 16
	.cfi_offset 6, -16
	pushq	%rbx
	.seh_pushreg	%rbx
	.cfi_def_cfa_offset 24
	.cfi_offset 3, -24
	subq	$40, %rsp
	.seh_stackalloc	40
	.cfi_def_cfa_offset 64
	leaq	128(%rsp), %rbp
	.seh_setframe	%rbp, 128
	.cfi_def_cfa 6, -64
	.seh_endprologue
	movq	%rcx, -64(%rbp)
	movq	%rdx, -56(%rbp)
.LBB7:
	.loc 10 11 57
	movq	-64(%rbp), %rax
	movq	%rax, %rcx
	call	_ZNSt9exceptionC2Ev
	leaq	16+_ZTV20ExceptionConvergence(%rip), %rdx
	movq	-64(%rbp), %rax
	movq	%rdx, (%rax)
	movq	-64(%rbp), %rax
	addq	$8, %rax
	movq	%rax, %rcx
.LEHB0:
	call	_ZN16ElementosDisparoC1Ev
.LEHE0:
	.loc 10 11 77 discriminator 2
	movq	-64(%rbp), %rax
	addq	$8, %rax
	movq	-56(%rbp), %rdx
	movq	%rax, %rcx
	call	_ZN16ElementosDisparoaSERKS_
.LBE7:
	.loc 10 11 87 discriminator 2
	jmp	.L34
.L33:
	movq	%rax, %rbx
.LBB8:
	.loc 10 11 57
	movq	-64(%rbp), %rax
	movq	%rax, %rcx
	call	_ZNSt9exceptionD2Ev
	movq	%rbx, %rax
	movq	%rax, %rcx
.LEHB1:
	call	_Unwind_Resume
	nop
.LEHE1:
.L34:
.LBE8:
	.loc 10 11 87
	addq	$40, %rsp
	popq	%rbx
	.cfi_restore 3
	popq	%rbp
	.cfi_restore 6
	.cfi_def_cfa 7, -24
	ret
	.cfi_endproc
.LFE1606:
	.def	__gxx_personality_seh0;	.scl	2;	.type	32;	.endef
	.seh_handler	__gxx_personality_seh0, @unwind, @except
	.seh_handlerdata
.LLSDA1606:
	.byte	0xff
	.byte	0xff
	.byte	0x1
	.uleb128 .LLSDACSE1606-.LLSDACSB1606
.LLSDACSB1606:
	.uleb128 .LEHB0-.LFB1606
	.uleb128 .LEHE0-.LEHB0
	.uleb128 .L33-.LFB1606
	.uleb128 0
	.uleb128 .LEHB1-.LFB1606
	.uleb128 .LEHE1-.LEHB1
	.uleb128 0
	.uleb128 0
.LLSDACSE1606:
	.section	.text$_ZN20ExceptionConvergenceC1E16ElementosDisparo,"x"
	.linkonce discard
	.seh_endproc
	.section .rdata,"dr"
	.align 8
.LC0:
	.ascii "Nao convergiu para alcance desejado.\0"
	.section	.text$_ZNK20ExceptionConvergence4whatEv,"x"
	.linkonce discard
	.align 2
	.globl	_ZNK20ExceptionConvergence4whatEv
	.def	_ZNK20ExceptionConvergence4whatEv;	.scl	2;	.type	32;	.endef
	.seh_proc	_ZNK20ExceptionConvergence4whatEv
_ZNK20ExceptionConvergence4whatEv:
.LFB1607:
	.loc 10 12 22
	.cfi_startproc
	pushq	%rbp
	.seh_pushreg	%rbp
	.cfi_def_cfa_offset 16
	.cfi_offset 6, -16
	movq	%rsp, %rbp
	.seh_setframe	%rbp, 0
	.cfi_def_cfa_register 6
	.seh_endprologue
	movq	%rcx, 16(%rbp)
	.loc 10 14 20
	leaq	.LC0(%rip), %rax
	.loc 10 15 9
	popq	%rbp
	.cfi_restore 6
	.cfi_def_cfa 7, 8
	ret
	.cfi_endproc
.LFE1607:
	.seh_endproc
	.section	.text$_ZN10BaseObjectC2ERKS_,"x"
	.linkonce discard
	.align 2
	.globl	_ZN10BaseObjectC2ERKS_
	.def	_ZN10BaseObjectC2ERKS_;	.scl	2;	.type	32;	.endef
	.seh_proc	_ZN10BaseObjectC2ERKS_
_ZN10BaseObjectC2ERKS_:
.LFB1611:
	.loc 3 5 7
	.cfi_startproc
	pushq	%rbp
	.seh_pushreg	%rbp
	.cfi_def_cfa_offset 16
	.cfi_offset 6, -16
	movq	%rsp, %rbp
	.seh_setframe	%rbp, 0
	.cfi_def_cfa_register 6
	.seh_endprologue
	movq	%rcx, 16(%rbp)
	movq	%rdx, 24(%rbp)
.LBB9:
	.loc 3 5 7
	leaq	16+_ZTV10BaseObject(%rip), %rdx
	movq	16(%rbp), %rax
	movq	%rdx, (%rax)
.LBE9:
	nop
	popq	%rbp
	.cfi_restore 6
	.cfi_def_cfa 7, 8
	ret
	.cfi_endproc
.LFE1611:
	.seh_endproc
	.section	.text$_ZN16ElementosDisparoC1ERKS_,"x"
	.linkonce discard
	.align 2
	.globl	_ZN16ElementosDisparoC1ERKS_
	.def	_ZN16ElementosDisparoC1ERKS_;	.scl	2;	.type	32;	.endef
	.seh_proc	_ZN16ElementosDisparoC1ERKS_
_ZN16ElementosDisparoC1ERKS_:
.LFB1614:
	.loc 9 6 7
	.cfi_startproc
	pushq	%rbp
	.seh_pushreg	%rbp
	.cfi_def_cfa_offset 16
	.cfi_offset 6, -16
	movq	%rsp, %rbp
	.seh_setframe	%rbp, 0
	.cfi_def_cfa_register 6
	subq	$32, %rsp
	.seh_stackalloc	32
	.seh_endprologue
	movq	%rcx, 16(%rbp)
	movq	%rdx, 24(%rbp)
.LBB10:
	.loc 9 6 7
	movq	16(%rbp), %rax
	movq	24(%rbp), %rdx
	movq	%rax, %rcx
	call	_ZN10BaseObjectC2ERKS_
	leaq	16+_ZTV16ElementosDisparo(%rip), %rdx
	movq	16(%rbp), %rax
	movq	%rdx, (%rax)
	movq	24(%rbp), %rax
	movzbl	8(%rax), %eax
	movq	16(%rbp), %rdx
	movb	%al, 8(%rdx)
	movq	24(%rbp), %rax
	movsd	16(%rax), %xmm0
	movq	16(%rbp), %rax
	movsd	%xmm0, 16(%rax)
	movq	24(%rbp), %rax
	movsd	24(%rax), %xmm0
	movq	16(%rbp), %rax
	movsd	%xmm0, 24(%rax)
.LBE10:
	nop
	addq	$32, %rsp
	popq	%rbp
	.cfi_restore 6
	.cfi_def_cfa 7, 8
	ret
	.cfi_endproc
.LFE1614:
	.seh_endproc
	.section	.text$_ZN25ExceptionQuasiConvergenceC1E16ElementosDisparo,"x"
	.linkonce discard
	.align 2
	.globl	_ZN25ExceptionQuasiConvergenceC1E16ElementosDisparo
	.def	_ZN25ExceptionQuasiConvergenceC1E16ElementosDisparo;	.scl	2;	.type	32;	.endef
	.seh_proc	_ZN25ExceptionQuasiConvergenceC1E16ElementosDisparo
_ZN25ExceptionQuasiConvergenceC1E16ElementosDisparo:
.LFB1617:
	.file 11 "C:/PFC 2021/ballisticKernelCpp/CalculadorNumerico/excecoes/ExceptionQuasiConvergence.h"
	.loc 11 11 9
	.cfi_startproc
	pushq	%rbp
	.seh_pushreg	%rbp
	.cfi_def_cfa_offset 16
	.cfi_offset 6, -16
	pushq	%rbx
	.seh_pushreg	%rbx
	.cfi_def_cfa_offset 24
	.cfi_offset 3, -24
	subq	$40, %rsp
	.seh_stackalloc	40
	.cfi_def_cfa_offset 64
	leaq	128(%rsp), %rbp
	.seh_setframe	%rbp, 128
	.cfi_def_cfa 6, -64
	.seh_endprologue
	movq	%rcx, -64(%rbp)
	movq	%rdx, -56(%rbp)
.LBB11:
	.loc 11 11 62
	movq	-64(%rbp), %rax
	movq	%rax, %rcx
	call	_ZNSt9exceptionC2Ev
	leaq	16+_ZTV25ExceptionQuasiConvergence(%rip), %rdx
	movq	-64(%rbp), %rax
	movq	%rdx, (%rax)
	movq	-64(%rbp), %rax
	addq	$8, %rax
	movq	%rax, %rcx
.LEHB2:
	call	_ZN16ElementosDisparoC1Ev
.LEHE2:
	.loc 11 11 82 discriminator 2
	movq	-64(%rbp), %rax
	addq	$8, %rax
	movq	-56(%rbp), %rdx
	movq	%rax, %rcx
	call	_ZN16ElementosDisparoaSERKS_
.LBE11:
	.loc 11 11 92 discriminator 2
	jmp	.L42
.L41:
	movq	%rax, %rbx
.LBB12:
	.loc 11 11 62
	movq	-64(%rbp), %rax
	movq	%rax, %rcx
	call	_ZNSt9exceptionD2Ev
	movq	%rbx, %rax
	movq	%rax, %rcx
.LEHB3:
	call	_Unwind_Resume
	nop
.LEHE3:
.L42:
.LBE12:
	.loc 11 11 92
	addq	$40, %rsp
	popq	%rbx
	.cfi_restore 3
	popq	%rbp
	.cfi_restore 6
	.cfi_def_cfa 7, -24
	ret
	.cfi_endproc
.LFE1617:
	.seh_handler	__gxx_personality_seh0, @unwind, @except
	.seh_handlerdata
.LLSDA1617:
	.byte	0xff
	.byte	0xff
	.byte	0x1
	.uleb128 .LLSDACSE1617-.LLSDACSB1617
.LLSDACSB1617:
	.uleb128 .LEHB2-.LFB1617
	.uleb128 .LEHE2-.LEHB2
	.uleb128 .L41-.LFB1617
	.uleb128 0
	.uleb128 .LEHB3-.LFB1617
	.uleb128 .LEHE3-.LEHB3
	.uleb128 0
	.uleb128 0
.LLSDACSE1617:
	.section	.text$_ZN25ExceptionQuasiConvergenceC1E16ElementosDisparo,"x"
	.linkonce discard
	.seh_endproc
	.section .rdata,"dr"
	.align 8
.LC1:
	.ascii "Quase convergiu para alcance desejado.\0"
	.section	.text$_ZNK25ExceptionQuasiConvergence4whatEv,"x"
	.linkonce discard
	.align 2
	.globl	_ZNK25ExceptionQuasiConvergence4whatEv
	.def	_ZNK25ExceptionQuasiConvergence4whatEv;	.scl	2;	.type	32;	.endef
	.seh_proc	_ZNK25ExceptionQuasiConvergence4whatEv
_ZNK25ExceptionQuasiConvergence4whatEv:
.LFB1618:
	.loc 11 12 22
	.cfi_startproc
	pushq	%rbp
	.seh_pushreg	%rbp
	.cfi_def_cfa_offset 16
	.cfi_offset 6, -16
	movq	%rsp, %rbp
	.seh_setframe	%rbp, 0
	.cfi_def_cfa_register 6
	.seh_endprologue
	movq	%rcx, 16(%rbp)
	.loc 11 14 20
	leaq	.LC1(%rip), %rax
	.loc 11 15 9
	popq	%rbp
	.cfi_restore 6
	.cfi_def_cfa 7, 8
	ret
	.cfi_endproc
.LFE1618:
	.seh_endproc
	.section	.text$_ZN18ExceptionYawReposeC1E16ElementosDisparo,"x"
	.linkonce discard
	.align 2
	.globl	_ZN18ExceptionYawReposeC1E16ElementosDisparo
	.def	_ZN18ExceptionYawReposeC1E16ElementosDisparo;	.scl	2;	.type	32;	.endef
	.seh_proc	_ZN18ExceptionYawReposeC1E16ElementosDisparo
_ZN18ExceptionYawReposeC1E16ElementosDisparo:
.LFB1622:
	.file 12 "C:/PFC 2021/ballisticKernelCpp/CalculadorNumerico/excecoes/ExceptionYawRepose.h"
	.loc 12 11 9
	.cfi_startproc
	pushq	%rbp
	.seh_pushreg	%rbp
	.cfi_def_cfa_offset 16
	.cfi_offset 6, -16
	pushq	%rbx
	.seh_pushreg	%rbx
	.cfi_def_cfa_offset 24
	.cfi_offset 3, -24
	subq	$40, %rsp
	.seh_stackalloc	40
	.cfi_def_cfa_offset 64
	leaq	128(%rsp), %rbp
	.seh_setframe	%rbp, 128
	.cfi_def_cfa 6, -64
	.seh_endprologue
	movq	%rcx, -64(%rbp)
	movq	%rdx, -56(%rbp)
.LBB13:
	.loc 12 11 55
	movq	-64(%rbp), %rax
	movq	%rax, %rcx
	call	_ZNSt9exceptionC2Ev
	leaq	16+_ZTV18ExceptionYawRepose(%rip), %rdx
	movq	-64(%rbp), %rax
	movq	%rdx, (%rax)
	movq	-64(%rbp), %rax
	addq	$8, %rax
	movq	%rax, %rcx
.LEHB4:
	call	_ZN16ElementosDisparoC1Ev
.LEHE4:
	.loc 12 11 75 discriminator 2
	movq	-64(%rbp), %rax
	addq	$8, %rax
	movq	-56(%rbp), %rdx
	movq	%rax, %rcx
	call	_ZN16ElementosDisparoaSERKS_
.LBE13:
	.loc 12 11 85 discriminator 2
	jmp	.L48
.L47:
	movq	%rax, %rbx
.LBB14:
	.loc 12 11 55
	movq	-64(%rbp), %rax
	movq	%rax, %rcx
	call	_ZNSt9exceptionD2Ev
	movq	%rbx, %rax
	movq	%rax, %rcx
.LEHB5:
	call	_Unwind_Resume
	nop
.LEHE5:
.L48:
.LBE14:
	.loc 12 11 85
	addq	$40, %rsp
	popq	%rbx
	.cfi_restore 3
	popq	%rbp
	.cfi_restore 6
	.cfi_def_cfa 7, -24
	ret
	.cfi_endproc
.LFE1622:
	.seh_handler	__gxx_personality_seh0, @unwind, @except
	.seh_handlerdata
.LLSDA1622:
	.byte	0xff
	.byte	0xff
	.byte	0x1
	.uleb128 .LLSDACSE1622-.LLSDACSB1622
.LLSDACSB1622:
	.uleb128 .LEHB4-.LFB1622
	.uleb128 .LEHE4-.LEHB4
	.uleb128 .L47-.LFB1622
	.uleb128 0
	.uleb128 .LEHB5-.LFB1622
	.uleb128 .LEHE5-.LEHB5
	.uleb128 0
	.uleb128 0
.LLSDACSE1622:
	.section	.text$_ZN18ExceptionYawReposeC1E16ElementosDisparo,"x"
	.linkonce discard
	.seh_endproc
	.section	.text$_ZNK18ExceptionYawRepose4whatEv,"x"
	.linkonce discard
	.align 2
	.globl	_ZNK18ExceptionYawRepose4whatEv
	.def	_ZNK18ExceptionYawRepose4whatEv;	.scl	2;	.type	32;	.endef
	.seh_proc	_ZNK18ExceptionYawRepose4whatEv
_ZNK18ExceptionYawRepose4whatEv:
.LFB1623:
	.loc 12 12 22
	.cfi_startproc
	pushq	%rbp
	.seh_pushreg	%rbp
	.cfi_def_cfa_offset 16
	.cfi_offset 6, -16
	movq	%rsp, %rbp
	.seh_setframe	%rbp, 0
	.cfi_def_cfa_register 6
	.seh_endprologue
	movq	%rcx, 16(%rbp)
	.loc 12 14 20
	leaq	.LC0(%rip), %rax
	.loc 12 15 9
	popq	%rbp
	.cfi_restore 6
	.cfi_def_cfa 7, 8
	ret
	.cfi_endproc
.LFE1623:
	.seh_endproc
	.section	.text$_ZN19ExceptionOutOfBoundC1E16ElementosDisparo,"x"
	.linkonce discard
	.align 2
	.globl	_ZN19ExceptionOutOfBoundC1E16ElementosDisparo
	.def	_ZN19ExceptionOutOfBoundC1E16ElementosDisparo;	.scl	2;	.type	32;	.endef
	.seh_proc	_ZN19ExceptionOutOfBoundC1E16ElementosDisparo
_ZN19ExceptionOutOfBoundC1E16ElementosDisparo:
.LFB1627:
	.file 13 "C:/PFC 2021/ballisticKernelCpp/CalculadorNumerico/excecoes/ExceptionOutOfBound.h"
	.loc 13 12 9
	.cfi_startproc
	pushq	%rbp
	.seh_pushreg	%rbp
	.cfi_def_cfa_offset 16
	.cfi_offset 6, -16
	pushq	%rbx
	.seh_pushreg	%rbx
	.cfi_def_cfa_offset 24
	.cfi_offset 3, -24
	subq	$40, %rsp
	.seh_stackalloc	40
	.cfi_def_cfa_offset 64
	leaq	128(%rsp), %rbp
	.seh_setframe	%rbp, 128
	.cfi_def_cfa 6, -64
	.seh_endprologue
	movq	%rcx, -64(%rbp)
	movq	%rdx, -56(%rbp)
.LBB15:
	.loc 13 12 56
	movq	-64(%rbp), %rax
	movq	%rax, %rcx
	call	_ZNSt9exceptionC2Ev
	leaq	16+_ZTV19ExceptionOutOfBound(%rip), %rdx
	movq	-64(%rbp), %rax
	movq	%rdx, (%rax)
	movq	-64(%rbp), %rax
	addq	$8, %rax
	movq	%rax, %rcx
.LEHB6:
	call	_ZN16ElementosDisparoC1Ev
.LEHE6:
	.loc 13 12 76 discriminator 2
	movq	-64(%rbp), %rax
	addq	$8, %rax
	movq	-56(%rbp), %rdx
	movq	%rax, %rcx
	call	_ZN16ElementosDisparoaSERKS_
.LBE15:
	.loc 13 12 86 discriminator 2
	jmp	.L54
.L53:
	movq	%rax, %rbx
.LBB16:
	.loc 13 12 56
	movq	-64(%rbp), %rax
	movq	%rax, %rcx
	call	_ZNSt9exceptionD2Ev
	movq	%rbx, %rax
	movq	%rax, %rcx
.LEHB7:
	call	_Unwind_Resume
	nop
.LEHE7:
.L54:
.LBE16:
	.loc 13 12 86
	addq	$40, %rsp
	popq	%rbx
	.cfi_restore 3
	popq	%rbp
	.cfi_restore 6
	.cfi_def_cfa 7, -24
	ret
	.cfi_endproc
.LFE1627:
	.seh_handler	__gxx_personality_seh0, @unwind, @except
	.seh_handlerdata
.LLSDA1627:
	.byte	0xff
	.byte	0xff
	.byte	0x1
	.uleb128 .LLSDACSE1627-.LLSDACSB1627
.LLSDACSB1627:
	.uleb128 .LEHB6-.LFB1627
	.uleb128 .LEHE6-.LEHB6
	.uleb128 .L53-.LFB1627
	.uleb128 0
	.uleb128 .LEHB7-.LFB1627
	.uleb128 .LEHE7-.LEHB7
	.uleb128 0
	.uleb128 0
.LLSDACSE1627:
	.section	.text$_ZN19ExceptionOutOfBoundC1E16ElementosDisparo,"x"
	.linkonce discard
	.seh_endproc
	.section .rdata,"dr"
.LC2:
	.ascii "Fora do alcance possivel.\0"
	.section	.text$_ZNK19ExceptionOutOfBound4whatEv,"x"
	.linkonce discard
	.align 2
	.globl	_ZNK19ExceptionOutOfBound4whatEv
	.def	_ZNK19ExceptionOutOfBound4whatEv;	.scl	2;	.type	32;	.endef
	.seh_proc	_ZNK19ExceptionOutOfBound4whatEv
_ZNK19ExceptionOutOfBound4whatEv:
.LFB1628:
	.loc 13 13 22
	.cfi_startproc
	pushq	%rbp
	.seh_pushreg	%rbp
	.cfi_def_cfa_offset 16
	.cfi_offset 6, -16
	movq	%rsp, %rbp
	.seh_setframe	%rbp, 0
	.cfi_def_cfa_register 6
	.seh_endprologue
	movq	%rcx, 16(%rbp)
	.loc 13 15 20
	leaq	.LC2(%rip), %rax
	.loc 13 16 9
	popq	%rbp
	.cfi_restore 6
	.cfi_def_cfa 7, 8
	ret
	.cfi_endproc
.LFE1628:
	.seh_endproc
	.section	.text$_ZN19ExceptionTrajectoryC1E16ElementosDisparo,"x"
	.linkonce discard
	.align 2
	.globl	_ZN19ExceptionTrajectoryC1E16ElementosDisparo
	.def	_ZN19ExceptionTrajectoryC1E16ElementosDisparo;	.scl	2;	.type	32;	.endef
	.seh_proc	_ZN19ExceptionTrajectoryC1E16ElementosDisparo
_ZN19ExceptionTrajectoryC1E16ElementosDisparo:
.LFB1632:
	.file 14 "C:/PFC 2021/ballisticKernelCpp/CalculadorNumerico/excecoes/ExceptionTrajectory.h"
	.loc 14 10 9
	.cfi_startproc
	pushq	%rbp
	.seh_pushreg	%rbp
	.cfi_def_cfa_offset 16
	.cfi_offset 6, -16
	pushq	%rbx
	.seh_pushreg	%rbx
	.cfi_def_cfa_offset 24
	.cfi_offset 3, -24
	subq	$40, %rsp
	.seh_stackalloc	40
	.cfi_def_cfa_offset 64
	leaq	128(%rsp), %rbp
	.seh_setframe	%rbp, 128
	.cfi_def_cfa 6, -64
	.seh_endprologue
	movq	%rcx, -64(%rbp)
	movq	%rdx, -56(%rbp)
.LBB17:
	.loc 14 10 56
	movq	-64(%rbp), %rax
	movq	%rax, %rcx
	call	_ZNSt9exceptionC2Ev
	leaq	16+_ZTV19ExceptionTrajectory(%rip), %rdx
	movq	-64(%rbp), %rax
	movq	%rdx, (%rax)
	movq	-64(%rbp), %rax
	addq	$8, %rax
	movq	%rax, %rcx
.LEHB8:
	call	_ZN16ElementosDisparoC1Ev
.LEHE8:
	.loc 14 10 76 discriminator 2
	movq	-64(%rbp), %rax
	addq	$8, %rax
	movq	-56(%rbp), %rdx
	movq	%rax, %rcx
	call	_ZN16ElementosDisparoaSERKS_
.LBE17:
	.loc 14 10 86 discriminator 2
	jmp	.L60
.L59:
	movq	%rax, %rbx
.LBB18:
	.loc 14 10 56
	movq	-64(%rbp), %rax
	movq	%rax, %rcx
	call	_ZNSt9exceptionD2Ev
	movq	%rbx, %rax
	movq	%rax, %rcx
.LEHB9:
	call	_Unwind_Resume
	nop
.LEHE9:
.L60:
.LBE18:
	.loc 14 10 86
	addq	$40, %rsp
	popq	%rbx
	.cfi_restore 3
	popq	%rbp
	.cfi_restore 6
	.cfi_def_cfa 7, -24
	ret
	.cfi_endproc
.LFE1632:
	.seh_handler	__gxx_personality_seh0, @unwind, @except
	.seh_handlerdata
.LLSDA1632:
	.byte	0xff
	.byte	0xff
	.byte	0x1
	.uleb128 .LLSDACSE1632-.LLSDACSB1632
.LLSDACSB1632:
	.uleb128 .LEHB8-.LFB1632
	.uleb128 .LEHE8-.LEHB8
	.uleb128 .L59-.LFB1632
	.uleb128 0
	.uleb128 .LEHB9-.LFB1632
	.uleb128 .LEHE9-.LEHB9
	.uleb128 0
	.uleb128 0
.LLSDACSE1632:
	.section	.text$_ZN19ExceptionTrajectoryC1E16ElementosDisparo,"x"
	.linkonce discard
	.seh_endproc
	.section .rdata,"dr"
	.align 8
.LC3:
	.ascii "Extrapolou a elevacao limite da trajtoria.\0"
	.section	.text$_ZNK19ExceptionTrajectory4whatEv,"x"
	.linkonce discard
	.align 2
	.globl	_ZNK19ExceptionTrajectory4whatEv
	.def	_ZNK19ExceptionTrajectory4whatEv;	.scl	2;	.type	32;	.endef
	.seh_proc	_ZNK19ExceptionTrajectory4whatEv
_ZNK19ExceptionTrajectory4whatEv:
.LFB1633:
	.loc 14 11 22
	.cfi_startproc
	pushq	%rbp
	.seh_pushreg	%rbp
	.cfi_def_cfa_offset 16
	.cfi_offset 6, -16
	movq	%rsp, %rbp
	.seh_setframe	%rbp, 0
	.cfi_def_cfa_register 6
	.seh_endprologue
	movq	%rcx, 16(%rbp)
	.loc 14 13 20
	leaq	.LC3(%rip), %rax
	.loc 14 14 9
	popq	%rbp
	.cfi_restore 6
	.cfi_def_cfa 7, 8
	ret
	.cfi_endproc
.LFE1633:
	.seh_endproc
	.section .rdata,"dr"
_ZStL13allocator_arg:
	.space 1
_ZStL6ignore:
	.space 1
	.section	.text$_ZN7MathArt5arredEd,"x"
	.linkonce discard
	.globl	_ZN7MathArt5arredEd
	.def	_ZN7MathArt5arredEd;	.scl	2;	.type	32;	.endef
	.seh_proc	_ZN7MathArt5arredEd
_ZN7MathArt5arredEd:
.LFB2664:
	.file 15 "projetil/../../MathArt/mathart.h"
	.loc 15 27 16
	.cfi_startproc
	pushq	%rbp
	.seh_pushreg	%rbp
	.cfi_def_cfa_offset 16
	.cfi_offset 6, -16
	movq	%rsp, %rbp
	.seh_setframe	%rbp, 0
	.cfi_def_cfa_register 6
	subq	$32, %rsp
	.seh_stackalloc	32
	.seh_endprologue
	movsd	%xmm0, 16(%rbp)
	.loc 15 30 26
	movsd	16(%rbp), %xmm0
	call	floor
	movapd	%xmm0, %xmm1
	.loc 15 30 19
	movsd	16(%rbp), %xmm0
	subsd	%xmm1, %xmm0
	.loc 15 30 34
	movsd	.LC4(%rip), %xmm1
	subsd	%xmm1, %xmm0
	.loc 15 30 9
	pxor	%xmm1, %xmm1
	comisd	%xmm1, %xmm0
	jbe	.L68
	.loc 15 31 28
	movsd	16(%rbp), %xmm0
	call	ceil
	.loc 15 31 35
	cvttsd2si	%xmm0, %eax
	jmp	.L66
.L68:
	.loc 15 33 29
	movsd	16(%rbp), %xmm0
	call	floor
	.loc 15 33 36
	cvttsd2si	%xmm0, %eax
.L66:
	.loc 15 34 5
	addq	$32, %rsp
	popq	%rbp
	.cfi_restore 6
	.cfi_def_cfa 7, 8
	ret
	.cfi_endproc
.LFE2664:
	.seh_endproc
	.text
	.align 2
	.globl	_ZN21CalculadorAtmosfericoC2Ev
	.def	_ZN21CalculadorAtmosfericoC2Ev;	.scl	2;	.type	32;	.endef
	.seh_proc	_ZN21CalculadorAtmosfericoC2Ev
_ZN21CalculadorAtmosfericoC2Ev:
.LFB2671:
	.file 16 "C:/PFC 2021/ballisticKernelCpp/CalculadorNumerico/calculador/calculadorAtmosferico.cpp"
	.loc 16 16 1
	.cfi_startproc
	pushq	%rbp
	.seh_pushreg	%rbp
	.cfi_def_cfa_offset 16
	.cfi_offset 6, -16
	pushq	%rsi
	.seh_pushreg	%rsi
	.cfi_def_cfa_offset 24
	.cfi_offset 4, -24
	pushq	%rbx
	.seh_pushreg	%rbx
	.cfi_def_cfa_offset 32
	.cfi_offset 3, -32
	movq	%rsp, %rbp
	.seh_setframe	%rbp, 0
	.cfi_def_cfa_register 6
	subq	$32, %rsp
	.seh_stackalloc	32
	.seh_endprologue
	movq	%rcx, 32(%rbp)
.LBB19:
	.loc 16 16 46
	movq	32(%rbp), %rax
	movq	%rax, %rcx
.LEHB10:
	call	_ZN10CalculadorC2Ev
.LEHE10:
	leaq	16+_ZTV21CalculadorAtmosferico(%rip), %rdx
	movq	32(%rbp), %rax
	movq	%rdx, (%rax)
	movq	32(%rbp), %rax
	addq	$96, %rax
	movq	%rax, %rcx
	call	_ZN8ProjetilC1Ev
	movq	32(%rbp), %rax
	movsd	.LC6(%rip), %xmm0
	movsd	%xmm0, 248(%rax)
	movq	32(%rbp), %rax
	addq	$304, %rax
	movq	%rax, %rcx
	call	_ZNSt6vectorI12ElementosVooSaIS0_EEC1Ev
	.loc 16 19 31
	movl	$24, %ecx
.LEHB11:
	call	_Znwy
.LEHE11:
	movq	%rax, %rbx
	movq	%rbx, %rcx
.LEHB12:
	call	_ZN13AtmosferaIcaoC1Ev
.LEHE12:
	.loc 16 19 11
	movq	32(%rbp), %rax
	movq	%rbx, 232(%rax)
	.loc 16 20 14
	movq	32(%rbp), %rax
	pxor	%xmm0, %xmm0
	movsd	%xmm0, 80(%rax)
	.loc 16 21 16
	movq	32(%rbp), %rax
	pxor	%xmm0, %xmm0
	movsd	%xmm0, 280(%rax)
	.loc 16 22 23
	movq	32(%rbp), %rax
	movsd	.LC7(%rip), %xmm0
	movsd	%xmm0, 272(%rax)
	.loc 16 23 34
	movq	32(%rbp), %rax
	movsd	248(%rax), %xmm0
	.loc 16 23 42
	movsd	.LC8(%rip), %xmm1
	divsd	%xmm1, %xmm0
	movapd	%xmm0, %xmm1
	.loc 16 23 32
	movsd	.LC9(%rip), %xmm0
	mulsd	%xmm0, %xmm1
	.loc 16 23 47
	movq	32(%rbp), %rax
	movsd	248(%rax), %xmm0
	.loc 16 23 55
	movsd	.LC8(%rip), %xmm2
	divsd	%xmm2, %xmm0
	.loc 16 23 45
	mulsd	%xmm1, %xmm0
	.loc 16 23 7
	movq	32(%rbp), %rax
	movsd	%xmm0, 256(%rax)
	.loc 16 24 22
	movq	32(%rbp), %rax
	movb	$0, 76(%rax)
	.loc 16 25 14
	movq	32(%rbp), %rax
	movb	$0, 297(%rax)
	.loc 16 26 11
	movq	32(%rbp), %rax
	movq	$0, 224(%rax)
	.loc 16 27 18
	movq	32(%rbp), %rax
	movb	$1, 298(%rax)
.LBE19:
	.loc 16 29 1
	jmp	.L74
.L73:
	movq	%rax, %rsi
.LBB20:
	.loc 16 19 31
	movq	%rbx, %rcx
	call	_ZdlPv
	movq	%rsi, %rbx
	jmp	.L71
.L72:
	movq	%rax, %rbx
.L71:
	.loc 16 16 46
	movq	32(%rbp), %rax
	addq	$304, %rax
	movq	%rax, %rcx
	call	_ZNSt6vectorI12ElementosVooSaIS0_EED1Ev
	movq	32(%rbp), %rax
	addq	$96, %rax
	movq	%rax, %rcx
	call	_ZN8ProjetilD1Ev
	movq	32(%rbp), %rax
	movq	%rax, %rcx
	call	_ZN10CalculadorD2Ev
	movq	%rbx, %rax
	movq	%rax, %rcx
.LEHB13:
	call	_Unwind_Resume
	nop
.LEHE13:
.L74:
.LBE20:
	.loc 16 29 1
	addq	$32, %rsp
	popq	%rbx
	.cfi_restore 3
	popq	%rsi
	.cfi_restore 4
	popq	%rbp
	.cfi_restore 6
	.cfi_def_cfa 7, 24
	ret
	.cfi_endproc
.LFE2671:
	.seh_handler	__gxx_personality_seh0, @unwind, @except
	.seh_handlerdata
.LLSDA2671:
	.byte	0xff
	.byte	0xff
	.byte	0x1
	.uleb128 .LLSDACSE2671-.LLSDACSB2671
.LLSDACSB2671:
	.uleb128 .LEHB10-.LFB2671
	.uleb128 .LEHE10-.LEHB10
	.uleb128 0
	.uleb128 0
	.uleb128 .LEHB11-.LFB2671
	.uleb128 .LEHE11-.LEHB11
	.uleb128 .L72-.LFB2671
	.uleb128 0
	.uleb128 .LEHB12-.LFB2671
	.uleb128 .LEHE12-.LEHB12
	.uleb128 .L73-.LFB2671
	.uleb128 0
	.uleb128 .LEHB13-.LFB2671
	.uleb128 .LEHE13-.LEHB13
	.uleb128 0
	.uleb128 0
.LLSDACSE2671:
	.text
	.seh_endproc
	.globl	_ZN21CalculadorAtmosfericoC1Ev
	.def	_ZN21CalculadorAtmosfericoC1Ev;	.scl	2;	.type	32;	.endef
	.set	_ZN21CalculadorAtmosfericoC1Ev,_ZN21CalculadorAtmosfericoC2Ev
	.align 2
	.globl	_ZN21CalculadorAtmosferico18filtroDeltaAngularEd
	.def	_ZN21CalculadorAtmosferico18filtroDeltaAngularEd;	.scl	2;	.type	32;	.endef
	.seh_proc	_ZN21CalculadorAtmosferico18filtroDeltaAngularEd
_ZN21CalculadorAtmosferico18filtroDeltaAngularEd:
.LFB2673:
	.loc 16 36 1
	.cfi_startproc
	pushq	%rbp
	.seh_pushreg	%rbp
	.cfi_def_cfa_offset 16
	.cfi_offset 6, -16
	movq	%rsp, %rbp
	.seh_setframe	%rbp, 0
	.cfi_def_cfa_register 6
	.seh_endprologue
	movq	%rcx, 16(%rbp)
	movsd	%xmm1, 24(%rbp)
	.loc 16 37 13
	movsd	24(%rbp), %xmm0
	movq	.LC10(%rip), %xmm1
	andpd	%xmm1, %xmm0
	.loc 16 37 5
	comisd	.LC11(%rip), %xmm0
	jbe	.L105
	.loc 16 39 8
	movsd	24(%rbp), %xmm0
	pxor	%xmm1, %xmm1
	comisd	%xmm1, %xmm0
	jbe	.L106
	.loc 16 40 18
	movsd	.LC11(%rip), %xmm0
	movsd	%xmm0, 24(%rbp)
	jmp	.L81
.L106:
	.loc 16 42 19
	movsd	.LC12(%rip), %xmm0
	movsd	%xmm0, 24(%rbp)
	jmp	.L81
.L105:
	.loc 16 46 16
	movsd	24(%rbp), %xmm0
	movq	.LC10(%rip), %xmm1
	andpd	%xmm1, %xmm0
	.loc 16 46 9
	movsd	.LC13(%rip), %xmm1
	comisd	%xmm1, %xmm0
	jbe	.L107
	.loc 16 48 13
	movsd	24(%rbp), %xmm0
	pxor	%xmm1, %xmm1
	comisd	%xmm1, %xmm0
	jbe	.L108
	.loc 16 49 22
	movsd	.LC13(%rip), %xmm0
	movsd	%xmm0, 24(%rbp)
	jmp	.L81
.L108:
	.loc 16 51 22
	movsd	.LC14(%rip), %xmm0
	movsd	%xmm0, 24(%rbp)
	jmp	.L81
.L107:
	.loc 16 55 19
	movsd	24(%rbp), %xmm0
	movq	.LC10(%rip), %xmm1
	andpd	%xmm1, %xmm0
	.loc 16 55 12
	comisd	.LC15(%rip), %xmm0
	jbe	.L109
	.loc 16 57 15
	movsd	24(%rbp), %xmm0
	pxor	%xmm1, %xmm1
	comisd	%xmm1, %xmm0
	jbe	.L110
	.loc 16 58 23
	movsd	.LC15(%rip), %xmm0
	movsd	%xmm0, 24(%rbp)
	jmp	.L81
.L110:
	.loc 16 60 23
	movsd	.LC16(%rip), %xmm0
	movsd	%xmm0, 24(%rbp)
	jmp	.L81
.L109:
	.loc 16 64 21
	movsd	24(%rbp), %xmm0
	movq	.LC10(%rip), %xmm1
	andpd	%xmm1, %xmm0
	.loc 16 64 14
	comisd	.LC17(%rip), %xmm0
	jbe	.L81
	.loc 16 66 19
	movsd	24(%rbp), %xmm0
	pxor	%xmm1, %xmm1
	comisd	%xmm1, %xmm0
	jbe	.L111
	.loc 16 67 27
	movsd	.LC17(%rip), %xmm0
	movsd	%xmm0, 24(%rbp)
	jmp	.L81
.L111:
	.loc 16 69 27
	movsd	.LC18(%rip), %xmm0
	movsd	%xmm0, 24(%rbp)
.L81:
	.loc 16 94 12
	movsd	24(%rbp), %xmm0
	movq	%xmm0, %rax
	.loc 16 95 1
	movq	%rax, %xmm0
	popq	%rbp
	.cfi_restore 6
	.cfi_def_cfa 7, 8
	ret
	.cfi_endproc
.LFE2673:
	.seh_endproc
	.align 2
	.globl	_ZN21CalculadorAtmosferico11gerarTabelaEd15TIPO_TRAJETORIAdd
	.def	_ZN21CalculadorAtmosferico11gerarTabelaEd15TIPO_TRAJETORIAdd;	.scl	2;	.type	32;	.endef
	.seh_proc	_ZN21CalculadorAtmosferico11gerarTabelaEd15TIPO_TRAJETORIAdd
_ZN21CalculadorAtmosferico11gerarTabelaEd15TIPO_TRAJETORIAdd:
.LFB2674:
	.loc 16 98 1
	.cfi_startproc
	pushq	%rbp
	.seh_pushreg	%rbp
	.cfi_def_cfa_offset 16
	.cfi_offset 6, -16
	pushq	%rbx
	.seh_pushreg	%rbx
	.cfi_def_cfa_offset 24
	.cfi_offset 3, -24
	subq	$136, %rsp
	.seh_stackalloc	136
	.cfi_def_cfa_offset 160
	leaq	128(%rsp), %rbp
	.seh_setframe	%rbp, 128
	.cfi_def_cfa 6, 32
	.seh_endprologue
	movq	%rcx, 32(%rbp)
	movsd	%xmm1, 40(%rbp)
	movl	%r8d, 48(%rbp)
	movsd	%xmm3, 56(%rbp)
	.loc 16 99 18
	leaq	-96(%rbp), %rax
	movq	%rax, %rcx
.LEHB14:
	call	_ZN12ElementosVooC1Ev
.LEHE14:
	.loc 16 100 19
	movsd	.LC19(%rip), %xmm0
	movsd	%xmm0, -80(%rbp)
	.loc 16 101 5
	movq	32(%rbp), %rax
	movq	8(%rax), %rcx
	.loc 16 101 25
	leaq	-96(%rbp), %rax
	movq	%rax, %rdx
	call	_ZN10Observable8setDatumEP10BaseObject
	.loc 16 102 5
	movq	32(%rbp), %rax
	movq	8(%rax), %rax
	.loc 16 102 23
	movq	%rax, %rcx
.LEHB15:
	call	_ZN10Observable6notifyEv
.LEHE15:
	.loc 16 99 18
	leaq	-96(%rbp), %rax
	movq	%rax, %rcx
	call	_ZN12ElementosVooD1Ev
	.loc 16 103 1
	jmp	.L115
.L114:
	movq	%rax, %rbx
	.loc 16 99 18
	leaq	-96(%rbp), %rax
	movq	%rax, %rcx
	call	_ZN12ElementosVooD1Ev
	movq	%rbx, %rax
	movq	%rax, %rcx
.LEHB16:
	call	_Unwind_Resume
	nop
.LEHE16:
.L115:
	.loc 16 103 1
	addq	$136, %rsp
	popq	%rbx
	.cfi_restore 3
	popq	%rbp
	.cfi_restore 6
	.cfi_def_cfa 7, -120
	ret
	.cfi_endproc
.LFE2674:
	.seh_handler	__gxx_personality_seh0, @unwind, @except
	.seh_handlerdata
.LLSDA2674:
	.byte	0xff
	.byte	0xff
	.byte	0x1
	.uleb128 .LLSDACSE2674-.LLSDACSB2674
.LLSDACSB2674:
	.uleb128 .LEHB14-.LFB2674
	.uleb128 .LEHE14-.LEHB14
	.uleb128 0
	.uleb128 0
	.uleb128 .LEHB15-.LFB2674
	.uleb128 .LEHE15-.LEHB15
	.uleb128 .L114-.LFB2674
	.uleb128 0
	.uleb128 .LEHB16-.LFB2674
	.uleb128 .LEHE16-.LEHB16
	.uleb128 0
	.uleb128 0
.LLSDACSE2674:
	.text
	.seh_endproc
	.align 2
	.globl	_ZN21CalculadorAtmosferico20getVentoLongitudinalEd
	.def	_ZN21CalculadorAtmosferico20getVentoLongitudinalEd;	.scl	2;	.type	32;	.endef
	.seh_proc	_ZN21CalculadorAtmosferico20getVentoLongitudinalEd
_ZN21CalculadorAtmosferico20getVentoLongitudinalEd:
.LFB2675:
	.loc 16 106 1
	.cfi_startproc
	pushq	%rbp
	.seh_pushreg	%rbp
	.cfi_def_cfa_offset 16
	.cfi_offset 6, -16
	movq	%rsp, %rbp
	.seh_setframe	%rbp, 0
	.cfi_def_cfa_register 6
	subq	$32, %rsp
	.seh_stackalloc	32
	.seh_endprologue
	movq	%rcx, 16(%rbp)
	movsd	%xmm1, 24(%rbp)
	.loc 16 107 8
	movq	16(%rbp), %rax
	movq	224(%rax), %rax
	.loc 16 107 5
	testq	%rax, %rax
	jne	.L117
	.loc 16 108 16
	movq	.LC5(%rip), %rax
	jmp	.L118
.L117:
	.loc 16 110 12
	movq	16(%rbp), %rax
	movq	224(%rax), %rdx
	movq	16(%rbp), %rax
	movq	224(%rax), %rax
	.loc 16 110 56
	movq	(%rax), %rax
	addq	$24, %rax
	movq	(%rax), %rax
	.loc 16 110 49
	movsd	24(%rbp), %xmm0
	movapd	%xmm0, %xmm1
	movq	%rdx, %rcx
	call	*%rax
.LVL0:
	movq	%xmm0, %rax
	.loc 16 110 56
	nop
.L118:
	.loc 16 111 1
	movq	%rax, %xmm0
	addq	$32, %rsp
	popq	%rbp
	.cfi_restore 6
	.cfi_def_cfa 7, 8
	ret
	.cfi_endproc
.LFE2675:
	.seh_endproc
	.align 2
	.globl	_ZN21CalculadorAtmosferico19getVentoTransversalEd
	.def	_ZN21CalculadorAtmosferico19getVentoTransversalEd;	.scl	2;	.type	32;	.endef
	.seh_proc	_ZN21CalculadorAtmosferico19getVentoTransversalEd
_ZN21CalculadorAtmosferico19getVentoTransversalEd:
.LFB2676:
	.loc 16 114 1
	.cfi_startproc
	pushq	%rbp
	.seh_pushreg	%rbp
	.cfi_def_cfa_offset 16
	.cfi_offset 6, -16
	movq	%rsp, %rbp
	.seh_setframe	%rbp, 0
	.cfi_def_cfa_register 6
	subq	$32, %rsp
	.seh_stackalloc	32
	.seh_endprologue
	movq	%rcx, 16(%rbp)
	movsd	%xmm1, 24(%rbp)
	.loc 16 115 8
	movq	16(%rbp), %rax
	movq	224(%rax), %rax
	.loc 16 115 5
	testq	%rax, %rax
	jne	.L120
	.loc 16 116 16
	movq	.LC5(%rip), %rax
	jmp	.L121
.L120:
	.loc 16 117 12
	movq	16(%rbp), %rax
	movq	224(%rax), %rdx
	movq	16(%rbp), %rax
	movq	224(%rax), %rax
	.loc 16 117 55
	movq	(%rax), %rax
	addq	$16, %rax
	movq	(%rax), %rax
	.loc 16 117 48
	movsd	24(%rbp), %xmm0
	movapd	%xmm0, %xmm1
	movq	%rdx, %rcx
	call	*%rax
.LVL1:
	movq	%xmm0, %rax
	.loc 16 117 55
	nop
.L121:
	.loc 16 118 1
	movq	%rax, %xmm0
	addq	$32, %rsp
	popq	%rbp
	.cfi_restore 6
	.cfi_def_cfa 7, 8
	ret
	.cfi_endproc
.LFE2676:
	.seh_endproc
	.section	.text$_ZN12ElementosVooC1EOS_,"x"
	.linkonce discard
	.align 2
	.globl	_ZN12ElementosVooC1EOS_
	.def	_ZN12ElementosVooC1EOS_;	.scl	2;	.type	32;	.endef
	.seh_proc	_ZN12ElementosVooC1EOS_
_ZN12ElementosVooC1EOS_:
.LFB2680:
	.loc 5 7 7
	.cfi_startproc
	pushq	%rbp
	.seh_pushreg	%rbp
	.cfi_def_cfa_offset 16
	.cfi_offset 6, -16
	movq	%rsp, %rbp
	.seh_setframe	%rbp, 0
	.cfi_def_cfa_register 6
	subq	$32, %rsp
	.seh_stackalloc	32
	.seh_endprologue
	movq	%rcx, 16(%rbp)
	movq	%rdx, 24(%rbp)
.LBB21:
	.loc 5 7 7
	movq	16(%rbp), %rax
	movq	24(%rbp), %rdx
	movq	%rax, %rcx
	call	_ZN10BaseObjectC2ERKS_
	leaq	16+_ZTV12ElementosVoo(%rip), %rdx
	movq	16(%rbp), %rax
	movq	%rdx, (%rax)
	movq	24(%rbp), %rax
	movsd	8(%rax), %xmm0
	movq	16(%rbp), %rax
	movsd	%xmm0, 8(%rax)
	movq	24(%rbp), %rax
	movsd	16(%rax), %xmm0
	movq	16(%rbp), %rax
	movsd	%xmm0, 16(%rax)
	movq	24(%rbp), %rax
	movsd	24(%rax), %xmm0
	movq	16(%rbp), %rax
	movsd	%xmm0, 24(%rax)
	movq	24(%rbp), %rax
	movsd	32(%rax), %xmm0
	movq	16(%rbp), %rax
	movsd	%xmm0, 32(%rax)
	movq	24(%rbp), %rax
	movsd	40(%rax), %xmm0
	movq	16(%rbp), %rax
	movsd	%xmm0, 40(%rax)
	movq	24(%rbp), %rax
	movsd	48(%rax), %xmm0
	movq	16(%rbp), %rax
	movsd	%xmm0, 48(%rax)
	movq	24(%rbp), %rax
	movsd	56(%rax), %xmm0
	movq	16(%rbp), %rax
	movsd	%xmm0, 56(%rax)
	movq	24(%rbp), %rax
	movsd	64(%rax), %xmm0
	movq	16(%rbp), %rax
	movsd	%xmm0, 64(%rax)
	movq	24(%rbp), %rax
	movsd	72(%rax), %xmm0
	movq	16(%rbp), %rax
	movsd	%xmm0, 72(%rax)
	movq	24(%rbp), %rax
	movsd	80(%rax), %xmm0
	movq	16(%rbp), %rax
	movsd	%xmm0, 80(%rax)
	movq	24(%rbp), %rax
	movsd	88(%rax), %xmm0
	movq	16(%rbp), %rax
	movsd	%xmm0, 88(%rax)
.LBE21:
	nop
	addq	$32, %rsp
	popq	%rbp
	.cfi_restore 6
	.cfi_def_cfa 7, 8
	ret
	.cfi_endproc
.LFE2680:
	.seh_endproc
	.section	.text$_ZN12ElementosVooaSEOS_,"x"
	.linkonce discard
	.align 2
	.globl	_ZN12ElementosVooaSEOS_
	.def	_ZN12ElementosVooaSEOS_;	.scl	2;	.type	32;	.endef
	.seh_proc	_ZN12ElementosVooaSEOS_
_ZN12ElementosVooaSEOS_:
.LFB2681:
	.loc 5 7 7
	.cfi_startproc
	pushq	%rbp
	.seh_pushreg	%rbp
	.cfi_def_cfa_offset 16
	.cfi_offset 6, -16
	movq	%rsp, %rbp
	.seh_setframe	%rbp, 0
	.cfi_def_cfa_register 6
	subq	$32, %rsp
	.seh_stackalloc	32
	.seh_endprologue
	movq	%rcx, 16(%rbp)
	movq	%rdx, 24(%rbp)
	.loc 5 7 7
	movq	16(%rbp), %rax
	movq	24(%rbp), %rdx
	movq	%rax, %rcx
	call	_ZN10BaseObjectaSERKS_
	movq	24(%rbp), %rax
	movsd	8(%rax), %xmm0
	movq	16(%rbp), %rax
	movsd	%xmm0, 8(%rax)
	movq	24(%rbp), %rax
	movsd	16(%rax), %xmm0
	movq	16(%rbp), %rax
	movsd	%xmm0, 16(%rax)
	movq	24(%rbp), %rax
	movsd	24(%rax), %xmm0
	movq	16(%rbp), %rax
	movsd	%xmm0, 24(%rax)
	movq	24(%rbp), %rax
	movsd	32(%rax), %xmm0
	movq	16(%rbp), %rax
	movsd	%xmm0, 32(%rax)
	movq	24(%rbp), %rax
	movsd	40(%rax), %xmm0
	movq	16(%rbp), %rax
	movsd	%xmm0, 40(%rax)
	movq	24(%rbp), %rax
	movsd	48(%rax), %xmm0
	movq	16(%rbp), %rax
	movsd	%xmm0, 48(%rax)
	movq	24(%rbp), %rax
	movsd	56(%rax), %xmm0
	movq	16(%rbp), %rax
	movsd	%xmm0, 56(%rax)
	movq	24(%rbp), %rax
	movsd	64(%rax), %xmm0
	movq	16(%rbp), %rax
	movsd	%xmm0, 64(%rax)
	movq	24(%rbp), %rax
	movsd	72(%rax), %xmm0
	movq	16(%rbp), %rax
	movsd	%xmm0, 72(%rax)
	movq	24(%rbp), %rax
	movsd	80(%rax), %xmm0
	movq	16(%rbp), %rax
	movsd	%xmm0, 80(%rax)
	movq	24(%rbp), %rax
	movsd	88(%rax), %xmm0
	movq	16(%rbp), %rax
	movsd	%xmm0, 88(%rax)
	movq	16(%rbp), %rax
	addq	$32, %rsp
	popq	%rbp
	.cfi_restore 6
	.cfi_def_cfa 7, 8
	ret
	.cfi_endproc
.LFE2681:
	.seh_endproc
	.text
	.align 2
	.globl	_ZN21CalculadorAtmosferico6limiteEdd
	.def	_ZN21CalculadorAtmosferico6limiteEdd;	.scl	2;	.type	32;	.endef
	.seh_proc	_ZN21CalculadorAtmosferico6limiteEdd
_ZN21CalculadorAtmosferico6limiteEdd:
.LFB2677:
	.loc 16 126 1
	.cfi_startproc
	pushq	%rbp
	.seh_pushreg	%rbp
	.cfi_def_cfa_offset 16
	.cfi_offset 6, -16
	pushq	%rbx
	.seh_pushreg	%rbx
	.cfi_def_cfa_offset 24
	.cfi_offset 3, -24
	subq	$392, %rsp
	.seh_stackalloc	392
	.cfi_def_cfa_offset 416
	leaq	128(%rsp), %rbp
	.seh_setframe	%rbp, 128
	.cfi_def_cfa 6, 288
	.seh_endprologue
	movq	%rcx, 288(%rbp)
	movq	%rdx, 296(%rbp)
	movsd	%xmm2, 304(%rbp)
	movsd	%xmm3, 312(%rbp)
	.loc 16 127 12
	movsd	.LC20(%rip), %xmm0
	movsd	%xmm0, 248(%rbp)
	.loc 16 128 80
	movq	296(%rbp), %rdx
	movq	288(%rbp), %rax
	movsd	304(%rbp), %xmm2
	movsd	248(%rbp), %xmm1
	movl	$1, 48(%rsp)
	movsd	312(%rbp), %xmm0
	movsd	%xmm0, 40(%rsp)
	pxor	%xmm0, %xmm0
	movsd	%xmm0, 32(%rsp)
	movapd	%xmm2, %xmm3
	movapd	%xmm1, %xmm2
	movq	%rax, %rcx
.LEHB17:
	call	_ZN10Calculador27solucaoDiretaUltimoElementoEdddd4RAMO
.LEHE17:
	.loc 16 129 12
	movq	288(%rbp), %rax
	movsd	16(%rax), %xmm0
	movsd	%xmm0, 240(%rbp)
.L128:
	.loc 16 133 16
	movsd	248(%rbp), %xmm1
	movsd	.LC11(%rip), %xmm0
	addsd	%xmm1, %xmm0
	movsd	%xmm0, 248(%rbp)
	.loc 16 134 48
	movq	296(%rbp), %rdx
	leaq	-64(%rbp), %rax
	movsd	304(%rbp), %xmm2
	movsd	248(%rbp), %xmm1
	movl	$1, 48(%rsp)
	movsd	312(%rbp), %xmm0
	movsd	%xmm0, 40(%rsp)
	pxor	%xmm0, %xmm0
	movsd	%xmm0, 32(%rsp)
	movapd	%xmm2, %xmm3
	movapd	%xmm1, %xmm2
	movq	%rax, %rcx
.LEHB18:
	call	_ZN10Calculador27solucaoDiretaUltimoElementoEdddd4RAMO
	.loc 16 134 71 discriminator 1
	leaq	-64(%rbp), %rax
	movq	%rax, %rdx
	movq	288(%rbp), %rcx
	call	_ZN12ElementosVooaSEOS_
	.loc 16 134 48 discriminator 1
	leaq	-64(%rbp), %rax
	movq	%rax, %rcx
	call	_ZN12ElementosVooD1Ev
	.loc 16 135 25 discriminator 1
	movsd	240(%rbp), %xmm0
	movsd	%xmm0, 232(%rbp)
	.loc 16 136 17 discriminator 1
	movq	288(%rbp), %rax
	movsd	16(%rax), %xmm0
	movsd	%xmm0, 240(%rbp)
	.loc 16 138 19 discriminator 1
	movsd	240(%rbp), %xmm1
	movsd	.LC21(%rip), %xmm0
	addsd	%xmm1, %xmm0
	.loc 16 138 24 discriminator 1
	comisd	232(%rbp), %xmm0
	jbe	.L137
	.loc 16 131 5
	jmp	.L128
.L137:
	.loc 16 140 12
	movsd	248(%rbp), %xmm0
	movsd	.LC11(%rip), %xmm1
	subsd	%xmm1, %xmm0
	movsd	%xmm0, 248(%rbp)
.L131:
	.loc 16 143 16
	movsd	248(%rbp), %xmm1
	movsd	.LC13(%rip), %xmm0
	addsd	%xmm1, %xmm0
	movsd	%xmm0, 248(%rbp)
	.loc 16 144 48
	movq	296(%rbp), %rdx
	leaq	32(%rbp), %rax
	movsd	304(%rbp), %xmm2
	movsd	248(%rbp), %xmm1
	movl	$1, 48(%rsp)
	movsd	312(%rbp), %xmm0
	movsd	%xmm0, 40(%rsp)
	pxor	%xmm0, %xmm0
	movsd	%xmm0, 32(%rsp)
	movapd	%xmm2, %xmm3
	movapd	%xmm1, %xmm2
	movq	%rax, %rcx
	call	_ZN10Calculador27solucaoDiretaUltimoElementoEdddd4RAMO
	.loc 16 144 71 discriminator 1
	leaq	32(%rbp), %rax
	movq	%rax, %rdx
	movq	288(%rbp), %rcx
	call	_ZN12ElementosVooaSEOS_
	.loc 16 144 48 discriminator 1
	leaq	32(%rbp), %rax
	movq	%rax, %rcx
	call	_ZN12ElementosVooD1Ev
	.loc 16 145 25 discriminator 1
	movsd	240(%rbp), %xmm0
	movsd	%xmm0, 232(%rbp)
	.loc 16 146 17 discriminator 1
	movq	288(%rbp), %rax
	movsd	16(%rax), %xmm0
	movsd	%xmm0, 240(%rbp)
	.loc 16 148 19 discriminator 1
	movsd	240(%rbp), %xmm0
	comisd	232(%rbp), %xmm0
	jbe	.L138
	.loc 16 141 5
	jmp	.L131
.L138:
	.loc 16 150 44
	movq	296(%rbp), %rdx
	movsd	248(%rbp), %xmm0
	movsd	.LC13(%rip), %xmm1
	subsd	%xmm1, %xmm0
	movapd	%xmm0, %xmm1
	leaq	128(%rbp), %rax
	movsd	304(%rbp), %xmm2
	movl	$1, 48(%rsp)
	movsd	312(%rbp), %xmm0
	movsd	%xmm0, 40(%rsp)
	pxor	%xmm0, %xmm0
	movsd	%xmm0, 32(%rsp)
	movapd	%xmm2, %xmm3
	movapd	%xmm1, %xmm2
	movq	%rax, %rcx
	call	_ZN10Calculador27solucaoDiretaUltimoElementoEdddd4RAMO
.LEHE18:
	.loc 16 150 73 discriminator 1
	leaq	128(%rbp), %rax
	movq	%rax, %rdx
	movq	288(%rbp), %rcx
	call	_ZN12ElementosVooaSEOS_
	.loc 16 150 44 discriminator 1
	leaq	128(%rbp), %rax
	movq	%rax, %rcx
	call	_ZN12ElementosVooD1Ev
	.loc 16 152 12 discriminator 1
	jmp	.L139
.L134:
	movq	%rax, %rbx
	movq	288(%rbp), %rcx
	call	_ZN12ElementosVooD1Ev
	movq	%rbx, %rax
	movq	%rax, %rcx
.LEHB19:
	call	_Unwind_Resume
.LEHE19:
.L139:
	.loc 16 153 1
	movq	288(%rbp), %rax
	addq	$392, %rsp
	popq	%rbx
	.cfi_restore 3
	popq	%rbp
	.cfi_restore 6
	.cfi_def_cfa 7, -376
	ret
	.cfi_endproc
.LFE2677:
	.seh_handler	__gxx_personality_seh0, @unwind, @except
	.seh_handlerdata
.LLSDA2677:
	.byte	0xff
	.byte	0xff
	.byte	0x1
	.uleb128 .LLSDACSE2677-.LLSDACSB2677
.LLSDACSB2677:
	.uleb128 .LEHB17-.LFB2677
	.uleb128 .LEHE17-.LEHB17
	.uleb128 0
	.uleb128 0
	.uleb128 .LEHB18-.LFB2677
	.uleb128 .LEHE18-.LEHB18
	.uleb128 .L134-.LFB2677
	.uleb128 0
	.uleb128 .LEHB19-.LFB2677
	.uleb128 .LEHE19-.LEHB19
	.uleb128 0
	.uleb128 0
.LLSDACSE2677:
	.text
	.seh_endproc
	.align 2
	.globl	_ZN21CalculadorAtmosferico12setAtmosferaEP9Atmosfera
	.def	_ZN21CalculadorAtmosferico12setAtmosferaEP9Atmosfera;	.scl	2;	.type	32;	.endef
	.seh_proc	_ZN21CalculadorAtmosferico12setAtmosferaEP9Atmosfera
_ZN21CalculadorAtmosferico12setAtmosferaEP9Atmosfera:
.LFB2682:
	.loc 16 157 1
	.cfi_startproc
	pushq	%rbp
	.seh_pushreg	%rbp
	.cfi_def_cfa_offset 16
	.cfi_offset 6, -16
	movq	%rsp, %rbp
	.seh_setframe	%rbp, 0
	.cfi_def_cfa_register 6
	subq	$32, %rsp
	.seh_stackalloc	32
	.seh_endprologue
	movq	%rcx, 16(%rbp)
	movq	%rdx, 24(%rbp)
	.loc 16 158 14
	movq	16(%rbp), %rax
	movq	232(%rax), %rax
	.loc 16 158 5
	testq	%rax, %rax
	je	.L141
	.loc 16 159 22
	movq	16(%rbp), %rax
	movq	232(%rax), %rax
	.loc 16 159 28
	testq	%rax, %rax
	je	.L141
	.loc 16 159 27 discriminator 1
	movq	16(%rbp), %rax
	movq	232(%rax), %rdx
	.loc 16 159 22 discriminator 1
	movq	16(%rbp), %rax
	movq	232(%rax), %rax
	.loc 16 159 27 discriminator 1
	movq	(%rax), %rax
	addq	$8, %rax
	movq	(%rax), %rax
	movq	%rdx, %rcx
	call	*%rax
.LVL2:
.L141:
	.loc 16 160 11
	movq	16(%rbp), %rax
	movq	24(%rbp), %rdx
	movq	%rdx, 232(%rax)
	.loc 16 162 1
	nop
	addq	$32, %rsp
	popq	%rbp
	.cfi_restore 6
	.cfi_def_cfa 7, 8
	ret
	.cfi_endproc
.LFE2682:
	.seh_endproc
	.align 2
	.globl	_ZN21CalculadorAtmosferico18setNumeroQuadradosEd
	.def	_ZN21CalculadorAtmosferico18setNumeroQuadradosEd;	.scl	2;	.type	32;	.endef
	.seh_proc	_ZN21CalculadorAtmosferico18setNumeroQuadradosEd
_ZN21CalculadorAtmosferico18setNumeroQuadradosEd:
.LFB2683:
	.loc 16 165 1
	.cfi_startproc
	pushq	%rbp
	.seh_pushreg	%rbp
	.cfi_def_cfa_offset 16
	.cfi_offset 6, -16
	movq	%rsp, %rbp
	.seh_setframe	%rbp, 0
	.cfi_def_cfa_register 6
	subq	$32, %rsp
	.seh_stackalloc	32
	.seh_endprologue
	movq	%rcx, 16(%rbp)
	movsd	%xmm1, 24(%rbp)
	.loc 16 166 32
	movq	16(%rbp), %rax
	addq	$96, %rax
	movsd	24(%rbp), %xmm0
	movapd	%xmm0, %xmm1
	movq	%rax, %rcx
	call	_ZN8Projetil18setNumeroQuadradosEd
	.loc 16 167 35
	movq	16(%rbp), %rax
	addq	$96, %rax
	movq	%rax, %rcx
	call	_ZN8Projetil13getMassaTotalEv
	movapd	%xmm0, %xmm1
	.loc 16 167 12
	movsd	.LC13(%rip), %xmm0
	divsd	%xmm1, %xmm0
	.loc 16 167 7
	movq	16(%rbp), %rax
	movsd	%xmm0, 240(%rax)
	.loc 16 168 1
	nop
	addq	$32, %rsp
	popq	%rbp
	.cfi_restore 6
	.cfi_def_cfa 7, 8
	ret
	.cfi_endproc
.LFE2683:
	.seh_endproc
	.align 2
	.globl	_ZN21CalculadorAtmosferico24setNumeroQuadradosPadraoEv
	.def	_ZN21CalculadorAtmosferico24setNumeroQuadradosPadraoEv;	.scl	2;	.type	32;	.endef
	.seh_proc	_ZN21CalculadorAtmosferico24setNumeroQuadradosPadraoEv
_ZN21CalculadorAtmosferico24setNumeroQuadradosPadraoEv:
.LFB2684:
	.loc 16 171 1
	.cfi_startproc
	pushq	%rbp
	.seh_pushreg	%rbp
	.cfi_def_cfa_offset 16
	.cfi_offset 6, -16
	movq	%rsp, %rbp
	.seh_setframe	%rbp, 0
	.cfi_def_cfa_register 6
	subq	$32, %rsp
	.seh_stackalloc	32
	.seh_endprologue
	movq	%rcx, 16(%rbp)
	.loc 16 173 23
	movq	16(%rbp), %rax
	addq	$96, %rax
	movq	%rax, %rcx
	call	_ZN8Projetil18getQuadradosPadraoEv
	movq	%xmm0, %rax
	movq	%rax, %xmm1
	movq	16(%rbp), %rcx
	call	_ZN21CalculadorAtmosferico18setNumeroQuadradosEd
	.loc 16 174 1
	nop
	addq	$32, %rsp
	popq	%rbp
	.cfi_restore 6
	.cfi_def_cfa 7, 8
	ret
	.cfi_endproc
.LFE2684:
	.seh_endproc
	.align 2
	.globl	_ZN21CalculadorAtmosferico16setPesoDensidadeEP13PesoDensidade
	.def	_ZN21CalculadorAtmosferico16setPesoDensidadeEP13PesoDensidade;	.scl	2;	.type	32;	.endef
	.seh_proc	_ZN21CalculadorAtmosferico16setPesoDensidadeEP13PesoDensidade
_ZN21CalculadorAtmosferico16setPesoDensidadeEP13PesoDensidade:
.LFB2685:
	.loc 16 177 1
	.cfi_startproc
	pushq	%rbp
	.seh_pushreg	%rbp
	.cfi_def_cfa_offset 16
	.cfi_offset 6, -16
	movq	%rsp, %rbp
	.seh_setframe	%rbp, 0
	.cfi_def_cfa_register 6
	subq	$32, %rsp
	.seh_stackalloc	32
	.seh_endprologue
	movq	%rcx, 16(%rbp)
	movq	%rdx, 24(%rbp)
	.loc 16 178 8
	movq	16(%rbp), %rax
	movq	232(%rax), %rax
	.loc 16 178 5
	testq	%rax, %rax
	je	.L146
	.loc 16 179 9
	movq	16(%rbp), %rax
	movq	232(%rax), %rax
	.loc 16 179 32
	movq	24(%rbp), %rdx
	movq	%rax, %rcx
	call	_ZN9Atmosfera16setPesoDensidadeEP13PesoDensidade
.L146:
	.loc 16 181 1
	nop
	addq	$32, %rsp
	popq	%rbp
	.cfi_restore 6
	.cfi_def_cfa 7, 8
	ret
	.cfi_endproc
.LFE2685:
	.seh_endproc
	.align 2
	.globl	_ZN21CalculadorAtmosferico18setPesoTemperaturaEP15PesoTemperatura
	.def	_ZN21CalculadorAtmosferico18setPesoTemperaturaEP15PesoTemperatura;	.scl	2;	.type	32;	.endef
	.seh_proc	_ZN21CalculadorAtmosferico18setPesoTemperaturaEP15PesoTemperatura
_ZN21CalculadorAtmosferico18setPesoTemperaturaEP15PesoTemperatura:
.LFB2686:
	.loc 16 184 1
	.cfi_startproc
	pushq	%rbp
	.seh_pushreg	%rbp
	.cfi_def_cfa_offset 16
	.cfi_offset 6, -16
	movq	%rsp, %rbp
	.seh_setframe	%rbp, 0
	.cfi_def_cfa_register 6
	subq	$32, %rsp
	.seh_stackalloc	32
	.seh_endprologue
	movq	%rcx, 16(%rbp)
	movq	%rdx, 24(%rbp)
	.loc 16 185 8
	movq	16(%rbp), %rax
	movq	232(%rax), %rax
	.loc 16 185 5
	testq	%rax, %rax
	je	.L149
	.loc 16 186 9
	movq	16(%rbp), %rax
	movq	232(%rax), %rax
	.loc 16 186 34
	movq	24(%rbp), %rdx
	movq	%rax, %rcx
	call	_ZN9Atmosfera18setPesoTemperaturaEP15PesoTemperatura
.L149:
	.loc 16 187 1
	nop
	addq	$32, %rsp
	popq	%rbp
	.cfi_restore 6
	.cfi_def_cfa 7, 8
	ret
	.cfi_endproc
.LFE2686:
	.seh_endproc
	.align 2
	.globl	_ZN21CalculadorAtmosferico8setVentoEP5Vento
	.def	_ZN21CalculadorAtmosferico8setVentoEP5Vento;	.scl	2;	.type	32;	.endef
	.seh_proc	_ZN21CalculadorAtmosferico8setVentoEP5Vento
_ZN21CalculadorAtmosferico8setVentoEP5Vento:
.LFB2687:
	.loc 16 190 1
	.cfi_startproc
	pushq	%rbp
	.seh_pushreg	%rbp
	.cfi_def_cfa_offset 16
	.cfi_offset 6, -16
	movq	%rsp, %rbp
	.seh_setframe	%rbp, 0
	.cfi_def_cfa_register 6
	.seh_endprologue
	movq	%rcx, 16(%rbp)
	movq	%rdx, 24(%rbp)
	.loc 16 193 17
	movq	16(%rbp), %rax
	movq	24(%rbp), %rdx
	movq	%rdx, 224(%rax)
	.loc 16 195 1
	nop
	popq	%rbp
	.cfi_restore 6
	.cfi_def_cfa 7, 8
	ret
	.cfi_endproc
.LFE2687:
	.seh_endproc
	.section	.text$_ZN8ProjetilaSERKS_,"x"
	.linkonce discard
	.align 2
	.globl	_ZN8ProjetilaSERKS_
	.def	_ZN8ProjetilaSERKS_;	.scl	2;	.type	32;	.endef
	.seh_proc	_ZN8ProjetilaSERKS_
_ZN8ProjetilaSERKS_:
.LFB2689:
	.loc 6 8 7
	.cfi_startproc
	pushq	%rbp
	.seh_pushreg	%rbp
	.cfi_def_cfa_offset 16
	.cfi_offset 6, -16
	movq	%rsp, %rbp
	.seh_setframe	%rbp, 0
	.cfi_def_cfa_register 6
	subq	$32, %rsp
	.seh_stackalloc	32
	.seh_endprologue
	movq	%rcx, 16(%rbp)
	movq	%rdx, 24(%rbp)
	.loc 6 8 7
	movq	16(%rbp), %rax
	movq	24(%rbp), %rdx
	movq	%rax, %rcx
	call	_ZN10BaseObjectaSERKS_
	movq	24(%rbp), %rax
	movl	8(%rax), %edx
	movq	16(%rbp), %rax
	movl	%edx, 8(%rax)
	movq	24(%rbp), %rax
	movl	12(%rax), %edx
	movq	16(%rbp), %rax
	movl	%edx, 12(%rax)
	movq	24(%rbp), %rax
	leaq	16(%rax), %rdx
	movq	16(%rbp), %rax
	addq	$16, %rax
	movq	%rax, %rcx
	call	_ZNSt7__cxx1112basic_stringIcSt11char_traitsIcESaIcEEaSERKS4_
	movq	24(%rbp), %rax
	leaq	48(%rax), %rdx
	movq	16(%rbp), %rax
	addq	$48, %rax
	movq	%rax, %rcx
	call	_ZNSt7__cxx1112basic_stringIcSt11char_traitsIcESaIcEEaSERKS4_
	movq	24(%rbp), %rax
	movsd	80(%rax), %xmm0
	movq	16(%rbp), %rax
	movsd	%xmm0, 80(%rax)
	movq	24(%rbp), %rax
	movsd	88(%rax), %xmm0
	movq	16(%rbp), %rax
	movsd	%xmm0, 88(%rax)
	movq	24(%rbp), %rax
	movsd	96(%rax), %xmm0
	movq	16(%rbp), %rax
	movsd	%xmm0, 96(%rax)
	movq	24(%rbp), %rax
	movsd	104(%rax), %xmm0
	movq	16(%rbp), %rax
	movsd	%xmm0, 104(%rax)
	movq	24(%rbp), %rax
	movsd	112(%rax), %xmm0
	movq	16(%rbp), %rax
	movsd	%xmm0, 112(%rax)
	movq	24(%rbp), %rax
	movsd	120(%rax), %xmm0
	movq	16(%rbp), %rax
	movsd	%xmm0, 120(%rax)
	movq	16(%rbp), %rax
	addq	$32, %rsp
	popq	%rbp
	.cfi_restore 6
	.cfi_def_cfa 7, 8
	ret
	.cfi_endproc
.LFE2689:
	.seh_endproc
	.text
	.align 2
	.globl	_ZN21CalculadorAtmosferico11setProjetilE8Projetil
	.def	_ZN21CalculadorAtmosferico11setProjetilE8Projetil;	.scl	2;	.type	32;	.endef
	.seh_proc	_ZN21CalculadorAtmosferico11setProjetilE8Projetil
_ZN21CalculadorAtmosferico11setProjetilE8Projetil:
.LFB2688:
	.loc 16 198 1
	.cfi_startproc
	pushq	%rbp
	.seh_pushreg	%rbp
	.cfi_def_cfa_offset 16
	.cfi_offset 6, -16
	movq	%rsp, %rbp
	.seh_setframe	%rbp, 0
	.cfi_def_cfa_register 6
	subq	$32, %rsp
	.seh_stackalloc	32
	.seh_endprologue
	movq	%rcx, 16(%rbp)
	movq	%rdx, 24(%rbp)
	.loc 16 199 36
	movq	24(%rbp), %rax
	movq	%rax, %rcx
	call	_ZN8Projetil11getDiametroEv
	movq	%xmm0, %rdx
	.loc 16 199 14
	movq	16(%rbp), %rax
	movq	%rdx, 248(%rax)
	.loc 16 200 30
	movq	24(%rbp), %rax
	movq	%rax, %rcx
	call	_ZN8Projetil8getMassaEv
	movapd	%xmm0, %xmm1
	.loc 16 200 12
	movsd	.LC13(%rip), %xmm0
	divsd	%xmm1, %xmm0
	.loc 16 200 7
	movq	16(%rbp), %rax
	movsd	%xmm0, 240(%rax)
	.loc 16 201 34
	movq	16(%rbp), %rax
	movsd	248(%rax), %xmm0
	.loc 16 201 42
	movsd	.LC8(%rip), %xmm1
	divsd	%xmm1, %xmm0
	movapd	%xmm0, %xmm1
	.loc 16 201 32
	movsd	.LC9(%rip), %xmm0
	mulsd	%xmm0, %xmm1
	.loc 16 201 47
	movq	16(%rbp), %rax
	movsd	248(%rax), %xmm0
	.loc 16 201 55
	movsd	.LC8(%rip), %xmm2
	divsd	%xmm2, %xmm0
	.loc 16 201 45
	mulsd	%xmm1, %xmm0
	.loc 16 201 7
	movq	16(%rbp), %rax
	movsd	%xmm0, 256(%rax)
	.loc 16 202 22
	movq	16(%rbp), %rax
	addq	$96, %rax
	movq	24(%rbp), %rdx
	movq	%rax, %rcx
	call	_ZN8ProjetilaSERKS_
	.loc 16 205 1
	nop
	addq	$32, %rsp
	popq	%rbp
	.cfi_restore 6
	.cfi_def_cfa 7, 8
	ret
	.cfi_endproc
.LFE2688:
	.seh_endproc
	.align 2
	.globl	_ZN21CalculadorAtmosferico14solucaoReversaEddd15TIPO_TRAJETORIAddd4RAMO
	.def	_ZN21CalculadorAtmosferico14solucaoReversaEddd15TIPO_TRAJETORIAddd4RAMO;	.scl	2;	.type	32;	.endef
	.seh_proc	_ZN21CalculadorAtmosferico14solucaoReversaEddd15TIPO_TRAJETORIAddd4RAMO
_ZN21CalculadorAtmosferico14solucaoReversaEddd15TIPO_TRAJETORIAddd4RAMO:
.LFB2690:
	.loc 16 207 1
	.cfi_startproc
	pushq	%rbp
	.seh_pushreg	%rbp
	.cfi_def_cfa_offset 16
	.cfi_offset 6, -16
	pushq	%rsi
	.seh_pushreg	%rsi
	.cfi_def_cfa_offset 24
	.cfi_offset 4, -24
	pushq	%rbx
	.seh_pushreg	%rbx
	.cfi_def_cfa_offset 32
	.cfi_offset 3, -32
	subq	$1728, %rsp
	.seh_stackalloc	1728
	.cfi_def_cfa_offset 1760
	leaq	128(%rsp), %rbp
	.seh_setframe	%rbp, 128
	.cfi_def_cfa 6, 1632
	.seh_endprologue
	movq	%rcx, 1632(%rbp)
	movq	%rdx, 1640(%rbp)
	movsd	%xmm2, 1648(%rbp)
	movsd	%xmm3, 1656(%rbp)
	.loc 16 208 12
	pxor	%xmm0, %xmm0
	movsd	%xmm0, 1592(%rbp)
	.loc 16 209 12
	movsd	1680(%rbp), %xmm0
	movsd	%xmm0, 1512(%rbp)
	.loc 16 210 18
	leaq	64(%rbp), %rax
	movq	%rax, %rcx
.LEHB20:
	call	_ZN12ElementosVooC1Ev
.LEHE20:
	.loc 16 211 19
	pxor	%xmm0, %xmm0
	movsd	%xmm0, 80(%rbp)
	.loc 16 212 12
	movsd	1696(%rbp), %xmm0
	movsd	%xmm0, 1584(%rbp)
	.loc 16 213 12
	pxor	%xmm0, %xmm0
	movsd	%xmm0, 1504(%rbp)
	.loc 16 215 9
	movl	$0, 1580(%rbp)
	.loc 16 216 9
	movl	$0, 1500(%rbp)
	.loc 16 217 9
	movl	$0, 1496(%rbp)
	.loc 16 218 12
	pxor	%xmm0, %xmm0
	movsd	%xmm0, 1568(%rbp)
	.loc 16 219 12
	pxor	%xmm0, %xmm0
	movsd	%xmm0, 1488(%rbp)
	.loc 16 221 43
	movq	1640(%rbp), %rax
	movq	1640(%rbp), %rdx
	movsd	80(%rdx), %xmm0
	movapd	%xmm0, %xmm1
	movq	%rax, %rcx
.LEHB21:
	call	_ZN10Calculador21calculaGravidadeLocalEd
	movq	%xmm0, %rdx
	.loc 16 221 20
	movq	1640(%rbp), %rax
	movq	%rdx, 48(%rax)
.LBB22:
	.loc 16 222 8
	movq	1640(%rbp), %rax
	movzbl	298(%rax), %eax
	.loc 16 222 5
	testb	%al, %al
	je	.L155
.LBB23:
	.loc 16 224 22
	leaq	-32(%rbp), %rax
	movq	%rax, %rcx
	call	_ZN12ElementosVooC1Ev
.LEHE21:
	.loc 16 225 32
	leaq	160(%rbp), %rax
	movsd	1680(%rbp), %xmm1
	movsd	1656(%rbp), %xmm0
	movq	1640(%rbp), %rdx
	movapd	%xmm1, %xmm3
	movapd	%xmm0, %xmm2
	movq	%rax, %rcx
.LEHB22:
	call	_ZN21CalculadorAtmosferico6limiteEdd
	.loc 16 225 42 discriminator 1
	leaq	160(%rbp), %rdx
	leaq	-32(%rbp), %rax
	movq	%rax, %rcx
	call	_ZN12ElementosVooaSEOS_
	.loc 16 225 32 discriminator 1
	leaq	160(%rbp), %rax
	movq	%rax, %rcx
	call	_ZN12ElementosVooD1Ev
.LBB24:
	.loc 16 226 42 discriminator 1
	movsd	-16(%rbp), %xmm0
	.loc 16 226 26 discriminator 1
	movsd	.LC11(%rip), %xmm1
	divsd	%xmm1, %xmm0
	call	_ZN7MathArt5arredEd
	movl	%eax, %edx
	.loc 16 226 49 discriminator 1
	movl	%edx, %eax
	sall	$2, %eax
	addl	%edx, %eax
	addl	%eax, %eax
	.loc 16 226 54 discriminator 1
	cvtsi2sd	%eax, %xmm1
	movsd	1648(%rbp), %xmm0
	comisd	%xmm1, %xmm0
	seta	%al
	.loc 16 226 9 discriminator 1
	testb	%al, %al
	je	.L156
.LBB25:
	.loc 16 228 62
	movsd	1584(%rbp), %xmm0
	leaq	-64(%rbp), %rax
	movl	$0, %r9d
	pxor	%xmm2, %xmm2
	movapd	%xmm0, %xmm1
	movq	%rax, %rcx
	call	_ZN16ElementosDisparoC1Eddb
.LEHE22:
	.loc 16 229 55
	movl	$40, %ecx
	call	__cxa_allocate_exception
	movq	%rax, %rbx
	leaq	-64(%rbp), %rdx
	leaq	256(%rbp), %rax
	movq	%rax, %rcx
	call	_ZN16ElementosDisparoC1ERKS_
	leaq	256(%rbp), %rax
	movq	%rax, %rdx
	movq	%rbx, %rcx
.LEHB23:
	call	_ZN19ExceptionOutOfBoundC1E16ElementosDisparo
.LEHE23:
	.loc 16 229 55 is_stmt 0 discriminator 2
	leaq	256(%rbp), %rax
	movq	%rax, %rcx
	call	_ZN16ElementosDisparoD1Ev
	leaq	_ZN19ExceptionOutOfBoundD1Ev(%rip), %rax
	movq	%rax, %r8
	leaq	_ZTI19ExceptionOutOfBound(%rip), %rdx
	movq	%rbx, %rcx
.LEHB24:
	call	__cxa_throw
.LEHE24:
.L156:
.LBE25:
.LBE24:
	.loc 16 224 22 is_stmt 1
	leaq	-32(%rbp), %rax
	movq	%rax, %rcx
	call	_ZN12ElementosVooD1Ev
.L155:
.LBE23:
.LBE22:
	.loc 16 233 15
	movl	$0, %ecx
	call	time
	.loc 16 233 10
	movl	%eax, %ecx
	call	srand
.L199:
	.loc 16 237 29
	movsd	80(%rbp), %xmm0
	.loc 16 237 32
	subsd	1648(%rbp), %xmm0
	.loc 16 237 17
	movq	.LC10(%rip), %xmm1
	andpd	%xmm1, %xmm0
	.loc 16 237 42
	comisd	1688(%rbp), %xmm0
	seta	%al
	xorl	$1, %eax
	.loc 16 237 53
	testb	%al, %al
	jne	.L157
	.loc 16 237 57 discriminator 1
	movq	1640(%rbp), %rax
	movzbl	89(%rax), %eax
	.loc 16 237 53 discriminator 1
	testb	%al, %al
	jne	.L157
.LBB29:
	.loc 16 239 13
	movsd	1584(%rbp), %xmm0
	addsd	1592(%rbp), %xmm0
	movsd	%xmm0, 1584(%rbp)
	.loc 16 241 9
	pxor	%xmm0, %xmm0
	comisd	1584(%rbp), %xmm0
	jbe	.L158
	.loc 16 242 17
	movsd	.LC22(%rip), %xmm0
	movsd	%xmm0, 1584(%rbp)
.L158:
	.loc 16 244 49
	movq	1640(%rbp), %rdx
	leaq	288(%rbp), %rax
	movsd	1656(%rbp), %xmm2
	movsd	1584(%rbp), %xmm1
	movl	1704(%rbp), %ecx
	movl	%ecx, 48(%rsp)
	movsd	1680(%rbp), %xmm0
	movsd	%xmm0, 40(%rsp)
	movsd	1664(%rbp), %xmm0
	movsd	%xmm0, 32(%rsp)
	movapd	%xmm2, %xmm3
	movapd	%xmm1, %xmm2
	movq	%rax, %rcx
.LEHB25:
	call	_ZN10Calculador27solucaoDiretaUltimoElementoEdddd4RAMO
	.loc 16 244 80 discriminator 1
	leaq	288(%rbp), %rdx
	leaq	64(%rbp), %rax
	movq	%rax, %rcx
	call	_ZN12ElementosVooaSEOS_
	.loc 16 244 49 discriminator 1
	leaq	288(%rbp), %rax
	movq	%rax, %rcx
	call	_ZN12ElementosVooD1Ev
	.loc 16 247 22 discriminator 1
	leaq	-32(%rbp), %rax
	movq	%rax, %rcx
	call	_ZN12ElementosVooC1Ev
.LEHE25:
	.loc 16 248 16
	movsd	.LC13(%rip), %xmm0
	movsd	%xmm0, 1560(%rbp)
	.loc 16 249 49
	movq	1640(%rbp), %rdx
	movsd	1584(%rbp), %xmm0
	movapd	%xmm0, %xmm1
	addsd	1560(%rbp), %xmm1
	leaq	384(%rbp), %rax
	movsd	1656(%rbp), %xmm2
	movl	1704(%rbp), %ecx
	movl	%ecx, 48(%rsp)
	movsd	1680(%rbp), %xmm0
	movsd	%xmm0, 40(%rsp)
	movsd	1664(%rbp), %xmm0
	movsd	%xmm0, 32(%rsp)
	movapd	%xmm2, %xmm3
	movapd	%xmm1, %xmm2
	movq	%rax, %rcx
.LEHB26:
	call	_ZN10Calculador27solucaoDiretaUltimoElementoEdddd4RAMO
	.loc 16 249 91 discriminator 1
	leaq	384(%rbp), %rdx
	leaq	-32(%rbp), %rax
	movq	%rax, %rcx
	call	_ZN12ElementosVooaSEOS_
	.loc 16 249 49 discriminator 1
	leaq	384(%rbp), %rax
	movq	%rax, %rcx
	call	_ZN12ElementosVooD1Ev
.LBB30:
	.loc 16 252 23 discriminator 1
	movsd	40(%rbp), %xmm0
	.loc 16 252 9 discriminator 1
	movsd	.LC13(%rip), %xmm1
	comisd	%xmm1, %xmm0
	jbe	.L338
.LBB31:
	.loc 16 254 62
	movsd	1584(%rbp), %xmm0
	leaq	-64(%rbp), %rax
	movl	$0, %r9d
	pxor	%xmm2, %xmm2
	movapd	%xmm0, %xmm1
	movq	%rax, %rcx
	call	_ZN16ElementosDisparoC1Eddb
.LEHE26:
	.loc 16 255 54
	movl	$40, %ecx
	call	__cxa_allocate_exception
	movq	%rax, %rbx
	leaq	-64(%rbp), %rdx
	leaq	480(%rbp), %rax
	movq	%rax, %rcx
	call	_ZN16ElementosDisparoC1ERKS_
	leaq	480(%rbp), %rax
	movq	%rax, %rdx
	movq	%rbx, %rcx
.LEHB27:
	call	_ZN18ExceptionYawReposeC1E16ElementosDisparo
.LEHE27:
	.loc 16 255 54 is_stmt 0 discriminator 2
	leaq	480(%rbp), %rax
	movq	%rax, %rcx
	call	_ZN16ElementosDisparoD1Ev
	leaq	_ZN18ExceptionYawReposeD1Ev(%rip), %rax
	movq	%rax, %r8
	leaq	_ZTI18ExceptionYawRepose(%rip), %rdx
	movq	%rbx, %rcx
.LEHB28:
	call	__cxa_throw
.LEHE28:
.L338:
.LBE31:
.LBE30:
	.loc 16 258 52 is_stmt 1
	movsd	-16(%rbp), %xmm0
	.loc 16 258 68
	movsd	80(%rbp), %xmm1
	.loc 16 258 55
	subsd	%xmm1, %xmm0
	.loc 16 258 40
	movq	.LC10(%rip), %xmm1
	andpd	%xmm1, %xmm0
	.loc 16 258 16
	divsd	1560(%rbp), %xmm0
	movsd	%xmm0, 1480(%rbp)
	.loc 16 260 22
	movsd	1568(%rbp), %xmm0
	movsd	%xmm0, 1488(%rbp)
	.loc 16 261 37
	movsd	80(%rbp), %xmm1
	.loc 16 261 14
	movsd	1648(%rbp), %xmm0
	subsd	%xmm1, %xmm0
	movsd	%xmm0, 1568(%rbp)
	.loc 16 263 16
	movsd	1592(%rbp), %xmm0
	movsd	%xmm0, 1472(%rbp)
	.loc 16 264 15
	movsd	1568(%rbp), %xmm0
	divsd	1480(%rbp), %xmm0
	movsd	%xmm0, 1592(%rbp)
	.loc 16 266 23
	movsd	-16(%rbp), %xmm0
	.loc 16 266 39
	movsd	80(%rbp), %xmm1
	.loc 16 266 9
	comisd	%xmm1, %xmm0
	jbe	.L339
	.loc 16 268 13
	movsd	1568(%rbp), %xmm0
	pxor	%xmm1, %xmm1
	comisd	%xmm1, %xmm0
	jbe	.L164
	.loc 16 268 27 discriminator 1
	pxor	%xmm0, %xmm0
	comisd	1592(%rbp), %xmm0
	ja	.L166
.L164:
	.loc 16 268 42 discriminator 3
	pxor	%xmm0, %xmm0
	comisd	1568(%rbp), %xmm0
	jbe	.L170
	.loc 16 268 56 discriminator 4
	movsd	1592(%rbp), %xmm0
	pxor	%xmm1, %xmm1
	comisd	%xmm1, %xmm0
	jbe	.L170
.L166:
	.loc 16 269 23
	movsd	1592(%rbp), %xmm0
	movq	.LC23(%rip), %xmm1
	xorpd	%xmm1, %xmm0
	movsd	%xmm0, 1592(%rbp)
	jmp	.L170
.L339:
	.loc 16 273 13
	movsd	1568(%rbp), %xmm0
	pxor	%xmm1, %xmm1
	comisd	%xmm1, %xmm0
	jbe	.L171
	.loc 16 273 27 discriminator 1
	movsd	1592(%rbp), %xmm0
	pxor	%xmm1, %xmm1
	comisd	%xmm1, %xmm0
	ja	.L173
.L171:
	.loc 16 273 42 discriminator 3
	pxor	%xmm0, %xmm0
	comisd	1568(%rbp), %xmm0
	jbe	.L170
	.loc 16 273 56 discriminator 4
	pxor	%xmm0, %xmm0
	comisd	1592(%rbp), %xmm0
	jbe	.L170
.L173:
	.loc 16 274 23
	movsd	1592(%rbp), %xmm0
	movq	.LC23(%rip), %xmm1
	xorpd	%xmm1, %xmm0
	movsd	%xmm0, 1592(%rbp)
.L170:
.LBB33:
	.loc 16 278 16
	movsd	1592(%rbp), %xmm0
	movq	.LC10(%rip), %xmm1
	andpd	%xmm1, %xmm0
	.loc 16 278 9
	comisd	.LC19(%rip), %xmm0
	jbe	.L340
	.loc 16 280 31
	call	rand
	movl	%eax, %ecx
	.loc 16 280 33
	movl	$1374389535, %edx
	movl	%ecx, %eax
	imull	%edx
	sarl	$4, %edx
	movl	%ecx, %eax
	sarl	$31, %eax
	subl	%eax, %edx
	movl	%edx, %eax
	imull	$50, %eax, %eax
	subl	%eax, %ecx
	movl	%ecx, %eax
	.loc 16 280 37
	addl	$51, %eax
	.loc 16 280 41
	cvtsi2sd	%eax, %xmm2
	.loc 16 280 47
	movsd	1592(%rbp), %xmm0
	movq	.LC10(%rip), %xmm1
	andpd	%xmm0, %xmm1
	.loc 16 280 59
	movsd	1592(%rbp), %xmm0
	addsd	%xmm0, %xmm0
	.loc 16 280 54
	divsd	%xmm0, %xmm1
	movapd	%xmm1, %xmm0
	.loc 16 280 19
	mulsd	%xmm2, %xmm0
	movsd	%xmm0, 1592(%rbp)
	jmp	.L178
.L340:
.LBB34:
	.loc 16 284 32
	movsd	88(%rbp), %xmm0
	.loc 16 284 35
	subsd	1664(%rbp), %xmm0
	.loc 16 284 20
	movq	.LC10(%rip), %xmm1
	andpd	%xmm0, %xmm1
	.loc 16 284 13
	movsd	.LC24(%rip), %xmm0
	comisd	%xmm1, %xmm0
	jbe	.L179
	.loc 16 284 71 discriminator 1
	movsd	112(%rbp), %xmm0
	.loc 16 284 59 discriminator 1
	movq	.LC10(%rip), %xmm1
	andpd	%xmm0, %xmm1
	.loc 16 284 52 discriminator 1
	movsd	.LC25(%rip), %xmm0
	comisd	%xmm1, %xmm0
	jbe	.L179
	.loc 16 284 79 discriminator 2
	movsd	1664(%rbp), %xmm0
	comisd	.LC22(%rip), %xmm0
	jbe	.L179
	.loc 16 286 26
	movsd	.LC15(%rip), %xmm0
	movsd	%xmm0, 1560(%rbp)
	.loc 16 289 43
	movsd	1592(%rbp), %xmm0
	movq	1640(%rbp), %rax
	movapd	%xmm0, %xmm1
	movq	%rax, %rcx
	call	_ZN21CalculadorAtmosferico18filtroDeltaAngularEd
	movq	%xmm0, %rax
	movq	%rax, 1592(%rbp)
	.loc 16 289 23
	jmp	.L183
.L179:
	.loc 16 293 26
	movsd	.LC13(%rip), %xmm0
	movsd	%xmm0, 1560(%rbp)
.L183:
	.loc 16 296 39
	movsd	1592(%rbp), %xmm0
	movq	.LC10(%rip), %xmm1
	andpd	%xmm1, %xmm0
	.loc 16 296 52
	movsd	1472(%rbp), %xmm1
	movq	.LC10(%rip), %xmm2
	andpd	%xmm2, %xmm1
	.loc 16 296 67
	comisd	%xmm1, %xmm0
	jbe	.L341
	.loc 16 296 87 discriminator 1
	movsd	1472(%rbp), %xmm0
	divsd	1592(%rbp), %xmm0
	.loc 16 296 67 discriminator 1
	movq	.LC10(%rip), %xmm1
	andpd	%xmm1, %xmm0
	jmp	.L186
.L341:
	.loc 16 296 106 discriminator 2
	movsd	1592(%rbp), %xmm0
	divsd	1472(%rbp), %xmm0
	.loc 16 296 67 discriminator 2
	movq	.LC10(%rip), %xmm1
	andpd	%xmm1, %xmm0
.L186:
	.loc 16 296 20 discriminator 4
	movsd	%xmm0, 1464(%rbp)
	.loc 16 297 13 discriminator 4
	movsd	1464(%rbp), %xmm0
	comisd	.LC26(%rip), %xmm0
	jbe	.L178
	.loc 16 297 42 discriminator 1
	movsd	1592(%rbp), %xmm0
	movapd	%xmm0, %xmm1
	divsd	1472(%rbp), %xmm1
	.loc 16 297 34 discriminator 1
	pxor	%xmm0, %xmm0
	comisd	%xmm1, %xmm0
	jbe	.L178
	.loc 16 298 22
	movsd	1592(%rbp), %xmm0
	movsd	.LC8(%rip), %xmm1
	divsd	%xmm1, %xmm0
	movsd	%xmm0, 1592(%rbp)
.L178:
.LBE34:
.LBE33:
.LBB35:
	.loc 16 302 9
	cmpl	$1, 1704(%rbp)
	jne	.L189
	.loc 16 303 31
	movsd	128(%rbp), %xmm1
	.loc 16 303 17
	movsd	1664(%rbp), %xmm0
	comisd	%xmm1, %xmm0
	jbe	.L189
	.loc 16 304 36
	movsd	88(%rbp), %xmm0
	.loc 16 304 39
	subsd	1664(%rbp), %xmm0
	.loc 16 304 24
	movq	.LC10(%rip), %xmm1
	andpd	%xmm1, %xmm0
	.loc 16 304 17
	comisd	1688(%rbp), %xmm0
	jbe	.L189
	.loc 16 305 36
	movsd	80(%rbp), %xmm0
	.loc 16 305 39
	subsd	1648(%rbp), %xmm0
	.loc 16 305 24
	movq	.LC10(%rip), %xmm1
	andpd	%xmm0, %xmm1
	.loc 16 305 17
	movsd	1688(%rbp), %xmm0
	comisd	%xmm1, %xmm0
	jb	.L189
	.loc 16 306 36
	movsd	112(%rbp), %xmm0
	.loc 16 306 24
	movq	.LC10(%rip), %xmm1
	andpd	%xmm0, %xmm1
	.loc 16 306 17
	movsd	.LC13(%rip), %xmm0
	comisd	%xmm1, %xmm0
	jbe	.L189
.LBB36:
	.loc 16 308 52
	movq	1640(%rbp), %rdx
	movsd	1584(%rbp), %xmm0
	movapd	%xmm0, %xmm1
	addsd	1560(%rbp), %xmm1
	leaq	512(%rbp), %rax
	movsd	1656(%rbp), %xmm2
	movl	1704(%rbp), %ecx
	movl	%ecx, 48(%rsp)
	movsd	1680(%rbp), %xmm0
	movsd	%xmm0, 40(%rsp)
	movsd	1664(%rbp), %xmm0
	movsd	%xmm0, 32(%rsp)
	movapd	%xmm2, %xmm3
	movapd	%xmm1, %xmm2
	movq	%rax, %rcx
.LEHB29:
	call	_ZN10Calculador27solucaoDiretaUltimoElementoEdddd4RAMO
	.loc 16 308 94 discriminator 1
	leaq	512(%rbp), %rdx
	leaq	-32(%rbp), %rax
	movq	%rax, %rcx
	call	_ZN12ElementosVooaSEOS_
	.loc 16 308 52 discriminator 1
	leaq	512(%rbp), %rax
	movq	%rax, %rcx
	call	_ZN12ElementosVooD1Ev
	.loc 16 309 64 discriminator 1
	movsd	-8(%rbp), %xmm0
	.loc 16 309 80 discriminator 1
	movsd	88(%rbp), %xmm1
	.loc 16 309 67 discriminator 1
	subsd	%xmm1, %xmm0
	.loc 16 309 52 discriminator 1
	movq	.LC10(%rip), %xmm1
	andpd	%xmm1, %xmm0
	.loc 16 309 19 discriminator 1
	divsd	1560(%rbp), %xmm0
	movsd	%xmm0, 1456(%rbp)
	.loc 16 310 56 discriminator 1
	movsd	88(%rbp), %xmm1
	.loc 16 310 19 discriminator 1
	movsd	1664(%rbp), %xmm0
	subsd	%xmm1, %xmm0
	movsd	%xmm0, 1448(%rbp)
	.loc 16 311 19 discriminator 1
	movsd	1448(%rbp), %xmm0
	divsd	1456(%rbp), %xmm0
	movsd	%xmm0, 1440(%rbp)
	.loc 16 312 16 discriminator 1
	movsd	1584(%rbp), %xmm0
	addsd	1440(%rbp), %xmm0
	movsd	%xmm0, 1584(%rbp)
	movl	$0, %ebx
	.loc 16 313 12 discriminator 1
	jmp	.L194
.L189:
.LBE36:
.LBE35:
	.loc 16 315 9
	movq	1640(%rbp), %rax
	movq	8(%rax), %rcx
	.loc 16 315 29
	leaq	64(%rbp), %rax
	movq	%rax, %rdx
	call	_ZN10Observable8setDatumEP10BaseObject
	.loc 16 316 9
	movq	1640(%rbp), %rax
	movq	8(%rax), %rax
	.loc 16 316 27
	movq	%rax, %rcx
	call	_ZN10Observable6notifyEv
.LEHE29:
	.loc 16 317 17
	addl	$1, 1580(%rbp)
	.loc 16 318 9
	cmpl	$20, 1580(%rbp)
	jle	.L195
	.loc 16 320 18
	movsd	1680(%rbp), %xmm0
	movsd	.LC8(%rip), %xmm1
	divsd	%xmm1, %xmm0
	movsd	%xmm0, 1680(%rbp)
	.loc 16 321 13
	movsd	.LC27(%rip), %xmm0
	comisd	1680(%rbp), %xmm0
	jbe	.L342
	.loc 16 323 21
	movsd	1584(%rbp), %xmm0
	addsd	1592(%rbp), %xmm0
	movsd	%xmm0, 1584(%rbp)
	movl	$0, %ebx
	.loc 16 324 17
	jmp	.L194
.L342:
	.loc 16 326 22
	movl	$0, 1580(%rbp)
.L195:
	movl	$1, %ebx
.L194:
	leaq	-32(%rbp), %rax
	movq	%rax, %rcx
	call	_ZN12ElementosVooD1Ev
	cmpl	$1, %ebx
	jne	.L157
.LBE29:
	.loc 16 237 5 discriminator 3
	jmp	.L199
.L157:
	.loc 16 331 33
	movsd	80(%rbp), %xmm0
	.loc 16 331 20
	movq	1640(%rbp), %rax
	movsd	%xmm0, 264(%rax)
	.loc 16 332 33
	movsd	96(%rbp), %xmm0
	.loc 16 332 36
	movq	1640(%rbp), %rax
	movsd	264(%rax), %xmm1
	.loc 16 332 21
	divsd	%xmm1, %xmm0
	call	atan
	movq	%xmm0, %rax
	movq	%rax, 1504(%rbp)
	.loc 16 334 18
	movsd	1688(%rbp), %xmm0
	movsd	%xmm0, 1432(%rbp)
	.loc 16 335 15
	movl	$3, 1428(%rbp)
	.loc 16 336 9
	movl	$0, 1556(%rbp)
.LBB38:
	.loc 16 337 35
	movsd	88(%rbp), %xmm1
	.loc 16 337 22
	movsd	1664(%rbp), %xmm0
	subsd	%xmm1, %xmm0
	.loc 16 337 12
	movq	.LC10(%rip), %xmm1
	andpd	%xmm1, %xmm0
	.loc 16 337 5
	comisd	1432(%rbp), %xmm0
	jbe	.L200
.LBB39:
	.loc 16 339 14
	movb	$0, 1555(%rbp)
.LBB40:
	.loc 16 340 9
	cmpl	$0, 1704(%rbp)
	jne	.L202
.LBB41:
	.loc 16 342 26
	leaq	-32(%rbp), %rax
	movq	%rax, %rcx
.LEHB30:
	call	_ZN12ElementosVooC1Ev
.LEHE30:
	.loc 16 343 20
	movsd	.LC13(%rip), %xmm0
	movsd	%xmm0, 1544(%rbp)
	.loc 16 344 17
	movl	$0, 1540(%rbp)
.L238:
	.loc 16 345 47
	movsd	88(%rbp), %xmm1
	.loc 16 345 34
	movsd	1664(%rbp), %xmm0
	subsd	%xmm1, %xmm0
	.loc 16 345 24
	movq	.LC10(%rip), %xmm1
	andpd	%xmm1, %xmm0
	.loc 16 345 50
	comisd	1432(%rbp), %xmm0
	jbe	.L203
.LBB42:
	.loc 16 348 31
	movsd	88(%rbp), %xmm1
	.loc 16 348 17
	movsd	1664(%rbp), %xmm0
	comisd	%xmm1, %xmm0
	jb	.L343
	.loc 16 349 61
	movq	1640(%rbp), %rdx
	movsd	1584(%rbp), %xmm0
	movapd	%xmm0, %xmm1
	addsd	1544(%rbp), %xmm1
	leaq	608(%rbp), %rax
	movsd	1656(%rbp), %xmm2
	movl	1704(%rbp), %ecx
	movl	%ecx, 48(%rsp)
	movsd	1680(%rbp), %xmm0
	movsd	%xmm0, 40(%rsp)
	movsd	1664(%rbp), %xmm0
	movsd	%xmm0, 32(%rsp)
	movapd	%xmm2, %xmm3
	movapd	%xmm1, %xmm2
	movq	%rax, %rcx
.LEHB31:
	call	_ZN10Calculador27solucaoDiretaUltimoElementoEdddd4RAMO
	.loc 16 349 103 discriminator 1
	leaq	608(%rbp), %rdx
	leaq	-32(%rbp), %rax
	movq	%rax, %rcx
	call	_ZN12ElementosVooaSEOS_
	.loc 16 349 61 discriminator 1
	leaq	608(%rbp), %rax
	movq	%rax, %rcx
	call	_ZN12ElementosVooD1Ev
	jmp	.L207
.L343:
	.loc 16 351 61
	movq	1640(%rbp), %rdx
	movsd	1584(%rbp), %xmm0
	movapd	%xmm0, %xmm1
	subsd	1544(%rbp), %xmm1
	leaq	704(%rbp), %rax
	movsd	1656(%rbp), %xmm2
	movl	1704(%rbp), %ecx
	movl	%ecx, 48(%rsp)
	movsd	1680(%rbp), %xmm0
	movsd	%xmm0, 40(%rsp)
	movsd	1664(%rbp), %xmm0
	movsd	%xmm0, 32(%rsp)
	movapd	%xmm2, %xmm3
	movapd	%xmm1, %xmm2
	movq	%rax, %rcx
	call	_ZN10Calculador27solucaoDiretaUltimoElementoEdddd4RAMO
	.loc 16 351 103 discriminator 1
	leaq	704(%rbp), %rdx
	leaq	-32(%rbp), %rax
	movq	%rax, %rcx
	call	_ZN12ElementosVooaSEOS_
	.loc 16 351 61 discriminator 1
	leaq	704(%rbp), %rax
	movq	%rax, %rcx
	call	_ZN12ElementosVooD1Ev
.L207:
	.loc 16 353 69
	movsd	-8(%rbp), %xmm0
	.loc 16 353 85
	movsd	88(%rbp), %xmm1
	.loc 16 353 72
	subsd	%xmm1, %xmm0
	.loc 16 353 57
	movq	.LC10(%rip), %xmm1
	andpd	%xmm1, %xmm0
	.loc 16 353 24
	divsd	1544(%rbp), %xmm0
	movsd	%xmm0, 1416(%rbp)
	.loc 16 354 61
	movsd	88(%rbp), %xmm1
	.loc 16 354 24
	movsd	1664(%rbp), %xmm0
	subsd	%xmm1, %xmm0
	movsd	%xmm0, 1408(%rbp)
	.loc 16 355 24
	movsd	1408(%rbp), %xmm0
	divsd	1416(%rbp), %xmm0
	movsd	%xmm0, 1528(%rbp)
	.loc 16 357 57
	movq	1640(%rbp), %rdx
	movsd	1584(%rbp), %xmm0
	movapd	%xmm0, %xmm1
	addsd	1528(%rbp), %xmm1
	leaq	800(%rbp), %rax
	movsd	1656(%rbp), %xmm2
	movl	1704(%rbp), %ecx
	movl	%ecx, 48(%rsp)
	movsd	1680(%rbp), %xmm0
	movsd	%xmm0, 40(%rsp)
	movsd	1664(%rbp), %xmm0
	movsd	%xmm0, 32(%rsp)
	movapd	%xmm2, %xmm3
	movapd	%xmm1, %xmm2
	movq	%rax, %rcx
	call	_ZN10Calculador27solucaoDiretaUltimoElementoEdddd4RAMO
	.loc 16 357 96 discriminator 1
	leaq	800(%rbp), %rdx
	leaq	64(%rbp), %rax
	movq	%rax, %rcx
	call	_ZN12ElementosVooaSEOS_
	.loc 16 357 57 discriminator 1
	leaq	800(%rbp), %rax
	movq	%rax, %rcx
	call	_ZN12ElementosVooD1Ev
	.loc 16 359 21 discriminator 1
	movsd	1584(%rbp), %xmm0
	addsd	1528(%rbp), %xmm0
	movsd	%xmm0, 1584(%rbp)
	.loc 16 360 17 discriminator 1
	pxor	%xmm0, %xmm0
	comisd	1584(%rbp), %xmm0
	jbe	.L208
	.loc 16 362 25
	movsd	.LC19(%rip), %xmm0
	movsd	%xmm0, 1584(%rbp)
	.loc 16 363 36
	addl	$1, 1556(%rbp)
.L208:
	.loc 16 366 17
	movsd	1584(%rbp), %xmm0
	comisd	.LC28(%rip), %xmm0
	jbe	.L210
	.loc 16 368 25
	movsd	.LC29(%rip), %xmm0
	movsd	%xmm0, 1584(%rbp)
	.loc 16 369 36
	addl	$1, 1556(%rbp)
.L210:
	.loc 16 372 17
	cmpl	$3, 1556(%rbp)
	jg	.L348
	.loc 16 375 33
	addl	$1, 1540(%rbp)
	.loc 16 376 17
	cmpl	$20, 1540(%rbp)
	jg	.L349
	.loc 16 379 21
	movl	$0, 1524(%rbp)
.L236:
	.loc 16 380 50
	movsd	80(%rbp), %xmm1
	.loc 16 380 37
	movsd	1648(%rbp), %xmm0
	subsd	%xmm1, %xmm0
	.loc 16 380 28
	movq	.LC10(%rip), %xmm1
	andpd	%xmm1, %xmm0
	.loc 16 380 53
	comisd	1688(%rbp), %xmm0
	jbe	.L214
.LBB43:
	.loc 16 383 35
	movsd	80(%rbp), %xmm1
	.loc 16 383 21
	movsd	1648(%rbp), %xmm0
	comisd	%xmm1, %xmm0
	jb	.L344
	.loc 16 384 65
	movq	1640(%rbp), %rdx
	movsd	1584(%rbp), %xmm0
	movapd	%xmm0, %xmm1
	subsd	1544(%rbp), %xmm1
	leaq	896(%rbp), %rax
	movsd	1656(%rbp), %xmm2
	movl	1704(%rbp), %ecx
	movl	%ecx, 48(%rsp)
	movsd	1680(%rbp), %xmm0
	movsd	%xmm0, 40(%rsp)
	movsd	1664(%rbp), %xmm0
	movsd	%xmm0, 32(%rsp)
	movapd	%xmm2, %xmm3
	movapd	%xmm1, %xmm2
	movq	%rax, %rcx
	call	_ZN10Calculador27solucaoDiretaUltimoElementoEdddd4RAMO
	.loc 16 384 107 discriminator 1
	leaq	896(%rbp), %rdx
	leaq	-32(%rbp), %rax
	movq	%rax, %rcx
	call	_ZN12ElementosVooaSEOS_
	.loc 16 384 65 discriminator 1
	leaq	896(%rbp), %rax
	movq	%rax, %rcx
	call	_ZN12ElementosVooD1Ev
	jmp	.L218
.L344:
	.loc 16 386 65
	movq	1640(%rbp), %rdx
	movsd	1584(%rbp), %xmm0
	movapd	%xmm0, %xmm1
	addsd	1544(%rbp), %xmm1
	leaq	992(%rbp), %rax
	movsd	1656(%rbp), %xmm2
	movl	1704(%rbp), %ecx
	movl	%ecx, 48(%rsp)
	movsd	1680(%rbp), %xmm0
	movsd	%xmm0, 40(%rsp)
	movsd	1664(%rbp), %xmm0
	movsd	%xmm0, 32(%rsp)
	movapd	%xmm2, %xmm3
	movapd	%xmm1, %xmm2
	movq	%rax, %rcx
	call	_ZN10Calculador27solucaoDiretaUltimoElementoEdddd4RAMO
	.loc 16 386 107 discriminator 1
	leaq	992(%rbp), %rdx
	leaq	-32(%rbp), %rax
	movq	%rax, %rcx
	call	_ZN12ElementosVooaSEOS_
	.loc 16 386 65 discriminator 1
	leaq	992(%rbp), %rax
	movq	%rax, %rcx
	call	_ZN12ElementosVooD1Ev
.L218:
	.loc 16 388 75
	movsd	-16(%rbp), %xmm0
	.loc 16 388 91
	movsd	80(%rbp), %xmm1
	.loc 16 388 78
	subsd	%xmm1, %xmm0
	.loc 16 388 63
	movq	.LC10(%rip), %xmm1
	andpd	%xmm1, %xmm0
	.loc 16 388 28
	divsd	1544(%rbp), %xmm0
	movsd	%xmm0, 1400(%rbp)
	.loc 16 389 56
	movsd	80(%rbp), %xmm0
	.loc 16 389 28
	subsd	1648(%rbp), %xmm0
	movsd	%xmm0, 1392(%rbp)
	.loc 16 390 28
	movsd	1528(%rbp), %xmm0
	movsd	%xmm0, 1384(%rbp)
	.loc 16 391 27
	movsd	1392(%rbp), %xmm0
	divsd	1400(%rbp), %xmm0
	movsd	%xmm0, 1528(%rbp)
	.loc 16 396 40
	movsd	88(%rbp), %xmm0
	.loc 16 396 43
	subsd	1664(%rbp), %xmm0
	.loc 16 396 28
	movq	.LC10(%rip), %xmm1
	andpd	%xmm0, %xmm1
	.loc 16 396 21
	movsd	.LC24(%rip), %xmm0
	comisd	%xmm1, %xmm0
	jbe	.L219
	.loc 16 396 79 discriminator 1
	movsd	112(%rbp), %xmm0
	.loc 16 396 67 discriminator 1
	movq	.LC10(%rip), %xmm1
	andpd	%xmm0, %xmm1
	.loc 16 396 60 discriminator 1
	movsd	.LC25(%rip), %xmm0
	comisd	%xmm1, %xmm0
	jbe	.L219
	.loc 16 396 87 discriminator 2
	movsd	1664(%rbp), %xmm0
	comisd	.LC22(%rip), %xmm0
	jbe	.L219
	.loc 16 398 34
	movsd	.LC15(%rip), %xmm0
	movsd	%xmm0, 1544(%rbp)
	.loc 16 401 51
	movsd	1528(%rbp), %xmm0
	movq	1640(%rbp), %rax
	movapd	%xmm0, %xmm1
	movq	%rax, %rcx
	call	_ZN21CalculadorAtmosferico18filtroDeltaAngularEd
	movq	%xmm0, %rax
	movq	%rax, 1528(%rbp)
	.loc 16 401 31
	jmp	.L223
.L219:
	.loc 16 405 34
	movsd	.LC13(%rip), %xmm0
	movsd	%xmm0, 1544(%rbp)
.L223:
	.loc 16 408 47
	movsd	1528(%rbp), %xmm0
	movq	.LC10(%rip), %xmm1
	andpd	%xmm1, %xmm0
	.loc 16 408 60
	movsd	1384(%rbp), %xmm1
	movq	.LC10(%rip), %xmm2
	andpd	%xmm2, %xmm1
	.loc 16 408 75
	comisd	%xmm1, %xmm0
	jbe	.L345
	.loc 16 408 95 discriminator 1
	movsd	1384(%rbp), %xmm0
	divsd	1528(%rbp), %xmm0
	.loc 16 408 75 discriminator 1
	movq	.LC10(%rip), %xmm1
	andpd	%xmm1, %xmm0
	jmp	.L226
.L345:
	.loc 16 408 114 discriminator 2
	movsd	1528(%rbp), %xmm0
	divsd	1384(%rbp), %xmm0
	.loc 16 408 75 discriminator 2
	movq	.LC10(%rip), %xmm1
	andpd	%xmm1, %xmm0
.L226:
	.loc 16 408 28 discriminator 4
	movsd	%xmm0, 1376(%rbp)
	.loc 16 409 21 discriminator 4
	movsd	1376(%rbp), %xmm0
	comisd	.LC26(%rip), %xmm0
	jbe	.L227
	.loc 16 409 50 discriminator 1
	movsd	1528(%rbp), %xmm0
	movapd	%xmm0, %xmm1
	divsd	1384(%rbp), %xmm1
	.loc 16 409 42 discriminator 1
	pxor	%xmm0, %xmm0
	comisd	%xmm1, %xmm0
	jbe	.L227
	.loc 16 410 30
	movsd	1528(%rbp), %xmm0
	movsd	.LC8(%rip), %xmm1
	divsd	%xmm1, %xmm0
	movsd	%xmm0, 1528(%rbp)
.L227:
	.loc 16 412 25
	movsd	1584(%rbp), %xmm0
	addsd	1528(%rbp), %xmm0
	movsd	%xmm0, 1584(%rbp)
	.loc 16 413 21
	pxor	%xmm0, %xmm0
	comisd	1584(%rbp), %xmm0
	jbe	.L230
	.loc 16 415 29
	movsd	.LC19(%rip), %xmm0
	movsd	%xmm0, 1584(%rbp)
	.loc 16 416 40
	addl	$1, 1556(%rbp)
.L230:
	.loc 16 419 21
	movsd	1584(%rbp), %xmm0
	comisd	.LC28(%rip), %xmm0
	jbe	.L232
	.loc 16 421 29
	movsd	.LC29(%rip), %xmm0
	movsd	%xmm0, 1584(%rbp)
	.loc 16 422 40
	addl	$1, 1556(%rbp)
.L232:
	.loc 16 425 61
	movq	1640(%rbp), %rdx
	leaq	1088(%rbp), %rax
	movsd	1656(%rbp), %xmm2
	movsd	1584(%rbp), %xmm1
	movl	1704(%rbp), %ecx
	movl	%ecx, 48(%rsp)
	movsd	1680(%rbp), %xmm0
	movsd	%xmm0, 40(%rsp)
	movsd	1664(%rbp), %xmm0
	movsd	%xmm0, 32(%rsp)
	movapd	%xmm2, %xmm3
	movapd	%xmm1, %xmm2
	movq	%rax, %rcx
	call	_ZN10Calculador27solucaoDiretaUltimoElementoEdddd4RAMO
.LEHE31:
	.loc 16 425 92 discriminator 1
	leaq	1088(%rbp), %rdx
	leaq	64(%rbp), %rax
	movq	%rax, %rcx
	call	_ZN12ElementosVooaSEOS_
	.loc 16 425 61 discriminator 1
	leaq	1088(%rbp), %rax
	movq	%rax, %rcx
	call	_ZN12ElementosVooD1Ev
	.loc 16 427 21 discriminator 1
	cmpl	$3, 1556(%rbp)
	jg	.L350
	.loc 16 430 39
	addl	$1, 1524(%rbp)
	.loc 16 431 21
	cmpl	$20, 1524(%rbp)
	jg	.L351
.LBE43:
	.loc 16 380 17
	jmp	.L236
.L350:
.LBB44:
	.loc 16 428 25
	nop
	jmp	.L214
.L351:
	.loc 16 432 25
	nop
.L214:
.LBE44:
	.loc 16 434 17
	cmpl	$3, 1556(%rbp)
	jg	.L352
.LBE42:
	.loc 16 345 13
	jmp	.L238
.L348:
.LBB45:
	.loc 16 373 21
	nop
	jmp	.L203
.L349:
	.loc 16 377 21
	nop
	jmp	.L203
.L352:
	.loc 16 435 21
	nop
.L203:
.LBE45:
	.loc 16 439 32
	movsd	88(%rbp), %xmm0
	.loc 16 439 35
	subsd	1664(%rbp), %xmm0
	.loc 16 439 20
	movq	.LC10(%rip), %xmm1
	andpd	%xmm0, %xmm1
	.loc 16 439 70
	movsd	1432(%rbp), %xmm0
	comisd	%xmm1, %xmm0
	setnb	%dl
	.loc 16 439 88
	movsd	80(%rbp), %xmm0
	.loc 16 439 91
	subsd	1648(%rbp), %xmm0
	.loc 16 439 76
	movq	.LC10(%rip), %xmm1
	andpd	%xmm0, %xmm1
	.loc 16 439 70
	movsd	1688(%rbp), %xmm0
	comisd	%xmm1, %xmm0
	seta	%al
	andl	%edx, %eax
	.loc 16 439 13
	testb	%al, %al
	je	.L239
	.loc 16 440 27
	movb	$1, 1555(%rbp)
.L239:
	.loc 16 342 26
	leaq	-32(%rbp), %rax
	movq	%rax, %rcx
	call	_ZN12ElementosVooD1Ev
.L202:
.LBE41:
.LBE40:
.LBB47:
	.loc 16 444 12
	movzbl	1555(%rbp), %eax
	xorl	$1, %eax
	.loc 16 444 9
	testb	%al, %al
	je	.L200
.LBB48:
	.loc 16 446 67
	movsd	1504(%rbp), %xmm1
	movsd	1584(%rbp), %xmm0
	leaq	-32(%rbp), %rax
	movl	$0, %r9d
	movapd	%xmm1, %xmm2
	movapd	%xmm0, %xmm1
	movq	%rax, %rcx
.LEHB32:
	call	_ZN16ElementosDisparoC1Eddb
.LEHE32:
	.loc 16 447 24
	movsd	1568(%rbp), %xmm0
	divsd	1648(%rbp), %xmm0
	.loc 16 447 19
	movq	.LC10(%rip), %xmm1
	andpd	%xmm0, %xmm1
	.loc 16 447 12
	movsd	.LC17(%rip), %xmm0
	comisd	%xmm1, %xmm0
	jbe	.L241
	.loc 16 447 59 discriminator 1
	movsd	88(%rbp), %xmm0
	.loc 16 447 61 discriminator 1
	divsd	1664(%rbp), %xmm0
	.loc 16 447 47 discriminator 1
	movq	.LC10(%rip), %xmm1
	andpd	%xmm1, %xmm0
	.loc 16 447 40 discriminator 1
	comisd	.LC30(%rip), %xmm0
	jbe	.L241
	.loc 16 447 98 discriminator 2
	movsd	88(%rbp), %xmm0
	.loc 16 447 100 discriminator 2
	divsd	1664(%rbp), %xmm0
	.loc 16 447 86 discriminator 2
	movq	.LC10(%rip), %xmm1
	andpd	%xmm0, %xmm1
	.loc 16 447 79 discriminator 2
	movsd	.LC31(%rip), %xmm0
	comisd	%xmm1, %xmm0
	jbe	.L241
	.loc 16 448 65
	movl	$40, %ecx
	call	__cxa_allocate_exception
	movq	%rax, %rbx
	leaq	-32(%rbp), %rdx
	leaq	1184(%rbp), %rax
	movq	%rax, %rcx
	call	_ZN16ElementosDisparoC1ERKS_
	leaq	1184(%rbp), %rax
	movq	%rax, %rdx
	movq	%rbx, %rcx
.LEHB33:
	call	_ZN25ExceptionQuasiConvergenceC1E16ElementosDisparo
.LEHE33:
	.loc 16 448 65 is_stmt 0 discriminator 2
	leaq	1184(%rbp), %rax
	movq	%rax, %rcx
	call	_ZN16ElementosDisparoD1Ev
	leaq	_ZN25ExceptionQuasiConvergenceD1Ev(%rip), %rax
	movq	%rax, %r8
	leaq	_ZTI25ExceptionQuasiConvergence(%rip), %rdx
	movq	%rbx, %rcx
.LEHB34:
	call	__cxa_throw
.LEHE34:
.L241:
	.loc 16 451 59 is_stmt 1
	movl	$40, %ecx
	call	__cxa_allocate_exception
	movq	%rax, %rbx
	leaq	-32(%rbp), %rdx
	leaq	1216(%rbp), %rax
	movq	%rax, %rcx
	call	_ZN16ElementosDisparoC1ERKS_
	leaq	1216(%rbp), %rax
	movq	%rax, %rdx
	movq	%rbx, %rcx
.LEHB35:
	call	_ZN20ExceptionConvergenceC1E16ElementosDisparo
.LEHE35:
	.loc 16 451 59 is_stmt 0 discriminator 2
	leaq	1216(%rbp), %rax
	movq	%rax, %rcx
	call	_ZN16ElementosDisparoD1Ev
	leaq	_ZN20ExceptionConvergenceD1Ev(%rip), %rax
	movq	%rax, %r8
	leaq	_ZTI20ExceptionConvergence(%rip), %rdx
	movq	%rbx, %rcx
.LEHB36:
	call	__cxa_throw
.LEHE36:
.L200:
.LBE48:
.LBE47:
.LBE39:
.LBE38:
.LBB53:
	.loc 16 460 19 is_stmt 1
	movsd	136(%rbp), %xmm0
	.loc 16 460 5
	movsd	.LC13(%rip), %xmm1
	comisd	%xmm1, %xmm0
	jb	.L346
.LBB54:
	.loc 16 462 64
	movsd	1504(%rbp), %xmm1
	movsd	1584(%rbp), %xmm0
	leaq	-32(%rbp), %rax
	movl	$0, %r9d
	movapd	%xmm1, %xmm2
	movapd	%xmm0, %xmm1
	movq	%rax, %rcx
.LEHB37:
	call	_ZN16ElementosDisparoC1Eddb
.LEHE37:
	.loc 16 463 50
	movl	$40, %ecx
	call	__cxa_allocate_exception
	movq	%rax, %rbx
	leaq	-32(%rbp), %rdx
	leaq	1248(%rbp), %rax
	movq	%rax, %rcx
	call	_ZN16ElementosDisparoC1ERKS_
	leaq	1248(%rbp), %rax
	movq	%rax, %rdx
	movq	%rbx, %rcx
.LEHB38:
	call	_ZN18ExceptionYawReposeC1E16ElementosDisparo
.LEHE38:
	.loc 16 463 50 is_stmt 0 discriminator 2
	leaq	1248(%rbp), %rax
	movq	%rax, %rcx
	call	_ZN16ElementosDisparoD1Ev
	leaq	_ZN18ExceptionYawReposeD1Ev(%rip), %rax
	movq	%rax, %r8
	leaq	_ZTI18ExceptionYawRepose(%rip), %rdx
	movq	%rbx, %rcx
.LEHB39:
	call	__cxa_throw
.LEHE39:
.L346:
.LBE54:
.LBE53:
.LBB56:
	.loc 16 465 5 is_stmt 1
	cmpl	$20, 1580(%rbp)
	jle	.L247
.LBB57:
	.loc 16 467 64
	movsd	1504(%rbp), %xmm1
	movsd	1584(%rbp), %xmm0
	leaq	-32(%rbp), %rax
	movl	$0, %r9d
	movapd	%xmm1, %xmm2
	movapd	%xmm0, %xmm1
	movq	%rax, %rcx
.LEHB40:
	call	_ZN16ElementosDisparoC1Eddb
.LEHE40:
	.loc 16 468 21
	movsd	1568(%rbp), %xmm0
	divsd	1648(%rbp), %xmm0
	.loc 16 468 16
	movq	.LC10(%rip), %xmm1
	andpd	%xmm0, %xmm1
	.loc 16 468 9
	movsd	.LC17(%rip), %xmm0
	comisd	%xmm1, %xmm0
	jbe	.L248
	.loc 16 468 56 discriminator 1
	movsd	88(%rbp), %xmm0
	.loc 16 468 58 discriminator 1
	divsd	1664(%rbp), %xmm0
	.loc 16 468 44 discriminator 1
	movq	.LC10(%rip), %xmm1
	andpd	%xmm1, %xmm0
	.loc 16 468 37 discriminator 1
	comisd	.LC30(%rip), %xmm0
	jbe	.L248
	.loc 16 468 95 discriminator 2
	movsd	88(%rbp), %xmm0
	.loc 16 468 97 discriminator 2
	divsd	1664(%rbp), %xmm0
	.loc 16 468 83 discriminator 2
	movq	.LC10(%rip), %xmm1
	andpd	%xmm0, %xmm1
	.loc 16 468 76 discriminator 2
	movsd	.LC31(%rip), %xmm0
	comisd	%xmm1, %xmm0
	jbe	.L248
	.loc 16 469 61
	movl	$40, %ecx
	call	__cxa_allocate_exception
	movq	%rax, %rbx
	leaq	-32(%rbp), %rdx
	leaq	1280(%rbp), %rax
	movq	%rax, %rcx
	call	_ZN16ElementosDisparoC1ERKS_
	leaq	1280(%rbp), %rax
	movq	%rax, %rdx
	movq	%rbx, %rcx
.LEHB41:
	call	_ZN25ExceptionQuasiConvergenceC1E16ElementosDisparo
.LEHE41:
	.loc 16 469 61 is_stmt 0 discriminator 2
	leaq	1280(%rbp), %rax
	movq	%rax, %rcx
	call	_ZN16ElementosDisparoD1Ev
	leaq	_ZN25ExceptionQuasiConvergenceD1Ev(%rip), %rax
	movq	%rax, %r8
	leaq	_ZTI25ExceptionQuasiConvergence(%rip), %rdx
	movq	%rbx, %rcx
.LEHB42:
	call	__cxa_throw
.LEHE42:
.L248:
	.loc 16 471 56 is_stmt 1
	movl	$40, %ecx
	call	__cxa_allocate_exception
	movq	%rax, %rbx
	leaq	-32(%rbp), %rdx
	leaq	1312(%rbp), %rax
	movq	%rax, %rcx
	call	_ZN16ElementosDisparoC1ERKS_
	leaq	1312(%rbp), %rax
	movq	%rax, %rdx
	movq	%rbx, %rcx
.LEHB43:
	call	_ZN20ExceptionConvergenceC1E16ElementosDisparo
.LEHE43:
	.loc 16 471 56 is_stmt 0 discriminator 2
	leaq	1312(%rbp), %rax
	movq	%rax, %rcx
	call	_ZN16ElementosDisparoD1Ev
	leaq	_ZN20ExceptionConvergenceD1Ev(%rip), %rax
	movq	%rax, %r8
	leaq	_ZTI20ExceptionConvergence(%rip), %rdx
	movq	%rbx, %rcx
.LEHB44:
	call	__cxa_throw
.LEHE44:
.L247:
.LBE57:
.LBE56:
	.loc 16 475 59 is_stmt 1
	movsd	1504(%rbp), %xmm1
	movsd	1584(%rbp), %xmm0
	movl	$1, %r9d
	movapd	%xmm1, %xmm2
	movapd	%xmm0, %xmm1
	movq	1632(%rbp), %rcx
.LEHB45:
	call	_ZN16ElementosDisparoC1Eddb
.LEHE45:
	.loc 16 477 5
	movsd	1584(%rbp), %xmm0
	comisd	.LC32(%rip), %xmm0
	jbe	.L252
	.loc 16 477 21 discriminator 1
	cmpl	$0, 1672(%rbp)
	je	.L254
.L252:
	.loc 16 477 68 discriminator 3
	movsd	.LC32(%rip), %xmm0
	comisd	1584(%rbp), %xmm0
	ja	.L336
	.loc 16 480 11 discriminator 3
	jmp	.L353
.L336:
	.loc 16 477 84 discriminator 4
	cmpl	$1, 1672(%rbp)
	jne	.L353
.L254:
	.loc 16 478 51
	movl	$40, %ecx
	call	__cxa_allocate_exception
	movq	%rax, %rbx
	leaq	1344(%rbp), %rax
	movq	1632(%rbp), %rdx
	movq	%rax, %rcx
	call	_ZN16ElementosDisparoC1ERKS_
	leaq	1344(%rbp), %rax
	movq	%rax, %rdx
	movq	%rbx, %rcx
.LEHB46:
	call	_ZN19ExceptionTrajectoryC1E16ElementosDisparo
.LEHE46:
	.loc 16 478 51 is_stmt 0 discriminator 2
	leaq	1344(%rbp), %rax
	movq	%rax, %rcx
	call	_ZN16ElementosDisparoD1Ev
	leaq	_ZN19ExceptionTrajectoryD1Ev(%rip), %rax
	movq	%rax, %r8
	leaq	_ZTI19ExceptionTrajectory(%rip), %rdx
	movq	%rbx, %rcx
.LEHB47:
	call	__cxa_throw
.LEHE47:
.L353:
	.loc 16 480 11 is_stmt 1
	nop
	.loc 16 210 18
	leaq	64(%rbp), %rax
	movq	%rax, %rcx
	call	_ZN12ElementosVooD1Ev
	.loc 16 480 11
	jmp	.L347
.L278:
	movq	%rax, %rsi
.LBB59:
.LBB28:
.LBB27:
.LBB26:
	.loc 16 229 55
	leaq	256(%rbp), %rax
	movq	%rax, %rcx
	call	_ZN16ElementosDisparoD1Ev
	movq	%rbx, %rcx
	call	__cxa_free_exception
	movq	%rsi, %rbx
	jmp	.L259
.L279:
	movq	%rax, %rbx
.L259:
	.loc 16 228 62
	leaq	-64(%rbp), %rax
	movq	%rax, %rcx
	call	_ZN16ElementosDisparoD1Ev
	jmp	.L260
.L277:
	movq	%rax, %rbx
.L260:
.LBE26:
.LBE27:
	.loc 16 224 22
	leaq	-32(%rbp), %rax
	movq	%rax, %rcx
	call	_ZN12ElementosVooD1Ev
	jmp	.L261
.L281:
	movq	%rax, %rsi
.LBE28:
.LBE59:
.LBB60:
.LBB37:
.LBB32:
	.loc 16 255 54
	leaq	480(%rbp), %rax
	movq	%rax, %rcx
	call	_ZN16ElementosDisparoD1Ev
	movq	%rbx, %rcx
	call	__cxa_free_exception
	movq	%rsi, %rbx
	jmp	.L263
.L282:
	movq	%rax, %rbx
.L263:
	.loc 16 254 62
	leaq	-64(%rbp), %rax
	movq	%rax, %rcx
	call	_ZN16ElementosDisparoD1Ev
	jmp	.L264
.L280:
	movq	%rax, %rbx
.L264:
.LBE32:
.LBE37:
	.loc 16 247 22
	leaq	-32(%rbp), %rax
	movq	%rax, %rcx
	call	_ZN12ElementosVooD1Ev
	jmp	.L261
.L283:
	movq	%rax, %rbx
.LBE60:
.LBB61:
.LBB52:
.LBB50:
.LBB46:
	.loc 16 342 26
	leaq	-32(%rbp), %rax
	movq	%rax, %rcx
	call	_ZN12ElementosVooD1Ev
	jmp	.L261
.L284:
	movq	%rax, %rsi
.LBE46:
.LBE50:
.LBB51:
.LBB49:
	.loc 16 448 65
	leaq	1184(%rbp), %rax
	movq	%rax, %rcx
	call	_ZN16ElementosDisparoD1Ev
	movq	%rbx, %rcx
	call	__cxa_free_exception
	movq	%rsi, %rbx
	jmp	.L267
.L286:
	movq	%rax, %rsi
	.loc 16 451 59
	leaq	1216(%rbp), %rax
	movq	%rax, %rcx
	call	_ZN16ElementosDisparoD1Ev
	movq	%rbx, %rcx
	call	__cxa_free_exception
	movq	%rsi, %rbx
	jmp	.L267
.L285:
	movq	%rax, %rbx
.L267:
	.loc 16 446 67
	leaq	-32(%rbp), %rax
	movq	%rax, %rcx
	call	_ZN16ElementosDisparoD1Ev
	jmp	.L261
.L287:
	movq	%rax, %rsi
.LBE49:
.LBE51:
.LBE52:
.LBE61:
.LBB62:
.LBB55:
	.loc 16 463 50
	leaq	1248(%rbp), %rax
	movq	%rax, %rcx
	call	_ZN16ElementosDisparoD1Ev
	movq	%rbx, %rcx
	call	__cxa_free_exception
	movq	%rsi, %rbx
	jmp	.L270
.L288:
	movq	%rax, %rbx
.L270:
	.loc 16 462 64
	leaq	-32(%rbp), %rax
	movq	%rax, %rcx
	call	_ZN16ElementosDisparoD1Ev
	jmp	.L261
.L289:
	movq	%rax, %rsi
.LBE55:
.LBE62:
.LBB63:
.LBB58:
	.loc 16 469 61
	leaq	1280(%rbp), %rax
	movq	%rax, %rcx
	call	_ZN16ElementosDisparoD1Ev
	movq	%rbx, %rcx
	call	__cxa_free_exception
	movq	%rsi, %rbx
	jmp	.L272
.L291:
	movq	%rax, %rsi
	.loc 16 471 56
	leaq	1312(%rbp), %rax
	movq	%rax, %rcx
	call	_ZN16ElementosDisparoD1Ev
	movq	%rbx, %rcx
	call	__cxa_free_exception
	movq	%rsi, %rbx
	jmp	.L272
.L290:
	movq	%rax, %rbx
.L272:
	.loc 16 467 64
	leaq	-32(%rbp), %rax
	movq	%rax, %rcx
	call	_ZN16ElementosDisparoD1Ev
	jmp	.L261
.L292:
	movq	%rax, %rsi
.LBE58:
.LBE63:
	.loc 16 478 51
	leaq	1344(%rbp), %rax
	movq	%rax, %rcx
	call	_ZN16ElementosDisparoD1Ev
	movq	%rbx, %rcx
	call	__cxa_free_exception
	movq	%rsi, %rbx
	jmp	.L275
.L293:
	movq	%rax, %rbx
.L275:
	movq	1632(%rbp), %rcx
	call	_ZN16ElementosDisparoD1Ev
	jmp	.L261
.L276:
	movq	%rax, %rbx
.L261:
	.loc 16 210 18
	leaq	64(%rbp), %rax
	movq	%rax, %rcx
	call	_ZN12ElementosVooD1Ev
	movq	%rbx, %rax
	movq	%rax, %rcx
.LEHB48:
	call	_Unwind_Resume
.LEHE48:
.L347:
	.loc 16 483 1
	movq	1632(%rbp), %rax
	addq	$1728, %rsp
	popq	%rbx
	.cfi_restore 3
	popq	%rsi
	.cfi_restore 4
	popq	%rbp
	.cfi_restore 6
	.cfi_def_cfa 7, -1704
	ret
	.cfi_endproc
.LFE2690:
	.seh_handler	__gxx_personality_seh0, @unwind, @except
	.seh_handlerdata
.LLSDA2690:
	.byte	0xff
	.byte	0xff
	.byte	0x1
	.uleb128 .LLSDACSE2690-.LLSDACSB2690
.LLSDACSB2690:
	.uleb128 .LEHB20-.LFB2690
	.uleb128 .LEHE20-.LEHB20
	.uleb128 0
	.uleb128 0
	.uleb128 .LEHB21-.LFB2690
	.uleb128 .LEHE21-.LEHB21
	.uleb128 .L276-.LFB2690
	.uleb128 0
	.uleb128 .LEHB22-.LFB2690
	.uleb128 .LEHE22-.LEHB22
	.uleb128 .L277-.LFB2690
	.uleb128 0
	.uleb128 .LEHB23-.LFB2690
	.uleb128 .LEHE23-.LEHB23
	.uleb128 .L278-.LFB2690
	.uleb128 0
	.uleb128 .LEHB24-.LFB2690
	.uleb128 .LEHE24-.LEHB24
	.uleb128 .L279-.LFB2690
	.uleb128 0
	.uleb128 .LEHB25-.LFB2690
	.uleb128 .LEHE25-.LEHB25
	.uleb128 .L276-.LFB2690
	.uleb128 0
	.uleb128 .LEHB26-.LFB2690
	.uleb128 .LEHE26-.LEHB26
	.uleb128 .L280-.LFB2690
	.uleb128 0
	.uleb128 .LEHB27-.LFB2690
	.uleb128 .LEHE27-.LEHB27
	.uleb128 .L281-.LFB2690
	.uleb128 0
	.uleb128 .LEHB28-.LFB2690
	.uleb128 .LEHE28-.LEHB28
	.uleb128 .L282-.LFB2690
	.uleb128 0
	.uleb128 .LEHB29-.LFB2690
	.uleb128 .LEHE29-.LEHB29
	.uleb128 .L280-.LFB2690
	.uleb128 0
	.uleb128 .LEHB30-.LFB2690
	.uleb128 .LEHE30-.LEHB30
	.uleb128 .L276-.LFB2690
	.uleb128 0
	.uleb128 .LEHB31-.LFB2690
	.uleb128 .LEHE31-.LEHB31
	.uleb128 .L283-.LFB2690
	.uleb128 0
	.uleb128 .LEHB32-.LFB2690
	.uleb128 .LEHE32-.LEHB32
	.uleb128 .L276-.LFB2690
	.uleb128 0
	.uleb128 .LEHB33-.LFB2690
	.uleb128 .LEHE33-.LEHB33
	.uleb128 .L284-.LFB2690
	.uleb128 0
	.uleb128 .LEHB34-.LFB2690
	.uleb128 .LEHE34-.LEHB34
	.uleb128 .L285-.LFB2690
	.uleb128 0
	.uleb128 .LEHB35-.LFB2690
	.uleb128 .LEHE35-.LEHB35
	.uleb128 .L286-.LFB2690
	.uleb128 0
	.uleb128 .LEHB36-.LFB2690
	.uleb128 .LEHE36-.LEHB36
	.uleb128 .L285-.LFB2690
	.uleb128 0
	.uleb128 .LEHB37-.LFB2690
	.uleb128 .LEHE37-.LEHB37
	.uleb128 .L276-.LFB2690
	.uleb128 0
	.uleb128 .LEHB38-.LFB2690
	.uleb128 .LEHE38-.LEHB38
	.uleb128 .L287-.LFB2690
	.uleb128 0
	.uleb128 .LEHB39-.LFB2690
	.uleb128 .LEHE39-.LEHB39
	.uleb128 .L288-.LFB2690
	.uleb128 0
	.uleb128 .LEHB40-.LFB2690
	.uleb128 .LEHE40-.LEHB40
	.uleb128 .L276-.LFB2690
	.uleb128 0
	.uleb128 .LEHB41-.LFB2690
	.uleb128 .LEHE41-.LEHB41
	.uleb128 .L289-.LFB2690
	.uleb128 0
	.uleb128 .LEHB42-.LFB2690
	.uleb128 .LEHE42-.LEHB42
	.uleb128 .L290-.LFB2690
	.uleb128 0
	.uleb128 .LEHB43-.LFB2690
	.uleb128 .LEHE43-.LEHB43
	.uleb128 .L291-.LFB2690
	.uleb128 0
	.uleb128 .LEHB44-.LFB2690
	.uleb128 .LEHE44-.LEHB44
	.uleb128 .L290-.LFB2690
	.uleb128 0
	.uleb128 .LEHB45-.LFB2690
	.uleb128 .LEHE45-.LEHB45
	.uleb128 .L276-.LFB2690
	.uleb128 0
	.uleb128 .LEHB46-.LFB2690
	.uleb128 .LEHE46-.LEHB46
	.uleb128 .L292-.LFB2690
	.uleb128 0
	.uleb128 .LEHB47-.LFB2690
	.uleb128 .LEHE47-.LEHB47
	.uleb128 .L293-.LFB2690
	.uleb128 0
	.uleb128 .LEHB48-.LFB2690
	.uleb128 .LEHE48-.LEHB48
	.uleb128 0
	.uleb128 0
.LLSDACSE2690:
	.text
	.seh_endproc
	.align 2
	.globl	_ZN21CalculadorAtmosferico11acCoriolisxEdddd
	.def	_ZN21CalculadorAtmosferico11acCoriolisxEdddd;	.scl	2;	.type	32;	.endef
	.seh_proc	_ZN21CalculadorAtmosferico11acCoriolisxEdddd
_ZN21CalculadorAtmosferico11acCoriolisxEdddd:
.LFB2712:
	.loc 16 495 1
	.cfi_startproc
	pushq	%rbp
	.seh_pushreg	%rbp
	.cfi_def_cfa_offset 16
	.cfi_offset 6, -16
	movq	%rsp, %rbp
	.seh_setframe	%rbp, 0
	.cfi_def_cfa_register 6
	subq	$64, %rsp
	.seh_stackalloc	64
	movaps	%xmm6, -16(%rbp)
	.seh_savexmm	%xmm6, 48
	.cfi_offset 23, -32
	.seh_endprologue
	movq	%rcx, 16(%rbp)
	movsd	%xmm1, 24(%rbp)
	movsd	%xmm2, 32(%rbp)
	movsd	%xmm3, 40(%rbp)
	.loc 16 496 12
	pxor	%xmm0, %xmm0
	movsd	%xmm0, -24(%rbp)
	.loc 16 497 8
	movq	16(%rbp), %rax
	movzbl	297(%rax), %eax
	.loc 16 497 5
	testb	%al, %al
	je	.L355
	.loc 16 499 18
	movsd	24(%rbp), %xmm1
	movsd	.LC33(%rip), %xmm0
	mulsd	%xmm1, %xmm0
	movsd	%xmm0, 24(%rbp)
	.loc 16 500 20
	movsd	32(%rbp), %xmm1
	movsd	.LC34(%rip), %xmm0
	mulsd	%xmm1, %xmm0
	movsd	%xmm0, 32(%rbp)
	.loc 16 501 33
	movsd	40(%rbp), %xmm0
	movq	.LC23(%rip), %xmm1
	movapd	%xmm0, %xmm6
	xorpd	%xmm1, %xmm6
	.loc 16 501 40
	movq	24(%rbp), %rax
	movq	%rax, %xmm0
	call	cos
	.loc 16 501 36
	mulsd	%xmm0, %xmm6
	.loc 16 501 54
	movq	32(%rbp), %rax
	movq	%rax, %xmm0
	call	sin
	.loc 16 501 50
	mulsd	%xmm0, %xmm6
	.loc 16 501 74
	movq	24(%rbp), %rax
	movq	%rax, %xmm0
	call	sin
	.loc 16 501 70
	mulsd	48(%rbp), %xmm0
	.loc 16 501 67
	movapd	%xmm6, %xmm1
	subsd	%xmm0, %xmm1
	.loc 16 501 17
	movsd	.LC35(%rip), %xmm0
	mulsd	%xmm1, %xmm0
	movsd	%xmm0, -24(%rbp)
.L355:
	.loc 16 504 12
	movsd	-24(%rbp), %xmm0
	movq	%xmm0, %rax
	.loc 16 505 1
	movq	%rax, %xmm0
	movaps	-16(%rbp), %xmm6
	addq	$64, %rsp
	.cfi_restore 23
	popq	%rbp
	.cfi_restore 6
	.cfi_def_cfa 7, 8
	ret
	.cfi_endproc
.LFE2712:
	.seh_endproc
	.align 2
	.globl	_ZN21CalculadorAtmosferico11acCoriolisyEdddd
	.def	_ZN21CalculadorAtmosferico11acCoriolisyEdddd;	.scl	2;	.type	32;	.endef
	.seh_proc	_ZN21CalculadorAtmosferico11acCoriolisyEdddd
_ZN21CalculadorAtmosferico11acCoriolisyEdddd:
.LFB2713:
	.loc 16 518 1
	.cfi_startproc
	pushq	%rbp
	.seh_pushreg	%rbp
	.cfi_def_cfa_offset 16
	.cfi_offset 6, -16
	movq	%rsp, %rbp
	.seh_setframe	%rbp, 0
	.cfi_def_cfa_register 6
	subq	$80, %rsp
	.seh_stackalloc	80
	movaps	%xmm6, -32(%rbp)
	.seh_savexmm	%xmm6, 48
	movaps	%xmm7, -16(%rbp)
	.seh_savexmm	%xmm7, 64
	.cfi_offset 23, -48
	.cfi_offset 24, -32
	.seh_endprologue
	movq	%rcx, 16(%rbp)
	movsd	%xmm1, 24(%rbp)
	movsd	%xmm2, 32(%rbp)
	movsd	%xmm3, 40(%rbp)
	.loc 16 519 12
	pxor	%xmm0, %xmm0
	movsd	%xmm0, -40(%rbp)
	.loc 16 520 8
	movq	16(%rbp), %rax
	movzbl	297(%rax), %eax
	.loc 16 520 5
	testb	%al, %al
	je	.L358
	.loc 16 522 18
	movsd	24(%rbp), %xmm1
	movsd	.LC33(%rip), %xmm0
	mulsd	%xmm1, %xmm0
	movsd	%xmm0, 24(%rbp)
	.loc 16 523 20
	movsd	32(%rbp), %xmm1
	movsd	.LC34(%rip), %xmm0
	mulsd	%xmm1, %xmm0
	movsd	%xmm0, 32(%rbp)
	.loc 16 524 39
	movq	24(%rbp), %rax
	movq	%rax, %xmm0
	call	cos
	.loc 16 524 35
	movapd	%xmm0, %xmm6
	mulsd	40(%rbp), %xmm6
	.loc 16 524 53
	movq	32(%rbp), %rax
	movq	%rax, %xmm0
	call	sin
	.loc 16 524 49
	mulsd	%xmm0, %xmm6
	.loc 16 524 74
	movq	24(%rbp), %rax
	movq	%rax, %xmm0
	call	cos
	.loc 16 524 70
	movapd	%xmm0, %xmm7
	mulsd	48(%rbp), %xmm7
	.loc 16 524 88
	movq	32(%rbp), %rax
	movq	%rax, %xmm0
	call	cos
	.loc 16 524 84
	mulsd	%xmm7, %xmm0
	.loc 16 524 66
	movapd	%xmm6, %xmm1
	addsd	%xmm0, %xmm1
	.loc 16 524 17
	movsd	.LC35(%rip), %xmm0
	mulsd	%xmm1, %xmm0
	movsd	%xmm0, -40(%rbp)
.L358:
	.loc 16 527 12
	movsd	-40(%rbp), %xmm0
	movq	%xmm0, %rax
	.loc 16 528 1
	movq	%rax, %xmm0
	movaps	-32(%rbp), %xmm6
	movaps	-16(%rbp), %xmm7
	addq	$80, %rsp
	.cfi_restore 24
	.cfi_restore 23
	popq	%rbp
	.cfi_restore 6
	.cfi_def_cfa 7, 8
	ret
	.cfi_endproc
.LFE2713:
	.seh_endproc
	.align 2
	.globl	_ZN21CalculadorAtmosferico11acCorioliszEdddd
	.def	_ZN21CalculadorAtmosferico11acCorioliszEdddd;	.scl	2;	.type	32;	.endef
	.seh_proc	_ZN21CalculadorAtmosferico11acCorioliszEdddd
_ZN21CalculadorAtmosferico11acCorioliszEdddd:
.LFB2714:
	.loc 16 541 1
	.cfi_startproc
	pushq	%rbp
	.seh_pushreg	%rbp
	.cfi_def_cfa_offset 16
	.cfi_offset 6, -16
	movq	%rsp, %rbp
	.seh_setframe	%rbp, 0
	.cfi_def_cfa_register 6
	subq	$80, %rsp
	.seh_stackalloc	80
	movaps	%xmm6, -32(%rbp)
	.seh_savexmm	%xmm6, 48
	movaps	%xmm7, -16(%rbp)
	.seh_savexmm	%xmm7, 64
	.cfi_offset 23, -48
	.cfi_offset 24, -32
	.seh_endprologue
	movq	%rcx, 16(%rbp)
	movsd	%xmm1, 24(%rbp)
	movsd	%xmm2, 32(%rbp)
	movsd	%xmm3, 40(%rbp)
	.loc 16 542 12
	pxor	%xmm0, %xmm0
	movsd	%xmm0, -40(%rbp)
	.loc 16 543 8
	movq	16(%rbp), %rax
	movzbl	297(%rax), %eax
	.loc 16 543 5
	testb	%al, %al
	je	.L361
	.loc 16 545 18
	movsd	24(%rbp), %xmm1
	movsd	.LC33(%rip), %xmm0
	mulsd	%xmm1, %xmm0
	movsd	%xmm0, 24(%rbp)
	.loc 16 546 20
	movsd	32(%rbp), %xmm1
	movsd	.LC34(%rip), %xmm0
	mulsd	%xmm1, %xmm0
	movsd	%xmm0, 32(%rbp)
	.loc 16 547 39
	movq	24(%rbp), %rax
	movq	%rax, %xmm0
	call	sin
	.loc 16 547 35
	movapd	%xmm0, %xmm6
	mulsd	40(%rbp), %xmm6
	.loc 16 547 57
	movq	24(%rbp), %rax
	movq	%rax, %xmm0
	call	cos
	.loc 16 547 53
	movapd	%xmm0, %xmm7
	mulsd	48(%rbp), %xmm7
	.loc 16 547 71
	movq	32(%rbp), %rax
	movq	%rax, %xmm0
	call	cos
	.loc 16 547 67
	mulsd	%xmm7, %xmm0
	.loc 16 547 50
	subsd	%xmm0, %xmm6
	movapd	%xmm6, %xmm1
	.loc 16 547 17
	movsd	.LC35(%rip), %xmm0
	mulsd	%xmm1, %xmm0
	movsd	%xmm0, -40(%rbp)
.L361:
	.loc 16 550 12
	movsd	-40(%rbp), %xmm0
	movq	%xmm0, %rax
	.loc 16 551 1
	movq	%rax, %xmm0
	movaps	-32(%rbp), %xmm6
	movaps	-16(%rbp), %xmm7
	addq	$80, %rsp
	.cfi_restore 24
	.cfi_restore 23
	popq	%rbp
	.cfi_restore 6
	.cfi_def_cfa 7, 8
	ret
	.cfi_endproc
.LFE2714:
	.seh_endproc
	.align 2
	.globl	_ZN21CalculadorAtmosferico21checaCondicaoDeParadaEddbRd4RAMO
	.def	_ZN21CalculadorAtmosferico21checaCondicaoDeParadaEddbRd4RAMO;	.scl	2;	.type	32;	.endef
	.seh_proc	_ZN21CalculadorAtmosferico21checaCondicaoDeParadaEddbRd4RAMO
_ZN21CalculadorAtmosferico21checaCondicaoDeParadaEddbRd4RAMO:
.LFB2715:
	.loc 16 554 1
	.cfi_startproc
	pushq	%rbp
	.seh_pushreg	%rbp
	.cfi_def_cfa_offset 16
	.cfi_offset 6, -16
	pushq	%rbx
	.seh_pushreg	%rbx
	.cfi_def_cfa_offset 24
	.cfi_offset 3, -24
	subq	$248, %rsp
	.seh_stackalloc	248
	.cfi_def_cfa_offset 272
	leaq	128(%rsp), %rbp
	.seh_setframe	%rbp, 128
	.cfi_def_cfa 6, 144
	movaps	%xmm6, 64(%rbp)
	.seh_savexmm	%xmm6, 192
	movaps	%xmm7, 80(%rbp)
	.seh_savexmm	%xmm7, 208
	movaps	%xmm8, 96(%rbp)
	.seh_savexmm	%xmm8, 224
	.cfi_offset 23, -80
	.cfi_offset 24, -64
	.cfi_offset 25, -48
	.seh_endprologue
	movq	%rcx, 144(%rbp)
	movsd	%xmm1, 152(%rbp)
	movsd	%xmm2, 160(%rbp)
	movl	%r9d, %eax
	movb	%al, 168(%rbp)
	.loc 16 558 18
	leaq	-48(%rbp), %rax
	movq	%rax, %rcx
.LEHB49:
	call	_ZN12ElementosVooC1Ev
.LEHE49:
.LBB64:
	.loc 16 559 22
	movq	144(%rbp), %rax
	movq	144(%rbp), %rdx
	movsd	360(%rdx), %xmm0
	movl	184(%rbp), %edx
	movapd	%xmm0, %xmm2
	movq	%rax, %rcx
.LEHB50:
	call	_ZN10Calculador14ehRamoDeParadaE4RAMOd
	.loc 16 559 33
	testb	%al, %al
	je	.L364
	.loc 16 559 37 discriminator 2
	movq	144(%rbp), %rax
	movzbl	393(%rax), %eax
	.loc 16 559 36 discriminator 2
	xorl	$1, %eax
	.loc 16 559 33 discriminator 2
	testb	%al, %al
	je	.L364
	.loc 16 559 33 is_stmt 0 discriminator 4
	movl	$1, %eax
	jmp	.L365
.L364:
	.loc 16 559 33 discriminator 5
	movl	$0, %eax
.L365:
	.loc 16 559 5 is_stmt 1 discriminator 7
	testb	%al, %al
	je	.L366
.LBB65:
	.loc 16 561 58
	cmpl	$1, 184(%rbp)
	jne	.L367
	.loc 16 561 60 discriminator 1
	movq	144(%rbp), %rax
	movsd	400(%rax), %xmm0
	.loc 16 561 58 discriminator 1
	subsd	160(%rbp), %xmm0
	jmp	.L368
.L367:
	.loc 16 561 96 discriminator 2
	movq	144(%rbp), %rax
	movsd	400(%rax), %xmm1
	.loc 16 561 58 discriminator 2
	movsd	160(%rbp), %xmm0
	subsd	%xmm1, %xmm0
.L368:
	.loc 16 561 15 discriminator 4
	movsd	%xmm0, 56(%rbp)
.LBB66:
	.loc 16 563 8 discriminator 4
	movsd	.LC36(%rip), %xmm0
	comisd	56(%rbp), %xmm0
	jnb	.L369
	.loc 16 563 39 discriminator 1
	cmpl	$0, 184(%rbp)
	jne	.L370
	.loc 16 563 65 discriminator 2
	movq	144(%rbp), %rax
	movsd	360(%rax), %xmm1
	.loc 16 563 62 discriminator 2
	movsd	.LC15(%rip), %xmm0
	comisd	%xmm1, %xmm0
	jb	.L370
.L369:
	.loc 16 565 22
	movq	144(%rbp), %rax
	movb	$1, 394(%rax)
	.loc 16 566 15
	movzbl	168(%rbp), %eax
	xorl	$1, %eax
	.loc 16 566 12
	testb	%al, %al
	je	.L372
	.loc 16 568 33
	movq	144(%rbp), %rax
	movsd	376(%rax), %xmm5
	movq	144(%rbp), %rax
	movsd	384(%rax), %xmm4
	movq	144(%rbp), %rax
	movsd	368(%rax), %xmm3
	movq	144(%rbp), %rax
	movsd	360(%rax), %xmm2
	movq	144(%rbp), %rax
	movsd	352(%rax), %xmm1
	movq	144(%rbp), %rax
	movsd	344(%rax), %xmm0
	movq	144(%rbp), %rax
	movsd	400(%rax), %xmm8
	movq	144(%rbp), %rax
	movsd	328(%rax), %xmm7
	movsd	152(%rbp), %xmm6
	leaq	-48(%rbp), %rax
	movsd	%xmm5, 72(%rsp)
	movsd	%xmm4, 64(%rsp)
	movsd	%xmm3, 56(%rsp)
	movsd	%xmm2, 48(%rsp)
	movsd	%xmm1, 40(%rsp)
	movsd	%xmm0, 32(%rsp)
	movapd	%xmm8, %xmm3
	movapd	%xmm7, %xmm2
	movapd	%xmm6, %xmm1
	movq	%rax, %rcx
	call	_ZN12ElementosVoo3setEddddddddd
	.loc 16 569 38
	movq	144(%rbp), %rax
	movsd	416(%rax), %xmm0
	leaq	-48(%rbp), %rax
	movapd	%xmm0, %xmm1
	movq	%rax, %rcx
	call	_ZN12ElementosVoo8setArMaxEd
	.loc 16 570 42
	movq	144(%rbp), %rax
	movsd	408(%rax), %xmm0
	leaq	-48(%rbp), %rax
	movapd	%xmm0, %xmm1
	movq	%rax, %rcx
	call	_ZN12ElementosVoo12setAlturaMaxEd
	.loc 16 571 45
	movq	144(%rbp), %rax
	leaq	304(%rax), %rcx
	leaq	-48(%rbp), %rax
	movq	%rax, %rdx
	call	_ZNSt6vectorI12ElementosVooSaIS0_EE9push_backERKS0_
.LEHE50:
.L372:
	.loc 16 574 27
	movq	144(%rbp), %rax
	movb	$1, 393(%rax)
	.loc 16 575 45
	movq	144(%rbp), %rax
	movsd	360(%rax), %xmm0
	.loc 16 575 44
	movq	.LC10(%rip), %xmm1
	andpd	%xmm0, %xmm1
	.loc 16 575 39
	movsd	56(%rbp), %xmm0
	divsd	%xmm1, %xmm0
	.loc 16 575 18
	movq	176(%rbp), %rax
	movsd	%xmm0, (%rax)
	jmp	.L366
.L370:
.LBB67:
.LBB68:
	.loc 16 585 14
	movq	176(%rbp), %rax
	movsd	(%rax), %xmm1
	.loc 16 585 25
	movq	144(%rbp), %rax
	movsd	360(%rax), %xmm0
	.loc 16 585 24
	movq	.LC10(%rip), %xmm2
	andpd	%xmm2, %xmm0
	.loc 16 585 19
	mulsd	%xmm1, %xmm0
	.loc 16 585 11
	comisd	56(%rbp), %xmm0
	jbe	.L366
.LBB69:
	.loc 16 587 47
	movq	144(%rbp), %rax
	movsd	360(%rax), %xmm0
	.loc 16 587 46
	movq	.LC10(%rip), %xmm1
	andpd	%xmm0, %xmm1
	.loc 16 587 41
	movsd	56(%rbp), %xmm0
	divsd	%xmm1, %xmm0
	.loc 16 587 20
	movq	176(%rbp), %rax
	movsd	%xmm0, (%rax)
	.loc 16 588 29
	movq	144(%rbp), %rax
	movb	$1, 393(%rax)
.LBB70:
	.loc 16 590 40
	movq	144(%rbp), %rcx
	call	_ZN21CalculadorAtmosferico23isLimiteHorizontalAtivoEv
	.loc 16 590 14
	testb	%al, %al
	je	.L366
.LBB71:
	.loc 16 592 57
	movq	144(%rbp), %rcx
	call	_ZN21CalculadorAtmosferico19getLimiteHorizontalEv
	movapd	%xmm0, %xmm1
	.loc 16 592 62
	movq	144(%rbp), %rax
	movsd	328(%rax), %xmm0
	.loc 16 592 60
	subsd	%xmm0, %xmm1
	movapd	%xmm1, %xmm0
	.loc 16 592 66
	movq	144(%rbp), %rax
	movsd	352(%rax), %xmm1
	divsd	%xmm1, %xmm0
	movsd	%xmm0, 48(%rbp)
	.loc 16 593 33
	movq	176(%rbp), %rax
	movsd	(%rax), %xmm0
	.loc 16 593 18
	comisd	48(%rbp), %xmm0
	jbe	.L366
	.loc 16 593 39 discriminator 1
	movsd	48(%rbp), %xmm0
	pxor	%xmm1, %xmm1
	comisd	%xmm1, %xmm0
	jbe	.L366
	.loc 16 594 27
	movq	176(%rbp), %rax
	movsd	48(%rbp), %xmm0
	movsd	%xmm0, (%rax)
.L366:
.LBE71:
.LBE70:
.LBE69:
.LBE68:
.LBE67:
.LBE66:
.LBE65:
.LBE64:
	.loc 16 558 18
	leaq	-48(%rbp), %rax
	movq	%rax, %rcx
	call	_ZN12ElementosVooD1Ev
	.loc 16 601 1
	jmp	.L384
.L380:
	movq	%rax, %rbx
	.loc 16 558 18
	leaq	-48(%rbp), %rax
	movq	%rax, %rcx
	call	_ZN12ElementosVooD1Ev
	movq	%rbx, %rax
	movq	%rax, %rcx
.LEHB51:
	call	_Unwind_Resume
	nop
.LEHE51:
.L384:
	.loc 16 601 1
	movaps	64(%rbp), %xmm6
	movaps	80(%rbp), %xmm7
	movaps	96(%rbp), %xmm8
	addq	$248, %rsp
	.cfi_restore 25
	.cfi_restore 24
	.cfi_restore 23
	popq	%rbx
	.cfi_restore 3
	popq	%rbp
	.cfi_restore 6
	.cfi_def_cfa 7, -232
	ret
	.cfi_endproc
.LFE2715:
	.seh_handler	__gxx_personality_seh0, @unwind, @except
	.seh_handlerdata
.LLSDA2715:
	.byte	0xff
	.byte	0xff
	.byte	0x1
	.uleb128 .LLSDACSE2715-.LLSDACSB2715
.LLSDACSB2715:
	.uleb128 .LEHB49-.LFB2715
	.uleb128 .LEHE49-.LEHB49
	.uleb128 0
	.uleb128 0
	.uleb128 .LEHB50-.LFB2715
	.uleb128 .LEHE50-.LEHB50
	.uleb128 .L380-.LFB2715
	.uleb128 0
	.uleb128 .LEHB51-.LFB2715
	.uleb128 .LEHE51-.LEHB51
	.uleb128 0
	.uleb128 0
.LLSDACSE2715:
	.text
	.seh_endproc
	.align 2
	.globl	_ZN21CalculadorAtmosferico8vel_machEdd
	.def	_ZN21CalculadorAtmosferico8vel_machEdd;	.scl	2;	.type	32;	.endef
	.seh_proc	_ZN21CalculadorAtmosferico8vel_machEdd
_ZN21CalculadorAtmosferico8vel_machEdd:
.LFB2716:
	.loc 16 611 1
	.cfi_startproc
	pushq	%rbp
	.seh_pushreg	%rbp
	.cfi_def_cfa_offset 16
	.cfi_offset 6, -16
	movq	%rsp, %rbp
	.seh_setframe	%rbp, 0
	.cfi_def_cfa_register 6
	subq	$32, %rsp
	.seh_stackalloc	32
	.seh_endprologue
	movq	%rcx, 16(%rbp)
	movsd	%xmm1, 24(%rbp)
	movsd	%xmm2, 32(%rbp)
	.loc 16 613 25
	movq	16(%rbp), %rax
	movq	232(%rax), %rdx
	movq	16(%rbp), %rax
	movq	232(%rax), %rax
	.loc 16 613 54
	movq	(%rax), %rax
	addq	$24, %rax
	movq	(%rax), %rax
	.loc 16 613 45
	movsd	32(%rbp), %xmm0
	movapd	%xmm0, %xmm1
	movq	%rdx, %rcx
	call	*%rax
.LVL3:
	movapd	%xmm0, %xmm1
	.loc 16 613 54
	movsd	24(%rbp), %xmm0
	divsd	%xmm1, %xmm0
	movq	%xmm0, %rax
	.loc 16 614 1
	movq	%rax, %xmm0
	addq	$32, %rsp
	popq	%rbp
	.cfi_restore 6
	.cfi_def_cfa 7, 8
	ret
	.cfi_endproc
.LFE2716:
	.seh_endproc
	.section	.text$_ZNSt6vectorI12ElementosVooSaIS0_EEC1Ev,"x"
	.linkonce discard
	.align 2
	.globl	_ZNSt6vectorI12ElementosVooSaIS0_EEC1Ev
	.def	_ZNSt6vectorI12ElementosVooSaIS0_EEC1Ev;	.scl	2;	.type	32;	.endef
	.seh_proc	_ZNSt6vectorI12ElementosVooSaIS0_EEC1Ev
_ZNSt6vectorI12ElementosVooSaIS0_EEC1Ev:
.LFB2939:
	.file 17 "C:/Program Files/CodeBlocks/MinGW/lib/gcc/x86_64-w64-mingw32/8.1.0/include/c++/bits/stl_vector.h"
	.loc 17 391 7
	.cfi_startproc
	pushq	%rbp
	.seh_pushreg	%rbp
	.cfi_def_cfa_offset 16
	.cfi_offset 6, -16
	movq	%rsp, %rbp
	.seh_setframe	%rbp, 0
	.cfi_def_cfa_register 6
	subq	$32, %rsp
	.seh_stackalloc	32
	.seh_endprologue
	movq	%rcx, 16(%rbp)
.LBB72:
	.loc 17 395 15
	movq	16(%rbp), %rax
	movq	%rax, %rcx
	call	_ZNSt12_Vector_baseI12ElementosVooSaIS0_EEC2Ev
.LBE72:
	.loc 17 395 19
	nop
	addq	$32, %rsp
	popq	%rbp
	.cfi_restore 6
	.cfi_def_cfa 7, 8
	ret
	.cfi_endproc
.LFE2939:
	.seh_handler	__gxx_personality_seh0, @unwind, @except
	.seh_handlerdata
.LLSDA2939:
	.byte	0xff
	.byte	0xff
	.byte	0x1
	.uleb128 .LLSDACSE2939-.LLSDACSB2939
.LLSDACSB2939:
.LLSDACSE2939:
	.section	.text$_ZNSt6vectorI12ElementosVooSaIS0_EEC1Ev,"x"
	.linkonce discard
	.seh_endproc
	.section	.text$_ZNSt6vectorI12ElementosVooSaIS0_EED1Ev,"x"
	.linkonce discard
	.align 2
	.globl	_ZNSt6vectorI12ElementosVooSaIS0_EED1Ev
	.def	_ZNSt6vectorI12ElementosVooSaIS0_EED1Ev;	.scl	2;	.type	32;	.endef
	.seh_proc	_ZNSt6vectorI12ElementosVooSaIS0_EED1Ev
_ZNSt6vectorI12ElementosVooSaIS0_EED1Ev:
.LFB2942:
	.loc 17 565 7
	.cfi_startproc
	pushq	%rbp
	.seh_pushreg	%rbp
	.cfi_def_cfa_offset 16
	.cfi_offset 6, -16
	movq	%rsp, %rbp
	.seh_setframe	%rbp, 0
	.cfi_def_cfa_register 6
	subq	$32, %rsp
	.seh_stackalloc	32
	.seh_endprologue
	movq	%rcx, 16(%rbp)
.LBB73:
	.loc 17 568 28
	movq	16(%rbp), %rax
	movq	%rax, %rcx
	call	_ZNSt12_Vector_baseI12ElementosVooSaIS0_EE19_M_get_Tp_allocatorEv
	movq	%rax, %rcx
	.loc 17 567 15
	movq	16(%rbp), %rax
	movq	8(%rax), %rdx
	movq	16(%rbp), %rax
	movq	(%rax), %rax
	movq	%rcx, %r8
	movq	%rax, %rcx
	call	_ZSt8_DestroyIP12ElementosVooS0_EvT_S2_RSaIT0_E
	.loc 17 570 7
	movq	16(%rbp), %rax
	movq	%rax, %rcx
	call	_ZNSt12_Vector_baseI12ElementosVooSaIS0_EED2Ev
.LBE73:
	nop
	addq	$32, %rsp
	popq	%rbp
	.cfi_restore 6
	.cfi_def_cfa 7, 8
	ret
	.cfi_endproc
.LFE2942:
	.seh_handler	__gxx_personality_seh0, @unwind, @except
	.seh_handlerdata
.LLSDA2942:
	.byte	0xff
	.byte	0xff
	.byte	0x1
	.uleb128 .LLSDACSE2942-.LLSDACSB2942
.LLSDACSB2942:
.LLSDACSE2942:
	.section	.text$_ZNSt6vectorI12ElementosVooSaIS0_EED1Ev,"x"
	.linkonce discard
	.seh_endproc
	.section	.text$_ZNSt6vectorI12ElementosVooSaIS0_EE9push_backERKS0_,"x"
	.linkonce discard
	.align 2
	.globl	_ZNSt6vectorI12ElementosVooSaIS0_EE9push_backERKS0_
	.def	_ZNSt6vectorI12ElementosVooSaIS0_EE9push_backERKS0_;	.scl	2;	.type	32;	.endef
	.seh_proc	_ZNSt6vectorI12ElementosVooSaIS0_EE9push_backERKS0_
_ZNSt6vectorI12ElementosVooSaIS0_EE9push_backERKS0_:
.LFB2943:
	.loc 17 1074 7
	.cfi_startproc
	pushq	%rbp
	.seh_pushreg	%rbp
	.cfi_def_cfa_offset 16
	.cfi_offset 6, -16
	movq	%rsp, %rbp
	.seh_setframe	%rbp, 0
	.cfi_def_cfa_register 6
	subq	$32, %rsp
	.seh_stackalloc	32
	.seh_endprologue
	movq	%rcx, 16(%rbp)
	movq	%rdx, 24(%rbp)
	.loc 17 1076 20
	movq	16(%rbp), %rax
	movq	8(%rax), %rdx
	.loc 17 1076 47
	movq	16(%rbp), %rax
	movq	16(%rax), %rax
	.loc 17 1076 2
	cmpq	%rax, %rdx
	je	.L390
	.loc 17 1079 30
	movq	16(%rbp), %rax
	movq	8(%rax), %rdx
	.loc 17 1079 37
	movq	16(%rbp), %rax
	.loc 17 1079 30
	movq	24(%rbp), %rcx
	movq	%rcx, %r8
	movq	%rax, %rcx
	call	_ZNSt16allocator_traitsISaI12ElementosVooEE9constructIS0_JRKS0_EEEvRS1_PT_DpOT0_
	.loc 17 1081 22
	movq	16(%rbp), %rax
	movq	8(%rax), %rax
	.loc 17 1081 6
	leaq	96(%rax), %rdx
	movq	16(%rbp), %rax
	movq	%rdx, 8(%rax)
	.loc 17 1086 7
	jmp	.L392
.L390:
	.loc 17 1085 4
	movq	16(%rbp), %rcx
	call	_ZNSt6vectorI12ElementosVooSaIS0_EE3endEv
	movq	%rax, %rdx
	movq	24(%rbp), %rax
	movq	%rax, %r8
	movq	16(%rbp), %rcx
	call	_ZNSt6vectorI12ElementosVooSaIS0_EE17_M_realloc_insertIJRKS0_EEEvN9__gnu_cxx17__normal_iteratorIPS0_S2_EEDpOT_
.L392:
	.loc 17 1086 7
	nop
	addq	$32, %rsp
	popq	%rbp
	.cfi_restore 6
	.cfi_def_cfa 7, 8
	ret
	.cfi_endproc
.LFE2943:
	.seh_endproc
	.section	.text$_ZNSt12_Vector_baseI12ElementosVooSaIS0_EE12_Vector_implD1Ev,"x"
	.linkonce discard
	.align 2
	.globl	_ZNSt12_Vector_baseI12ElementosVooSaIS0_EE12_Vector_implD1Ev
	.def	_ZNSt12_Vector_baseI12ElementosVooSaIS0_EE12_Vector_implD1Ev;	.scl	2;	.type	32;	.endef
	.seh_proc	_ZNSt12_Vector_baseI12ElementosVooSaIS0_EE12_Vector_implD1Ev
_ZNSt12_Vector_baseI12ElementosVooSaIS0_EE12_Vector_implD1Ev:
.LFB3055:
	.loc 17 88 14
	.cfi_startproc
	pushq	%rbp
	.seh_pushreg	%rbp
	.cfi_def_cfa_offset 16
	.cfi_offset 6, -16
	movq	%rsp, %rbp
	.seh_setframe	%rbp, 0
	.cfi_def_cfa_register 6
	subq	$32, %rsp
	.seh_stackalloc	32
	.seh_endprologue
	movq	%rcx, 16(%rbp)
.LBB74:
	.loc 17 88 14
	movq	16(%rbp), %rcx
	call	_ZNSaI12ElementosVooED2Ev
.LBE74:
	nop
	addq	$32, %rsp
	popq	%rbp
	.cfi_restore 6
	.cfi_def_cfa 7, 8
	ret
	.cfi_endproc
.LFE3055:
	.seh_endproc
	.section	.text$_ZNSt12_Vector_baseI12ElementosVooSaIS0_EEC2Ev,"x"
	.linkonce discard
	.align 2
	.globl	_ZNSt12_Vector_baseI12ElementosVooSaIS0_EEC2Ev
	.def	_ZNSt12_Vector_baseI12ElementosVooSaIS0_EEC2Ev;	.scl	2;	.type	32;	.endef
	.seh_proc	_ZNSt12_Vector_baseI12ElementosVooSaIS0_EEC2Ev
_ZNSt12_Vector_baseI12ElementosVooSaIS0_EEC2Ev:
.LFB3056:
	.loc 17 248 7
	.cfi_startproc
	pushq	%rbp
	.seh_pushreg	%rbp
	.cfi_def_cfa_offset 16
	.cfi_offset 6, -16
	movq	%rsp, %rbp
	.seh_setframe	%rbp, 0
	.cfi_def_cfa_register 6
	subq	$32, %rsp
	.seh_stackalloc	32
	.seh_endprologue
	movq	%rcx, 16(%rbp)
.LBB75:
	.loc 17 249 17
	movq	16(%rbp), %rax
	movq	%rax, %rcx
	call	_ZNSt12_Vector_baseI12ElementosVooSaIS0_EE12_Vector_implC1Ev
.LBE75:
	.loc 17 249 21
	nop
	addq	$32, %rsp
	popq	%rbp
	.cfi_restore 6
	.cfi_def_cfa 7, 8
	ret
	.cfi_endproc
.LFE3056:
	.seh_endproc
	.section	.text$_ZNSt12_Vector_baseI12ElementosVooSaIS0_EED2Ev,"x"
	.linkonce discard
	.align 2
	.globl	_ZNSt12_Vector_baseI12ElementosVooSaIS0_EED2Ev
	.def	_ZNSt12_Vector_baseI12ElementosVooSaIS0_EED2Ev;	.scl	2;	.type	32;	.endef
	.seh_proc	_ZNSt12_Vector_baseI12ElementosVooSaIS0_EED2Ev
_ZNSt12_Vector_baseI12ElementosVooSaIS0_EED2Ev:
.LFB3059:
	.loc 17 283 7
	.cfi_startproc
	pushq	%rbp
	.seh_pushreg	%rbp
	.cfi_def_cfa_offset 16
	.cfi_offset 6, -16
	movq	%rsp, %rbp
	.seh_setframe	%rbp, 0
	.cfi_def_cfa_register 6
	subq	$32, %rsp
	.seh_stackalloc	32
	.seh_endprologue
	movq	%rcx, 16(%rbp)
.LBB76:
	.loc 17 286 17
	movq	16(%rbp), %rax
	movq	16(%rax), %rdx
	.loc 17 286 45
	movq	16(%rbp), %rax
	movq	(%rax), %rax
	.loc 17 286 35
	subq	%rax, %rdx
	movq	%rdx, %rax
	sarq	$5, %rax
	movq	%rax, %rdx
	movabsq	$-6148914691236517205, %rax
	imulq	%rdx, %rax
	.loc 17 285 2
	movq	%rax, %rdx
	movq	16(%rbp), %rax
	movq	(%rax), %rax
	movq	%rdx, %r8
	movq	%rax, %rdx
	movq	16(%rbp), %rcx
	call	_ZNSt12_Vector_baseI12ElementosVooSaIS0_EE13_M_deallocateEPS0_y
	.loc 17 287 7
	movq	16(%rbp), %rax
	movq	%rax, %rcx
	call	_ZNSt12_Vector_baseI12ElementosVooSaIS0_EE12_Vector_implD1Ev
.LBE76:
	nop
	addq	$32, %rsp
	popq	%rbp
	.cfi_restore 6
	.cfi_def_cfa 7, 8
	ret
	.cfi_endproc
.LFE3059:
	.seh_handler	__gxx_personality_seh0, @unwind, @except
	.seh_handlerdata
.LLSDA3059:
	.byte	0xff
	.byte	0xff
	.byte	0x1
	.uleb128 .LLSDACSE3059-.LLSDACSB3059
.LLSDACSB3059:
.LLSDACSE3059:
	.section	.text$_ZNSt12_Vector_baseI12ElementosVooSaIS0_EED2Ev,"x"
	.linkonce discard
	.seh_endproc
	.section	.text$_ZNSt12_Vector_baseI12ElementosVooSaIS0_EE19_M_get_Tp_allocatorEv,"x"
	.linkonce discard
	.align 2
	.globl	_ZNSt12_Vector_baseI12ElementosVooSaIS0_EE19_M_get_Tp_allocatorEv
	.def	_ZNSt12_Vector_baseI12ElementosVooSaIS0_EE19_M_get_Tp_allocatorEv;	.scl	2;	.type	32;	.endef
	.seh_proc	_ZNSt12_Vector_baseI12ElementosVooSaIS0_EE19_M_get_Tp_allocatorEv
_ZNSt12_Vector_baseI12ElementosVooSaIS0_EE19_M_get_Tp_allocatorEv:
.LFB3061:
	.loc 17 237 7
	.cfi_startproc
	pushq	%rbp
	.seh_pushreg	%rbp
	.cfi_def_cfa_offset 16
	.cfi_offset 6, -16
	movq	%rsp, %rbp
	.seh_setframe	%rbp, 0
	.cfi_def_cfa_register 6
	.seh_endprologue
	movq	%rcx, 16(%rbp)
	.loc 17 238 60
	movq	16(%rbp), %rax
	.loc 17 238 63
	popq	%rbp
	.cfi_restore 6
	.cfi_def_cfa 7, 8
	ret
	.cfi_endproc
.LFE3061:
	.seh_endproc
	.section	.text$_ZSt8_DestroyIP12ElementosVooS0_EvT_S2_RSaIT0_E,"x"
	.linkonce discard
	.globl	_ZSt8_DestroyIP12ElementosVooS0_EvT_S2_RSaIT0_E
	.def	_ZSt8_DestroyIP12ElementosVooS0_EvT_S2_RSaIT0_E;	.scl	2;	.type	32;	.endef
	.seh_proc	_ZSt8_DestroyIP12ElementosVooS0_EvT_S2_RSaIT0_E
_ZSt8_DestroyIP12ElementosVooS0_EvT_S2_RSaIT0_E:
.LFB3062:
	.file 18 "C:/Program Files/CodeBlocks/MinGW/lib/gcc/x86_64-w64-mingw32/8.1.0/include/c++/bits/stl_construct.h"
	.loc 18 203 5
	.cfi_startproc
	pushq	%rbp
	.seh_pushreg	%rbp
	.cfi_def_cfa_offset 16
	.cfi_offset 6, -16
	movq	%rsp, %rbp
	.seh_setframe	%rbp, 0
	.cfi_def_cfa_register 6
	subq	$32, %rsp
	.seh_stackalloc	32
	.seh_endprologue
	movq	%rcx, 16(%rbp)
	movq	%rdx, 24(%rbp)
	movq	%r8, 32(%rbp)
	.loc 18 206 15
	movq	24(%rbp), %rax
	movq	%rax, %rdx
	movq	16(%rbp), %rcx
	call	_ZSt8_DestroyIP12ElementosVooEvT_S2_
	.loc 18 207 5
	nop
	addq	$32, %rsp
	popq	%rbp
	.cfi_restore 6
	.cfi_def_cfa 7, 8
	ret
	.cfi_endproc
.LFE3062:
	.seh_endproc
	.section	.text$_ZSt7forwardIRK12ElementosVooEOT_RNSt16remove_referenceIS3_E4typeE,"x"
	.linkonce discard
	.globl	_ZSt7forwardIRK12ElementosVooEOT_RNSt16remove_referenceIS3_E4typeE
	.def	_ZSt7forwardIRK12ElementosVooEOT_RNSt16remove_referenceIS3_E4typeE;	.scl	2;	.type	32;	.endef
	.seh_proc	_ZSt7forwardIRK12ElementosVooEOT_RNSt16remove_referenceIS3_E4typeE
_ZSt7forwardIRK12ElementosVooEOT_RNSt16remove_referenceIS3_E4typeE:
.LFB3064:
	.file 19 "C:/Program Files/CodeBlocks/MinGW/lib/gcc/x86_64-w64-mingw32/8.1.0/include/c++/bits/move.h"
	.loc 19 74 5
	.cfi_startproc
	pushq	%rbp
	.seh_pushreg	%rbp
	.cfi_def_cfa_offset 16
	.cfi_offset 6, -16
	movq	%rsp, %rbp
	.seh_setframe	%rbp, 0
	.cfi_def_cfa_register 6
	.seh_endprologue
	movq	%rcx, 16(%rbp)
	.loc 19 75 36
	movq	16(%rbp), %rax
	.loc 19 75 39
	popq	%rbp
	.cfi_restore 6
	.cfi_def_cfa 7, 8
	ret
	.cfi_endproc
.LFE3064:
	.seh_endproc
	.section	.text$_ZNSt16allocator_traitsISaI12ElementosVooEE9constructIS0_JRKS0_EEEvRS1_PT_DpOT0_,"x"
	.linkonce discard
	.globl	_ZNSt16allocator_traitsISaI12ElementosVooEE9constructIS0_JRKS0_EEEvRS1_PT_DpOT0_
	.def	_ZNSt16allocator_traitsISaI12ElementosVooEE9constructIS0_JRKS0_EEEvRS1_PT_DpOT0_;	.scl	2;	.type	32;	.endef
	.seh_proc	_ZNSt16allocator_traitsISaI12ElementosVooEE9constructIS0_JRKS0_EEEvRS1_PT_DpOT0_
_ZNSt16allocator_traitsISaI12ElementosVooEE9constructIS0_JRKS0_EEEvRS1_PT_DpOT0_:
.LFB3063:
	.file 20 "C:/Program Files/CodeBlocks/MinGW/lib/gcc/x86_64-w64-mingw32/8.1.0/include/c++/bits/alloc_traits.h"
	.loc 20 474 2
	.cfi_startproc
	pushq	%rbp
	.seh_pushreg	%rbp
	.cfi_def_cfa_offset 16
	.cfi_offset 6, -16
	movq	%rsp, %rbp
	.seh_setframe	%rbp, 0
	.cfi_def_cfa_register 6
	subq	$32, %rsp
	.seh_stackalloc	32
	.seh_endprologue
	movq	%rcx, 16(%rbp)
	movq	%rdx, 24(%rbp)
	movq	%r8, 32(%rbp)
	.loc 20 475 4
	movq	32(%rbp), %rax
	movq	%rax, %rcx
	call	_ZSt7forwardIRK12ElementosVooEOT_RNSt16remove_referenceIS3_E4typeE
	movq	%rax, %rdx
	movq	24(%rbp), %rax
	movq	%rdx, %r8
	movq	%rax, %rdx
	movq	16(%rbp), %rcx
	call	_ZN9__gnu_cxx13new_allocatorI12ElementosVooE9constructIS1_JRKS1_EEEvPT_DpOT0_
	.loc 20 475 56
	nop
	addq	$32, %rsp
	popq	%rbp
	.cfi_restore 6
	.cfi_def_cfa 7, 8
	ret
	.cfi_endproc
.LFE3063:
	.seh_endproc
	.section	.text$_ZNSt6vectorI12ElementosVooSaIS0_EE3endEv,"x"
	.linkonce discard
	.align 2
	.globl	_ZNSt6vectorI12ElementosVooSaIS0_EE3endEv
	.def	_ZNSt6vectorI12ElementosVooSaIS0_EE3endEv;	.scl	2;	.type	32;	.endef
	.seh_proc	_ZNSt6vectorI12ElementosVooSaIS0_EE3endEv
_ZNSt6vectorI12ElementosVooSaIS0_EE3endEv:
.LFB3065:
	.loc 17 716 7
	.cfi_startproc
	pushq	%rbp
	.seh_pushreg	%rbp
	.cfi_def_cfa_offset 16
	.cfi_offset 6, -16
	movq	%rsp, %rbp
	.seh_setframe	%rbp, 0
	.cfi_def_cfa_register 6
	subq	$48, %rsp
	.seh_stackalloc	48
	.seh_endprologue
	movq	%rcx, 16(%rbp)
	.loc 17 717 39
	movq	16(%rbp), %rax
	leaq	8(%rax), %rdx
	.loc 17 717 48
	leaq	-8(%rbp), %rax
	movq	%rax, %rcx
	call	_ZN9__gnu_cxx17__normal_iteratorIP12ElementosVooSt6vectorIS1_SaIS1_EEEC1ERKS2_
	movq	-8(%rbp), %rax
	.loc 17 717 51
	addq	$48, %rsp
	popq	%rbp
	.cfi_restore 6
	.cfi_def_cfa 7, 8
	ret
	.cfi_endproc
.LFE3065:
	.seh_endproc
	.section .rdata,"dr"
.LC37:
	.ascii "vector::_M_realloc_insert\0"
	.section	.text$_ZNSt6vectorI12ElementosVooSaIS0_EE17_M_realloc_insertIJRKS0_EEEvN9__gnu_cxx17__normal_iteratorIPS0_S2_EEDpOT_,"x"
	.linkonce discard
	.align 2
	.globl	_ZNSt6vectorI12ElementosVooSaIS0_EE17_M_realloc_insertIJRKS0_EEEvN9__gnu_cxx17__normal_iteratorIPS0_S2_EEDpOT_
	.def	_ZNSt6vectorI12ElementosVooSaIS0_EE17_M_realloc_insertIJRKS0_EEEvN9__gnu_cxx17__normal_iteratorIPS0_S2_EEDpOT_;	.scl	2;	.type	32;	.endef
	.seh_proc	_ZNSt6vectorI12ElementosVooSaIS0_EE17_M_realloc_insertIJRKS0_EEEvN9__gnu_cxx17__normal_iteratorIPS0_S2_EEDpOT_
_ZNSt6vectorI12ElementosVooSaIS0_EE17_M_realloc_insertIJRKS0_EEEvN9__gnu_cxx17__normal_iteratorIPS0_S2_EEDpOT_:
.LFB3066:
	.file 21 "C:/Program Files/CodeBlocks/MinGW/lib/gcc/x86_64-w64-mingw32/8.1.0/include/c++/bits/vector.tcc"
	.loc 21 413 7
	.cfi_startproc
	pushq	%rbp
	.seh_pushreg	%rbp
	.cfi_def_cfa_offset 16
	.cfi_offset 6, -16
	pushq	%rbx
	.seh_pushreg	%rbx
	.cfi_def_cfa_offset 24
	.cfi_offset 3, -24
	subq	$104, %rsp
	.seh_stackalloc	104
	.cfi_def_cfa_offset 128
	leaq	128(%rsp), %rbp
	.seh_setframe	%rbp, 128
	.cfi_def_cfa 6, 0
	.seh_endprologue
	movq	%rcx, 0(%rbp)
	movq	%rdx, 8(%rbp)
	movq	%r8, 16(%rbp)
	.loc 21 422 23
	leaq	.LC37(%rip), %r8
	movl	$1, %edx
	movq	0(%rbp), %rcx
.LEHB52:
	call	_ZNKSt6vectorI12ElementosVooSaIS0_EE12_M_check_lenEyPKc
	movq	%rax, -48(%rbp)
	.loc 21 424 15
	movq	0(%rbp), %rax
	movq	(%rax), %rax
	movq	%rax, -56(%rbp)
	.loc 21 425 15
	movq	0(%rbp), %rax
	movq	8(%rax), %rax
	movq	%rax, -64(%rbp)
	.loc 21 426 51
	movq	0(%rbp), %rcx
	call	_ZNSt6vectorI12ElementosVooSaIS0_EE5beginEv
	movq	%rax, -88(%rbp)
	leaq	-88(%rbp), %rdx
	leaq	8(%rbp), %rax
	movq	%rax, %rcx
	call	_ZN9__gnu_cxxmiIP12ElementosVooSt6vectorIS1_SaIS1_EEEENS_17__normal_iteratorIT_T0_E15difference_typeERKS9_SC_
	.loc 21 426 23
	movq	%rax, -72(%rbp)
	.loc 21 427 15
	movq	0(%rbp), %rax
	movq	-48(%rbp), %rdx
	movq	%rax, %rcx
	call	_ZNSt12_Vector_baseI12ElementosVooSaIS0_EE11_M_allocateEy
.LEHE52:
	movq	%rax, -80(%rbp)
	.loc 21 428 15
	movq	-80(%rbp), %rax
	movq	%rax, -40(%rbp)
	.loc 21 436 28
	movq	16(%rbp), %rax
	movq	%rax, %rcx
	call	_ZSt7forwardIRK12ElementosVooEOT_RNSt16remove_referenceIS3_E4typeE
	movq	%rax, %rcx
	.loc 21 437 20
	movq	-72(%rbp), %rdx
	movq	%rdx, %rax
	addq	%rax, %rax
	addq	%rdx, %rax
	salq	$5, %rax
	movq	%rax, %rdx
	.loc 21 436 28
	movq	-80(%rbp), %rax
	addq	%rax, %rdx
	.loc 21 436 35
	movq	0(%rbp), %rax
	.loc 21 436 28
	movq	%rcx, %r8
	movq	%rax, %rcx
	call	_ZNSt16allocator_traitsISaI12ElementosVooEE9constructIS0_JRKS0_EEEvRS1_PT_DpOT0_
	.loc 21 443 4
	movq	$0, -40(%rbp)
	.loc 21 448 39
	movq	0(%rbp), %rax
	movq	%rax, %rcx
	call	_ZNSt12_Vector_baseI12ElementosVooSaIS0_EE19_M_get_Tp_allocatorEv
	movq	%rax, %rbx
	.loc 21 447 6
	leaq	8(%rbp), %rax
	movq	%rax, %rcx
	call	_ZNK9__gnu_cxx17__normal_iteratorIP12ElementosVooSt6vectorIS1_SaIS1_EEE4baseEv
	movq	(%rax), %rdx
	movq	-80(%rbp), %rcx
	movq	-56(%rbp), %rax
	movq	%rbx, %r9
	movq	%rcx, %r8
	movq	%rax, %rcx
.LEHB53:
	call	_ZSt34__uninitialized_move_if_noexcept_aIP12ElementosVooS1_SaIS0_EET0_T_S4_S3_RT1_
	movq	%rax, -40(%rbp)
	.loc 21 450 4
	addq	$96, -40(%rbp)
	.loc 21 455 40
	movq	0(%rbp), %rax
	movq	%rax, %rcx
	call	_ZNSt12_Vector_baseI12ElementosVooSaIS0_EE19_M_get_Tp_allocatorEv
	movq	%rax, %rbx
	.loc 21 454 6
	leaq	8(%rbp), %rax
	movq	%rax, %rcx
	call	_ZNK9__gnu_cxx17__normal_iteratorIP12ElementosVooSt6vectorIS1_SaIS1_EEE4baseEv
	movq	(%rax), %rax
	movq	-40(%rbp), %rcx
	movq	-64(%rbp), %rdx
	movq	%rbx, %r9
	movq	%rcx, %r8
	movq	%rax, %rcx
	call	_ZSt34__uninitialized_move_if_noexcept_aIP12ElementosVooS1_SaIS0_EET0_T_S4_S3_RT1_
.LEHE53:
	.loc 21 454 6 is_stmt 0 discriminator 1
	movq	%rax, -40(%rbp)
	.loc 21 468 67 is_stmt 1 discriminator 1
	movq	0(%rbp), %rax
	movq	%rax, %rcx
	call	_ZNSt12_Vector_baseI12ElementosVooSaIS0_EE19_M_get_Tp_allocatorEv
	movq	%rax, %rcx
	.loc 21 468 20 discriminator 1
	movq	-64(%rbp), %rdx
	movq	-56(%rbp), %rax
	movq	%rcx, %r8
	movq	%rax, %rcx
.LEHB54:
	call	_ZSt8_DestroyIP12ElementosVooS0_EvT_S2_RSaIT0_E
	.loc 21 469 20 discriminator 1
	movq	0(%rbp), %rax
	.loc 21 470 21 discriminator 1
	movq	0(%rbp), %rdx
	movq	16(%rdx), %rdx
	.loc 21 470 39 discriminator 1
	subq	-56(%rbp), %rdx
	movq	%rdx, %rcx
	sarq	$5, %rcx
	movabsq	$-6148914691236517205, %rdx
	imulq	%rcx, %rdx
	.loc 21 469 20 discriminator 1
	movq	%rdx, %rcx
	movq	-56(%rbp), %rdx
	movq	%rcx, %r8
	movq	%rax, %rcx
	call	_ZNSt12_Vector_baseI12ElementosVooSaIS0_EE13_M_deallocateEPS0_y
.LEHE54:
	.loc 21 471 7 discriminator 1
	movq	0(%rbp), %rax
	movq	-80(%rbp), %rdx
	movq	%rdx, (%rax)
	.loc 21 472 7 discriminator 1
	movq	0(%rbp), %rax
	movq	-40(%rbp), %rdx
	movq	%rdx, 8(%rax)
	.loc 21 473 53 discriminator 1
	movq	-48(%rbp), %rdx
	movq	%rdx, %rax
	addq	%rax, %rax
	addq	%rdx, %rax
	salq	$5, %rax
	movq	%rax, %rdx
	movq	-80(%rbp), %rax
	addq	%rax, %rdx
	.loc 21 473 7 discriminator 1
	movq	0(%rbp), %rax
	movq	%rdx, 16(%rax)
	.loc 21 474 5 discriminator 1
	jmp	.L411
.L409:
	.loc 21 457 7
	movq	%rax, %rcx
	call	__cxa_begin_catch
	.loc 21 459 4
	cmpq	$0, -40(%rbp)
	jne	.L406
	.loc 21 461 20
	movq	-72(%rbp), %rdx
	movq	%rdx, %rax
	addq	%rax, %rax
	addq	%rdx, %rax
	salq	$5, %rax
	movq	%rax, %rdx
	.loc 21 460 28
	movq	-80(%rbp), %rax
	addq	%rax, %rdx
	.loc 21 460 35
	movq	0(%rbp), %rax
	.loc 21 460 28
	movq	%rax, %rcx
.LEHB55:
	call	_ZNSt16allocator_traitsISaI12ElementosVooEE7destroyIS0_EEvRS1_PT_
	jmp	.L407
.L406:
	.loc 21 463 66
	movq	0(%rbp), %rax
	movq	%rax, %rcx
	call	_ZNSt12_Vector_baseI12ElementosVooSaIS0_EE19_M_get_Tp_allocatorEv
	movq	%rax, %rcx
	.loc 21 463 19
	movq	-40(%rbp), %rdx
	movq	-80(%rbp), %rax
	movq	%rcx, %r8
	movq	%rax, %rcx
	call	_ZSt8_DestroyIP12ElementosVooS0_EvT_S2_RSaIT0_E
.L407:
	.loc 21 464 17
	movq	0(%rbp), %rax
	movq	-48(%rbp), %rcx
	movq	-80(%rbp), %rdx
	movq	%rcx, %r8
	movq	%rax, %rcx
	call	_ZNSt12_Vector_baseI12ElementosVooSaIS0_EE13_M_deallocateEPS0_y
	.loc 21 465 4
	call	__cxa_rethrow
.LEHE55:
.L410:
	movq	%rax, %rbx
	.loc 21 457 7
	call	__cxa_end_catch
	movq	%rbx, %rax
	movq	%rax, %rcx
.LEHB56:
	call	_Unwind_Resume
	nop
.LEHE56:
.L411:
	.loc 21 474 5
	addq	$104, %rsp
	popq	%rbx
	.cfi_restore 3
	popq	%rbp
	.cfi_restore 6
	.cfi_def_cfa 7, -88
	ret
	.cfi_endproc
.LFE3066:
	.seh_handler	__gxx_personality_seh0, @unwind, @except
	.seh_handlerdata
	.align 4
.LLSDA3066:
	.byte	0xff
	.byte	0x9b
	.uleb128 .LLSDATT3066-.LLSDATTD3066
.LLSDATTD3066:
	.byte	0x1
	.uleb128 .LLSDACSE3066-.LLSDACSB3066
.LLSDACSB3066:
	.uleb128 .LEHB52-.LFB3066
	.uleb128 .LEHE52-.LEHB52
	.uleb128 0
	.uleb128 0
	.uleb128 .LEHB53-.LFB3066
	.uleb128 .LEHE53-.LEHB53
	.uleb128 .L409-.LFB3066
	.uleb128 0x1
	.uleb128 .LEHB54-.LFB3066
	.uleb128 .LEHE54-.LEHB54
	.uleb128 0
	.uleb128 0
	.uleb128 .LEHB55-.LFB3066
	.uleb128 .LEHE55-.LEHB55
	.uleb128 .L410-.LFB3066
	.uleb128 0
	.uleb128 .LEHB56-.LFB3066
	.uleb128 .LEHE56-.LEHB56
	.uleb128 0
	.uleb128 0
.LLSDACSE3066:
	.byte	0x1
	.byte	0
	.align 4
	.long	0

.LLSDATT3066:
	.section	.text$_ZNSt6vectorI12ElementosVooSaIS0_EE17_M_realloc_insertIJRKS0_EEEvN9__gnu_cxx17__normal_iteratorIPS0_S2_EEDpOT_,"x"
	.linkonce discard
	.seh_endproc
	.section	.text$_ZNSt12_Vector_baseI12ElementosVooSaIS0_EE12_Vector_implC1Ev,"x"
	.linkonce discard
	.align 2
	.globl	_ZNSt12_Vector_baseI12ElementosVooSaIS0_EE12_Vector_implC1Ev
	.def	_ZNSt12_Vector_baseI12ElementosVooSaIS0_EE12_Vector_implC1Ev;	.scl	2;	.type	32;	.endef
	.seh_proc	_ZNSt12_Vector_baseI12ElementosVooSaIS0_EE12_Vector_implC1Ev
_ZNSt12_Vector_baseI12ElementosVooSaIS0_EE12_Vector_implC1Ev:
.LFB3132:
	.loc 17 95 2
	.cfi_startproc
	pushq	%rbp
	.seh_pushreg	%rbp
	.cfi_def_cfa_offset 16
	.cfi_offset 6, -16
	movq	%rsp, %rbp
	.seh_setframe	%rbp, 0
	.cfi_def_cfa_register 6
	subq	$32, %rsp
	.seh_stackalloc	32
	.seh_endprologue
	movq	%rcx, 16(%rbp)
.LBB77:
	.loc 17 96 65
	movq	16(%rbp), %rcx
	call	_ZNSaI12ElementosVooEC2Ev
	movq	16(%rbp), %rax
	movq	$0, (%rax)
	movq	16(%rbp), %rax
	movq	$0, 8(%rax)
	movq	16(%rbp), %rax
	movq	$0, 16(%rax)
.LBE77:
	.loc 17 97 4
	nop
	addq	$32, %rsp
	popq	%rbp
	.cfi_restore 6
	.cfi_def_cfa 7, 8
	ret
	.cfi_endproc
.LFE3132:
	.seh_endproc
	.section	.text$_ZNSaI12ElementosVooED2Ev,"x"
	.linkonce discard
	.align 2
	.globl	_ZNSaI12ElementosVooED2Ev
	.def	_ZNSaI12ElementosVooED2Ev;	.scl	2;	.type	32;	.endef
	.seh_proc	_ZNSaI12ElementosVooED2Ev
_ZNSaI12ElementosVooED2Ev:
.LFB3134:
	.file 22 "C:/Program Files/CodeBlocks/MinGW/lib/gcc/x86_64-w64-mingw32/8.1.0/include/c++/bits/allocator.h"
	.loc 22 139 7
	.cfi_startproc
	pushq	%rbp
	.seh_pushreg	%rbp
	.cfi_def_cfa_offset 16
	.cfi_offset 6, -16
	movq	%rsp, %rbp
	.seh_setframe	%rbp, 0
	.cfi_def_cfa_register 6
	subq	$32, %rsp
	.seh_stackalloc	32
	.seh_endprologue
	movq	%rcx, 16(%rbp)
.LBB78:
	.loc 22 139 30
	movq	16(%rbp), %rcx
	call	_ZN9__gnu_cxx13new_allocatorI12ElementosVooED2Ev
.LBE78:
	nop
	addq	$32, %rsp
	popq	%rbp
	.cfi_restore 6
	.cfi_def_cfa 7, 8
	ret
	.cfi_endproc
.LFE3134:
	.seh_endproc
	.section	.text$_ZNSt12_Vector_baseI12ElementosVooSaIS0_EE13_M_deallocateEPS0_y,"x"
	.linkonce discard
	.align 2
	.globl	_ZNSt12_Vector_baseI12ElementosVooSaIS0_EE13_M_deallocateEPS0_y
	.def	_ZNSt12_Vector_baseI12ElementosVooSaIS0_EE13_M_deallocateEPS0_y;	.scl	2;	.type	32;	.endef
	.seh_proc	_ZNSt12_Vector_baseI12ElementosVooSaIS0_EE13_M_deallocateEPS0_y
_ZNSt12_Vector_baseI12ElementosVooSaIS0_EE13_M_deallocateEPS0_y:
.LFB3136:
	.loc 17 300 7
	.cfi_startproc
	pushq	%rbp
	.seh_pushreg	%rbp
	.cfi_def_cfa_offset 16
	.cfi_offset 6, -16
	movq	%rsp, %rbp
	.seh_setframe	%rbp, 0
	.cfi_def_cfa_register 6
	subq	$32, %rsp
	.seh_stackalloc	32
	.seh_endprologue
	movq	%rcx, 16(%rbp)
	movq	%rdx, 24(%rbp)
	movq	%r8, 32(%rbp)
	.loc 17 303 2
	cmpq	$0, 24(%rbp)
	je	.L416
	.loc 17 304 20
	movq	16(%rbp), %rax
	.loc 17 304 19
	movq	32(%rbp), %rcx
	movq	24(%rbp), %rdx
	movq	%rcx, %r8
	movq	%rax, %rcx
	call	_ZNSt16allocator_traitsISaI12ElementosVooEE10deallocateERS1_PS0_y
.L416:
	.loc 17 305 7
	nop
	addq	$32, %rsp
	popq	%rbp
	.cfi_restore 6
	.cfi_def_cfa 7, 8
	ret
	.cfi_endproc
.LFE3136:
	.seh_endproc
	.section	.text$_ZSt8_DestroyIP12ElementosVooEvT_S2_,"x"
	.linkonce discard
	.globl	_ZSt8_DestroyIP12ElementosVooEvT_S2_
	.def	_ZSt8_DestroyIP12ElementosVooEvT_S2_;	.scl	2;	.type	32;	.endef
	.seh_proc	_ZSt8_DestroyIP12ElementosVooEvT_S2_
_ZSt8_DestroyIP12ElementosVooEvT_S2_:
.LFB3137:
	.loc 18 127 5
	.cfi_startproc
	pushq	%rbp
	.seh_pushreg	%rbp
	.cfi_def_cfa_offset 16
	.cfi_offset 6, -16
	movq	%rsp, %rbp
	.seh_setframe	%rbp, 0
	.cfi_def_cfa_register 6
	subq	$32, %rsp
	.seh_stackalloc	32
	.seh_endprologue
	movq	%rcx, 16(%rbp)
	movq	%rdx, 24(%rbp)
	.loc 18 137 11
	movq	24(%rbp), %rax
	movq	%rax, %rdx
	movq	16(%rbp), %rcx
	call	_ZNSt12_Destroy_auxILb0EE9__destroyIP12ElementosVooEEvT_S4_
	.loc 18 138 5
	nop
	addq	$32, %rsp
	popq	%rbp
	.cfi_restore 6
	.cfi_def_cfa 7, 8
	ret
	.cfi_endproc
.LFE3137:
	.seh_endproc
	.section	.text$_ZN12ElementosVooC1ERKS_,"x"
	.linkonce discard
	.align 2
	.globl	_ZN12ElementosVooC1ERKS_
	.def	_ZN12ElementosVooC1ERKS_;	.scl	2;	.type	32;	.endef
	.seh_proc	_ZN12ElementosVooC1ERKS_
_ZN12ElementosVooC1ERKS_:
.LFB3141:
	.loc 5 7 7
	.cfi_startproc
	pushq	%rbp
	.seh_pushreg	%rbp
	.cfi_def_cfa_offset 16
	.cfi_offset 6, -16
	movq	%rsp, %rbp
	.seh_setframe	%rbp, 0
	.cfi_def_cfa_register 6
	subq	$32, %rsp
	.seh_stackalloc	32
	.seh_endprologue
	movq	%rcx, 16(%rbp)
	movq	%rdx, 24(%rbp)
.LBB79:
	.loc 5 7 7
	movq	16(%rbp), %rax
	movq	24(%rbp), %rdx
	movq	%rax, %rcx
	call	_ZN10BaseObjectC2ERKS_
	leaq	16+_ZTV12ElementosVoo(%rip), %rdx
	movq	16(%rbp), %rax
	movq	%rdx, (%rax)
	movq	24(%rbp), %rax
	movsd	8(%rax), %xmm0
	movq	16(%rbp), %rax
	movsd	%xmm0, 8(%rax)
	movq	24(%rbp), %rax
	movsd	16(%rax), %xmm0
	movq	16(%rbp), %rax
	movsd	%xmm0, 16(%rax)
	movq	24(%rbp), %rax
	movsd	24(%rax), %xmm0
	movq	16(%rbp), %rax
	movsd	%xmm0, 24(%rax)
	movq	24(%rbp), %rax
	movsd	32(%rax), %xmm0
	movq	16(%rbp), %rax
	movsd	%xmm0, 32(%rax)
	movq	24(%rbp), %rax
	movsd	40(%rax), %xmm0
	movq	16(%rbp), %rax
	movsd	%xmm0, 40(%rax)
	movq	24(%rbp), %rax
	movsd	48(%rax), %xmm0
	movq	16(%rbp), %rax
	movsd	%xmm0, 48(%rax)
	movq	24(%rbp), %rax
	movsd	56(%rax), %xmm0
	movq	16(%rbp), %rax
	movsd	%xmm0, 56(%rax)
	movq	24(%rbp), %rax
	movsd	64(%rax), %xmm0
	movq	16(%rbp), %rax
	movsd	%xmm0, 64(%rax)
	movq	24(%rbp), %rax
	movsd	72(%rax), %xmm0
	movq	16(%rbp), %rax
	movsd	%xmm0, 72(%rax)
	movq	24(%rbp), %rax
	movsd	80(%rax), %xmm0
	movq	16(%rbp), %rax
	movsd	%xmm0, 80(%rax)
	movq	24(%rbp), %rax
	movsd	88(%rax), %xmm0
	movq	16(%rbp), %rax
	movsd	%xmm0, 88(%rax)
.LBE79:
	nop
	addq	$32, %rsp
	popq	%rbp
	.cfi_restore 6
	.cfi_def_cfa 7, 8
	ret
	.cfi_endproc
.LFE3141:
	.seh_endproc
	.section	.text$_ZN9__gnu_cxx13new_allocatorI12ElementosVooE9constructIS1_JRKS1_EEEvPT_DpOT0_,"x"
	.linkonce discard
	.align 2
	.globl	_ZN9__gnu_cxx13new_allocatorI12ElementosVooE9constructIS1_JRKS1_EEEvPT_DpOT0_
	.def	_ZN9__gnu_cxx13new_allocatorI12ElementosVooE9constructIS1_JRKS1_EEEvPT_DpOT0_;	.scl	2;	.type	32;	.endef
	.seh_proc	_ZN9__gnu_cxx13new_allocatorI12ElementosVooE9constructIS1_JRKS1_EEEvPT_DpOT0_
_ZN9__gnu_cxx13new_allocatorI12ElementosVooE9constructIS1_JRKS1_EEEvPT_DpOT0_:
.LFB3138:
	.file 23 "C:/Program Files/CodeBlocks/MinGW/lib/gcc/x86_64-w64-mingw32/8.1.0/include/c++/ext/new_allocator.h"
	.loc 23 135 2
	.cfi_startproc
	pushq	%rbp
	.seh_pushreg	%rbp
	.cfi_def_cfa_offset 16
	.cfi_offset 6, -16
	pushq	%rbx
	.seh_pushreg	%rbx
	.cfi_def_cfa_offset 24
	.cfi_offset 3, -24
	subq	$40, %rsp
	.seh_stackalloc	40
	.cfi_def_cfa_offset 64
	leaq	128(%rsp), %rbp
	.seh_setframe	%rbp, 128
	.cfi_def_cfa 6, -64
	.seh_endprologue
	movq	%rcx, -64(%rbp)
	movq	%rdx, -56(%rbp)
	movq	%r8, -48(%rbp)
	.loc 23 136 46
	movq	-48(%rbp), %rax
	movq	%rax, %rcx
	call	_ZSt7forwardIRK12ElementosVooEOT_RNSt16remove_referenceIS3_E4typeE
	movq	%rax, %rbx
	.loc 23 136 4
	movq	-56(%rbp), %rax
	movq	%rax, %rdx
	movl	$96, %ecx
	call	_ZnwyPv
	movq	%rbx, %rdx
	movq	%rax, %rcx
	call	_ZN12ElementosVooC1ERKS_
	.loc 23 136 60
	nop
	addq	$40, %rsp
	popq	%rbx
	.cfi_restore 3
	popq	%rbp
	.cfi_restore 6
	.cfi_def_cfa 7, -24
	ret
	.cfi_endproc
.LFE3138:
	.seh_endproc
	.section	.text$_ZN9__gnu_cxx17__normal_iteratorIP12ElementosVooSt6vectorIS1_SaIS1_EEEC1ERKS2_,"x"
	.linkonce discard
	.align 2
	.globl	_ZN9__gnu_cxx17__normal_iteratorIP12ElementosVooSt6vectorIS1_SaIS1_EEEC1ERKS2_
	.def	_ZN9__gnu_cxx17__normal_iteratorIP12ElementosVooSt6vectorIS1_SaIS1_EEEC1ERKS2_;	.scl	2;	.type	32;	.endef
	.seh_proc	_ZN9__gnu_cxx17__normal_iteratorIP12ElementosVooSt6vectorIS1_SaIS1_EEEC1ERKS2_
_ZN9__gnu_cxx17__normal_iteratorIP12ElementosVooSt6vectorIS1_SaIS1_EEEC1ERKS2_:
.LFB3144:
	.file 24 "C:/Program Files/CodeBlocks/MinGW/lib/gcc/x86_64-w64-mingw32/8.1.0/include/c++/bits/stl_iterator.h"
	.loc 24 780 7
	.cfi_startproc
	pushq	%rbp
	.seh_pushreg	%rbp
	.cfi_def_cfa_offset 16
	.cfi_offset 6, -16
	movq	%rsp, %rbp
	.seh_setframe	%rbp, 0
	.cfi_def_cfa_register 6
	.seh_endprologue
	movq	%rcx, 16(%rbp)
	movq	%rdx, 24(%rbp)
.LBB80:
	.loc 24 781 23
	movq	24(%rbp), %rax
	movq	(%rax), %rdx
	movq	16(%rbp), %rax
	movq	%rdx, (%rax)
.LBE80:
	.loc 24 781 27
	nop
	popq	%rbp
	.cfi_restore 6
	.cfi_def_cfa 7, 8
	ret
	.cfi_endproc
.LFE3144:
	.seh_endproc
	.section	.text$_ZNKSt6vectorI12ElementosVooSaIS0_EE12_M_check_lenEyPKc,"x"
	.linkonce discard
	.align 2
	.globl	_ZNKSt6vectorI12ElementosVooSaIS0_EE12_M_check_lenEyPKc
	.def	_ZNKSt6vectorI12ElementosVooSaIS0_EE12_M_check_lenEyPKc;	.scl	2;	.type	32;	.endef
	.seh_proc	_ZNKSt6vectorI12ElementosVooSaIS0_EE12_M_check_lenEyPKc
_ZNKSt6vectorI12ElementosVooSaIS0_EE12_M_check_lenEyPKc:
.LFB3145:
	.loc 17 1635 7
	.cfi_startproc
	pushq	%rbp
	.seh_pushreg	%rbp
	.cfi_def_cfa_offset 16
	.cfi_offset 6, -16
	pushq	%rbx
	.seh_pushreg	%rbx
	.cfi_def_cfa_offset 24
	.cfi_offset 3, -24
	subq	$56, %rsp
	.seh_stackalloc	56
	.cfi_def_cfa_offset 80
	leaq	128(%rsp), %rbp
	.seh_setframe	%rbp, 128
	.cfi_def_cfa 6, -48
	.seh_endprologue
	movq	%rcx, -48(%rbp)
	movq	%rdx, -40(%rbp)
	movq	%r8, -32(%rbp)
	.loc 17 1637 17
	movq	-48(%rbp), %rcx
	call	_ZNKSt6vectorI12ElementosVooSaIS0_EE8max_sizeEv
	movq	%rax, %rbx
	movq	-48(%rbp), %rcx
	call	_ZNKSt6vectorI12ElementosVooSaIS0_EE4sizeEv
	subq	%rax, %rbx
	movq	%rbx, %rdx
	.loc 17 1637 26
	movq	-40(%rbp), %rax
	cmpq	%rax, %rdx
	setb	%al
	.loc 17 1637 2
	testb	%al, %al
	je	.L422
	.loc 17 1638 24
	movq	-32(%rbp), %rax
	movq	%rax, %rcx
	call	_ZSt20__throw_length_errorPKc
.L422:
	.loc 17 1640 33
	movq	-48(%rbp), %rcx
	call	_ZNKSt6vectorI12ElementosVooSaIS0_EE4sizeEv
	movq	%rax, %rbx
	.loc 17 1640 43
	movq	-48(%rbp), %rcx
	call	_ZNKSt6vectorI12ElementosVooSaIS0_EE4sizeEv
	movq	%rax, -96(%rbp)
	leaq	-40(%rbp), %rdx
	leaq	-96(%rbp), %rax
	movq	%rax, %rcx
	call	_ZSt3maxIyERKT_S2_S2_
	.loc 17 1640 33
	movq	(%rax), %rax
	.loc 17 1640 18
	addq	%rbx, %rax
	movq	%rax, -88(%rbp)
	.loc 17 1641 16
	movq	-48(%rbp), %rcx
	call	_ZNKSt6vectorI12ElementosVooSaIS0_EE4sizeEv
	.loc 17 1641 48
	cmpq	%rax, -88(%rbp)
	jb	.L423
	.loc 17 1641 34 discriminator 2
	movq	-48(%rbp), %rcx
	call	_ZNKSt6vectorI12ElementosVooSaIS0_EE8max_sizeEv
	.loc 17 1641 25 discriminator 2
	cmpq	%rax, -88(%rbp)
	jbe	.L424
.L423:
	.loc 17 1641 48 discriminator 3
	movq	-48(%rbp), %rcx
	call	_ZNKSt6vectorI12ElementosVooSaIS0_EE8max_sizeEv
	jmp	.L425
.L424:
	.loc 17 1641 48 is_stmt 0 discriminator 4
	movq	-88(%rbp), %rax
.L425:
	.loc 17 1642 7 is_stmt 1 discriminator 6
	addq	$56, %rsp
	popq	%rbx
	.cfi_restore 3
	popq	%rbp
	.cfi_restore 6
	.cfi_def_cfa 7, -40
	ret
	.cfi_endproc
.LFE3145:
	.seh_endproc
	.section	.text$_ZNSt6vectorI12ElementosVooSaIS0_EE5beginEv,"x"
	.linkonce discard
	.align 2
	.globl	_ZNSt6vectorI12ElementosVooSaIS0_EE5beginEv
	.def	_ZNSt6vectorI12ElementosVooSaIS0_EE5beginEv;	.scl	2;	.type	32;	.endef
	.seh_proc	_ZNSt6vectorI12ElementosVooSaIS0_EE5beginEv
_ZNSt6vectorI12ElementosVooSaIS0_EE5beginEv:
.LFB3146:
	.loc 17 698 7
	.cfi_startproc
	pushq	%rbp
	.seh_pushreg	%rbp
	.cfi_def_cfa_offset 16
	.cfi_offset 6, -16
	movq	%rsp, %rbp
	.seh_setframe	%rbp, 0
	.cfi_def_cfa_register 6
	subq	$48, %rsp
	.seh_stackalloc	48
	.seh_endprologue
	movq	%rcx, 16(%rbp)
	.loc 17 699 39
	movq	16(%rbp), %rdx
	.loc 17 699 47
	leaq	-8(%rbp), %rax
	movq	%rax, %rcx
	call	_ZN9__gnu_cxx17__normal_iteratorIP12ElementosVooSt6vectorIS1_SaIS1_EEEC1ERKS2_
	movq	-8(%rbp), %rax
	.loc 17 699 50
	addq	$48, %rsp
	popq	%rbp
	.cfi_restore 6
	.cfi_def_cfa 7, 8
	ret
	.cfi_endproc
.LFE3146:
	.seh_endproc
	.section	.text$_ZN9__gnu_cxxmiIP12ElementosVooSt6vectorIS1_SaIS1_EEEENS_17__normal_iteratorIT_T0_E15difference_typeERKS9_SC_,"x"
	.linkonce discard
	.globl	_ZN9__gnu_cxxmiIP12ElementosVooSt6vectorIS1_SaIS1_EEEENS_17__normal_iteratorIT_T0_E15difference_typeERKS9_SC_
	.def	_ZN9__gnu_cxxmiIP12ElementosVooSt6vectorIS1_SaIS1_EEEENS_17__normal_iteratorIT_T0_E15difference_typeERKS9_SC_;	.scl	2;	.type	32;	.endef
	.seh_proc	_ZN9__gnu_cxxmiIP12ElementosVooSt6vectorIS1_SaIS1_EEEENS_17__normal_iteratorIT_T0_E15difference_typeERKS9_SC_
_ZN9__gnu_cxxmiIP12ElementosVooSt6vectorIS1_SaIS1_EEEENS_17__normal_iteratorIT_T0_E15difference_typeERKS9_SC_:
.LFB3147:
	.loc 24 963 5
	.cfi_startproc
	pushq	%rbp
	.seh_pushreg	%rbp
	.cfi_def_cfa_offset 16
	.cfi_offset 6, -16
	pushq	%rbx
	.seh_pushreg	%rbx
	.cfi_def_cfa_offset 24
	.cfi_offset 3, -24
	subq	$40, %rsp
	.seh_stackalloc	40
	.cfi_def_cfa_offset 64
	leaq	128(%rsp), %rbp
	.seh_setframe	%rbp, 128
	.cfi_def_cfa 6, -64
	.seh_endprologue
	movq	%rcx, -64(%rbp)
	movq	%rdx, -56(%rbp)
	.loc 24 966 27
	movq	-64(%rbp), %rcx
	call	_ZNK9__gnu_cxx17__normal_iteratorIP12ElementosVooSt6vectorIS1_SaIS1_EEE4baseEv
	movq	(%rax), %rbx
	movq	-56(%rbp), %rax
	movq	%rax, %rcx
	call	_ZNK9__gnu_cxx17__normal_iteratorIP12ElementosVooSt6vectorIS1_SaIS1_EEE4baseEv
	movq	(%rax), %rax
	subq	%rax, %rbx
	movq	%rbx, %rax
	.loc 24 966 40
	sarq	$5, %rax
	movq	%rax, %rdx
	movabsq	$-6148914691236517205, %rax
	imulq	%rdx, %rax
	.loc 24 966 43
	addq	$40, %rsp
	popq	%rbx
	.cfi_restore 3
	popq	%rbp
	.cfi_restore 6
	.cfi_def_cfa 7, -24
	ret
	.cfi_endproc
.LFE3147:
	.seh_endproc
	.section	.text$_ZNSt12_Vector_baseI12ElementosVooSaIS0_EE11_M_allocateEy,"x"
	.linkonce discard
	.align 2
	.globl	_ZNSt12_Vector_baseI12ElementosVooSaIS0_EE11_M_allocateEy
	.def	_ZNSt12_Vector_baseI12ElementosVooSaIS0_EE11_M_allocateEy;	.scl	2;	.type	32;	.endef
	.seh_proc	_ZNSt12_Vector_baseI12ElementosVooSaIS0_EE11_M_allocateEy
_ZNSt12_Vector_baseI12ElementosVooSaIS0_EE11_M_allocateEy:
.LFB3148:
	.loc 17 293 7
	.cfi_startproc
	pushq	%rbp
	.seh_pushreg	%rbp
	.cfi_def_cfa_offset 16
	.cfi_offset 6, -16
	movq	%rsp, %rbp
	.seh_setframe	%rbp, 0
	.cfi_def_cfa_register 6
	subq	$32, %rsp
	.seh_stackalloc	32
	.seh_endprologue
	movq	%rcx, 16(%rbp)
	movq	%rdx, 24(%rbp)
	.loc 17 296 18
	cmpq	$0, 24(%rbp)
	je	.L432
	.loc 17 296 34 discriminator 1
	movq	16(%rbp), %rax
	.loc 17 296 33 discriminator 1
	movq	24(%rbp), %rdx
	movq	%rax, %rcx
	call	_ZNSt16allocator_traitsISaI12ElementosVooEE8allocateERS1_y
	.loc 17 296 58 discriminator 1
	jmp	.L434
.L432:
	.loc 17 296 18 discriminator 2
	movl	$0, %eax
.L434:
	.loc 17 297 7 discriminator 5
	addq	$32, %rsp
	popq	%rbp
	.cfi_restore 6
	.cfi_def_cfa 7, 8
	ret
	.cfi_endproc
.LFE3148:
	.seh_endproc
	.section	.text$_ZNK9__gnu_cxx17__normal_iteratorIP12ElementosVooSt6vectorIS1_SaIS1_EEE4baseEv,"x"
	.linkonce discard
	.align 2
	.globl	_ZNK9__gnu_cxx17__normal_iteratorIP12ElementosVooSt6vectorIS1_SaIS1_EEE4baseEv
	.def	_ZNK9__gnu_cxx17__normal_iteratorIP12ElementosVooSt6vectorIS1_SaIS1_EEE4baseEv;	.scl	2;	.type	32;	.endef
	.seh_proc	_ZNK9__gnu_cxx17__normal_iteratorIP12ElementosVooSt6vectorIS1_SaIS1_EEE4baseEv
_ZNK9__gnu_cxx17__normal_iteratorIP12ElementosVooSt6vectorIS1_SaIS1_EEE4baseEv:
.LFB3149:
	.loc 24 845 7
	.cfi_startproc
	pushq	%rbp
	.seh_pushreg	%rbp
	.cfi_def_cfa_offset 16
	.cfi_offset 6, -16
	movq	%rsp, %rbp
	.seh_setframe	%rbp, 0
	.cfi_def_cfa_register 6
	.seh_endprologue
	movq	%rcx, 16(%rbp)
	.loc 24 846 16
	movq	16(%rbp), %rax
	.loc 24 846 28
	popq	%rbp
	.cfi_restore 6
	.cfi_def_cfa 7, 8
	ret
	.cfi_endproc
.LFE3149:
	.seh_endproc
	.section	.text$_ZSt34__uninitialized_move_if_noexcept_aIP12ElementosVooS1_SaIS0_EET0_T_S4_S3_RT1_,"x"
	.linkonce discard
	.globl	_ZSt34__uninitialized_move_if_noexcept_aIP12ElementosVooS1_SaIS0_EET0_T_S4_S3_RT1_
	.def	_ZSt34__uninitialized_move_if_noexcept_aIP12ElementosVooS1_SaIS0_EET0_T_S4_S3_RT1_;	.scl	2;	.type	32;	.endef
	.seh_proc	_ZSt34__uninitialized_move_if_noexcept_aIP12ElementosVooS1_SaIS0_EET0_T_S4_S3_RT1_
_ZSt34__uninitialized_move_if_noexcept_aIP12ElementosVooS1_SaIS0_EET0_T_S4_S3_RT1_:
.LFB3150:
	.file 25 "C:/Program Files/CodeBlocks/MinGW/lib/gcc/x86_64-w64-mingw32/8.1.0/include/c++/bits/stl_uninitialized.h"
	.loc 25 305 5
	.cfi_startproc
	pushq	%rbp
	.seh_pushreg	%rbp
	.cfi_def_cfa_offset 16
	.cfi_offset 6, -16
	pushq	%rbx
	.seh_pushreg	%rbx
	.cfi_def_cfa_offset 24
	.cfi_offset 3, -24
	subq	$40, %rsp
	.seh_stackalloc	40
	.cfi_def_cfa_offset 64
	leaq	128(%rsp), %rbp
	.seh_setframe	%rbp, 128
	.cfi_def_cfa 6, -64
	.seh_endprologue
	movq	%rcx, -64(%rbp)
	movq	%rdx, -56(%rbp)
	movq	%r8, -48(%rbp)
	movq	%r9, -40(%rbp)
	.loc 25 311 2
	movq	-56(%rbp), %rax
	movq	%rax, %rcx
	call	_ZSt32__make_move_if_noexcept_iteratorI12ElementosVooSt13move_iteratorIPS0_EET0_PT_
	movq	%rax, %rbx
	movq	-64(%rbp), %rcx
	call	_ZSt32__make_move_if_noexcept_iteratorI12ElementosVooSt13move_iteratorIPS0_EET0_PT_
	movq	%rax, %rcx
	movq	-40(%rbp), %rdx
	movq	-48(%rbp), %rax
	movq	%rdx, %r9
	movq	%rax, %r8
	movq	%rbx, %rdx
	call	_ZSt22__uninitialized_copy_aISt13move_iteratorIP12ElementosVooES2_S1_ET0_T_S5_S4_RSaIT1_E
	.loc 25 313 5
	addq	$40, %rsp
	popq	%rbx
	.cfi_restore 3
	popq	%rbp
	.cfi_restore 6
	.cfi_def_cfa 7, -24
	ret
	.cfi_endproc
.LFE3150:
	.seh_endproc
	.section	.text$_ZNSt16allocator_traitsISaI12ElementosVooEE7destroyIS0_EEvRS1_PT_,"x"
	.linkonce discard
	.globl	_ZNSt16allocator_traitsISaI12ElementosVooEE7destroyIS0_EEvRS1_PT_
	.def	_ZNSt16allocator_traitsISaI12ElementosVooEE7destroyIS0_EEvRS1_PT_;	.scl	2;	.type	32;	.endef
	.seh_proc	_ZNSt16allocator_traitsISaI12ElementosVooEE7destroyIS0_EEvRS1_PT_
_ZNSt16allocator_traitsISaI12ElementosVooEE7destroyIS0_EEvRS1_PT_:
.LFB3151:
	.loc 20 486 2
	.cfi_startproc
	pushq	%rbp
	.seh_pushreg	%rbp
	.cfi_def_cfa_offset 16
	.cfi_offset 6, -16
	movq	%rsp, %rbp
	.seh_setframe	%rbp, 0
	.cfi_def_cfa_register 6
	subq	$32, %rsp
	.seh_stackalloc	32
	.seh_endprologue
	movq	%rcx, 16(%rbp)
	movq	%rdx, 24(%rbp)
	.loc 20 487 4
	movq	24(%rbp), %rax
	movq	%rax, %rdx
	movq	16(%rbp), %rcx
	call	_ZN9__gnu_cxx13new_allocatorI12ElementosVooE7destroyIS1_EEvPT_
	.loc 20 487 22
	nop
	addq	$32, %rsp
	popq	%rbp
	.cfi_restore 6
	.cfi_def_cfa 7, 8
	ret
	.cfi_endproc
.LFE3151:
	.seh_endproc
	.section	.text$_ZNSaI12ElementosVooEC2Ev,"x"
	.linkonce discard
	.align 2
	.globl	_ZNSaI12ElementosVooEC2Ev
	.def	_ZNSaI12ElementosVooEC2Ev;	.scl	2;	.type	32;	.endef
	.seh_proc	_ZNSaI12ElementosVooEC2Ev
_ZNSaI12ElementosVooEC2Ev:
.LFB3191:
	.loc 22 131 7
	.cfi_startproc
	pushq	%rbp
	.seh_pushreg	%rbp
	.cfi_def_cfa_offset 16
	.cfi_offset 6, -16
	movq	%rsp, %rbp
	.seh_setframe	%rbp, 0
	.cfi_def_cfa_register 6
	subq	$32, %rsp
	.seh_stackalloc	32
	.seh_endprologue
	movq	%rcx, 16(%rbp)
.LBB81:
	.loc 22 131 27
	movq	16(%rbp), %rcx
	call	_ZN9__gnu_cxx13new_allocatorI12ElementosVooEC2Ev
.LBE81:
	.loc 22 131 29
	nop
	addq	$32, %rsp
	popq	%rbp
	.cfi_restore 6
	.cfi_def_cfa 7, 8
	ret
	.cfi_endproc
.LFE3191:
	.seh_endproc
	.section	.text$_ZN9__gnu_cxx13new_allocatorI12ElementosVooED2Ev,"x"
	.linkonce discard
	.align 2
	.globl	_ZN9__gnu_cxx13new_allocatorI12ElementosVooED2Ev
	.def	_ZN9__gnu_cxx13new_allocatorI12ElementosVooED2Ev;	.scl	2;	.type	32;	.endef
	.seh_proc	_ZN9__gnu_cxx13new_allocatorI12ElementosVooED2Ev
_ZN9__gnu_cxx13new_allocatorI12ElementosVooED2Ev:
.LFB3194:
	.loc 23 86 7
	.cfi_startproc
	pushq	%rbp
	.seh_pushreg	%rbp
	.cfi_def_cfa_offset 16
	.cfi_offset 6, -16
	movq	%rsp, %rbp
	.seh_setframe	%rbp, 0
	.cfi_def_cfa_register 6
	.seh_endprologue
	movq	%rcx, 16(%rbp)
	.loc 23 86 35
	nop
	popq	%rbp
	.cfi_restore 6
	.cfi_def_cfa 7, 8
	ret
	.cfi_endproc
.LFE3194:
	.seh_endproc
	.section	.text$_ZNSt16allocator_traitsISaI12ElementosVooEE10deallocateERS1_PS0_y,"x"
	.linkonce discard
	.globl	_ZNSt16allocator_traitsISaI12ElementosVooEE10deallocateERS1_PS0_y
	.def	_ZNSt16allocator_traitsISaI12ElementosVooEE10deallocateERS1_PS0_y;	.scl	2;	.type	32;	.endef
	.seh_proc	_ZNSt16allocator_traitsISaI12ElementosVooEE10deallocateERS1_PS0_y
_ZNSt16allocator_traitsISaI12ElementosVooEE10deallocateERS1_PS0_y:
.LFB3196:
	.loc 20 461 7
	.cfi_startproc
	pushq	%rbp
	.seh_pushreg	%rbp
	.cfi_def_cfa_offset 16
	.cfi_offset 6, -16
	movq	%rsp, %rbp
	.seh_setframe	%rbp, 0
	.cfi_def_cfa_register 6
	subq	$32, %rsp
	.seh_stackalloc	32
	.seh_endprologue
	movq	%rcx, 16(%rbp)
	movq	%rdx, 24(%rbp)
	movq	%r8, 32(%rbp)
	.loc 20 462 9
	movq	32(%rbp), %rdx
	movq	24(%rbp), %rax
	movq	%rdx, %r8
	movq	%rax, %rdx
	movq	16(%rbp), %rcx
	call	_ZN9__gnu_cxx13new_allocatorI12ElementosVooE10deallocateEPS1_y
	.loc 20 462 35
	nop
	addq	$32, %rsp
	popq	%rbp
	.cfi_restore 6
	.cfi_def_cfa 7, 8
	ret
	.cfi_endproc
.LFE3196:
	.seh_endproc
	.section	.text$_ZSt11__addressofI12ElementosVooEPT_RS1_,"x"
	.linkonce discard
	.globl	_ZSt11__addressofI12ElementosVooEPT_RS1_
	.def	_ZSt11__addressofI12ElementosVooEPT_RS1_;	.scl	2;	.type	32;	.endef
	.seh_proc	_ZSt11__addressofI12ElementosVooEPT_RS1_
_ZSt11__addressofI12ElementosVooEPT_RS1_:
.LFB3198:
	.loc 19 47 5
	.cfi_startproc
	pushq	%rbp
	.seh_pushreg	%rbp
	.cfi_def_cfa_offset 16
	.cfi_offset 6, -16
	movq	%rsp, %rbp
	.seh_setframe	%rbp, 0
	.cfi_def_cfa_register 6
	.seh_endprologue
	movq	%rcx, 16(%rbp)
	.loc 19 48 37
	movq	16(%rbp), %rax
	.loc 19 48 40
	popq	%rbp
	.cfi_restore 6
	.cfi_def_cfa 7, 8
	ret
	.cfi_endproc
.LFE3198:
	.seh_endproc
	.section	.text$_ZNSt12_Destroy_auxILb0EE9__destroyIP12ElementosVooEEvT_S4_,"x"
	.linkonce discard
	.globl	_ZNSt12_Destroy_auxILb0EE9__destroyIP12ElementosVooEEvT_S4_
	.def	_ZNSt12_Destroy_auxILb0EE9__destroyIP12ElementosVooEEvT_S4_;	.scl	2;	.type	32;	.endef
	.seh_proc	_ZNSt12_Destroy_auxILb0EE9__destroyIP12ElementosVooEEvT_S4_
_ZNSt12_Destroy_auxILb0EE9__destroyIP12ElementosVooEEvT_S4_:
.LFB3197:
	.loc 18 105 9
	.cfi_startproc
	pushq	%rbp
	.seh_pushreg	%rbp
	.cfi_def_cfa_offset 16
	.cfi_offset 6, -16
	movq	%rsp, %rbp
	.seh_setframe	%rbp, 0
	.cfi_def_cfa_register 6
	subq	$32, %rsp
	.seh_stackalloc	32
	.seh_endprologue
	movq	%rcx, 16(%rbp)
	movq	%rdx, 24(%rbp)
.L447:
	.loc 18 107 19 discriminator 2
	movq	16(%rbp), %rax
	cmpq	24(%rbp), %rax
	je	.L448
	.loc 18 108 19 discriminator 1
	movq	16(%rbp), %rcx
	call	_ZSt11__addressofI12ElementosVooEPT_RS1_
	movq	%rax, %rcx
	call	_ZSt8_DestroyI12ElementosVooEvPT_
	.loc 18 107 4 discriminator 1
	addq	$96, 16(%rbp)
	jmp	.L447
.L448:
	.loc 18 109 2
	nop
	addq	$32, %rsp
	popq	%rbp
	.cfi_restore 6
	.cfi_def_cfa 7, 8
	ret
	.cfi_endproc
.LFE3197:
	.seh_endproc
	.section	.text$_ZNKSt6vectorI12ElementosVooSaIS0_EE8max_sizeEv,"x"
	.linkonce discard
	.align 2
	.globl	_ZNKSt6vectorI12ElementosVooSaIS0_EE8max_sizeEv
	.def	_ZNKSt6vectorI12ElementosVooSaIS0_EE8max_sizeEv;	.scl	2;	.type	32;	.endef
	.seh_proc	_ZNKSt6vectorI12ElementosVooSaIS0_EE8max_sizeEv
_ZNKSt6vectorI12ElementosVooSaIS0_EE8max_sizeEv:
.LFB3199:
	.loc 17 810 7
	.cfi_startproc
	pushq	%rbp
	.seh_pushreg	%rbp
	.cfi_def_cfa_offset 16
	.cfi_offset 6, -16
	movq	%rsp, %rbp
	.seh_setframe	%rbp, 0
	.cfi_def_cfa_register 6
	subq	$32, %rsp
	.seh_stackalloc	32
	.seh_endprologue
	movq	%rcx, 16(%rbp)
	.loc 17 811 59
	movq	16(%rbp), %rax
	movq	%rax, %rcx
	call	_ZNKSt12_Vector_baseI12ElementosVooSaIS0_EE19_M_get_Tp_allocatorEv
	.loc 17 811 39
	movq	%rax, %rcx
	call	_ZNSt16allocator_traitsISaI12ElementosVooEE8max_sizeERKS1_
	.loc 17 811 64
	addq	$32, %rsp
	popq	%rbp
	.cfi_restore 6
	.cfi_def_cfa 7, 8
	ret
	.cfi_endproc
.LFE3199:
	.seh_endproc
	.section	.text$_ZNKSt6vectorI12ElementosVooSaIS0_EE4sizeEv,"x"
	.linkonce discard
	.align 2
	.globl	_ZNKSt6vectorI12ElementosVooSaIS0_EE4sizeEv
	.def	_ZNKSt6vectorI12ElementosVooSaIS0_EE4sizeEv;	.scl	2;	.type	32;	.endef
	.seh_proc	_ZNKSt6vectorI12ElementosVooSaIS0_EE4sizeEv
_ZNKSt6vectorI12ElementosVooSaIS0_EE4sizeEv:
.LFB3200:
	.loc 17 805 7
	.cfi_startproc
	pushq	%rbp
	.seh_pushreg	%rbp
	.cfi_def_cfa_offset 16
	.cfi_offset 6, -16
	movq	%rsp, %rbp
	.seh_setframe	%rbp, 0
	.cfi_def_cfa_register 6
	.seh_endprologue
	movq	%rcx, 16(%rbp)
	.loc 17 806 40
	movq	16(%rbp), %rax
	movq	8(%rax), %rdx
	.loc 17 806 66
	movq	16(%rbp), %rax
	movq	(%rax), %rax
	.loc 17 806 50
	subq	%rax, %rdx
	movq	%rdx, %rax
	sarq	$5, %rax
	movq	%rax, %rdx
	movabsq	$-6148914691236517205, %rax
	imulq	%rdx, %rax
	.loc 17 806 77
	popq	%rbp
	.cfi_restore 6
	.cfi_def_cfa 7, 8
	ret
	.cfi_endproc
.LFE3200:
	.seh_endproc
	.section	.text$_ZSt3maxIyERKT_S2_S2_,"x"
	.linkonce discard
	.globl	_ZSt3maxIyERKT_S2_S2_
	.def	_ZSt3maxIyERKT_S2_S2_;	.scl	2;	.type	32;	.endef
	.seh_proc	_ZSt3maxIyERKT_S2_S2_
_ZSt3maxIyERKT_S2_S2_:
.LFB3201:
	.file 26 "C:/Program Files/CodeBlocks/MinGW/lib/gcc/x86_64-w64-mingw32/8.1.0/include/c++/bits/stl_algobase.h"
	.loc 26 219 5
	.cfi_startproc
	pushq	%rbp
	.seh_pushreg	%rbp
	.cfi_def_cfa_offset 16
	.cfi_offset 6, -16
	movq	%rsp, %rbp
	.seh_setframe	%rbp, 0
	.cfi_def_cfa_register 6
	.seh_endprologue
	movq	%rcx, 16(%rbp)
	movq	%rdx, 24(%rbp)
	.loc 26 224 15
	movq	16(%rbp), %rax
	movq	(%rax), %rdx
	movq	24(%rbp), %rax
	movq	(%rax), %rax
	.loc 26 224 7
	cmpq	%rax, %rdx
	jnb	.L454
	.loc 26 225 9
	movq	24(%rbp), %rax
	jmp	.L455
.L454:
	.loc 26 226 14
	movq	16(%rbp), %rax
.L455:
	.loc 26 227 5
	popq	%rbp
	.cfi_restore 6
	.cfi_def_cfa 7, 8
	ret
	.cfi_endproc
.LFE3201:
	.seh_endproc
	.section	.text$_ZNSt16allocator_traitsISaI12ElementosVooEE8allocateERS1_y,"x"
	.linkonce discard
	.globl	_ZNSt16allocator_traitsISaI12ElementosVooEE8allocateERS1_y
	.def	_ZNSt16allocator_traitsISaI12ElementosVooEE8allocateERS1_y;	.scl	2;	.type	32;	.endef
	.seh_proc	_ZNSt16allocator_traitsISaI12ElementosVooEE8allocateERS1_y
_ZNSt16allocator_traitsISaI12ElementosVooEE8allocateERS1_y:
.LFB3202:
	.loc 20 435 7
	.cfi_startproc
	pushq	%rbp
	.seh_pushreg	%rbp
	.cfi_def_cfa_offset 16
	.cfi_offset 6, -16
	movq	%rsp, %rbp
	.seh_setframe	%rbp, 0
	.cfi_def_cfa_register 6
	subq	$32, %rsp
	.seh_stackalloc	32
	.seh_endprologue
	movq	%rcx, 16(%rbp)
	movq	%rdx, 24(%rbp)
	.loc 20 436 32
	movq	24(%rbp), %rax
	movl	$0, %r8d
	movq	%rax, %rdx
	movq	16(%rbp), %rcx
	call	_ZN9__gnu_cxx13new_allocatorI12ElementosVooE8allocateEyPKv
	.loc 20 436 35
	addq	$32, %rsp
	popq	%rbp
	.cfi_restore 6
	.cfi_def_cfa 7, 8
	ret
	.cfi_endproc
.LFE3202:
	.seh_endproc
	.section	.text$_ZSt32__make_move_if_noexcept_iteratorI12ElementosVooSt13move_iteratorIPS0_EET0_PT_,"x"
	.linkonce discard
	.globl	_ZSt32__make_move_if_noexcept_iteratorI12ElementosVooSt13move_iteratorIPS0_EET0_PT_
	.def	_ZSt32__make_move_if_noexcept_iteratorI12ElementosVooSt13move_iteratorIPS0_EET0_PT_;	.scl	2;	.type	32;	.endef
	.seh_proc	_ZSt32__make_move_if_noexcept_iteratorI12ElementosVooSt13move_iteratorIPS0_EET0_PT_
_ZSt32__make_move_if_noexcept_iteratorI12ElementosVooSt13move_iteratorIPS0_EET0_PT_:
.LFB3203:
	.loc 24 1215 5
	.cfi_startproc
	pushq	%rbp
	.seh_pushreg	%rbp
	.cfi_def_cfa_offset 16
	.cfi_offset 6, -16
	movq	%rsp, %rbp
	.seh_setframe	%rbp, 0
	.cfi_def_cfa_register 6
	subq	$48, %rsp
	.seh_stackalloc	48
	.seh_endprologue
	movq	%rcx, 16(%rbp)
	.loc 24 1216 29
	leaq	-8(%rbp), %rax
	movq	16(%rbp), %rdx
	movq	%rax, %rcx
	call	_ZNSt13move_iteratorIP12ElementosVooEC1ES1_
	movq	-8(%rbp), %rax
	.loc 24 1216 32
	addq	$48, %rsp
	popq	%rbp
	.cfi_restore 6
	.cfi_def_cfa 7, 8
	ret
	.cfi_endproc
.LFE3203:
	.seh_endproc
	.section	.text$_ZSt22__uninitialized_copy_aISt13move_iteratorIP12ElementosVooES2_S1_ET0_T_S5_S4_RSaIT1_E,"x"
	.linkonce discard
	.globl	_ZSt22__uninitialized_copy_aISt13move_iteratorIP12ElementosVooES2_S1_ET0_T_S5_S4_RSaIT1_E
	.def	_ZSt22__uninitialized_copy_aISt13move_iteratorIP12ElementosVooES2_S1_ET0_T_S5_S4_RSaIT1_E;	.scl	2;	.type	32;	.endef
	.seh_proc	_ZSt22__uninitialized_copy_aISt13move_iteratorIP12ElementosVooES2_S1_ET0_T_S5_S4_RSaIT1_E
_ZSt22__uninitialized_copy_aISt13move_iteratorIP12ElementosVooES2_S1_ET0_T_S5_S4_RSaIT1_E:
.LFB3204:
	.loc 25 287 5
	.cfi_startproc
	pushq	%rbp
	.seh_pushreg	%rbp
	.cfi_def_cfa_offset 16
	.cfi_offset 6, -16
	movq	%rsp, %rbp
	.seh_setframe	%rbp, 0
	.cfi_def_cfa_register 6
	subq	$32, %rsp
	.seh_stackalloc	32
	.seh_endprologue
	movq	%rcx, 16(%rbp)
	movq	%rdx, 24(%rbp)
	movq	%r8, 32(%rbp)
	movq	%r9, 40(%rbp)
	.loc 25 289 37
	movq	32(%rbp), %rdx
	movq	24(%rbp), %rax
	movq	%rdx, %r8
	movq	%rax, %rdx
	movq	16(%rbp), %rcx
	call	_ZSt18uninitialized_copyISt13move_iteratorIP12ElementosVooES2_ET0_T_S5_S4_
	.loc 25 289 66
	addq	$32, %rsp
	popq	%rbp
	.cfi_restore 6
	.cfi_def_cfa 7, 8
	ret
	.cfi_endproc
.LFE3204:
	.seh_endproc
	.section	.text$_ZN9__gnu_cxx13new_allocatorI12ElementosVooE7destroyIS1_EEvPT_,"x"
	.linkonce discard
	.align 2
	.globl	_ZN9__gnu_cxx13new_allocatorI12ElementosVooE7destroyIS1_EEvPT_
	.def	_ZN9__gnu_cxx13new_allocatorI12ElementosVooE7destroyIS1_EEvPT_;	.scl	2;	.type	32;	.endef
	.seh_proc	_ZN9__gnu_cxx13new_allocatorI12ElementosVooE7destroyIS1_EEvPT_
_ZN9__gnu_cxx13new_allocatorI12ElementosVooE7destroyIS1_EEvPT_:
.LFB3205:
	.loc 23 140 2
	.cfi_startproc
	pushq	%rbp
	.seh_pushreg	%rbp
	.cfi_def_cfa_offset 16
	.cfi_offset 6, -16
	movq	%rsp, %rbp
	.seh_setframe	%rbp, 0
	.cfi_def_cfa_register 6
	subq	$32, %rsp
	.seh_stackalloc	32
	.seh_endprologue
	movq	%rcx, 16(%rbp)
	movq	%rdx, 24(%rbp)
	.loc 23 140 22
	movq	24(%rbp), %rax
	movq	(%rax), %rax
	movq	(%rax), %rax
	movq	24(%rbp), %rdx
	movq	%rdx, %rcx
	call	*%rax
.LVL4:
	.loc 23 140 35
	nop
	addq	$32, %rsp
	popq	%rbp
	.cfi_restore 6
	.cfi_def_cfa 7, 8
	ret
	.cfi_endproc
.LFE3205:
	.seh_endproc
	.section	.text$_ZN9__gnu_cxx13new_allocatorI12ElementosVooEC2Ev,"x"
	.linkonce discard
	.align 2
	.globl	_ZN9__gnu_cxx13new_allocatorI12ElementosVooEC2Ev
	.def	_ZN9__gnu_cxx13new_allocatorI12ElementosVooEC2Ev;	.scl	2;	.type	32;	.endef
	.seh_proc	_ZN9__gnu_cxx13new_allocatorI12ElementosVooEC2Ev
_ZN9__gnu_cxx13new_allocatorI12ElementosVooEC2Ev:
.LFB3233:
	.loc 23 79 7
	.cfi_startproc
	pushq	%rbp
	.seh_pushreg	%rbp
	.cfi_def_cfa_offset 16
	.cfi_offset 6, -16
	movq	%rsp, %rbp
	.seh_setframe	%rbp, 0
	.cfi_def_cfa_register 6
	.seh_endprologue
	movq	%rcx, 16(%rbp)
	.loc 23 79 34
	nop
	popq	%rbp
	.cfi_restore 6
	.cfi_def_cfa 7, 8
	ret
	.cfi_endproc
.LFE3233:
	.seh_endproc
	.section	.text$_ZN9__gnu_cxx13new_allocatorI12ElementosVooE10deallocateEPS1_y,"x"
	.linkonce discard
	.align 2
	.globl	_ZN9__gnu_cxx13new_allocatorI12ElementosVooE10deallocateEPS1_y
	.def	_ZN9__gnu_cxx13new_allocatorI12ElementosVooE10deallocateEPS1_y;	.scl	2;	.type	32;	.endef
	.seh_proc	_ZN9__gnu_cxx13new_allocatorI12ElementosVooE10deallocateEPS1_y
_ZN9__gnu_cxx13new_allocatorI12ElementosVooE10deallocateEPS1_y:
.LFB3235:
	.loc 23 116 7
	.cfi_startproc
	pushq	%rbp
	.seh_pushreg	%rbp
	.cfi_def_cfa_offset 16
	.cfi_offset 6, -16
	movq	%rsp, %rbp
	.seh_setframe	%rbp, 0
	.cfi_def_cfa_register 6
	subq	$32, %rsp
	.seh_stackalloc	32
	.seh_endprologue
	movq	%rcx, 16(%rbp)
	movq	%rdx, 24(%rbp)
	movq	%r8, 32(%rbp)
	.loc 23 125 19
	movq	24(%rbp), %rax
	movq	%rax, %rcx
	call	_ZdlPv
	.loc 23 126 7
	nop
	addq	$32, %rsp
	popq	%rbp
	.cfi_restore 6
	.cfi_def_cfa 7, 8
	ret
	.cfi_endproc
.LFE3235:
	.seh_endproc
	.section	.text$_ZSt8_DestroyI12ElementosVooEvPT_,"x"
	.linkonce discard
	.globl	_ZSt8_DestroyI12ElementosVooEvPT_
	.def	_ZSt8_DestroyI12ElementosVooEvPT_;	.scl	2;	.type	32;	.endef
	.seh_proc	_ZSt8_DestroyI12ElementosVooEvPT_
_ZSt8_DestroyI12ElementosVooEvPT_:
.LFB3236:
	.loc 18 97 5
	.cfi_startproc
	pushq	%rbp
	.seh_pushreg	%rbp
	.cfi_def_cfa_offset 16
	.cfi_offset 6, -16
	movq	%rsp, %rbp
	.seh_setframe	%rbp, 0
	.cfi_def_cfa_register 6
	subq	$32, %rsp
	.seh_stackalloc	32
	.seh_endprologue
	movq	%rcx, 16(%rbp)
	.loc 18 98 7
	movq	16(%rbp), %rax
	movq	(%rax), %rax
	movq	(%rax), %rax
	movq	16(%rbp), %rcx
	call	*%rax
.LVL5:
	.loc 18 98 26
	nop
	addq	$32, %rsp
	popq	%rbp
	.cfi_restore 6
	.cfi_def_cfa 7, 8
	ret
	.cfi_endproc
.LFE3236:
	.seh_endproc
	.section	.text$_ZNSt16allocator_traitsISaI12ElementosVooEE8max_sizeERKS1_,"x"
	.linkonce discard
	.globl	_ZNSt16allocator_traitsISaI12ElementosVooEE8max_sizeERKS1_
	.def	_ZNSt16allocator_traitsISaI12ElementosVooEE8max_sizeERKS1_;	.scl	2;	.type	32;	.endef
	.seh_proc	_ZNSt16allocator_traitsISaI12ElementosVooEE8max_sizeERKS1_
_ZNSt16allocator_traitsISaI12ElementosVooEE8max_sizeERKS1_:
.LFB3237:
	.loc 20 495 7
	.cfi_startproc
	pushq	%rbp
	.seh_pushreg	%rbp
	.cfi_def_cfa_offset 16
	.cfi_offset 6, -16
	movq	%rsp, %rbp
	.seh_setframe	%rbp, 0
	.cfi_def_cfa_register 6
	subq	$32, %rsp
	.seh_stackalloc	32
	.seh_endprologue
	movq	%rcx, 16(%rbp)
	.loc 20 496 29
	movq	16(%rbp), %rcx
	call	_ZNK9__gnu_cxx13new_allocatorI12ElementosVooE8max_sizeEv
	.loc 20 496 32
	addq	$32, %rsp
	popq	%rbp
	.cfi_restore 6
	.cfi_def_cfa 7, 8
	ret
	.cfi_endproc
.LFE3237:
	.seh_endproc
	.section	.text$_ZNKSt12_Vector_baseI12ElementosVooSaIS0_EE19_M_get_Tp_allocatorEv,"x"
	.linkonce discard
	.align 2
	.globl	_ZNKSt12_Vector_baseI12ElementosVooSaIS0_EE19_M_get_Tp_allocatorEv
	.def	_ZNKSt12_Vector_baseI12ElementosVooSaIS0_EE19_M_get_Tp_allocatorEv;	.scl	2;	.type	32;	.endef
	.seh_proc	_ZNKSt12_Vector_baseI12ElementosVooSaIS0_EE19_M_get_Tp_allocatorEv
_ZNKSt12_Vector_baseI12ElementosVooSaIS0_EE19_M_get_Tp_allocatorEv:
.LFB3238:
	.loc 17 241 7
	.cfi_startproc
	pushq	%rbp
	.seh_pushreg	%rbp
	.cfi_def_cfa_offset 16
	.cfi_offset 6, -16
	movq	%rsp, %rbp
	.seh_setframe	%rbp, 0
	.cfi_def_cfa_register 6
	.seh_endprologue
	movq	%rcx, 16(%rbp)
	.loc 17 242 66
	movq	16(%rbp), %rax
	.loc 17 242 69
	popq	%rbp
	.cfi_restore 6
	.cfi_def_cfa 7, 8
	ret
	.cfi_endproc
.LFE3238:
	.seh_endproc
	.section	.text$_ZN9__gnu_cxx13new_allocatorI12ElementosVooE8allocateEyPKv,"x"
	.linkonce discard
	.align 2
	.globl	_ZN9__gnu_cxx13new_allocatorI12ElementosVooE8allocateEyPKv
	.def	_ZN9__gnu_cxx13new_allocatorI12ElementosVooE8allocateEyPKv;	.scl	2;	.type	32;	.endef
	.seh_proc	_ZN9__gnu_cxx13new_allocatorI12ElementosVooE8allocateEyPKv
_ZN9__gnu_cxx13new_allocatorI12ElementosVooE8allocateEyPKv:
.LFB3239:
	.loc 23 99 7
	.cfi_startproc
	pushq	%rbp
	.seh_pushreg	%rbp
	.cfi_def_cfa_offset 16
	.cfi_offset 6, -16
	movq	%rsp, %rbp
	.seh_setframe	%rbp, 0
	.cfi_def_cfa_register 6
	subq	$32, %rsp
	.seh_stackalloc	32
	.seh_endprologue
	movq	%rcx, 16(%rbp)
	movq	%rdx, 24(%rbp)
	movq	%r8, 32(%rbp)
	.loc 23 101 10
	movq	16(%rbp), %rcx
	call	_ZNK9__gnu_cxx13new_allocatorI12ElementosVooE8max_sizeEv
	cmpq	%rax, 24(%rbp)
	seta	%al
	.loc 23 101 2
	testb	%al, %al
	je	.L471
	.loc 23 102 26
	call	_ZSt17__throw_bad_allocv
.L471:
	.loc 23 111 41
	movq	24(%rbp), %rdx
	movq	%rdx, %rax
	addq	%rax, %rax
	addq	%rdx, %rax
	salq	$5, %rax
	movq	%rax, %rcx
	call	_Znwy
	.loc 23 112 7
	addq	$32, %rsp
	popq	%rbp
	.cfi_restore 6
	.cfi_def_cfa 7, 8
	ret
	.cfi_endproc
.LFE3239:
	.seh_endproc
	.section	.text$_ZNSt13move_iteratorIP12ElementosVooEC1ES1_,"x"
	.linkonce discard
	.align 2
	.globl	_ZNSt13move_iteratorIP12ElementosVooEC1ES1_
	.def	_ZNSt13move_iteratorIP12ElementosVooEC1ES1_;	.scl	2;	.type	32;	.endef
	.seh_proc	_ZNSt13move_iteratorIP12ElementosVooEC1ES1_
_ZNSt13move_iteratorIP12ElementosVooEC1ES1_:
.LFB3242:
	.loc 24 1030 7
	.cfi_startproc
	pushq	%rbp
	.seh_pushreg	%rbp
	.cfi_def_cfa_offset 16
	.cfi_offset 6, -16
	movq	%rsp, %rbp
	.seh_setframe	%rbp, 0
	.cfi_def_cfa_register 6
	.seh_endprologue
	movq	%rcx, 16(%rbp)
	movq	%rdx, 24(%rbp)
.LBB82:
	.loc 24 1031 23
	movq	16(%rbp), %rax
	movq	24(%rbp), %rdx
	movq	%rdx, (%rax)
.LBE82:
	.loc 24 1031 27
	nop
	popq	%rbp
	.cfi_restore 6
	.cfi_def_cfa 7, 8
	ret
	.cfi_endproc
.LFE3242:
	.seh_endproc
	.section	.text$_ZSt18uninitialized_copyISt13move_iteratorIP12ElementosVooES2_ET0_T_S5_S4_,"x"
	.linkonce discard
	.globl	_ZSt18uninitialized_copyISt13move_iteratorIP12ElementosVooES2_ET0_T_S5_S4_
	.def	_ZSt18uninitialized_copyISt13move_iteratorIP12ElementosVooES2_ET0_T_S5_S4_;	.scl	2;	.type	32;	.endef
	.seh_proc	_ZSt18uninitialized_copyISt13move_iteratorIP12ElementosVooES2_ET0_T_S5_S4_
_ZSt18uninitialized_copyISt13move_iteratorIP12ElementosVooES2_ET0_T_S5_S4_:
.LFB3243:
	.loc 25 115 5
	.cfi_startproc
	pushq	%rbp
	.seh_pushreg	%rbp
	.cfi_def_cfa_offset 16
	.cfi_offset 6, -16
	movq	%rsp, %rbp
	.seh_setframe	%rbp, 0
	.cfi_def_cfa_register 6
	subq	$48, %rsp
	.seh_stackalloc	48
	.seh_endprologue
	movq	%rcx, 16(%rbp)
	movq	%rdx, 24(%rbp)
	movq	%r8, 32(%rbp)
	.loc 25 128 18
	movb	$1, -1(%rbp)
	.loc 25 134 15
	movq	32(%rbp), %rdx
	movq	24(%rbp), %rax
	movq	%rdx, %r8
	movq	%rax, %rdx
	movq	16(%rbp), %rcx
	call	_ZNSt20__uninitialized_copyILb0EE13__uninit_copyISt13move_iteratorIP12ElementosVooES4_EET0_T_S7_S6_
	.loc 25 135 5
	addq	$48, %rsp
	popq	%rbp
	.cfi_restore 6
	.cfi_def_cfa 7, 8
	ret
	.cfi_endproc
.LFE3243:
	.seh_endproc
	.section	.text$_ZNK9__gnu_cxx13new_allocatorI12ElementosVooE8max_sizeEv,"x"
	.linkonce discard
	.align 2
	.globl	_ZNK9__gnu_cxx13new_allocatorI12ElementosVooE8max_sizeEv
	.def	_ZNK9__gnu_cxx13new_allocatorI12ElementosVooE8max_sizeEv;	.scl	2;	.type	32;	.endef
	.seh_proc	_ZNK9__gnu_cxx13new_allocatorI12ElementosVooE8max_sizeEv
_ZNK9__gnu_cxx13new_allocatorI12ElementosVooE8max_sizeEv:
.LFB3257:
	.loc 23 129 7
	.cfi_startproc
	pushq	%rbp
	.seh_pushreg	%rbp
	.cfi_def_cfa_offset 16
	.cfi_offset 6, -16
	movq	%rsp, %rbp
	.seh_setframe	%rbp, 0
	.cfi_def_cfa_register 6
	.seh_endprologue
	movq	%rcx, 16(%rbp)
	.loc 23 130 39
	movabsq	$192153584101141162, %rax
	.loc 23 130 42
	popq	%rbp
	.cfi_restore 6
	.cfi_def_cfa 7, 8
	ret
	.cfi_endproc
.LFE3257:
	.seh_endproc
	.section	.text$_ZNSt20__uninitialized_copyILb0EE13__uninit_copyISt13move_iteratorIP12ElementosVooES4_EET0_T_S7_S6_,"x"
	.linkonce discard
	.globl	_ZNSt20__uninitialized_copyILb0EE13__uninit_copyISt13move_iteratorIP12ElementosVooES4_EET0_T_S7_S6_
	.def	_ZNSt20__uninitialized_copyILb0EE13__uninit_copyISt13move_iteratorIP12ElementosVooES4_EET0_T_S7_S6_;	.scl	2;	.type	32;	.endef
	.seh_proc	_ZNSt20__uninitialized_copyILb0EE13__uninit_copyISt13move_iteratorIP12ElementosVooES4_EET0_T_S7_S6_
_ZNSt20__uninitialized_copyILb0EE13__uninit_copyISt13move_iteratorIP12ElementosVooES4_EET0_T_S7_S6_:
.LFB3258:
	.loc 25 76 9
	.cfi_startproc
	pushq	%rbp
	.seh_pushreg	%rbp
	.cfi_def_cfa_offset 16
	.cfi_offset 6, -16
	pushq	%rbx
	.seh_pushreg	%rbx
	.cfi_def_cfa_offset 24
	.cfi_offset 3, -24
	subq	$56, %rsp
	.seh_stackalloc	56
	.cfi_def_cfa_offset 80
	leaq	128(%rsp), %rbp
	.seh_setframe	%rbp, 128
	.cfi_def_cfa 6, -48
	.seh_endprologue
	movq	%rcx, -48(%rbp)
	movq	%rdx, -40(%rbp)
	movq	%r8, -32(%rbp)
	.loc 25 79 21
	movq	-32(%rbp), %rax
	movq	%rax, -88(%rbp)
.L480:
	.loc 25 82 23 discriminator 3
	leaq	-40(%rbp), %rax
	movq	%rax, %rdx
	leaq	-48(%rbp), %rcx
.LEHB57:
	call	_ZStneIP12ElementosVooEbRKSt13move_iteratorIT_ES6_
.LEHE57:
	testb	%al, %al
	je	.L479
	.loc 25 83 45 discriminator 2
	leaq	-48(%rbp), %rcx
	call	_ZNKSt13move_iteratorIP12ElementosVooEdeEv
	movq	%rax, %rbx
	.loc 25 83 18 discriminator 2
	movq	-88(%rbp), %rax
	movq	%rax, %rcx
	call	_ZSt11__addressofI12ElementosVooEPT_RS1_
	movq	%rbx, %rdx
	movq	%rax, %rcx
	call	_ZSt10_ConstructI12ElementosVooJS0_EEvPT_DpOT0_
	.loc 25 82 34 discriminator 2
	leaq	-48(%rbp), %rcx
	call	_ZNSt13move_iteratorIP12ElementosVooEppEv
	.loc 25 82 8 discriminator 2
	addq	$96, -88(%rbp)
	jmp	.L480
.L479:
	.loc 25 84 15
	movq	-88(%rbp), %rax
	jmp	.L486
.L484:
	.loc 25 86 4
	movq	%rax, %rcx
	call	__cxa_begin_catch
	.loc 25 88 21
	movq	-88(%rbp), %rdx
	movq	-32(%rbp), %rax
	movq	%rax, %rcx
.LEHB58:
	call	_ZSt8_DestroyIP12ElementosVooEvT_S2_
	.loc 25 89 8
	call	__cxa_rethrow
.LEHE58:
.L485:
	movq	%rax, %rbx
	.loc 25 86 4
	call	__cxa_end_catch
	movq	%rbx, %rax
	movq	%rax, %rcx
.LEHB59:
	call	_Unwind_Resume
.LEHE59:
.L486:
	.loc 25 91 2
	addq	$56, %rsp
	popq	%rbx
	.cfi_restore 3
	popq	%rbp
	.cfi_restore 6
	.cfi_def_cfa 7, -40
	ret
	.cfi_endproc
.LFE3258:
	.seh_handler	__gxx_personality_seh0, @unwind, @except
	.seh_handlerdata
	.align 4
.LLSDA3258:
	.byte	0xff
	.byte	0x9b
	.uleb128 .LLSDATT3258-.LLSDATTD3258
.LLSDATTD3258:
	.byte	0x1
	.uleb128 .LLSDACSE3258-.LLSDACSB3258
.LLSDACSB3258:
	.uleb128 .LEHB57-.LFB3258
	.uleb128 .LEHE57-.LEHB57
	.uleb128 .L484-.LFB3258
	.uleb128 0x1
	.uleb128 .LEHB58-.LFB3258
	.uleb128 .LEHE58-.LEHB58
	.uleb128 .L485-.LFB3258
	.uleb128 0
	.uleb128 .LEHB59-.LFB3258
	.uleb128 .LEHE59-.LEHB59
	.uleb128 0
	.uleb128 0
.LLSDACSE3258:
	.byte	0x1
	.byte	0
	.align 4
	.long	0

.LLSDATT3258:
	.section	.text$_ZNSt20__uninitialized_copyILb0EE13__uninit_copyISt13move_iteratorIP12ElementosVooES4_EET0_T_S7_S6_,"x"
	.linkonce discard
	.seh_endproc
	.section	.text$_ZStneIP12ElementosVooEbRKSt13move_iteratorIT_ES6_,"x"
	.linkonce discard
	.globl	_ZStneIP12ElementosVooEbRKSt13move_iteratorIT_ES6_
	.def	_ZStneIP12ElementosVooEbRKSt13move_iteratorIT_ES6_;	.scl	2;	.type	32;	.endef
	.seh_proc	_ZStneIP12ElementosVooEbRKSt13move_iteratorIT_ES6_
_ZStneIP12ElementosVooEbRKSt13move_iteratorIT_ES6_:
.LFB3266:
	.loc 24 1130 5
	.cfi_startproc
	pushq	%rbp
	.seh_pushreg	%rbp
	.cfi_def_cfa_offset 16
	.cfi_offset 6, -16
	movq	%rsp, %rbp
	.seh_setframe	%rbp, 0
	.cfi_def_cfa_register 6
	subq	$32, %rsp
	.seh_stackalloc	32
	.seh_endprologue
	movq	%rcx, 16(%rbp)
	movq	%rdx, 24(%rbp)
	.loc 24 1132 20
	movq	24(%rbp), %rax
	movq	%rax, %rdx
	movq	16(%rbp), %rcx
	call	_ZSteqIP12ElementosVooEbRKSt13move_iteratorIT_ES6_
	.loc 24 1132 26
	xorl	$1, %eax
	.loc 24 1132 29
	addq	$32, %rsp
	popq	%rbp
	.cfi_restore 6
	.cfi_def_cfa 7, 8
	ret
	.cfi_endproc
.LFE3266:
	.seh_endproc
	.section	.text$_ZNSt13move_iteratorIP12ElementosVooEppEv,"x"
	.linkonce discard
	.align 2
	.globl	_ZNSt13move_iteratorIP12ElementosVooEppEv
	.def	_ZNSt13move_iteratorIP12ElementosVooEppEv;	.scl	2;	.type	32;	.endef
	.seh_proc	_ZNSt13move_iteratorIP12ElementosVooEppEv
_ZNSt13move_iteratorIP12ElementosVooEppEv:
.LFB3267:
	.loc 24 1051 7
	.cfi_startproc
	pushq	%rbp
	.seh_pushreg	%rbp
	.cfi_def_cfa_offset 16
	.cfi_offset 6, -16
	movq	%rsp, %rbp
	.seh_setframe	%rbp, 0
	.cfi_def_cfa_register 6
	.seh_endprologue
	movq	%rcx, 16(%rbp)
	.loc 24 1053 4
	movq	16(%rbp), %rax
	movq	(%rax), %rax
	.loc 24 1053 2
	leaq	96(%rax), %rdx
	movq	16(%rbp), %rax
	movq	%rdx, (%rax)
	.loc 24 1054 10
	movq	16(%rbp), %rax
	.loc 24 1055 7
	popq	%rbp
	.cfi_restore 6
	.cfi_def_cfa 7, 8
	ret
	.cfi_endproc
.LFE3267:
	.seh_endproc
	.section	.text$_ZNKSt13move_iteratorIP12ElementosVooEdeEv,"x"
	.linkonce discard
	.align 2
	.globl	_ZNKSt13move_iteratorIP12ElementosVooEdeEv
	.def	_ZNKSt13move_iteratorIP12ElementosVooEdeEv;	.scl	2;	.type	32;	.endef
	.seh_proc	_ZNKSt13move_iteratorIP12ElementosVooEdeEv
_ZNKSt13move_iteratorIP12ElementosVooEdeEv:
.LFB3268:
	.loc 24 1043 7
	.cfi_startproc
	pushq	%rbp
	.seh_pushreg	%rbp
	.cfi_def_cfa_offset 16
	.cfi_offset 6, -16
	movq	%rsp, %rbp
	.seh_setframe	%rbp, 0
	.cfi_def_cfa_register 6
	.seh_endprologue
	movq	%rcx, 16(%rbp)
	.loc 24 1044 50
	movq	16(%rbp), %rax
	movq	(%rax), %rax
	.loc 24 1044 53
	popq	%rbp
	.cfi_restore 6
	.cfi_def_cfa 7, 8
	ret
	.cfi_endproc
.LFE3268:
	.seh_endproc
	.section	.text$_ZSt7forwardI12ElementosVooEOT_RNSt16remove_referenceIS1_E4typeE,"x"
	.linkonce discard
	.globl	_ZSt7forwardI12ElementosVooEOT_RNSt16remove_referenceIS1_E4typeE
	.def	_ZSt7forwardI12ElementosVooEOT_RNSt16remove_referenceIS1_E4typeE;	.scl	2;	.type	32;	.endef
	.seh_proc	_ZSt7forwardI12ElementosVooEOT_RNSt16remove_referenceIS1_E4typeE
_ZSt7forwardI12ElementosVooEOT_RNSt16remove_referenceIS1_E4typeE:
.LFB3270:
	.loc 19 74 5
	.cfi_startproc
	pushq	%rbp
	.seh_pushreg	%rbp
	.cfi_def_cfa_offset 16
	.cfi_offset 6, -16
	movq	%rsp, %rbp
	.seh_setframe	%rbp, 0
	.cfi_def_cfa_register 6
	.seh_endprologue
	movq	%rcx, 16(%rbp)
	.loc 19 75 36
	movq	16(%rbp), %rax
	.loc 19 75 39
	popq	%rbp
	.cfi_restore 6
	.cfi_def_cfa 7, 8
	ret
	.cfi_endproc
.LFE3270:
	.seh_endproc
	.section	.text$_ZSt10_ConstructI12ElementosVooJS0_EEvPT_DpOT0_,"x"
	.linkonce discard
	.globl	_ZSt10_ConstructI12ElementosVooJS0_EEvPT_DpOT0_
	.def	_ZSt10_ConstructI12ElementosVooJS0_EEvPT_DpOT0_;	.scl	2;	.type	32;	.endef
	.seh_proc	_ZSt10_ConstructI12ElementosVooJS0_EEvPT_DpOT0_
_ZSt10_ConstructI12ElementosVooJS0_EEvPT_DpOT0_:
.LFB3269:
	.loc 18 74 5
	.cfi_startproc
	pushq	%rbp
	.seh_pushreg	%rbp
	.cfi_def_cfa_offset 16
	.cfi_offset 6, -16
	pushq	%rbx
	.seh_pushreg	%rbx
	.cfi_def_cfa_offset 24
	.cfi_offset 3, -24
	subq	$40, %rsp
	.seh_stackalloc	40
	.cfi_def_cfa_offset 64
	leaq	128(%rsp), %rbp
	.seh_setframe	%rbp, 128
	.cfi_def_cfa 6, -64
	.seh_endprologue
	movq	%rcx, -64(%rbp)
	movq	%rdx, -56(%rbp)
	.loc 18 75 61
	movq	-56(%rbp), %rax
	movq	%rax, %rcx
	call	_ZSt7forwardI12ElementosVooEOT_RNSt16remove_referenceIS1_E4typeE
	movq	%rax, %rbx
	.loc 18 75 7
	movq	-64(%rbp), %rax
	movq	%rax, %rdx
	movl	$96, %ecx
	call	_ZnwyPv
	movq	%rbx, %rdx
	movq	%rax, %rcx
	call	_ZN12ElementosVooC1EOS_
	.loc 18 75 75
	nop
	addq	$40, %rsp
	popq	%rbx
	.cfi_restore 3
	popq	%rbp
	.cfi_restore 6
	.cfi_def_cfa 7, -24
	ret
	.cfi_endproc
.LFE3269:
	.seh_endproc
	.section	.text$_ZSteqIP12ElementosVooEbRKSt13move_iteratorIT_ES6_,"x"
	.linkonce discard
	.globl	_ZSteqIP12ElementosVooEbRKSt13move_iteratorIT_ES6_
	.def	_ZSteqIP12ElementosVooEbRKSt13move_iteratorIT_ES6_;	.scl	2;	.type	32;	.endef
	.seh_proc	_ZSteqIP12ElementosVooEbRKSt13move_iteratorIT_ES6_
_ZSteqIP12ElementosVooEbRKSt13move_iteratorIT_ES6_:
.LFB3273:
	.loc 24 1118 5
	.cfi_startproc
	pushq	%rbp
	.seh_pushreg	%rbp
	.cfi_def_cfa_offset 16
	.cfi_offset 6, -16
	pushq	%rbx
	.seh_pushreg	%rbx
	.cfi_def_cfa_offset 24
	.cfi_offset 3, -24
	subq	$40, %rsp
	.seh_stackalloc	40
	.cfi_def_cfa_offset 64
	leaq	128(%rsp), %rbp
	.seh_setframe	%rbp, 128
	.cfi_def_cfa 6, -64
	.seh_endprologue
	movq	%rcx, -64(%rbp)
	movq	%rdx, -56(%rbp)
	.loc 24 1120 25
	movq	-64(%rbp), %rcx
	call	_ZNKSt13move_iteratorIP12ElementosVooE4baseEv
	movq	%rax, %rbx
	movq	-56(%rbp), %rax
	movq	%rax, %rcx
	call	_ZNKSt13move_iteratorIP12ElementosVooE4baseEv
	.loc 24 1120 37
	cmpq	%rax, %rbx
	sete	%al
	.loc 24 1120 40
	addq	$40, %rsp
	popq	%rbx
	.cfi_restore 3
	popq	%rbp
	.cfi_restore 6
	.cfi_def_cfa 7, -24
	ret
	.cfi_endproc
.LFE3273:
	.seh_endproc
	.section	.text$_ZNKSt13move_iteratorIP12ElementosVooE4baseEv,"x"
	.linkonce discard
	.align 2
	.globl	_ZNKSt13move_iteratorIP12ElementosVooE4baseEv
	.def	_ZNKSt13move_iteratorIP12ElementosVooE4baseEv;	.scl	2;	.type	32;	.endef
	.seh_proc	_ZNKSt13move_iteratorIP12ElementosVooE4baseEv
_ZNKSt13move_iteratorIP12ElementosVooE4baseEv:
.LFB3274:
	.loc 24 1039 7
	.cfi_startproc
	pushq	%rbp
	.seh_pushreg	%rbp
	.cfi_def_cfa_offset 16
	.cfi_offset 6, -16
	movq	%rsp, %rbp
	.seh_setframe	%rbp, 0
	.cfi_def_cfa_register 6
	.seh_endprologue
	movq	%rcx, 16(%rbp)
	.loc 24 1040 16
	movq	16(%rbp), %rax
	movq	(%rax), %rax
	.loc 24 1040 28
	popq	%rbp
	.cfi_restore 6
	.cfi_def_cfa 7, 8
	ret
	.cfi_endproc
.LFE3274:
	.seh_endproc
	.globl	_ZTV21CalculadorAtmosferico
	.section	.rdata$_ZTV21CalculadorAtmosferico,"dr"
	.linkonce same_size
	.align 8
_ZTV21CalculadorAtmosferico:
	.quad	0
	.quad	_ZTI21CalculadorAtmosferico
	.quad	__cxa_pure_virtual
	.quad	_ZN21CalculadorAtmosferico14solucaoReversaEddd15TIPO_TRAJETORIAddd4RAMO
	.globl	_ZTV19ExceptionTrajectory
	.section	.rdata$_ZTV19ExceptionTrajectory,"dr"
	.linkonce same_size
	.align 8
_ZTV19ExceptionTrajectory:
	.quad	0
	.quad	_ZTI19ExceptionTrajectory
	.quad	_ZN19ExceptionTrajectoryD1Ev
	.quad	_ZN19ExceptionTrajectoryD0Ev
	.quad	_ZNK19ExceptionTrajectory4whatEv
	.section	.text$_ZN19ExceptionTrajectoryD1Ev,"x"
	.linkonce discard
	.align 2
	.globl	_ZN19ExceptionTrajectoryD1Ev
	.def	_ZN19ExceptionTrajectoryD1Ev;	.scl	2;	.type	32;	.endef
	.seh_proc	_ZN19ExceptionTrajectoryD1Ev
_ZN19ExceptionTrajectoryD1Ev:
.LFB3281:
	.loc 14 7 7
	.cfi_startproc
	pushq	%rbp
	.seh_pushreg	%rbp
	.cfi_def_cfa_offset 16
	.cfi_offset 6, -16
	movq	%rsp, %rbp
	.seh_setframe	%rbp, 0
	.cfi_def_cfa_register 6
	subq	$32, %rsp
	.seh_stackalloc	32
	.seh_endprologue
	movq	%rcx, 16(%rbp)
.LBB83:
	.loc 14 7 7
	leaq	16+_ZTV19ExceptionTrajectory(%rip), %rdx
	movq	16(%rbp), %rax
	movq	%rdx, (%rax)
	movq	16(%rbp), %rax
	addq	$8, %rax
	movq	%rax, %rcx
	call	_ZN16ElementosDisparoD1Ev
	movq	16(%rbp), %rax
	movq	%rax, %rcx
	call	_ZNSt9exceptionD2Ev
.LBE83:
	nop
	addq	$32, %rsp
	popq	%rbp
	.cfi_restore 6
	.cfi_def_cfa 7, 8
	ret
	.cfi_endproc
.LFE3281:
	.seh_endproc
	.section	.text$_ZN19ExceptionTrajectoryD0Ev,"x"
	.linkonce discard
	.align 2
	.globl	_ZN19ExceptionTrajectoryD0Ev
	.def	_ZN19ExceptionTrajectoryD0Ev;	.scl	2;	.type	32;	.endef
	.seh_proc	_ZN19ExceptionTrajectoryD0Ev
_ZN19ExceptionTrajectoryD0Ev:
.LFB3282:
	.loc 14 7 7
	.cfi_startproc
	pushq	%rbp
	.seh_pushreg	%rbp
	.cfi_def_cfa_offset 16
	.cfi_offset 6, -16
	movq	%rsp, %rbp
	.seh_setframe	%rbp, 0
	.cfi_def_cfa_register 6
	subq	$32, %rsp
	.seh_stackalloc	32
	.seh_endprologue
	movq	%rcx, 16(%rbp)
	.loc 14 7 7
	movq	16(%rbp), %rcx
	call	_ZN19ExceptionTrajectoryD1Ev
	movq	16(%rbp), %rcx
	call	_ZdlPv
	nop
	addq	$32, %rsp
	popq	%rbp
	.cfi_restore 6
	.cfi_def_cfa 7, 8
	ret
	.cfi_endproc
.LFE3282:
	.seh_endproc
	.globl	_ZTV19ExceptionOutOfBound
	.section	.rdata$_ZTV19ExceptionOutOfBound,"dr"
	.linkonce same_size
	.align 8
_ZTV19ExceptionOutOfBound:
	.quad	0
	.quad	_ZTI19ExceptionOutOfBound
	.quad	_ZN19ExceptionOutOfBoundD1Ev
	.quad	_ZN19ExceptionOutOfBoundD0Ev
	.quad	_ZNK19ExceptionOutOfBound4whatEv
	.section	.text$_ZN19ExceptionOutOfBoundD1Ev,"x"
	.linkonce discard
	.align 2
	.globl	_ZN19ExceptionOutOfBoundD1Ev
	.def	_ZN19ExceptionOutOfBoundD1Ev;	.scl	2;	.type	32;	.endef
	.seh_proc	_ZN19ExceptionOutOfBoundD1Ev
_ZN19ExceptionOutOfBoundD1Ev:
.LFB3285:
	.loc 13 9 7
	.cfi_startproc
	pushq	%rbp
	.seh_pushreg	%rbp
	.cfi_def_cfa_offset 16
	.cfi_offset 6, -16
	movq	%rsp, %rbp
	.seh_setframe	%rbp, 0
	.cfi_def_cfa_register 6
	subq	$32, %rsp
	.seh_stackalloc	32
	.seh_endprologue
	movq	%rcx, 16(%rbp)
.LBB84:
	.loc 13 9 7
	leaq	16+_ZTV19ExceptionOutOfBound(%rip), %rdx
	movq	16(%rbp), %rax
	movq	%rdx, (%rax)
	movq	16(%rbp), %rax
	addq	$8, %rax
	movq	%rax, %rcx
	call	_ZN16ElementosDisparoD1Ev
	movq	16(%rbp), %rax
	movq	%rax, %rcx
	call	_ZNSt9exceptionD2Ev
.LBE84:
	nop
	addq	$32, %rsp
	popq	%rbp
	.cfi_restore 6
	.cfi_def_cfa 7, 8
	ret
	.cfi_endproc
.LFE3285:
	.seh_endproc
	.section	.text$_ZN19ExceptionOutOfBoundD0Ev,"x"
	.linkonce discard
	.align 2
	.globl	_ZN19ExceptionOutOfBoundD0Ev
	.def	_ZN19ExceptionOutOfBoundD0Ev;	.scl	2;	.type	32;	.endef
	.seh_proc	_ZN19ExceptionOutOfBoundD0Ev
_ZN19ExceptionOutOfBoundD0Ev:
.LFB3286:
	.loc 13 9 7
	.cfi_startproc
	pushq	%rbp
	.seh_pushreg	%rbp
	.cfi_def_cfa_offset 16
	.cfi_offset 6, -16
	movq	%rsp, %rbp
	.seh_setframe	%rbp, 0
	.cfi_def_cfa_register 6
	subq	$32, %rsp
	.seh_stackalloc	32
	.seh_endprologue
	movq	%rcx, 16(%rbp)
	.loc 13 9 7
	movq	16(%rbp), %rcx
	call	_ZN19ExceptionOutOfBoundD1Ev
	movq	16(%rbp), %rcx
	call	_ZdlPv
	nop
	addq	$32, %rsp
	popq	%rbp
	.cfi_restore 6
	.cfi_def_cfa 7, 8
	ret
	.cfi_endproc
.LFE3286:
	.seh_endproc
	.globl	_ZTV18ExceptionYawRepose
	.section	.rdata$_ZTV18ExceptionYawRepose,"dr"
	.linkonce same_size
	.align 8
_ZTV18ExceptionYawRepose:
	.quad	0
	.quad	_ZTI18ExceptionYawRepose
	.quad	_ZN18ExceptionYawReposeD1Ev
	.quad	_ZN18ExceptionYawReposeD0Ev
	.quad	_ZNK18ExceptionYawRepose4whatEv
	.section	.text$_ZN18ExceptionYawReposeD1Ev,"x"
	.linkonce discard
	.align 2
	.globl	_ZN18ExceptionYawReposeD1Ev
	.def	_ZN18ExceptionYawReposeD1Ev;	.scl	2;	.type	32;	.endef
	.seh_proc	_ZN18ExceptionYawReposeD1Ev
_ZN18ExceptionYawReposeD1Ev:
.LFB3289:
	.loc 12 8 7
	.cfi_startproc
	pushq	%rbp
	.seh_pushreg	%rbp
	.cfi_def_cfa_offset 16
	.cfi_offset 6, -16
	movq	%rsp, %rbp
	.seh_setframe	%rbp, 0
	.cfi_def_cfa_register 6
	subq	$32, %rsp
	.seh_stackalloc	32
	.seh_endprologue
	movq	%rcx, 16(%rbp)
.LBB85:
	.loc 12 8 7
	leaq	16+_ZTV18ExceptionYawRepose(%rip), %rdx
	movq	16(%rbp), %rax
	movq	%rdx, (%rax)
	movq	16(%rbp), %rax
	addq	$8, %rax
	movq	%rax, %rcx
	call	_ZN16ElementosDisparoD1Ev
	movq	16(%rbp), %rax
	movq	%rax, %rcx
	call	_ZNSt9exceptionD2Ev
.LBE85:
	nop
	addq	$32, %rsp
	popq	%rbp
	.cfi_restore 6
	.cfi_def_cfa 7, 8
	ret
	.cfi_endproc
.LFE3289:
	.seh_endproc
	.section	.text$_ZN18ExceptionYawReposeD0Ev,"x"
	.linkonce discard
	.align 2
	.globl	_ZN18ExceptionYawReposeD0Ev
	.def	_ZN18ExceptionYawReposeD0Ev;	.scl	2;	.type	32;	.endef
	.seh_proc	_ZN18ExceptionYawReposeD0Ev
_ZN18ExceptionYawReposeD0Ev:
.LFB3290:
	.loc 12 8 7
	.cfi_startproc
	pushq	%rbp
	.seh_pushreg	%rbp
	.cfi_def_cfa_offset 16
	.cfi_offset 6, -16
	movq	%rsp, %rbp
	.seh_setframe	%rbp, 0
	.cfi_def_cfa_register 6
	subq	$32, %rsp
	.seh_stackalloc	32
	.seh_endprologue
	movq	%rcx, 16(%rbp)
	.loc 12 8 7
	movq	16(%rbp), %rcx
	call	_ZN18ExceptionYawReposeD1Ev
	movq	16(%rbp), %rcx
	call	_ZdlPv
	nop
	addq	$32, %rsp
	popq	%rbp
	.cfi_restore 6
	.cfi_def_cfa 7, 8
	ret
	.cfi_endproc
.LFE3290:
	.seh_endproc
	.globl	_ZTV25ExceptionQuasiConvergence
	.section	.rdata$_ZTV25ExceptionQuasiConvergence,"dr"
	.linkonce same_size
	.align 8
_ZTV25ExceptionQuasiConvergence:
	.quad	0
	.quad	_ZTI25ExceptionQuasiConvergence
	.quad	_ZN25ExceptionQuasiConvergenceD1Ev
	.quad	_ZN25ExceptionQuasiConvergenceD0Ev
	.quad	_ZNK25ExceptionQuasiConvergence4whatEv
	.section	.text$_ZN25ExceptionQuasiConvergenceD1Ev,"x"
	.linkonce discard
	.align 2
	.globl	_ZN25ExceptionQuasiConvergenceD1Ev
	.def	_ZN25ExceptionQuasiConvergenceD1Ev;	.scl	2;	.type	32;	.endef
	.seh_proc	_ZN25ExceptionQuasiConvergenceD1Ev
_ZN25ExceptionQuasiConvergenceD1Ev:
.LFB3293:
	.loc 11 8 7
	.cfi_startproc
	pushq	%rbp
	.seh_pushreg	%rbp
	.cfi_def_cfa_offset 16
	.cfi_offset 6, -16
	movq	%rsp, %rbp
	.seh_setframe	%rbp, 0
	.cfi_def_cfa_register 6
	subq	$32, %rsp
	.seh_stackalloc	32
	.seh_endprologue
	movq	%rcx, 16(%rbp)
.LBB86:
	.loc 11 8 7
	leaq	16+_ZTV25ExceptionQuasiConvergence(%rip), %rdx
	movq	16(%rbp), %rax
	movq	%rdx, (%rax)
	movq	16(%rbp), %rax
	addq	$8, %rax
	movq	%rax, %rcx
	call	_ZN16ElementosDisparoD1Ev
	movq	16(%rbp), %rax
	movq	%rax, %rcx
	call	_ZNSt9exceptionD2Ev
.LBE86:
	nop
	addq	$32, %rsp
	popq	%rbp
	.cfi_restore 6
	.cfi_def_cfa 7, 8
	ret
	.cfi_endproc
.LFE3293:
	.seh_endproc
	.section	.text$_ZN25ExceptionQuasiConvergenceD0Ev,"x"
	.linkonce discard
	.align 2
	.globl	_ZN25ExceptionQuasiConvergenceD0Ev
	.def	_ZN25ExceptionQuasiConvergenceD0Ev;	.scl	2;	.type	32;	.endef
	.seh_proc	_ZN25ExceptionQuasiConvergenceD0Ev
_ZN25ExceptionQuasiConvergenceD0Ev:
.LFB3294:
	.loc 11 8 7
	.cfi_startproc
	pushq	%rbp
	.seh_pushreg	%rbp
	.cfi_def_cfa_offset 16
	.cfi_offset 6, -16
	movq	%rsp, %rbp
	.seh_setframe	%rbp, 0
	.cfi_def_cfa_register 6
	subq	$32, %rsp
	.seh_stackalloc	32
	.seh_endprologue
	movq	%rcx, 16(%rbp)
	.loc 11 8 7
	movq	16(%rbp), %rcx
	call	_ZN25ExceptionQuasiConvergenceD1Ev
	movq	16(%rbp), %rcx
	call	_ZdlPv
	nop
	addq	$32, %rsp
	popq	%rbp
	.cfi_restore 6
	.cfi_def_cfa 7, 8
	ret
	.cfi_endproc
.LFE3294:
	.seh_endproc
	.globl	_ZTV20ExceptionConvergence
	.section	.rdata$_ZTV20ExceptionConvergence,"dr"
	.linkonce same_size
	.align 8
_ZTV20ExceptionConvergence:
	.quad	0
	.quad	_ZTI20ExceptionConvergence
	.quad	_ZN20ExceptionConvergenceD1Ev
	.quad	_ZN20ExceptionConvergenceD0Ev
	.quad	_ZNK20ExceptionConvergence4whatEv
	.section	.text$_ZN20ExceptionConvergenceD1Ev,"x"
	.linkonce discard
	.align 2
	.globl	_ZN20ExceptionConvergenceD1Ev
	.def	_ZN20ExceptionConvergenceD1Ev;	.scl	2;	.type	32;	.endef
	.seh_proc	_ZN20ExceptionConvergenceD1Ev
_ZN20ExceptionConvergenceD1Ev:
.LFB3297:
	.loc 10 8 7
	.cfi_startproc
	pushq	%rbp
	.seh_pushreg	%rbp
	.cfi_def_cfa_offset 16
	.cfi_offset 6, -16
	movq	%rsp, %rbp
	.seh_setframe	%rbp, 0
	.cfi_def_cfa_register 6
	subq	$32, %rsp
	.seh_stackalloc	32
	.seh_endprologue
	movq	%rcx, 16(%rbp)
.LBB87:
	.loc 10 8 7
	leaq	16+_ZTV20ExceptionConvergence(%rip), %rdx
	movq	16(%rbp), %rax
	movq	%rdx, (%rax)
	movq	16(%rbp), %rax
	addq	$8, %rax
	movq	%rax, %rcx
	call	_ZN16ElementosDisparoD1Ev
	movq	16(%rbp), %rax
	movq	%rax, %rcx
	call	_ZNSt9exceptionD2Ev
.LBE87:
	nop
	addq	$32, %rsp
	popq	%rbp
	.cfi_restore 6
	.cfi_def_cfa 7, 8
	ret
	.cfi_endproc
.LFE3297:
	.seh_endproc
	.section	.text$_ZN20ExceptionConvergenceD0Ev,"x"
	.linkonce discard
	.align 2
	.globl	_ZN20ExceptionConvergenceD0Ev
	.def	_ZN20ExceptionConvergenceD0Ev;	.scl	2;	.type	32;	.endef
	.seh_proc	_ZN20ExceptionConvergenceD0Ev
_ZN20ExceptionConvergenceD0Ev:
.LFB3298:
	.loc 10 8 7
	.cfi_startproc
	pushq	%rbp
	.seh_pushreg	%rbp
	.cfi_def_cfa_offset 16
	.cfi_offset 6, -16
	movq	%rsp, %rbp
	.seh_setframe	%rbp, 0
	.cfi_def_cfa_register 6
	subq	$32, %rsp
	.seh_stackalloc	32
	.seh_endprologue
	movq	%rcx, 16(%rbp)
	.loc 10 8 7
	movq	16(%rbp), %rcx
	call	_ZN20ExceptionConvergenceD1Ev
	movq	16(%rbp), %rcx
	call	_ZdlPv
	nop
	addq	$32, %rsp
	popq	%rbp
	.cfi_restore 6
	.cfi_def_cfa 7, 8
	ret
	.cfi_endproc
.LFE3298:
	.seh_endproc
	.globl	_ZTV8Projetil
	.section	.rdata$_ZTV8Projetil,"dr"
	.linkonce same_size
	.align 8
_ZTV8Projetil:
	.quad	0
	.quad	_ZTI8Projetil
	.quad	_ZN8ProjetilD1Ev
	.quad	_ZN8ProjetilD0Ev
	.section	.text$_ZN8ProjetilD1Ev,"x"
	.linkonce discard
	.align 2
	.globl	_ZN8ProjetilD1Ev
	.def	_ZN8ProjetilD1Ev;	.scl	2;	.type	32;	.endef
	.seh_proc	_ZN8ProjetilD1Ev
_ZN8ProjetilD1Ev:
.LFB3301:
	.loc 6 8 7
	.cfi_startproc
	pushq	%rbp
	.seh_pushreg	%rbp
	.cfi_def_cfa_offset 16
	.cfi_offset 6, -16
	movq	%rsp, %rbp
	.seh_setframe	%rbp, 0
	.cfi_def_cfa_register 6
	subq	$32, %rsp
	.seh_stackalloc	32
	.seh_endprologue
	movq	%rcx, 16(%rbp)
.LBB88:
	.loc 6 8 7
	leaq	16+_ZTV8Projetil(%rip), %rdx
	movq	16(%rbp), %rax
	movq	%rdx, (%rax)
	movq	16(%rbp), %rax
	addq	$48, %rax
	movq	%rax, %rcx
	call	_ZNSt7__cxx1112basic_stringIcSt11char_traitsIcESaIcEED1Ev
	movq	16(%rbp), %rax
	addq	$16, %rax
	movq	%rax, %rcx
	call	_ZNSt7__cxx1112basic_stringIcSt11char_traitsIcESaIcEED1Ev
	movq	16(%rbp), %rax
	movq	%rax, %rcx
	call	_ZN10BaseObjectD2Ev
.LBE88:
	nop
	addq	$32, %rsp
	popq	%rbp
	.cfi_restore 6
	.cfi_def_cfa 7, 8
	ret
	.cfi_endproc
.LFE3301:
	.seh_endproc
	.section	.text$_ZN8ProjetilD0Ev,"x"
	.linkonce discard
	.align 2
	.globl	_ZN8ProjetilD0Ev
	.def	_ZN8ProjetilD0Ev;	.scl	2;	.type	32;	.endef
	.seh_proc	_ZN8ProjetilD0Ev
_ZN8ProjetilD0Ev:
.LFB3302:
	.loc 6 8 7
	.cfi_startproc
	pushq	%rbp
	.seh_pushreg	%rbp
	.cfi_def_cfa_offset 16
	.cfi_offset 6, -16
	movq	%rsp, %rbp
	.seh_setframe	%rbp, 0
	.cfi_def_cfa_register 6
	subq	$32, %rsp
	.seh_stackalloc	32
	.seh_endprologue
	movq	%rcx, 16(%rbp)
	.loc 6 8 7
	movq	16(%rbp), %rcx
	call	_ZN8ProjetilD1Ev
	movq	16(%rbp), %rcx
	call	_ZdlPv
	nop
	addq	$32, %rsp
	popq	%rbp
	.cfi_restore 6
	.cfi_def_cfa 7, 8
	ret
	.cfi_endproc
.LFE3302:
	.seh_endproc
	.globl	_ZTV12ElementosVoo
	.section	.rdata$_ZTV12ElementosVoo,"dr"
	.linkonce same_size
	.align 8
_ZTV12ElementosVoo:
	.quad	0
	.quad	_ZTI12ElementosVoo
	.quad	_ZN12ElementosVooD1Ev
	.quad	_ZN12ElementosVooD0Ev
	.section	.text$_ZN12ElementosVooD1Ev,"x"
	.linkonce discard
	.align 2
	.globl	_ZN12ElementosVooD1Ev
	.def	_ZN12ElementosVooD1Ev;	.scl	2;	.type	32;	.endef
	.seh_proc	_ZN12ElementosVooD1Ev
_ZN12ElementosVooD1Ev:
.LFB3305:
	.loc 5 7 7
	.cfi_startproc
	pushq	%rbp
	.seh_pushreg	%rbp
	.cfi_def_cfa_offset 16
	.cfi_offset 6, -16
	movq	%rsp, %rbp
	.seh_setframe	%rbp, 0
	.cfi_def_cfa_register 6
	subq	$32, %rsp
	.seh_stackalloc	32
	.seh_endprologue
	movq	%rcx, 16(%rbp)
.LBB89:
	.loc 5 7 7
	leaq	16+_ZTV12ElementosVoo(%rip), %rdx
	movq	16(%rbp), %rax
	movq	%rdx, (%rax)
	movq	16(%rbp), %rax
	movq	%rax, %rcx
	call	_ZN10BaseObjectD2Ev
.LBE89:
	nop
	addq	$32, %rsp
	popq	%rbp
	.cfi_restore 6
	.cfi_def_cfa 7, 8
	ret
	.cfi_endproc
.LFE3305:
	.seh_endproc
	.section	.text$_ZN12ElementosVooD0Ev,"x"
	.linkonce discard
	.align 2
	.globl	_ZN12ElementosVooD0Ev
	.def	_ZN12ElementosVooD0Ev;	.scl	2;	.type	32;	.endef
	.seh_proc	_ZN12ElementosVooD0Ev
_ZN12ElementosVooD0Ev:
.LFB3306:
	.loc 5 7 7
	.cfi_startproc
	pushq	%rbp
	.seh_pushreg	%rbp
	.cfi_def_cfa_offset 16
	.cfi_offset 6, -16
	movq	%rsp, %rbp
	.seh_setframe	%rbp, 0
	.cfi_def_cfa_register 6
	subq	$32, %rsp
	.seh_stackalloc	32
	.seh_endprologue
	movq	%rcx, 16(%rbp)
	.loc 5 7 7
	movq	16(%rbp), %rcx
	call	_ZN12ElementosVooD1Ev
	movq	16(%rbp), %rcx
	call	_ZdlPv
	nop
	addq	$32, %rsp
	popq	%rbp
	.cfi_restore 6
	.cfi_def_cfa 7, 8
	ret
	.cfi_endproc
.LFE3306:
	.seh_endproc
	.globl	_ZTV16ElementosDisparo
	.section	.rdata$_ZTV16ElementosDisparo,"dr"
	.linkonce same_size
	.align 8
_ZTV16ElementosDisparo:
	.quad	0
	.quad	_ZTI16ElementosDisparo
	.quad	_ZN16ElementosDisparoD1Ev
	.quad	_ZN16ElementosDisparoD0Ev
	.section	.text$_ZN16ElementosDisparoD1Ev,"x"
	.linkonce discard
	.align 2
	.globl	_ZN16ElementosDisparoD1Ev
	.def	_ZN16ElementosDisparoD1Ev;	.scl	2;	.type	32;	.endef
	.seh_proc	_ZN16ElementosDisparoD1Ev
_ZN16ElementosDisparoD1Ev:
.LFB3309:
	.loc 9 6 7
	.cfi_startproc
	pushq	%rbp
	.seh_pushreg	%rbp
	.cfi_def_cfa_offset 16
	.cfi_offset 6, -16
	movq	%rsp, %rbp
	.seh_setframe	%rbp, 0
	.cfi_def_cfa_register 6
	subq	$32, %rsp
	.seh_stackalloc	32
	.seh_endprologue
	movq	%rcx, 16(%rbp)
.LBB90:
	.loc 9 6 7
	leaq	16+_ZTV16ElementosDisparo(%rip), %rdx
	movq	16(%rbp), %rax
	movq	%rdx, (%rax)
	movq	16(%rbp), %rax
	movq	%rax, %rcx
	call	_ZN10BaseObjectD2Ev
.LBE90:
	nop
	addq	$32, %rsp
	popq	%rbp
	.cfi_restore 6
	.cfi_def_cfa 7, 8
	ret
	.cfi_endproc
.LFE3309:
	.seh_endproc
	.section	.text$_ZN16ElementosDisparoD0Ev,"x"
	.linkonce discard
	.align 2
	.globl	_ZN16ElementosDisparoD0Ev
	.def	_ZN16ElementosDisparoD0Ev;	.scl	2;	.type	32;	.endef
	.seh_proc	_ZN16ElementosDisparoD0Ev
_ZN16ElementosDisparoD0Ev:
.LFB3310:
	.loc 9 6 7
	.cfi_startproc
	pushq	%rbp
	.seh_pushreg	%rbp
	.cfi_def_cfa_offset 16
	.cfi_offset 6, -16
	movq	%rsp, %rbp
	.seh_setframe	%rbp, 0
	.cfi_def_cfa_register 6
	subq	$32, %rsp
	.seh_stackalloc	32
	.seh_endprologue
	movq	%rcx, 16(%rbp)
	.loc 9 6 7
	movq	16(%rbp), %rcx
	call	_ZN16ElementosDisparoD1Ev
	movq	16(%rbp), %rcx
	call	_ZdlPv
	nop
	addq	$32, %rsp
	popq	%rbp
	.cfi_restore 6
	.cfi_def_cfa 7, 8
	ret
	.cfi_endproc
.LFE3310:
	.seh_endproc
	.globl	_ZTV10BaseObject
	.section	.rdata$_ZTV10BaseObject,"dr"
	.linkonce same_size
	.align 8
_ZTV10BaseObject:
	.quad	0
	.quad	_ZTI10BaseObject
	.quad	_ZN10BaseObjectD1Ev
	.quad	_ZN10BaseObjectD0Ev
	.globl	_ZTI19ExceptionTrajectory
	.section	.rdata$_ZTI19ExceptionTrajectory,"dr"
	.linkonce same_size
	.align 8
_ZTI19ExceptionTrajectory:
	.quad	_ZTVN10__cxxabiv120__si_class_type_infoE+16
	.quad	_ZTS19ExceptionTrajectory
	.quad	_ZTISt9exception
	.globl	_ZTS19ExceptionTrajectory
	.section	.rdata$_ZTS19ExceptionTrajectory,"dr"
	.linkonce same_size
	.align 16
_ZTS19ExceptionTrajectory:
	.ascii "19ExceptionTrajectory\0"
	.globl	_ZTI19ExceptionOutOfBound
	.section	.rdata$_ZTI19ExceptionOutOfBound,"dr"
	.linkonce same_size
	.align 8
_ZTI19ExceptionOutOfBound:
	.quad	_ZTVN10__cxxabiv120__si_class_type_infoE+16
	.quad	_ZTS19ExceptionOutOfBound
	.quad	_ZTISt9exception
	.globl	_ZTS19ExceptionOutOfBound
	.section	.rdata$_ZTS19ExceptionOutOfBound,"dr"
	.linkonce same_size
	.align 16
_ZTS19ExceptionOutOfBound:
	.ascii "19ExceptionOutOfBound\0"
	.globl	_ZTI18ExceptionYawRepose
	.section	.rdata$_ZTI18ExceptionYawRepose,"dr"
	.linkonce same_size
	.align 8
_ZTI18ExceptionYawRepose:
	.quad	_ZTVN10__cxxabiv120__si_class_type_infoE+16
	.quad	_ZTS18ExceptionYawRepose
	.quad	_ZTISt9exception
	.globl	_ZTS18ExceptionYawRepose
	.section	.rdata$_ZTS18ExceptionYawRepose,"dr"
	.linkonce same_size
	.align 16
_ZTS18ExceptionYawRepose:
	.ascii "18ExceptionYawRepose\0"
	.globl	_ZTI25ExceptionQuasiConvergence
	.section	.rdata$_ZTI25ExceptionQuasiConvergence,"dr"
	.linkonce same_size
	.align 8
_ZTI25ExceptionQuasiConvergence:
	.quad	_ZTVN10__cxxabiv120__si_class_type_infoE+16
	.quad	_ZTS25ExceptionQuasiConvergence
	.quad	_ZTISt9exception
	.globl	_ZTS25ExceptionQuasiConvergence
	.section	.rdata$_ZTS25ExceptionQuasiConvergence,"dr"
	.linkonce same_size
	.align 16
_ZTS25ExceptionQuasiConvergence:
	.ascii "25ExceptionQuasiConvergence\0"
	.globl	_ZTI20ExceptionConvergence
	.section	.rdata$_ZTI20ExceptionConvergence,"dr"
	.linkonce same_size
	.align 8
_ZTI20ExceptionConvergence:
	.quad	_ZTVN10__cxxabiv120__si_class_type_infoE+16
	.quad	_ZTS20ExceptionConvergence
	.quad	_ZTISt9exception
	.globl	_ZTS20ExceptionConvergence
	.section	.rdata$_ZTS20ExceptionConvergence,"dr"
	.linkonce same_size
	.align 16
_ZTS20ExceptionConvergence:
	.ascii "20ExceptionConvergence\0"
	.globl	_ZTI21CalculadorAtmosferico
	.section	.rdata$_ZTI21CalculadorAtmosferico,"dr"
	.linkonce same_size
	.align 8
_ZTI21CalculadorAtmosferico:
	.quad	_ZTVN10__cxxabiv120__si_class_type_infoE+16
	.quad	_ZTS21CalculadorAtmosferico
	.quad	_ZTI10Calculador
	.globl	_ZTS21CalculadorAtmosferico
	.section	.rdata$_ZTS21CalculadorAtmosferico,"dr"
	.linkonce same_size
	.align 16
_ZTS21CalculadorAtmosferico:
	.ascii "21CalculadorAtmosferico\0"
	.globl	_ZTI8Projetil
	.section	.rdata$_ZTI8Projetil,"dr"
	.linkonce same_size
	.align 8
_ZTI8Projetil:
	.quad	_ZTVN10__cxxabiv120__si_class_type_infoE+16
	.quad	_ZTS8Projetil
	.quad	_ZTI10BaseObject
	.globl	_ZTS8Projetil
	.section	.rdata$_ZTS8Projetil,"dr"
	.linkonce same_size
	.align 8
_ZTS8Projetil:
	.ascii "8Projetil\0"
	.globl	_ZTI10Calculador
	.section	.rdata$_ZTI10Calculador,"dr"
	.linkonce same_size
	.align 8
_ZTI10Calculador:
	.quad	_ZTVN10__cxxabiv117__class_type_infoE+16
	.quad	_ZTS10Calculador
	.globl	_ZTS10Calculador
	.section	.rdata$_ZTS10Calculador,"dr"
	.linkonce same_size
	.align 8
_ZTS10Calculador:
	.ascii "10Calculador\0"
	.globl	_ZTI12ElementosVoo
	.section	.rdata$_ZTI12ElementosVoo,"dr"
	.linkonce same_size
	.align 8
_ZTI12ElementosVoo:
	.quad	_ZTVN10__cxxabiv120__si_class_type_infoE+16
	.quad	_ZTS12ElementosVoo
	.quad	_ZTI10BaseObject
	.globl	_ZTS12ElementosVoo
	.section	.rdata$_ZTS12ElementosVoo,"dr"
	.linkonce same_size
	.align 8
_ZTS12ElementosVoo:
	.ascii "12ElementosVoo\0"
	.globl	_ZTI16ElementosDisparo
	.section	.rdata$_ZTI16ElementosDisparo,"dr"
	.linkonce same_size
	.align 8
_ZTI16ElementosDisparo:
	.quad	_ZTVN10__cxxabiv120__si_class_type_infoE+16
	.quad	_ZTS16ElementosDisparo
	.quad	_ZTI10BaseObject
	.globl	_ZTS16ElementosDisparo
	.section	.rdata$_ZTS16ElementosDisparo,"dr"
	.linkonce same_size
	.align 16
_ZTS16ElementosDisparo:
	.ascii "16ElementosDisparo\0"
	.globl	_ZTI10BaseObject
	.section	.rdata$_ZTI10BaseObject,"dr"
	.linkonce same_size
	.align 8
_ZTI10BaseObject:
	.quad	_ZTVN10__cxxabiv117__class_type_infoE+16
	.quad	_ZTS10BaseObject
	.globl	_ZTS10BaseObject
	.section	.rdata$_ZTS10BaseObject,"dr"
	.linkonce same_size
	.align 8
_ZTS10BaseObject:
	.ascii "10BaseObject\0"
	.globl	_ZTISt9exception
	.section	.rdata$_ZTISt9exception,"dr"
	.linkonce same_size
	.align 8
_ZTISt9exception:
	.quad	_ZTVN10__cxxabiv117__class_type_infoE+16
	.quad	_ZTSSt9exception
	.globl	_ZTSSt9exception
	.section	.rdata$_ZTSSt9exception,"dr"
	.linkonce same_size
	.align 8
_ZTSSt9exception:
	.ascii "St9exception\0"
	.section .rdata,"dr"
	.align 8
.LC4:
	.long	0
	.long	1071644672
	.align 8
.LC5:
	.long	0
	.long	0
	.align 8
.LC6:
	.long	-178670640
	.long	1069210297
	.align 8
.LC7:
	.long	1202590843
	.long	1081427681
	.align 8
.LC8:
	.long	0
	.long	1073741824
	.align 8
.LC9:
	.long	1413754136
	.long	1074340347
	.align 16
.LC10:
	.long	-1
	.long	2147483647
	.long	0
	.long	0
	.align 8
.LC11:
	.long	0
	.long	1076101120
	.align 8
.LC12:
	.long	0
	.long	-1071382528
	.align 8
.LC13:
	.long	0
	.long	1072693248
	.align 8
.LC14:
	.long	0
	.long	-1074790400
	.align 8
.LC15:
	.long	-1717986918
	.long	1069128089
	.align 8
.LC16:
	.long	-1717986918
	.long	-1078355559
	.align 8
.LC17:
	.long	1202590843
	.long	1065646817
	.align 8
.LC18:
	.long	1202590843
	.long	-1081836831
	.align 8
.LC19:
	.long	0
	.long	1079574528
	.align 8
.LC20:
	.long	0
	.long	1082699776
	.align 8
.LC21:
	.long	0
	.long	1074003968
	.align 8
.LC22:
	.long	0
	.long	1078525952
	.align 16
.LC23:
	.long	0
	.long	-2147483648
	.long	0
	.long	0
	.align 8
.LC24:
	.long	0
	.long	1077149696
	.align 8
.LC25:
	.long	0
	.long	1075052544
	.align 8
.LC26:
	.long	-858993459
	.long	1072483532
	.align 8
.LC27:
	.long	1742725930
	.long	1062221916
	.align 8
.LC28:
	.long	0
	.long	1083768832
	.align 8
.LC29:
	.long	0
	.long	1083129856
	.align 8
.LC30:
	.long	2061584302
	.long	1072672276
	.align 8
.LC31:
	.long	-1030792151
	.long	1072703733
	.align 8
.LC32:
	.long	0
	.long	1082720256
	.align 8
.LC33:
	.long	-1571644103
	.long	1066524486
	.align 8
.LC34:
	.long	-1843976422
	.long	1062213055
	.align 8
.LC35:
	.long	261551826
	.long	1059265940
	.align 8
.LC36:
	.long	-1717986918
	.long	1068079513
	.text
.Letext0:
	.file 27 "C:/Program Files/CodeBlocks/MinGW/lib/gcc/x86_64-w64-mingw32/8.1.0/include/c++/bits/basic_string.h"
	.file 28 "C:/Program Files/CodeBlocks/MinGW/lib/gcc/x86_64-w64-mingw32/8.1.0/include/c++/bits/stl_list.h"
	.file 29 "C:/Program Files/CodeBlocks/MinGW/lib/gcc/x86_64-w64-mingw32/8.1.0/include/c++/bits/list.tcc"
	.file 30 "C:/Program Files/CodeBlocks/MinGW/lib/gcc/x86_64-w64-mingw32/8.1.0/include/c++/ctime"
	.file 31 "C:/Program Files/CodeBlocks/MinGW/lib/gcc/x86_64-w64-mingw32/8.1.0/include/c++/cstdlib"
	.file 32 "C:/Program Files/CodeBlocks/MinGW/lib/gcc/x86_64-w64-mingw32/8.1.0/include/c++/type_traits"
	.file 33 "C:/Program Files/CodeBlocks/MinGW/lib/gcc/x86_64-w64-mingw32/8.1.0/include/c++/bits/stringfwd.h"
	.file 34 "C:/Program Files/CodeBlocks/MinGW/lib/gcc/x86_64-w64-mingw32/8.1.0/include/c++/bits/stl_pair.h"
	.file 35 "C:/Program Files/CodeBlocks/MinGW/lib/gcc/x86_64-w64-mingw32/8.1.0/include/c++/debug/debug.h"
	.file 36 "C:/Program Files/CodeBlocks/MinGW/lib/gcc/x86_64-w64-mingw32/8.1.0/include/c++/bits/exception_ptr.h"
	.file 37 "C:/Program Files/CodeBlocks/MinGW/lib/gcc/x86_64-w64-mingw32/8.1.0/include/c++/x86_64-w64-mingw32/bits/c++config.h"
	.file 38 "C:/Program Files/CodeBlocks/MinGW/lib/gcc/x86_64-w64-mingw32/8.1.0/include/c++/cwchar"
	.file 39 "C:/Program Files/CodeBlocks/MinGW/lib/gcc/x86_64-w64-mingw32/8.1.0/include/c++/bits/char_traits.h"
	.file 40 "C:/Program Files/CodeBlocks/MinGW/lib/gcc/x86_64-w64-mingw32/8.1.0/include/c++/cstdint"
	.file 41 "C:/Program Files/CodeBlocks/MinGW/lib/gcc/x86_64-w64-mingw32/8.1.0/include/c++/clocale"
	.file 42 "C:/Program Files/CodeBlocks/MinGW/lib/gcc/x86_64-w64-mingw32/8.1.0/include/c++/cstdio"
	.file 43 "C:/Program Files/CodeBlocks/MinGW/lib/gcc/x86_64-w64-mingw32/8.1.0/include/c++/initializer_list"
	.file 44 "C:/Program Files/CodeBlocks/MinGW/lib/gcc/x86_64-w64-mingw32/8.1.0/include/c++/cmath"
	.file 45 "C:/Program Files/CodeBlocks/MinGW/lib/gcc/x86_64-w64-mingw32/8.1.0/include/c++/bits/std_abs.h"
	.file 46 "C:/Program Files/CodeBlocks/MinGW/lib/gcc/x86_64-w64-mingw32/8.1.0/include/c++/system_error"
	.file 47 "C:/Program Files/CodeBlocks/MinGW/lib/gcc/x86_64-w64-mingw32/8.1.0/include/c++/cwctype"
	.file 48 "C:/Program Files/CodeBlocks/MinGW/lib/gcc/x86_64-w64-mingw32/8.1.0/include/c++/bits/uses_allocator.h"
	.file 49 "C:/Program Files/CodeBlocks/MinGW/lib/gcc/x86_64-w64-mingw32/8.1.0/include/c++/tuple"
	.file 50 "C:/Program Files/CodeBlocks/MinGW/lib/gcc/x86_64-w64-mingw32/8.1.0/include/c++/bits/stl_iterator_base_types.h"
	.file 51 "C:/Program Files/CodeBlocks/MinGW/lib/gcc/x86_64-w64-mingw32/8.1.0/include/c++/bits/predefined_ops.h"
	.file 52 "C:/Program Files/CodeBlocks/MinGW/lib/gcc/x86_64-w64-mingw32/8.1.0/include/c++/ext/numeric_traits.h"
	.file 53 "C:/Program Files/CodeBlocks/MinGW/lib/gcc/x86_64-w64-mingw32/8.1.0/include/c++/ext/alloc_traits.h"
	.file 54 "C:/Program Files/CodeBlocks/MinGW/lib/gcc/x86_64-w64-mingw32/8.1.0/include/c++/ext/aligned_buffer.h"
	.file 55 "C:/Program Files/CodeBlocks/MinGW/x86_64-w64-mingw32/include/crtdefs.h"
	.file 56 "C:/Program Files/CodeBlocks/MinGW/x86_64-w64-mingw32/include/locale.h"
	.file 57 "C:/Program Files/CodeBlocks/MinGW/x86_64-w64-mingw32/include/time.h"
	.file 58 "C:/Program Files/CodeBlocks/MinGW/x86_64-w64-mingw32/include/stdlib.h"
	.file 59 "C:/Program Files/CodeBlocks/MinGW/x86_64-w64-mingw32/include/malloc.h"
	.file 60 "C:/Program Files/CodeBlocks/MinGW/x86_64-w64-mingw32/include/wchar.h"
	.file 61 "C:/Program Files/CodeBlocks/MinGW/x86_64-w64-mingw32/include/swprintf.inl"
	.file 62 "C:/Program Files/CodeBlocks/MinGW/x86_64-w64-mingw32/include/stdint.h"
	.file 63 "C:/Program Files/CodeBlocks/MinGW/x86_64-w64-mingw32/include/stdio.h"
	.file 64 "C:/Program Files/CodeBlocks/MinGW/x86_64-w64-mingw32/include/ctype.h"
	.file 65 "C:/Program Files/CodeBlocks/MinGW/x86_64-w64-mingw32/include/process.h"
	.file 66 "C:/Program Files/CodeBlocks/MinGW/x86_64-w64-mingw32/include/pthread.h"
	.file 67 "C:/PFC 2021/ballisticKernelCpp/CalculadorNumerico/calculador/calculador.h"
	.file 68 "C:/PFC 2021/ballisticKernelCpp/CalculadorNumerico/sql/sqlite3.h"
	.file 69 "C:/PFC 2021/ballisticKernelCpp/CalculadorNumerico/coeficientes/coeficienteAerodinamico.h"
	.file 70 "C:/Program Files/CodeBlocks/MinGW/x86_64-w64-mingw32/include/math.h"
	.file 71 "C:/Program Files/CodeBlocks/MinGW/lib/gcc/x86_64-w64-mingw32/8.1.0/include/c++/math.h"
	.file 72 "C:/Program Files/CodeBlocks/MinGW/x86_64-w64-mingw32/include/wctype.h"
	.file 73 "C:/PFC 2021/ballisticKernelCpp/CalculadorNumerico/padroes/objstring.h"
	.file 74 "<built-in>"
	.section	.rdata$.refptr._ZTVSt9exception, "dr"
	.globl	.refptr._ZTVSt9exception
	.linkonce	discard
.refptr._ZTVSt9exception:
	.quad	_ZTVSt9exception
