	.file	"calculadorArrastoLinear.cpp"
	.text
.Ltext0:
	.cfi_sections	.debug_frame
	.section .rdata,"dr"
_ZStL19piecewise_construct:
	.space 1
	.section	.text$_ZnwyPv,"x"
	.linkonce discard
	.globl	_ZnwyPv
	.def	_ZnwyPv;	.scl	2;	.type	32;	.endef
	.seh_proc	_ZnwyPv
_ZnwyPv:
.LFB697:
	.file 1 "C:/Program Files/CodeBlocks/MinGW/lib/gcc/x86_64-w64-mingw32/8.1.0/include/c++/new"
	.loc 1 169 1
	.cfi_startproc
	pushq	%rbp
	.seh_pushreg	%rbp
	.cfi_def_cfa_offset 16
	.cfi_offset 6, -16
	movq	%rsp, %rbp
	.seh_setframe	%rbp, 0
	.cfi_def_cfa_register 6
	.seh_endprologue
	movq	%rcx, 16(%rbp)
	movq	%rdx, 24(%rbp)
	.loc 1 169 10
	movq	24(%rbp), %rax
	.loc 1 169 15
	popq	%rbp
	.cfi_restore 6
	.cfi_def_cfa 7, 8
	ret
	.cfi_endproc
.LFE697:
	.seh_endproc
	.section .rdata,"dr"
_ZStL13allocator_arg:
	.space 1
_ZStL6ignore:
	.space 1
	.section	.text$_ZN10BaseObjectD2Ev,"x"
	.linkonce discard
	.align 2
	.globl	_ZN10BaseObjectD2Ev
	.def	_ZN10BaseObjectD2Ev;	.scl	2;	.type	32;	.endef
	.seh_proc	_ZN10BaseObjectD2Ev
_ZN10BaseObjectD2Ev:
.LFB2363:
	.file 2 "C:/PFC 2021/ballisticKernelCpp/CalculadorNumerico/padroes/baseobject.h"
	.loc 2 8 17
	.cfi_startproc
	pushq	%rbp
	.seh_pushreg	%rbp
	.cfi_def_cfa_offset 16
	.cfi_offset 6, -16
	movq	%rsp, %rbp
	.seh_setframe	%rbp, 0
	.cfi_def_cfa_register 6
	.seh_endprologue
	movq	%rcx, 16(%rbp)
.LBB2:
	.loc 2 8 31
	leaq	16+_ZTV10BaseObject(%rip), %rdx
	movq	16(%rbp), %rax
	movq	%rdx, (%rax)
.LBE2:
	.loc 2 8 32
	nop
	popq	%rbp
	.cfi_restore 6
	.cfi_def_cfa 7, 8
	ret
	.cfi_endproc
.LFE2363:
	.seh_endproc
	.section	.text$_ZN10BaseObjectD1Ev,"x"
	.linkonce discard
	.align 2
	.globl	_ZN10BaseObjectD1Ev
	.def	_ZN10BaseObjectD1Ev;	.scl	2;	.type	32;	.endef
	.seh_proc	_ZN10BaseObjectD1Ev
_ZN10BaseObjectD1Ev:
.LFB2364:
	.loc 2 8 17
	.cfi_startproc
	pushq	%rbp
	.seh_pushreg	%rbp
	.cfi_def_cfa_offset 16
	.cfi_offset 6, -16
	movq	%rsp, %rbp
	.seh_setframe	%rbp, 0
	.cfi_def_cfa_register 6
	.seh_endprologue
	movq	%rcx, 16(%rbp)
.LBB3:
	.loc 2 8 31
	leaq	16+_ZTV10BaseObject(%rip), %rdx
	movq	16(%rbp), %rax
	movq	%rdx, (%rax)
.LBE3:
	.loc 2 8 32
	nop
	popq	%rbp
	.cfi_restore 6
	.cfi_def_cfa 7, 8
	ret
	.cfi_endproc
.LFE2364:
	.seh_endproc
	.section	.text$_ZN10BaseObjectD0Ev,"x"
	.linkonce discard
	.align 2
	.globl	_ZN10BaseObjectD0Ev
	.def	_ZN10BaseObjectD0Ev;	.scl	2;	.type	32;	.endef
	.seh_proc	_ZN10BaseObjectD0Ev
_ZN10BaseObjectD0Ev:
.LFB2365:
	.loc 2 8 17
	.cfi_startproc
	pushq	%rbp
	.seh_pushreg	%rbp
	.cfi_def_cfa_offset 16
	.cfi_offset 6, -16
	movq	%rsp, %rbp
	.seh_setframe	%rbp, 0
	.cfi_def_cfa_register 6
	subq	$32, %rsp
	.seh_stackalloc	32
	.seh_endprologue
	movq	%rcx, 16(%rbp)
	.loc 2 8 32
	movq	16(%rbp), %rcx
	call	_ZN10BaseObjectD1Ev
	movq	16(%rbp), %rcx
	call	_ZdlPv
	nop
	addq	$32, %rsp
	popq	%rbp
	.cfi_restore 6
	.cfi_def_cfa 7, 8
	ret
	.cfi_endproc
.LFE2365:
	.seh_endproc
	.section	.text$_ZN12ElementosVoo12setAlturaMaxEd,"x"
	.linkonce discard
	.align 2
	.globl	_ZN12ElementosVoo12setAlturaMaxEd
	.def	_ZN12ElementosVoo12setAlturaMaxEd;	.scl	2;	.type	32;	.endef
	.seh_proc	_ZN12ElementosVoo12setAlturaMaxEd
_ZN12ElementosVoo12setAlturaMaxEd:
.LFB2562:
	.file 3 "C:/PFC 2021/ballisticKernelCpp/CalculadorNumerico/calculador/elementosvoo.h"
	.loc 3 12 10
	.cfi_startproc
	pushq	%rbp
	.seh_pushreg	%rbp
	.cfi_def_cfa_offset 16
	.cfi_offset 6, -16
	movq	%rsp, %rbp
	.seh_setframe	%rbp, 0
	.cfi_def_cfa_register 6
	.seh_endprologue
	movq	%rcx, 16(%rbp)
	movsd	%xmm1, 24(%rbp)
	.loc 3 12 59
	movq	16(%rbp), %rax
	movsd	24(%rbp), %xmm0
	movsd	%xmm0, 64(%rax)
	.loc 3 12 72
	nop
	popq	%rbp
	.cfi_restore 6
	.cfi_def_cfa 7, 8
	ret
	.cfi_endproc
.LFE2562:
	.seh_endproc
	.section	.text$_ZN8Projetil7getTipoEv,"x"
	.linkonce discard
	.align 2
	.globl	_ZN8Projetil7getTipoEv
	.def	_ZN8Projetil7getTipoEv;	.scl	2;	.type	32;	.endef
	.seh_proc	_ZN8Projetil7getTipoEv
_ZN8Projetil7getTipoEv:
.LFB2586:
	.file 4 "C:/PFC 2021/ballisticKernelCpp/CalculadorNumerico/projetil/projetil.h"
	.loc 4 24 23
	.cfi_startproc
	pushq	%rbp
	.seh_pushreg	%rbp
	.cfi_def_cfa_offset 16
	.cfi_offset 6, -16
	movq	%rsp, %rbp
	.seh_setframe	%rbp, 0
	.cfi_def_cfa_register 6
	.seh_endprologue
	movq	%rcx, 16(%rbp)
	.loc 4 24 40
	movq	16(%rbp), %rax
	movl	8(%rax), %eax
	.loc 4 24 45
	popq	%rbp
	.cfi_restore 6
	.cfi_def_cfa 7, 8
	ret
	.cfi_endproc
.LFE2586:
	.seh_endproc
	.section	.text$_ZN10BaseObjectC2ERKS_,"x"
	.linkonce discard
	.align 2
	.globl	_ZN10BaseObjectC2ERKS_
	.def	_ZN10BaseObjectC2ERKS_;	.scl	2;	.type	32;	.endef
	.seh_proc	_ZN10BaseObjectC2ERKS_
_ZN10BaseObjectC2ERKS_:
.LFB2631:
	.loc 2 5 7
	.cfi_startproc
	pushq	%rbp
	.seh_pushreg	%rbp
	.cfi_def_cfa_offset 16
	.cfi_offset 6, -16
	movq	%rsp, %rbp
	.seh_setframe	%rbp, 0
	.cfi_def_cfa_register 6
	.seh_endprologue
	movq	%rcx, 16(%rbp)
	movq	%rdx, 24(%rbp)
.LBB4:
	.loc 2 5 7
	leaq	16+_ZTV10BaseObject(%rip), %rdx
	movq	16(%rbp), %rax
	movq	%rdx, (%rax)
.LBE4:
	nop
	popq	%rbp
	.cfi_restore 6
	.cfi_def_cfa 7, 8
	ret
	.cfi_endproc
.LFE2631:
	.seh_endproc
	.section	.text$_ZN8ProjetilC1ERKS_,"x"
	.linkonce discard
	.align 2
	.globl	_ZN8ProjetilC1ERKS_
	.def	_ZN8ProjetilC1ERKS_;	.scl	2;	.type	32;	.endef
	.seh_proc	_ZN8ProjetilC1ERKS_
_ZN8ProjetilC1ERKS_:
.LFB2634:
	.loc 4 8 7
	.cfi_startproc
	pushq	%rbp
	.seh_pushreg	%rbp
	.cfi_def_cfa_offset 16
	.cfi_offset 6, -16
	pushq	%rbx
	.seh_pushreg	%rbx
	.cfi_def_cfa_offset 24
	.cfi_offset 3, -24
	subq	$40, %rsp
	.seh_stackalloc	40
	.cfi_def_cfa_offset 64
	leaq	128(%rsp), %rbp
	.seh_setframe	%rbp, 128
	.cfi_def_cfa 6, -64
	.seh_endprologue
	movq	%rcx, -64(%rbp)
	movq	%rdx, -56(%rbp)
.LBB5:
	.loc 4 8 7
	movq	-64(%rbp), %rax
	movq	-56(%rbp), %rdx
	movq	%rax, %rcx
	call	_ZN10BaseObjectC2ERKS_
	leaq	16+_ZTV8Projetil(%rip), %rdx
	movq	-64(%rbp), %rax
	movq	%rdx, (%rax)
	movq	-56(%rbp), %rax
	movl	8(%rax), %edx
	movq	-64(%rbp), %rax
	movl	%edx, 8(%rax)
	movq	-56(%rbp), %rax
	movl	12(%rax), %edx
	movq	-64(%rbp), %rax
	movl	%edx, 12(%rax)
	movq	-64(%rbp), %rax
	addq	$16, %rax
	movq	-56(%rbp), %rdx
	addq	$16, %rdx
	movq	%rax, %rcx
.LEHB0:
	call	_ZNSt7__cxx1112basic_stringIcSt11char_traitsIcESaIcEEC1ERKS4_
.LEHE0:
	.loc 4 8 7 is_stmt 0 discriminator 2
	movq	-64(%rbp), %rax
	addq	$48, %rax
	movq	-56(%rbp), %rdx
	addq	$48, %rdx
	movq	%rax, %rcx
.LEHB1:
	call	_ZNSt7__cxx1112basic_stringIcSt11char_traitsIcESaIcEEC1ERKS4_
.LEHE1:
	.loc 4 8 7 discriminator 4
	movq	-56(%rbp), %rax
	movsd	80(%rax), %xmm0
	movq	-64(%rbp), %rax
	movsd	%xmm0, 80(%rax)
	movq	-56(%rbp), %rax
	movsd	88(%rax), %xmm0
	movq	-64(%rbp), %rax
	movsd	%xmm0, 88(%rax)
	movq	-56(%rbp), %rax
	movsd	96(%rax), %xmm0
	movq	-64(%rbp), %rax
	movsd	%xmm0, 96(%rax)
	movq	-56(%rbp), %rax
	movsd	104(%rax), %xmm0
	movq	-64(%rbp), %rax
	movsd	%xmm0, 104(%rax)
	movq	-56(%rbp), %rax
	movsd	112(%rax), %xmm0
	movq	-64(%rbp), %rax
	movsd	%xmm0, 112(%rax)
	movq	-56(%rbp), %rax
	movsd	120(%rax), %xmm0
	movq	-64(%rbp), %rax
	movsd	%xmm0, 120(%rax)
.LBE5:
	jmp	.L15
.L14:
	movq	%rax, %rbx
.LBB6:
	.loc 4 8 7
	movq	-64(%rbp), %rax
	addq	$16, %rax
	movq	%rax, %rcx
	call	_ZNSt7__cxx1112basic_stringIcSt11char_traitsIcESaIcEED1Ev
	jmp	.L12
.L13:
	movq	%rax, %rbx
.L12:
	.loc 4 8 7 discriminator 1
	movq	-64(%rbp), %rax
	movq	%rax, %rcx
	call	_ZN10BaseObjectD2Ev
	movq	%rbx, %rax
	movq	%rax, %rcx
.LEHB2:
	call	_Unwind_Resume
	nop
.LEHE2:
.L15:
.LBE6:
	.loc 4 8 7
	addq	$40, %rsp
	popq	%rbx
	.cfi_restore 3
	popq	%rbp
	.cfi_restore 6
	.cfi_def_cfa 7, -24
	ret
	.cfi_endproc
.LFE2634:
	.def	__gxx_personality_seh0;	.scl	2;	.type	32;	.endef
	.seh_handler	__gxx_personality_seh0, @unwind, @except
	.seh_handlerdata
.LLSDA2634:
	.byte	0xff
	.byte	0xff
	.byte	0x1
	.uleb128 .LLSDACSE2634-.LLSDACSB2634
.LLSDACSB2634:
	.uleb128 .LEHB0-.LFB2634
	.uleb128 .LEHE0-.LEHB0
	.uleb128 .L13-.LFB2634
	.uleb128 0
	.uleb128 .LEHB1-.LFB2634
	.uleb128 .LEHE1-.LEHB1
	.uleb128 .L14-.LFB2634
	.uleb128 0
	.uleb128 .LEHB2-.LFB2634
	.uleb128 .LEHE2-.LEHB2
	.uleb128 0
	.uleb128 0
.LLSDACSE2634:
	.section	.text$_ZN8ProjetilC1ERKS_,"x"
	.linkonce discard
	.seh_endproc
	.section	.text$_ZN21CalculadorAtmosfericoD2Ev,"x"
	.linkonce discard
	.align 2
	.globl	_ZN21CalculadorAtmosfericoD2Ev
	.def	_ZN21CalculadorAtmosfericoD2Ev;	.scl	2;	.type	32;	.endef
	.seh_proc	_ZN21CalculadorAtmosfericoD2Ev
_ZN21CalculadorAtmosfericoD2Ev:
.LFB2637:
	.file 5 "C:/PFC 2021/ballisticKernelCpp/CalculadorNumerico/calculador/calculadorAtmosferico.h"
	.loc 5 23 7 is_stmt 1
	.cfi_startproc
	pushq	%rbp
	.seh_pushreg	%rbp
	.cfi_def_cfa_offset 16
	.cfi_offset 6, -16
	movq	%rsp, %rbp
	.seh_setframe	%rbp, 0
	.cfi_def_cfa_register 6
	subq	$32, %rsp
	.seh_stackalloc	32
	.seh_endprologue
	movq	%rcx, 16(%rbp)
.LBB7:
	.loc 5 23 7
	movq	.refptr._ZTV21CalculadorAtmosferico(%rip), %rax
	leaq	16(%rax), %rdx
	movq	16(%rbp), %rax
	movq	%rdx, (%rax)
	movq	16(%rbp), %rax
	addq	$304, %rax
	movq	%rax, %rcx
	call	_ZNSt6vectorI12ElementosVooSaIS0_EED1Ev
	movq	16(%rbp), %rax
	addq	$96, %rax
	movq	%rax, %rcx
	call	_ZN8ProjetilD1Ev
	movq	16(%rbp), %rax
	movq	%rax, %rcx
	call	_ZN10CalculadorD2Ev
.LBE7:
	nop
	addq	$32, %rsp
	popq	%rbp
	.cfi_restore 6
	.cfi_def_cfa 7, 8
	ret
	.cfi_endproc
.LFE2637:
	.seh_endproc
	.section .rdata,"dr"
.LC1:
	.ascii "Linear\0"
	.text
	.align 2
	.globl	_ZN23CalculadorArrastoLinearC2Ev
	.def	_ZN23CalculadorArrastoLinearC2Ev;	.scl	2;	.type	32;	.endef
	.seh_proc	_ZN23CalculadorArrastoLinearC2Ev
_ZN23CalculadorArrastoLinearC2Ev:
.LFB2639:
	.file 6 "C:/PFC 2021/ballisticKernelCpp/CalculadorNumerico/calculador/calculadorArrastoLinear.cpp"
	.loc 6 7 1
	.cfi_startproc
	pushq	%rbp
	.seh_pushreg	%rbp
	.cfi_def_cfa_offset 16
	.cfi_offset 6, -16
	pushq	%rbx
	.seh_pushreg	%rbx
	.cfi_def_cfa_offset 24
	.cfi_offset 3, -24
	subq	$40, %rsp
	.seh_stackalloc	40
	.cfi_def_cfa_offset 64
	leaq	128(%rsp), %rbp
	.seh_setframe	%rbp, 128
	.cfi_def_cfa 6, -64
	.seh_endprologue
	movq	%rcx, -64(%rbp)
.LBB8:
	.loc 6 7 50
	movq	-64(%rbp), %rax
	movq	%rax, %rcx
.LEHB3:
	call	_ZN21CalculadorAtmosfericoC2Ev
.LEHE3:
	leaq	16+_ZTV23CalculadorArrastoLinear(%rip), %rdx
	movq	-64(%rbp), %rax
	movq	%rdx, (%rax)
	movq	-64(%rbp), %rax
	addq	$424, %rax
	movq	%rax, %rcx
.LEHB4:
	call	_ZN21CoeficienteDragLinearC1Ev
.LEHE4:
	.loc 6 10 15
	movq	-64(%rbp), %rax
	movsd	.LC0(%rip), %xmm0
	movsd	%xmm0, 488(%rax)
	.loc 6 11 12
	movq	-64(%rbp), %rax
	addq	$16, %rax
	leaq	.LC1(%rip), %rdx
	movq	%rax, %rcx
.LEHB5:
	call	_ZNSt7__cxx1112basic_stringIcSt11char_traitsIcESaIcEEaSEPKc
.LEHE5:
.LBE8:
	.loc 6 12 1
	jmp	.L22
.L21:
	movq	%rax, %rbx
.LBB9:
	.loc 6 7 50
	movq	-64(%rbp), %rax
	addq	$424, %rax
	movq	%rax, %rcx
	call	_ZN21CoeficienteDragLinearD1Ev
	jmp	.L19
.L20:
	movq	%rax, %rbx
.L19:
	.loc 6 7 50 is_stmt 0 discriminator 1
	movq	-64(%rbp), %rax
	movq	%rax, %rcx
	call	_ZN21CalculadorAtmosfericoD2Ev
	movq	%rbx, %rax
	movq	%rax, %rcx
.LEHB6:
	call	_Unwind_Resume
	nop
.LEHE6:
.L22:
.LBE9:
	.loc 6 12 1 is_stmt 1
	addq	$40, %rsp
	popq	%rbx
	.cfi_restore 3
	popq	%rbp
	.cfi_restore 6
	.cfi_def_cfa 7, -24
	ret
	.cfi_endproc
.LFE2639:
	.seh_handler	__gxx_personality_seh0, @unwind, @except
	.seh_handlerdata
.LLSDA2639:
	.byte	0xff
	.byte	0xff
	.byte	0x1
	.uleb128 .LLSDACSE2639-.LLSDACSB2639
.LLSDACSB2639:
	.uleb128 .LEHB3-.LFB2639
	.uleb128 .LEHE3-.LEHB3
	.uleb128 0
	.uleb128 0
	.uleb128 .LEHB4-.LFB2639
	.uleb128 .LEHE4-.LEHB4
	.uleb128 .L20-.LFB2639
	.uleb128 0
	.uleb128 .LEHB5-.LFB2639
	.uleb128 .LEHE5-.LEHB5
	.uleb128 .L21-.LFB2639
	.uleb128 0
	.uleb128 .LEHB6-.LFB2639
	.uleb128 .LEHE6-.LEHB6
	.uleb128 0
	.uleb128 0
.LLSDACSE2639:
	.text
	.seh_endproc
	.globl	_ZN23CalculadorArrastoLinearC1Ev
	.def	_ZN23CalculadorArrastoLinearC1Ev;	.scl	2;	.type	32;	.endef
	.set	_ZN23CalculadorArrastoLinearC1Ev,_ZN23CalculadorArrastoLinearC2Ev
	.align 2
	.globl	_ZN23CalculadorArrastoLinear3acxEddddd
	.def	_ZN23CalculadorArrastoLinear3acxEddddd;	.scl	2;	.type	32;	.endef
	.seh_proc	_ZN23CalculadorArrastoLinear3acxEddddd
_ZN23CalculadorArrastoLinear3acxEddddd:
.LFB2641:
	.loc 6 25 1
	.cfi_startproc
	pushq	%rbp
	.seh_pushreg	%rbp
	.cfi_def_cfa_offset 16
	.cfi_offset 6, -16
	movq	%rsp, %rbp
	.seh_setframe	%rbp, 0
	.cfi_def_cfa_register 6
	subq	$80, %rsp
	.seh_stackalloc	80
	movaps	%xmm6, -16(%rbp)
	.seh_savexmm	%xmm6, 64
	.cfi_offset 23, -32
	.seh_endprologue
	movq	%rcx, 16(%rbp)
	movsd	%xmm1, 24(%rbp)
	movsd	%xmm2, 32(%rbp)
	movsd	%xmm3, 40(%rbp)
	.loc 6 31 23
	movq	16(%rbp), %rax
	movq	232(%rax), %rdx
	movq	16(%rbp), %rax
	movq	232(%rax), %rax
	.loc 6 31 48
	movq	(%rax), %rax
	addq	$32, %rax
	movq	(%rax), %rax
	.loc 6 31 39
	movsd	48(%rbp), %xmm0
	movapd	%xmm0, %xmm1
	movq	%rdx, %rcx
	call	*%rax
.LVL0:
	movapd	%xmm0, %xmm1
	.loc 6 31 22
	movq	.LC2(%rip), %xmm0
	xorpd	%xmm0, %xmm1
	.loc 6 31 49
	movsd	.LC3(%rip), %xmm0
	mulsd	%xmm0, %xmm1
	.loc 6 31 54
	movq	16(%rbp), %rax
	movsd	240(%rax), %xmm0
	.loc 6 31 53
	mulsd	%xmm0, %xmm1
	.loc 6 31 56
	movq	16(%rbp), %rax
	movsd	256(%rax), %xmm0
	.loc 6 31 55
	mulsd	%xmm0, %xmm1
	.loc 6 31 58
	movq	16(%rbp), %rax
	movsd	488(%rax), %xmm0
	.loc 6 31 57
	movapd	%xmm1, %xmm6
	mulsd	%xmm0, %xmm6
	.loc 6 31 94
	movq	16(%rbp), %rax
	movsd	48(%rbp), %xmm0
	movapd	%xmm0, %xmm1
	movq	%rax, %rcx
	call	_ZN21CalculadorAtmosferico20getVentoLongitudinalEd
	movapd	%xmm0, %xmm1
	.loc 6 31 72
	movsd	24(%rbp), %xmm0
	subsd	%xmm1, %xmm0
	.loc 6 31 67
	mulsd	%xmm0, %xmm6
	.loc 6 32 30
	movq	16(%rbp), %rax
	movsd	56(%rbp), %xmm0
	movapd	%xmm0, %xmm1
	movq	%rax, %rcx
	call	_ZN10Calculador5gravxEd
	.loc 6 32 23
	addsd	%xmm0, %xmm6
	.loc 6 32 55
	movq	16(%rbp), %rax
	movq	16(%rbp), %rdx
	movsd	280(%rdx), %xmm2
	movq	16(%rbp), %rdx
	movsd	80(%rdx), %xmm1
	movsd	32(%rbp), %xmm3
	movsd	40(%rbp), %xmm0
	movsd	%xmm0, 32(%rsp)
	movq	%rax, %rcx
	call	_ZN21CalculadorAtmosferico11acCoriolisxEdddd
	.loc 6 32 84
	addsd	%xmm6, %xmm0
	movsd	%xmm0, -24(%rbp)
	.loc 6 33 12
	movsd	-24(%rbp), %xmm0
	movq	%xmm0, %rax
	.loc 6 34 1
	movq	%rax, %xmm0
	movaps	-16(%rbp), %xmm6
	addq	$80, %rsp
	.cfi_restore 23
	popq	%rbp
	.cfi_restore 6
	.cfi_def_cfa 7, 8
	ret
	.cfi_endproc
.LFE2641:
	.seh_endproc
	.align 2
	.globl	_ZN23CalculadorArrastoLinear3acyEdddd
	.def	_ZN23CalculadorArrastoLinear3acyEdddd;	.scl	2;	.type	32;	.endef
	.seh_proc	_ZN23CalculadorArrastoLinear3acyEdddd
_ZN23CalculadorArrastoLinear3acyEdddd:
.LFB2642:
	.loc 6 45 1
	.cfi_startproc
	pushq	%rbp
	.seh_pushreg	%rbp
	.cfi_def_cfa_offset 16
	.cfi_offset 6, -16
	movq	%rsp, %rbp
	.seh_setframe	%rbp, 0
	.cfi_def_cfa_register 6
	subq	$80, %rsp
	.seh_stackalloc	80
	movaps	%xmm6, -16(%rbp)
	.seh_savexmm	%xmm6, 64
	.cfi_offset 23, -32
	.seh_endprologue
	movq	%rcx, 16(%rbp)
	movsd	%xmm1, 24(%rbp)
	movsd	%xmm2, 32(%rbp)
	movsd	%xmm3, 40(%rbp)
	.loc 6 49 23
	movq	16(%rbp), %rax
	movq	232(%rax), %rdx
	movq	16(%rbp), %rax
	movq	232(%rax), %rax
	.loc 6 49 48
	movq	(%rax), %rax
	addq	$32, %rax
	movq	(%rax), %rax
	.loc 6 49 39
	movsd	48(%rbp), %xmm0
	movapd	%xmm0, %xmm1
	movq	%rdx, %rcx
	call	*%rax
.LVL1:
	movapd	%xmm0, %xmm1
	.loc 6 49 22
	movq	.LC2(%rip), %xmm0
	xorpd	%xmm0, %xmm1
	.loc 6 49 49
	movsd	.LC3(%rip), %xmm0
	mulsd	%xmm0, %xmm1
	.loc 6 49 54
	movq	16(%rbp), %rax
	movsd	256(%rax), %xmm0
	.loc 6 49 53
	mulsd	%xmm0, %xmm1
	.loc 6 49 56
	movq	16(%rbp), %rax
	movsd	240(%rax), %xmm0
	.loc 6 49 55
	mulsd	%xmm0, %xmm1
	.loc 6 49 58
	movq	16(%rbp), %rax
	movsd	488(%rax), %xmm0
	.loc 6 49 57
	mulsd	%xmm1, %xmm0
	.loc 6 49 67
	movapd	%xmm0, %xmm6
	mulsd	32(%rbp), %xmm6
	.loc 6 50 30
	movq	16(%rbp), %rax
	movsd	48(%rbp), %xmm0
	movapd	%xmm0, %xmm1
	movq	%rax, %rcx
	call	_ZN10Calculador5gravyEd
	.loc 6 50 23
	addsd	%xmm0, %xmm6
	.loc 6 50 54
	movq	16(%rbp), %rax
	movq	16(%rbp), %rdx
	movsd	280(%rdx), %xmm2
	movq	16(%rbp), %rdx
	movsd	80(%rdx), %xmm1
	movsd	24(%rbp), %xmm3
	movsd	40(%rbp), %xmm0
	movsd	%xmm0, 32(%rsp)
	movq	%rax, %rcx
	call	_ZN21CalculadorAtmosferico11acCoriolisyEdddd
	.loc 6 50 83
	addsd	%xmm6, %xmm0
	movsd	%xmm0, -24(%rbp)
	.loc 6 51 12
	movsd	-24(%rbp), %xmm0
	movq	%xmm0, %rax
	.loc 6 52 1
	movq	%rax, %xmm0
	movaps	-16(%rbp), %xmm6
	addq	$80, %rsp
	.cfi_restore 23
	popq	%rbp
	.cfi_restore 6
	.cfi_def_cfa 7, 8
	ret
	.cfi_endproc
.LFE2642:
	.seh_endproc
	.align 2
	.globl	_ZN23CalculadorArrastoLinear3aczEddddd
	.def	_ZN23CalculadorArrastoLinear3aczEddddd;	.scl	2;	.type	32;	.endef
	.seh_proc	_ZN23CalculadorArrastoLinear3aczEddddd
_ZN23CalculadorArrastoLinear3aczEddddd:
.LFB2643:
	.loc 6 63 1
	.cfi_startproc
	pushq	%rbp
	.seh_pushreg	%rbp
	.cfi_def_cfa_offset 16
	.cfi_offset 6, -16
	movq	%rsp, %rbp
	.seh_setframe	%rbp, 0
	.cfi_def_cfa_register 6
	subq	$80, %rsp
	.seh_stackalloc	80
	movaps	%xmm6, -16(%rbp)
	.seh_savexmm	%xmm6, 64
	.cfi_offset 23, -32
	.seh_endprologue
	movq	%rcx, 16(%rbp)
	movsd	%xmm1, 24(%rbp)
	movsd	%xmm2, 32(%rbp)
	movsd	%xmm3, 40(%rbp)
	.loc 6 68 23
	movq	16(%rbp), %rax
	movq	232(%rax), %rdx
	movq	16(%rbp), %rax
	movq	232(%rax), %rax
	.loc 6 68 48
	movq	(%rax), %rax
	addq	$32, %rax
	movq	(%rax), %rax
	.loc 6 68 39
	movsd	48(%rbp), %xmm0
	movapd	%xmm0, %xmm1
	movq	%rdx, %rcx
	call	*%rax
.LVL2:
	movapd	%xmm0, %xmm1
	.loc 6 68 22
	movq	.LC2(%rip), %xmm0
	xorpd	%xmm0, %xmm1
	.loc 6 68 49
	movsd	.LC3(%rip), %xmm0
	mulsd	%xmm0, %xmm1
	.loc 6 68 54
	movq	16(%rbp), %rax
	movsd	240(%rax), %xmm0
	.loc 6 68 53
	mulsd	%xmm0, %xmm1
	.loc 6 68 56
	movq	16(%rbp), %rax
	movsd	256(%rax), %xmm0
	.loc 6 68 55
	mulsd	%xmm0, %xmm1
	.loc 6 68 58
	movq	16(%rbp), %rax
	movsd	488(%rax), %xmm0
	.loc 6 68 57
	movapd	%xmm1, %xmm6
	mulsd	%xmm0, %xmm6
	.loc 6 68 93
	movq	16(%rbp), %rax
	movsd	48(%rbp), %xmm0
	movapd	%xmm0, %xmm1
	movq	%rax, %rcx
	call	_ZN21CalculadorAtmosferico19getVentoTransversalEd
	movapd	%xmm0, %xmm1
	.loc 6 68 72
	movsd	40(%rbp), %xmm0
	subsd	%xmm1, %xmm0
	.loc 6 68 67
	mulsd	%xmm0, %xmm6
	.loc 6 69 30
	movq	16(%rbp), %rax
	movsd	56(%rbp), %xmm0
	movapd	%xmm0, %xmm1
	movq	%rax, %rcx
	call	_ZN10Calculador5gravzEd
	.loc 6 69 23
	addsd	%xmm0, %xmm6
	.loc 6 69 55
	movq	16(%rbp), %rax
	movq	16(%rbp), %rdx
	movsd	280(%rdx), %xmm2
	movq	16(%rbp), %rdx
	movsd	80(%rdx), %xmm1
	movsd	24(%rbp), %xmm3
	movsd	32(%rbp), %xmm0
	movsd	%xmm0, 32(%rsp)
	movq	%rax, %rcx
	call	_ZN21CalculadorAtmosferico11acCorioliszEdddd
	.loc 6 69 84
	addsd	%xmm6, %xmm0
	movsd	%xmm0, -24(%rbp)
	.loc 6 70 12
	movsd	-24(%rbp), %xmm0
	movq	%xmm0, %rax
	.loc 6 71 1
	movq	%rax, %xmm0
	movaps	-16(%rbp), %xmm6
	addq	$80, %rsp
	.cfi_restore 23
	popq	%rbp
	.cfi_restore 6
	.cfi_def_cfa 7, 8
	ret
	.cfi_endproc
.LFE2643:
	.seh_endproc
	.align 2
	.globl	_ZN23CalculadorArrastoLinear11setProjetilE8Projetil
	.def	_ZN23CalculadorArrastoLinear11setProjetilE8Projetil;	.scl	2;	.type	32;	.endef
	.seh_proc	_ZN23CalculadorArrastoLinear11setProjetilE8Projetil
_ZN23CalculadorArrastoLinear11setProjetilE8Projetil:
.LFB2644:
	.loc 6 76 1
	.cfi_startproc
	pushq	%rbp
	.seh_pushreg	%rbp
	.cfi_def_cfa_offset 16
	.cfi_offset 6, -16
	pushq	%rbx
	.seh_pushreg	%rbx
	.cfi_def_cfa_offset 24
	.cfi_offset 3, -24
	subq	$248, %rsp
	.seh_stackalloc	248
	.cfi_def_cfa_offset 272
	leaq	128(%rsp), %rbp
	.seh_setframe	%rbp, 128
	.cfi_def_cfa 6, 144
	.seh_endprologue
	movq	%rcx, 144(%rbp)
	movq	%rdx, 152(%rbp)
	.loc 6 78 39
	movq	144(%rbp), %rbx
	movq	152(%rbp), %rdx
	leaq	-96(%rbp), %rax
	movq	%rax, %rcx
.LEHB7:
	call	_ZN8ProjetilC1ERKS_
.LEHE7:
	leaq	-96(%rbp), %rax
	movq	%rax, %rdx
	movq	%rbx, %rcx
.LEHB8:
	call	_ZN21CalculadorAtmosferico11setProjetilE8Projetil
.LEHE8:
	.loc 6 78 39 is_stmt 0 discriminator 2
	leaq	-96(%rbp), %rax
	movq	%rax, %rcx
	call	_ZN8ProjetilD1Ev
.LEHB9:
	.loc 6 79 60 is_stmt 1 discriminator 2
	call	_ZN15CoeficientesDAO11getInstanceEv
	movq	%rax, 104(%rbp)
	.loc 6 80 25 discriminator 2
	movq	152(%rbp), %rax
	movq	%rax, %rcx
	call	_ZN8Projetil7getTipoEv
	movl	%eax, %edx
	movq	104(%rbp), %rax
	movq	%rax, %rcx
	call	_ZN15CoeficientesDAO11setProjetilE13TIPO_PROJETIL
	.loc 6 81 29 discriminator 2
	movq	144(%rbp), %rax
	leaq	424(%rax), %rcx
	leaq	32(%rbp), %rax
	movq	104(%rbp), %rdx
	movq	%rcx, %r8
	movq	%rax, %rcx
	call	_ZN15CoeficientesDAO15geraCoeficienteER23CoeficienteAerodinamico
	leaq	32(%rbp), %rax
	movq	%rax, %rcx
	call	_ZN23CoeficienteAerodinamicoD1Ev
	.loc 6 82 40 discriminator 2
	movq	144(%rbp), %rax
	addq	$424, %rax
	movsd	.LC0(%rip), %xmm0
	movapd	%xmm0, %xmm1
	movq	%rax, %rcx
	call	_ZN23CoeficienteAerodinamico8getValorEd
	movq	%xmm0, %rdx
	.loc 6 82 15 discriminator 2
	movq	144(%rbp), %rax
	movq	%rdx, 488(%rax)
	.loc 6 83 1 discriminator 2
	jmp	.L32
.L31:
	movq	%rax, %rbx
	.loc 6 78 39
	leaq	-96(%rbp), %rax
	movq	%rax, %rcx
	call	_ZN8ProjetilD1Ev
	movq	%rbx, %rax
	movq	%rax, %rcx
	call	_Unwind_Resume
	nop
.LEHE9:
.L32:
	.loc 6 83 1
	addq	$248, %rsp
	popq	%rbx
	.cfi_restore 3
	popq	%rbp
	.cfi_restore 6
	.cfi_def_cfa 7, -232
	ret
	.cfi_endproc
.LFE2644:
	.seh_handler	__gxx_personality_seh0, @unwind, @except
	.seh_handlerdata
.LLSDA2644:
	.byte	0xff
	.byte	0xff
	.byte	0x1
	.uleb128 .LLSDACSE2644-.LLSDACSB2644
.LLSDACSB2644:
	.uleb128 .LEHB7-.LFB2644
	.uleb128 .LEHE7-.LEHB7
	.uleb128 0
	.uleb128 0
	.uleb128 .LEHB8-.LFB2644
	.uleb128 .LEHE8-.LEHB8
	.uleb128 .L31-.LFB2644
	.uleb128 0
	.uleb128 .LEHB9-.LFB2644
	.uleb128 .LEHE9-.LEHB9
	.uleb128 0
	.uleb128 0
.LLSDACSE2644:
	.text
	.seh_endproc
	.align 2
	.globl	_ZN23CalculadorArrastoLinear13solucaoDiretaEddddb4RAMO
	.def	_ZN23CalculadorArrastoLinear13solucaoDiretaEddddb4RAMO;	.scl	2;	.type	32;	.endef
	.seh_proc	_ZN23CalculadorArrastoLinear13solucaoDiretaEddddb4RAMO
_ZN23CalculadorArrastoLinear13solucaoDiretaEddddb4RAMO:
.LFB2645:
	.loc 6 86 1
	.cfi_startproc
	pushq	%rbp
	.seh_pushreg	%rbp
	.cfi_def_cfa_offset 16
	.cfi_offset 6, -16
	pushq	%rbx
	.seh_pushreg	%rbx
	.cfi_def_cfa_offset 24
	.cfi_offset 3, -24
	subq	$568, %rsp
	.seh_stackalloc	568
	.cfi_def_cfa_offset 592
	leaq	128(%rsp), %rbp
	.seh_setframe	%rbp, 128
	.cfi_def_cfa 6, 464
	movaps	%xmm6, 400(%rbp)
	.seh_savexmm	%xmm6, 528
	movaps	%xmm7, 416(%rbp)
	.seh_savexmm	%xmm7, 544
	.cfi_offset 23, -64
	.cfi_offset 24, -48
	.seh_endprologue
	movq	%rcx, 464(%rbp)
	movq	%rdx, 472(%rbp)
	movsd	%xmm2, 480(%rbp)
	movsd	%xmm3, 488(%rbp)
	movl	512(%rbp), %eax
	movb	%al, -36(%rbp)
	.loc 6 87 29
	movq	472(%rbp), %rax
	addq	$304, %rax
	movq	%rax, %rcx
	call	_ZNSt6vectorI12ElementosVooSaIS0_EE5clearEv
	.loc 6 88 8
	movq	472(%rbp), %rax
	pxor	%xmm0, %xmm0
	movsd	%xmm0, 328(%rax)
	.loc 6 88 17
	movq	472(%rbp), %rax
	pxor	%xmm0, %xmm0
	movsd	%xmm0, 336(%rax)
	.loc 6 88 27
	movq	472(%rbp), %rax
	pxor	%xmm0, %xmm0
	movsd	%xmm0, 344(%rax)
	.loc 6 89 23
	movsd	480(%rbp), %xmm1
	movsd	.LC5(%rip), %xmm0
	mulsd	%xmm1, %xmm0
	.loc 6 89 16
	movsd	.LC6(%rip), %xmm1
	divsd	%xmm1, %xmm0
	call	cos
	.loc 6 89 12
	mulsd	488(%rbp), %xmm0
	.loc 6 89 8
	movq	472(%rbp), %rax
	movsd	%xmm0, 352(%rax)
	.loc 6 89 73
	movsd	480(%rbp), %xmm1
	movsd	.LC5(%rip), %xmm0
	mulsd	%xmm1, %xmm0
	.loc 6 89 66
	movsd	.LC6(%rip), %xmm1
	divsd	%xmm1, %xmm0
	call	sin
	.loc 6 89 62
	mulsd	488(%rbp), %xmm0
	.loc 6 89 58
	movq	472(%rbp), %rax
	movsd	%xmm0, 360(%rax)
	.loc 6 89 108
	movq	472(%rbp), %rax
	pxor	%xmm0, %xmm0
	movsd	%xmm0, 368(%rax)
	.loc 6 90 11
	movq	472(%rbp), %rax
	pxor	%xmm0, %xmm0
	movsd	%xmm0, 376(%rax)
	.loc 6 91 25
	movq	472(%rbp), %rax
	movq	232(%rax), %rdx
	movq	472(%rbp), %rax
	movq	232(%rax), %rax
	.loc 6 91 47
	movq	(%rax), %rax
	addq	$24, %rax
	movq	(%rax), %rax
	.loc 6 91 45
	pxor	%xmm1, %xmm1
	movq	%rdx, %rcx
.LEHB10:
	call	*%rax
.LVL3:
	movq	%xmm0, %rdx
	.loc 6 91 23
	movq	472(%rbp), %rax
	movq	%rdx, 272(%rax)
	.loc 6 93 13
	movq	472(%rbp), %rax
	movb	$0, 392(%rax)
	.loc 6 94 20
	movq	472(%rbp), %rax
	movb	$0, 393(%rax)
	.loc 6 95 15
	movq	472(%rbp), %rax
	movb	$0, 394(%rax)
	.loc 6 97 16
	movq	472(%rbp), %rax
	pxor	%xmm0, %xmm0
	movsd	%xmm0, 400(%rax)
	.loc 6 98 16
	movq	472(%rbp), %rax
	pxor	%xmm0, %xmm0
	movsd	%xmm0, 408(%rax)
	.loc 6 100 12
	movsd	504(%rbp), %xmm0
	movsd	%xmm0, 168(%rbp)
	.loc 6 101 23
	movl	$0, 396(%rbp)
	.loc 6 102 47
	movq	472(%rbp), %rax
	movsd	504(%rbp), %xmm0
	movapd	%xmm0, %xmm1
	movq	%rax, %rcx
	call	_ZN10Calculador22intervaloEntreAmostrasEd
	movl	%eax, %edx
	.loc 6 102 23
	movq	472(%rbp), %rax
	movl	%edx, 72(%rax)
	.loc 6 104 43
	movq	472(%rbp), %rax
	movq	472(%rbp), %rdx
	movsd	80(%rdx), %xmm0
	movapd	%xmm0, %xmm1
	movq	%rax, %rcx
	call	_ZN10Calculador21calculaGravidadeLocalEd
	movq	%xmm0, %rdx
	.loc 6 104 20
	movq	472(%rbp), %rax
	movq	%rdx, 48(%rax)
	.loc 6 105 18
	leaq	64(%rbp), %rax
	movq	%rax, %rcx
	call	_ZN12ElementosVooC1Ev
.LEHE10:
	.loc 6 106 21
	movq	472(%rbp), %rax
	movsd	376(%rax), %xmm4
	movq	472(%rbp), %rax
	movsd	368(%rax), %xmm3
	movq	472(%rbp), %rax
	movsd	360(%rax), %xmm2
	movq	472(%rbp), %rax
	movsd	352(%rax), %xmm1
	movq	472(%rbp), %rax
	movsd	344(%rax), %xmm0
	movq	472(%rbp), %rax
	movsd	336(%rax), %xmm7
	movq	472(%rbp), %rax
	movsd	328(%rax), %xmm6
	movsd	480(%rbp), %xmm5
	leaq	64(%rbp), %rax
	movsd	%xmm4, 72(%rsp)
	pxor	%xmm4, %xmm4
	movsd	%xmm4, 64(%rsp)
	movsd	%xmm3, 56(%rsp)
	movsd	%xmm2, 48(%rsp)
	movsd	%xmm1, 40(%rsp)
	movsd	%xmm0, 32(%rsp)
	movapd	%xmm7, %xmm3
	movapd	%xmm6, %xmm2
	movapd	%xmm5, %xmm1
	movq	%rax, %rcx
.LEHB11:
	call	_ZN12ElementosVoo3setEddddddddd
	.loc 6 107 33
	movq	472(%rbp), %rax
	leaq	304(%rax), %rcx
	leaq	64(%rbp), %rax
	movq	%rax, %rdx
	call	_ZNSt6vectorI12ElementosVooSaIS0_EE9push_backERKS0_
	.loc 6 112 13
	movq	472(%rbp), %rax
	movsd	328(%rax), %xmm1
	movq	472(%rbp), %rax
	movsd	336(%rax), %xmm0
	movq	472(%rbp), %rax
	movsd	368(%rax), %xmm3
	movq	472(%rbp), %rax
	movsd	360(%rax), %xmm2
	movq	472(%rbp), %rax
	movsd	352(%rax), %xmm4
	movq	472(%rbp), %rax
	movsd	%xmm1, 40(%rsp)
	movsd	%xmm0, 32(%rsp)
	movapd	%xmm4, %xmm1
	movq	%rax, %rcx
	call	_ZN23CalculadorArrastoLinear3acxEddddd
	movq	%xmm0, %rax
	movq	%rax, 384(%rbp)
	.loc 6 113 13
	movq	472(%rbp), %rax
	movsd	336(%rax), %xmm0
	movq	472(%rbp), %rax
	movsd	368(%rax), %xmm3
	movq	472(%rbp), %rax
	movsd	360(%rax), %xmm2
	movq	472(%rbp), %rax
	movsd	352(%rax), %xmm1
	movq	472(%rbp), %rax
	movsd	%xmm0, 32(%rsp)
	movq	%rax, %rcx
	call	_ZN23CalculadorArrastoLinear3acyEdddd
	.loc 6 113 13 is_stmt 0 discriminator 1
	movq	%xmm0, %rax
	movq	%rax, 376(%rbp)
	.loc 6 114 13 is_stmt 1 discriminator 1
	movq	472(%rbp), %rax
	movsd	344(%rax), %xmm1
	movq	472(%rbp), %rax
	movsd	336(%rax), %xmm0
	movq	472(%rbp), %rax
	movsd	368(%rax), %xmm3
	movq	472(%rbp), %rax
	movsd	360(%rax), %xmm2
	movq	472(%rbp), %rax
	movsd	352(%rax), %xmm4
	movq	472(%rbp), %rax
	movsd	%xmm1, 40(%rsp)
	movsd	%xmm0, 32(%rsp)
	movapd	%xmm4, %xmm1
	movq	%rax, %rcx
	call	_ZN23CalculadorArrastoLinear3aczEddddd
	movq	%xmm0, %rax
	movq	%rax, 368(%rbp)
.L44:
.LBB10:
	.loc 6 189 17
	movq	472(%rbp), %rax
	movsd	328(%rax), %xmm1
	movq	472(%rbp), %rax
	movsd	336(%rax), %xmm0
	movq	472(%rbp), %rax
	movsd	368(%rax), %xmm3
	movq	472(%rbp), %rax
	movsd	360(%rax), %xmm2
	movq	472(%rbp), %rax
	movsd	352(%rax), %xmm4
	movq	472(%rbp), %rax
	movsd	%xmm1, 40(%rsp)
	movsd	%xmm0, 32(%rsp)
	movapd	%xmm4, %xmm1
	movq	%rax, %rcx
	call	_ZN23CalculadorArrastoLinear3acxEddddd
	movq	%xmm0, %rax
	movq	%rax, 360(%rbp)
	.loc 6 190 17
	movq	472(%rbp), %rax
	movsd	336(%rax), %xmm0
	movq	472(%rbp), %rax
	movsd	368(%rax), %xmm3
	movq	472(%rbp), %rax
	movsd	360(%rax), %xmm2
	movq	472(%rbp), %rax
	movsd	352(%rax), %xmm1
	movq	472(%rbp), %rax
	movsd	%xmm0, 32(%rsp)
	movq	%rax, %rcx
	call	_ZN23CalculadorArrastoLinear3acyEdddd
	.loc 6 190 17 is_stmt 0 discriminator 1
	movq	%xmm0, %rax
	movq	%rax, 352(%rbp)
	.loc 6 191 17 is_stmt 1 discriminator 1
	movq	472(%rbp), %rax
	movsd	344(%rax), %xmm1
	movq	472(%rbp), %rax
	movsd	336(%rax), %xmm0
	movq	472(%rbp), %rax
	movsd	368(%rax), %xmm3
	movq	472(%rbp), %rax
	movsd	360(%rax), %xmm2
	movq	472(%rbp), %rax
	movsd	352(%rax), %xmm4
	movq	472(%rbp), %rax
	movsd	%xmm1, 40(%rsp)
	movsd	%xmm0, 32(%rsp)
	movapd	%xmm4, %xmm1
	movq	%rax, %rcx
	call	_ZN23CalculadorArrastoLinear3aczEddddd
	movq	%xmm0, %rax
	movq	%rax, 344(%rbp)
	.loc 6 193 17 discriminator 1
	movq	472(%rbp), %rax
	movsd	328(%rax), %xmm1
	movq	472(%rbp), %rax
	movsd	336(%rax), %xmm0
	.loc 6 193 48 discriminator 1
	movq	472(%rbp), %rax
	movsd	368(%rax), %xmm3
	.loc 6 193 54 discriminator 1
	movsd	168(%rbp), %xmm4
	movsd	.LC3(%rip), %xmm2
	mulsd	%xmm4, %xmm2
	.loc 6 193 58 discriminator 1
	mulsd	344(%rbp), %xmm2
	.loc 6 193 17 discriminator 1
	movapd	%xmm3, %xmm6
	addsd	%xmm2, %xmm6
	.loc 6 193 33 discriminator 1
	movq	472(%rbp), %rax
	movsd	360(%rax), %xmm3
	.loc 6 193 39 discriminator 1
	movsd	168(%rbp), %xmm4
	movsd	.LC3(%rip), %xmm2
	mulsd	%xmm4, %xmm2
	.loc 6 193 43 discriminator 1
	mulsd	352(%rbp), %xmm2
	.loc 6 193 17 discriminator 1
	movapd	%xmm3, %xmm5
	addsd	%xmm2, %xmm5
	.loc 6 193 18 discriminator 1
	movq	472(%rbp), %rax
	movsd	352(%rax), %xmm3
	.loc 6 193 24 discriminator 1
	movsd	168(%rbp), %xmm4
	movsd	.LC3(%rip), %xmm2
	mulsd	%xmm4, %xmm2
	.loc 6 193 28 discriminator 1
	mulsd	360(%rbp), %xmm2
	.loc 6 193 17 discriminator 1
	movapd	%xmm3, %xmm4
	addsd	%xmm2, %xmm4
	movq	472(%rbp), %rax
	movsd	%xmm1, 40(%rsp)
	movsd	%xmm0, 32(%rsp)
	movapd	%xmm6, %xmm3
	movapd	%xmm5, %xmm2
	movapd	%xmm4, %xmm1
	movq	%rax, %rcx
	call	_ZN23CalculadorArrastoLinear3acxEddddd
	movq	%xmm0, %rax
	movq	%rax, 336(%rbp)
	.loc 6 194 17 discriminator 1
	movq	472(%rbp), %rax
	movsd	336(%rax), %xmm0
	.loc 6 194 48 discriminator 1
	movq	472(%rbp), %rax
	movsd	368(%rax), %xmm2
	.loc 6 194 54 discriminator 1
	movsd	168(%rbp), %xmm3
	movsd	.LC3(%rip), %xmm1
	mulsd	%xmm3, %xmm1
	.loc 6 194 58 discriminator 1
	mulsd	344(%rbp), %xmm1
	.loc 6 194 17 discriminator 1
	movapd	%xmm2, %xmm5
	addsd	%xmm1, %xmm5
	.loc 6 194 33 discriminator 1
	movq	472(%rbp), %rax
	movsd	360(%rax), %xmm2
	.loc 6 194 39 discriminator 1
	movsd	168(%rbp), %xmm3
	movsd	.LC3(%rip), %xmm1
	mulsd	%xmm3, %xmm1
	.loc 6 194 43 discriminator 1
	mulsd	352(%rbp), %xmm1
	.loc 6 194 17 discriminator 1
	movapd	%xmm2, %xmm4
	addsd	%xmm1, %xmm4
	.loc 6 194 18 discriminator 1
	movq	472(%rbp), %rax
	movsd	352(%rax), %xmm2
	.loc 6 194 24 discriminator 1
	movsd	168(%rbp), %xmm3
	movsd	.LC3(%rip), %xmm1
	mulsd	%xmm3, %xmm1
	.loc 6 194 28 discriminator 1
	mulsd	360(%rbp), %xmm1
	.loc 6 194 17 discriminator 1
	addsd	%xmm2, %xmm1
	movq	472(%rbp), %rax
	movsd	%xmm0, 32(%rsp)
	movapd	%xmm5, %xmm3
	movapd	%xmm4, %xmm2
	movq	%rax, %rcx
	call	_ZN23CalculadorArrastoLinear3acyEdddd
	movq	%xmm0, %rax
	movq	%rax, 328(%rbp)
	.loc 6 195 17 discriminator 1
	movq	472(%rbp), %rax
	movsd	344(%rax), %xmm1
	movq	472(%rbp), %rax
	movsd	336(%rax), %xmm0
	.loc 6 195 48 discriminator 1
	movq	472(%rbp), %rax
	movsd	368(%rax), %xmm3
	.loc 6 195 54 discriminator 1
	movsd	168(%rbp), %xmm4
	movsd	.LC3(%rip), %xmm2
	mulsd	%xmm4, %xmm2
	.loc 6 195 58 discriminator 1
	mulsd	344(%rbp), %xmm2
	.loc 6 195 17 discriminator 1
	movapd	%xmm3, %xmm6
	addsd	%xmm2, %xmm6
	.loc 6 195 33 discriminator 1
	movq	472(%rbp), %rax
	movsd	360(%rax), %xmm3
	.loc 6 195 39 discriminator 1
	movsd	168(%rbp), %xmm4
	movsd	.LC3(%rip), %xmm2
	mulsd	%xmm4, %xmm2
	.loc 6 195 43 discriminator 1
	mulsd	352(%rbp), %xmm2
	.loc 6 195 17 discriminator 1
	movapd	%xmm3, %xmm5
	addsd	%xmm2, %xmm5
	.loc 6 195 18 discriminator 1
	movq	472(%rbp), %rax
	movsd	352(%rax), %xmm3
	.loc 6 195 24 discriminator 1
	movsd	168(%rbp), %xmm4
	movsd	.LC3(%rip), %xmm2
	mulsd	%xmm4, %xmm2
	.loc 6 195 28 discriminator 1
	mulsd	360(%rbp), %xmm2
	.loc 6 195 17 discriminator 1
	movapd	%xmm3, %xmm4
	addsd	%xmm2, %xmm4
	movq	472(%rbp), %rax
	movsd	%xmm1, 40(%rsp)
	movsd	%xmm0, 32(%rsp)
	movapd	%xmm6, %xmm3
	movapd	%xmm5, %xmm2
	movapd	%xmm4, %xmm1
	movq	%rax, %rcx
	call	_ZN23CalculadorArrastoLinear3aczEddddd
	movq	%xmm0, %rax
	movq	%rax, 320(%rbp)
	.loc 6 197 17 discriminator 1
	movq	472(%rbp), %rax
	movsd	328(%rax), %xmm1
	movq	472(%rbp), %rax
	movsd	336(%rax), %xmm0
	.loc 6 197 48 discriminator 1
	movq	472(%rbp), %rax
	movsd	368(%rax), %xmm3
	.loc 6 197 54 discriminator 1
	movsd	168(%rbp), %xmm4
	movsd	.LC3(%rip), %xmm2
	mulsd	%xmm4, %xmm2
	.loc 6 197 58 discriminator 1
	mulsd	320(%rbp), %xmm2
	.loc 6 197 17 discriminator 1
	movapd	%xmm3, %xmm6
	addsd	%xmm2, %xmm6
	.loc 6 197 33 discriminator 1
	movq	472(%rbp), %rax
	movsd	360(%rax), %xmm3
	.loc 6 197 39 discriminator 1
	movsd	168(%rbp), %xmm4
	movsd	.LC3(%rip), %xmm2
	mulsd	%xmm4, %xmm2
	.loc 6 197 43 discriminator 1
	mulsd	328(%rbp), %xmm2
	.loc 6 197 17 discriminator 1
	movapd	%xmm3, %xmm5
	addsd	%xmm2, %xmm5
	.loc 6 197 18 discriminator 1
	movq	472(%rbp), %rax
	movsd	352(%rax), %xmm3
	.loc 6 197 24 discriminator 1
	movsd	168(%rbp), %xmm4
	movsd	.LC3(%rip), %xmm2
	mulsd	%xmm4, %xmm2
	.loc 6 197 28 discriminator 1
	mulsd	336(%rbp), %xmm2
	.loc 6 197 17 discriminator 1
	movapd	%xmm3, %xmm4
	addsd	%xmm2, %xmm4
	movq	472(%rbp), %rax
	movsd	%xmm1, 40(%rsp)
	movsd	%xmm0, 32(%rsp)
	movapd	%xmm6, %xmm3
	movapd	%xmm5, %xmm2
	movapd	%xmm4, %xmm1
	movq	%rax, %rcx
	call	_ZN23CalculadorArrastoLinear3acxEddddd
	movq	%xmm0, %rax
	movq	%rax, 312(%rbp)
	.loc 6 198 17 discriminator 1
	movq	472(%rbp), %rax
	movsd	336(%rax), %xmm0
	.loc 6 198 48 discriminator 1
	movq	472(%rbp), %rax
	movsd	368(%rax), %xmm2
	.loc 6 198 54 discriminator 1
	movsd	168(%rbp), %xmm3
	movsd	.LC3(%rip), %xmm1
	mulsd	%xmm3, %xmm1
	.loc 6 198 58 discriminator 1
	mulsd	320(%rbp), %xmm1
	.loc 6 198 17 discriminator 1
	movapd	%xmm2, %xmm5
	addsd	%xmm1, %xmm5
	.loc 6 198 33 discriminator 1
	movq	472(%rbp), %rax
	movsd	360(%rax), %xmm2
	.loc 6 198 39 discriminator 1
	movsd	168(%rbp), %xmm3
	movsd	.LC3(%rip), %xmm1
	mulsd	%xmm3, %xmm1
	.loc 6 198 43 discriminator 1
	mulsd	328(%rbp), %xmm1
	.loc 6 198 17 discriminator 1
	movapd	%xmm2, %xmm4
	addsd	%xmm1, %xmm4
	.loc 6 198 18 discriminator 1
	movq	472(%rbp), %rax
	movsd	352(%rax), %xmm2
	.loc 6 198 24 discriminator 1
	movsd	168(%rbp), %xmm3
	movsd	.LC3(%rip), %xmm1
	mulsd	%xmm3, %xmm1
	.loc 6 198 28 discriminator 1
	mulsd	336(%rbp), %xmm1
	.loc 6 198 17 discriminator 1
	addsd	%xmm2, %xmm1
	movq	472(%rbp), %rax
	movsd	%xmm0, 32(%rsp)
	movapd	%xmm5, %xmm3
	movapd	%xmm4, %xmm2
	movq	%rax, %rcx
	call	_ZN23CalculadorArrastoLinear3acyEdddd
	movq	%xmm0, %rax
	movq	%rax, 304(%rbp)
	.loc 6 199 17 discriminator 1
	movq	472(%rbp), %rax
	movsd	344(%rax), %xmm1
	movq	472(%rbp), %rax
	movsd	336(%rax), %xmm0
	.loc 6 199 48 discriminator 1
	movq	472(%rbp), %rax
	movsd	368(%rax), %xmm3
	.loc 6 199 54 discriminator 1
	movsd	168(%rbp), %xmm4
	movsd	.LC3(%rip), %xmm2
	mulsd	%xmm4, %xmm2
	.loc 6 199 58 discriminator 1
	mulsd	320(%rbp), %xmm2
	.loc 6 199 17 discriminator 1
	movapd	%xmm3, %xmm6
	addsd	%xmm2, %xmm6
	.loc 6 199 33 discriminator 1
	movq	472(%rbp), %rax
	movsd	360(%rax), %xmm3
	.loc 6 199 39 discriminator 1
	movsd	168(%rbp), %xmm4
	movsd	.LC3(%rip), %xmm2
	mulsd	%xmm4, %xmm2
	.loc 6 199 43 discriminator 1
	mulsd	328(%rbp), %xmm2
	.loc 6 199 17 discriminator 1
	movapd	%xmm3, %xmm5
	addsd	%xmm2, %xmm5
	.loc 6 199 18 discriminator 1
	movq	472(%rbp), %rax
	movsd	352(%rax), %xmm3
	.loc 6 199 24 discriminator 1
	movsd	168(%rbp), %xmm4
	movsd	.LC3(%rip), %xmm2
	mulsd	%xmm4, %xmm2
	.loc 6 199 28 discriminator 1
	mulsd	336(%rbp), %xmm2
	.loc 6 199 17 discriminator 1
	movapd	%xmm3, %xmm4
	addsd	%xmm2, %xmm4
	movq	472(%rbp), %rax
	movsd	%xmm1, 40(%rsp)
	movsd	%xmm0, 32(%rsp)
	movapd	%xmm6, %xmm3
	movapd	%xmm5, %xmm2
	movapd	%xmm4, %xmm1
	movq	%rax, %rcx
	call	_ZN23CalculadorArrastoLinear3aczEddddd
	movq	%xmm0, %rax
	movq	%rax, 296(%rbp)
	.loc 6 201 17 discriminator 1
	movq	472(%rbp), %rax
	movsd	328(%rax), %xmm1
	movq	472(%rbp), %rax
	movsd	336(%rax), %xmm0
	.loc 6 201 40 discriminator 1
	movq	472(%rbp), %rax
	movsd	368(%rax), %xmm3
	.loc 6 201 46 discriminator 1
	movsd	168(%rbp), %xmm2
	mulsd	296(%rbp), %xmm2
	.loc 6 201 17 discriminator 1
	movapd	%xmm3, %xmm6
	addsd	%xmm2, %xmm6
	.loc 6 201 29 discriminator 1
	movq	472(%rbp), %rax
	movsd	360(%rax), %xmm3
	.loc 6 201 35 discriminator 1
	movsd	168(%rbp), %xmm2
	mulsd	304(%rbp), %xmm2
	.loc 6 201 17 discriminator 1
	movapd	%xmm3, %xmm5
	addsd	%xmm2, %xmm5
	.loc 6 201 18 discriminator 1
	movq	472(%rbp), %rax
	movsd	352(%rax), %xmm3
	.loc 6 201 24 discriminator 1
	movsd	168(%rbp), %xmm2
	mulsd	312(%rbp), %xmm2
	.loc 6 201 17 discriminator 1
	movapd	%xmm3, %xmm4
	addsd	%xmm2, %xmm4
	movq	472(%rbp), %rax
	movsd	%xmm1, 40(%rsp)
	movsd	%xmm0, 32(%rsp)
	movapd	%xmm6, %xmm3
	movapd	%xmm5, %xmm2
	movapd	%xmm4, %xmm1
	movq	%rax, %rcx
	call	_ZN23CalculadorArrastoLinear3acxEddddd
	movq	%xmm0, %rax
	movq	%rax, 288(%rbp)
	.loc 6 202 17 discriminator 1
	movq	472(%rbp), %rax
	movsd	336(%rax), %xmm0
	.loc 6 202 40 discriminator 1
	movq	472(%rbp), %rax
	movsd	368(%rax), %xmm2
	.loc 6 202 46 discriminator 1
	movsd	168(%rbp), %xmm1
	mulsd	296(%rbp), %xmm1
	.loc 6 202 17 discriminator 1
	movapd	%xmm2, %xmm3
	addsd	%xmm1, %xmm3
	.loc 6 202 29 discriminator 1
	movq	472(%rbp), %rax
	movsd	360(%rax), %xmm2
	.loc 6 202 35 discriminator 1
	movsd	168(%rbp), %xmm1
	mulsd	304(%rbp), %xmm1
	.loc 6 202 17 discriminator 1
	movapd	%xmm2, %xmm4
	addsd	%xmm1, %xmm4
	.loc 6 202 18 discriminator 1
	movq	472(%rbp), %rax
	movsd	352(%rax), %xmm2
	.loc 6 202 24 discriminator 1
	movsd	168(%rbp), %xmm1
	mulsd	312(%rbp), %xmm1
	.loc 6 202 17 discriminator 1
	addsd	%xmm2, %xmm1
	movq	472(%rbp), %rax
	movsd	%xmm0, 32(%rsp)
	movapd	%xmm4, %xmm2
	movq	%rax, %rcx
	call	_ZN23CalculadorArrastoLinear3acyEdddd
	movq	%xmm0, %rax
	movq	%rax, 280(%rbp)
	.loc 6 203 17 discriminator 1
	movq	472(%rbp), %rax
	movsd	344(%rax), %xmm1
	movq	472(%rbp), %rax
	movsd	336(%rax), %xmm0
	.loc 6 203 40 discriminator 1
	movq	472(%rbp), %rax
	movsd	368(%rax), %xmm3
	.loc 6 203 46 discriminator 1
	movsd	168(%rbp), %xmm2
	mulsd	296(%rbp), %xmm2
	.loc 6 203 17 discriminator 1
	movapd	%xmm3, %xmm6
	addsd	%xmm2, %xmm6
	.loc 6 203 29 discriminator 1
	movq	472(%rbp), %rax
	movsd	360(%rax), %xmm3
	.loc 6 203 35 discriminator 1
	movsd	168(%rbp), %xmm2
	mulsd	304(%rbp), %xmm2
	.loc 6 203 17 discriminator 1
	movapd	%xmm3, %xmm5
	addsd	%xmm2, %xmm5
	.loc 6 203 18 discriminator 1
	movq	472(%rbp), %rax
	movsd	352(%rax), %xmm3
	.loc 6 203 24 discriminator 1
	movsd	168(%rbp), %xmm2
	mulsd	312(%rbp), %xmm2
	.loc 6 203 17 discriminator 1
	movapd	%xmm3, %xmm4
	addsd	%xmm2, %xmm4
	movq	472(%rbp), %rax
	movsd	%xmm1, 40(%rsp)
	movsd	%xmm0, 32(%rsp)
	movapd	%xmm6, %xmm3
	movapd	%xmm5, %xmm2
	movapd	%xmm4, %xmm1
	movq	%rax, %rcx
	call	_ZN23CalculadorArrastoLinear3aczEddddd
	movq	%xmm0, %rax
	movq	%rax, 272(%rbp)
	.loc 6 205 15 discriminator 1
	movsd	168(%rbp), %xmm0
	movsd	.LC7(%rip), %xmm1
	divsd	%xmm1, %xmm0
	movapd	%xmm0, %xmm1
	.loc 6 205 25 discriminator 1
	movsd	336(%rbp), %xmm0
	addsd	%xmm0, %xmm0
	.loc 6 205 22 discriminator 1
	movapd	%xmm0, %xmm2
	addsd	360(%rbp), %xmm2
	.loc 6 205 32 discriminator 1
	movsd	312(%rbp), %xmm0
	addsd	%xmm0, %xmm0
	.loc 6 205 29 discriminator 1
	addsd	%xmm2, %xmm0
	.loc 6 205 36 discriminator 1
	addsd	288(%rbp), %xmm0
	.loc 6 205 12 discriminator 1
	mulsd	%xmm1, %xmm0
	movsd	%xmm0, 384(%rbp)
	.loc 6 206 15 discriminator 1
	movsd	168(%rbp), %xmm0
	movsd	.LC7(%rip), %xmm1
	divsd	%xmm1, %xmm0
	movapd	%xmm0, %xmm1
	.loc 6 206 25 discriminator 1
	movsd	328(%rbp), %xmm0
	addsd	%xmm0, %xmm0
	.loc 6 206 22 discriminator 1
	movapd	%xmm0, %xmm2
	addsd	352(%rbp), %xmm2
	.loc 6 206 32 discriminator 1
	movsd	304(%rbp), %xmm0
	addsd	%xmm0, %xmm0
	.loc 6 206 29 discriminator 1
	addsd	%xmm2, %xmm0
	.loc 6 206 36 discriminator 1
	addsd	280(%rbp), %xmm0
	.loc 6 206 12 discriminator 1
	mulsd	%xmm1, %xmm0
	movsd	%xmm0, 376(%rbp)
	.loc 6 207 15 discriminator 1
	movsd	168(%rbp), %xmm0
	movsd	.LC7(%rip), %xmm1
	divsd	%xmm1, %xmm0
	movapd	%xmm0, %xmm1
	.loc 6 207 25 discriminator 1
	movsd	320(%rbp), %xmm0
	addsd	%xmm0, %xmm0
	.loc 6 207 22 discriminator 1
	movapd	%xmm0, %xmm2
	addsd	344(%rbp), %xmm2
	.loc 6 207 32 discriminator 1
	movsd	296(%rbp), %xmm0
	addsd	%xmm0, %xmm0
	.loc 6 207 29 discriminator 1
	addsd	%xmm2, %xmm0
	.loc 6 207 36 discriminator 1
	addsd	272(%rbp), %xmm0
	.loc 6 207 12 discriminator 1
	mulsd	%xmm1, %xmm0
	movsd	%xmm0, 368(%rbp)
	.loc 6 213 14 discriminator 1
	movq	472(%rbp), %rax
	movsd	352(%rax), %xmm0
	movsd	%xmm0, 264(%rbp)
	.loc 6 214 16 discriminator 1
	movq	472(%rbp), %rax
	movsd	352(%rax), %xmm1
	.loc 6 214 23 discriminator 1
	movsd	168(%rbp), %xmm0
	mulsd	360(%rbp), %xmm0
	.loc 6 214 25 discriminator 1
	movsd	.LC8(%rip), %xmm2
	divsd	%xmm2, %xmm0
	.loc 6 214 14 discriminator 1
	addsd	%xmm1, %xmm0
	movsd	%xmm0, 256(%rbp)
	.loc 6 215 16 discriminator 1
	movq	472(%rbp), %rax
	movsd	352(%rax), %xmm1
	.loc 6 215 23 discriminator 1
	movsd	168(%rbp), %xmm0
	mulsd	336(%rbp), %xmm0
	.loc 6 215 25 discriminator 1
	movsd	.LC8(%rip), %xmm2
	divsd	%xmm2, %xmm0
	.loc 6 215 14 discriminator 1
	addsd	%xmm1, %xmm0
	movsd	%xmm0, 248(%rbp)
	.loc 6 216 16 discriminator 1
	movq	472(%rbp), %rax
	movsd	352(%rax), %xmm1
	.loc 6 216 23 discriminator 1
	movsd	168(%rbp), %xmm0
	mulsd	312(%rbp), %xmm0
	.loc 6 216 14 discriminator 1
	addsd	%xmm1, %xmm0
	movsd	%xmm0, 240(%rbp)
	.loc 6 217 12 discriminator 1
	movq	472(%rbp), %rax
	movsd	328(%rax), %xmm1
	.loc 6 217 24 discriminator 1
	movsd	256(%rbp), %xmm0
	addsd	%xmm0, %xmm0
	.loc 6 217 21 discriminator 1
	movapd	%xmm0, %xmm2
	addsd	264(%rbp), %xmm2
	.loc 6 217 33 discriminator 1
	movsd	248(%rbp), %xmm0
	addsd	%xmm0, %xmm0
	.loc 6 217 30 discriminator 1
	addsd	%xmm2, %xmm0
	.loc 6 217 39 discriminator 1
	movapd	%xmm0, %xmm2
	addsd	240(%rbp), %xmm2
	.loc 6 217 49 discriminator 1
	movsd	168(%rbp), %xmm0
	movsd	.LC7(%rip), %xmm3
	divsd	%xmm3, %xmm0
	.loc 6 217 46 discriminator 1
	mulsd	%xmm2, %xmm0
	.loc 6 217 12 discriminator 1
	addsd	%xmm1, %xmm0
	movq	472(%rbp), %rax
	movsd	%xmm0, 328(%rax)
	.loc 6 220 14 discriminator 1
	movq	472(%rbp), %rax
	movsd	360(%rax), %xmm0
	movsd	%xmm0, 232(%rbp)
	.loc 6 221 16 discriminator 1
	movq	472(%rbp), %rax
	movsd	360(%rax), %xmm1
	.loc 6 221 23 discriminator 1
	movsd	168(%rbp), %xmm0
	mulsd	352(%rbp), %xmm0
	.loc 6 221 25 discriminator 1
	movsd	.LC8(%rip), %xmm2
	divsd	%xmm2, %xmm0
	.loc 6 221 14 discriminator 1
	addsd	%xmm1, %xmm0
	movsd	%xmm0, 224(%rbp)
	.loc 6 222 16 discriminator 1
	movq	472(%rbp), %rax
	movsd	360(%rax), %xmm1
	.loc 6 222 23 discriminator 1
	movsd	168(%rbp), %xmm0
	mulsd	328(%rbp), %xmm0
	.loc 6 222 25 discriminator 1
	movsd	.LC8(%rip), %xmm2
	divsd	%xmm2, %xmm0
	.loc 6 222 14 discriminator 1
	addsd	%xmm1, %xmm0
	movsd	%xmm0, 216(%rbp)
	.loc 6 223 16 discriminator 1
	movq	472(%rbp), %rax
	movsd	360(%rax), %xmm1
	.loc 6 223 23 discriminator 1
	movsd	168(%rbp), %xmm0
	mulsd	304(%rbp), %xmm0
	.loc 6 223 14 discriminator 1
	addsd	%xmm1, %xmm0
	movsd	%xmm0, 208(%rbp)
	.loc 6 224 12 discriminator 1
	movq	472(%rbp), %rax
	movsd	336(%rax), %xmm1
	.loc 6 224 24 discriminator 1
	movsd	224(%rbp), %xmm0
	addsd	%xmm0, %xmm0
	.loc 6 224 21 discriminator 1
	movapd	%xmm0, %xmm2
	addsd	232(%rbp), %xmm2
	.loc 6 224 33 discriminator 1
	movsd	216(%rbp), %xmm0
	addsd	%xmm0, %xmm0
	.loc 6 224 30 discriminator 1
	addsd	%xmm2, %xmm0
	.loc 6 224 39 discriminator 1
	movapd	%xmm0, %xmm2
	addsd	208(%rbp), %xmm2
	.loc 6 224 49 discriminator 1
	movsd	168(%rbp), %xmm0
	movsd	.LC7(%rip), %xmm3
	divsd	%xmm3, %xmm0
	.loc 6 224 46 discriminator 1
	mulsd	%xmm2, %xmm0
	.loc 6 224 12 discriminator 1
	addsd	%xmm1, %xmm0
	movq	472(%rbp), %rax
	movsd	%xmm0, 336(%rax)
	.loc 6 227 14 discriminator 1
	movq	472(%rbp), %rax
	movsd	368(%rax), %xmm0
	movsd	%xmm0, 200(%rbp)
	.loc 6 228 16 discriminator 1
	movq	472(%rbp), %rax
	movsd	368(%rax), %xmm1
	.loc 6 228 23 discriminator 1
	movsd	168(%rbp), %xmm0
	mulsd	344(%rbp), %xmm0
	.loc 6 228 25 discriminator 1
	movsd	.LC8(%rip), %xmm2
	divsd	%xmm2, %xmm0
	.loc 6 228 14 discriminator 1
	addsd	%xmm1, %xmm0
	movsd	%xmm0, 192(%rbp)
	.loc 6 229 16 discriminator 1
	movq	472(%rbp), %rax
	movsd	368(%rax), %xmm1
	.loc 6 229 23 discriminator 1
	movsd	168(%rbp), %xmm0
	mulsd	320(%rbp), %xmm0
	.loc 6 229 25 discriminator 1
	movsd	.LC8(%rip), %xmm2
	divsd	%xmm2, %xmm0
	.loc 6 229 14 discriminator 1
	addsd	%xmm1, %xmm0
	movsd	%xmm0, 184(%rbp)
	.loc 6 230 16 discriminator 1
	movq	472(%rbp), %rax
	movsd	368(%rax), %xmm1
	.loc 6 230 23 discriminator 1
	movsd	168(%rbp), %xmm0
	mulsd	296(%rbp), %xmm0
	.loc 6 230 14 discriminator 1
	addsd	%xmm1, %xmm0
	movsd	%xmm0, 176(%rbp)
	.loc 6 231 12 discriminator 1
	movq	472(%rbp), %rax
	movsd	344(%rax), %xmm1
	.loc 6 231 24 discriminator 1
	movsd	192(%rbp), %xmm0
	addsd	%xmm0, %xmm0
	.loc 6 231 21 discriminator 1
	movapd	%xmm0, %xmm2
	addsd	200(%rbp), %xmm2
	.loc 6 231 33 discriminator 1
	movsd	184(%rbp), %xmm0
	addsd	%xmm0, %xmm0
	.loc 6 231 30 discriminator 1
	addsd	%xmm2, %xmm0
	.loc 6 231 39 discriminator 1
	movapd	%xmm0, %xmm2
	addsd	176(%rbp), %xmm2
	.loc 6 231 49 discriminator 1
	movsd	168(%rbp), %xmm0
	movsd	.LC7(%rip), %xmm3
	divsd	%xmm3, %xmm0
	.loc 6 231 46 discriminator 1
	mulsd	%xmm2, %xmm0
	.loc 6 231 12 discriminator 1
	addsd	%xmm1, %xmm0
	movq	472(%rbp), %rax
	movsd	%xmm0, 344(%rax)
	.loc 6 233 22 discriminator 1
	movq	472(%rbp), %rax
	movsd	336(%rax), %xmm1
	.loc 6 233 28 discriminator 1
	movq	472(%rbp), %rax
	movsd	328(%rax), %xmm2
	.loc 6 233 31 discriminator 1
	movq	472(%rbp), %rax
	movsd	328(%rax), %xmm0
	.loc 6 233 30 discriminator 1
	mulsd	%xmm0, %xmm2
	.loc 6 233 36 discriminator 1
	movq	472(%rbp), %rax
	movsd	344(%rax), %xmm3
	.loc 6 233 39 discriminator 1
	movq	472(%rbp), %rax
	movsd	344(%rax), %xmm0
	.loc 6 233 38 discriminator 1
	mulsd	%xmm3, %xmm0
	.loc 6 233 34 discriminator 1
	addsd	%xmm2, %xmm0
	.loc 6 233 42 discriminator 1
	movsd	.LC9(%rip), %xmm2
	divsd	%xmm2, %xmm0
	.loc 6 233 25 discriminator 1
	addsd	%xmm1, %xmm0
	.loc 6 233 20 discriminator 1
	movq	472(%rbp), %rax
	movsd	%xmm0, 400(%rax)
	.loc 6 235 12 discriminator 1
	movq	472(%rbp), %rax
	movsd	352(%rax), %xmm0
	addsd	384(%rbp), %xmm0
	movq	472(%rbp), %rax
	movsd	%xmm0, 352(%rax)
	.loc 6 236 12 discriminator 1
	movq	472(%rbp), %rax
	movsd	360(%rax), %xmm0
	addsd	376(%rbp), %xmm0
	movq	472(%rbp), %rax
	movsd	%xmm0, 360(%rax)
	.loc 6 237 12 discriminator 1
	movq	472(%rbp), %rax
	movsd	368(%rax), %xmm0
	addsd	368(%rbp), %xmm0
	movq	472(%rbp), %rax
	movsd	%xmm0, 368(%rax)
	.loc 6 239 15 discriminator 1
	movq	472(%rbp), %rax
	movsd	376(%rax), %xmm1
	movsd	168(%rbp), %xmm0
	addsd	%xmm1, %xmm0
	movq	472(%rbp), %rax
	movsd	%xmm0, 376(%rax)
	.loc 6 240 12 discriminator 1
	movq	472(%rbp), %rax
	movsd	360(%rax), %xmm1
	.loc 6 240 9 discriminator 1
	pxor	%xmm0, %xmm0
	comisd	%xmm1, %xmm0
	jbe	.L34
	.loc 6 240 23 discriminator 1
	movq	472(%rbp), %rax
	movzbl	392(%rax), %eax
	.loc 6 240 22 discriminator 1
	xorl	$1, %eax
	.loc 6 240 19 discriminator 1
	testb	%al, %al
	je	.L34
	.loc 6 241 19
	movq	472(%rbp), %rax
	movb	$1, 392(%rax)
.L34:
	.loc 6 245 11
	movq	472(%rbp), %rax
	movsd	400(%rax), %xmm0
	.loc 6 245 24
	movq	472(%rbp), %rax
	movsd	408(%rax), %xmm1
	.loc 6 245 8
	comisd	%xmm1, %xmm0
	jbe	.L36
	.loc 6 245 49 discriminator 1
	movq	472(%rbp), %rax
	movsd	400(%rax), %xmm0
	.loc 6 245 47 discriminator 1
	movq	472(%rbp), %rax
	movsd	%xmm0, 408(%rax)
.L36:
.LBB11:
	.loc 6 249 8
	cmpb	$0, -36(%rbp)
	jne	.L38
	.loc 6 249 47 discriminator 1
	movq	472(%rbp), %rax
	movzbl	393(%rax), %eax
	.loc 6 249 44 discriminator 1
	testb	%al, %al
	je	.L39
.L38:
.LBB12:
	.loc 6 251 25
	leaq	-32(%rbp), %rax
	movq	%rax, %rcx
	call	_ZN12ElementosVooC1Ev
.LEHE11:
	.loc 6 252 24
	movq	472(%rbp), %rax
	movl	72(%rax), %eax
	movl	%eax, %ecx
	.loc 6 252 23
	movl	396(%rbp), %eax
	movl	$0, %edx
	divl	%ecx
	movl	%edx, %eax
	.loc 6 252 12
	testl	%eax, %eax
	je	.L40
	.loc 6 252 50 discriminator 1
	movq	472(%rbp), %rax
	movzbl	393(%rax), %eax
	.loc 6 252 47 discriminator 1
	testb	%al, %al
	je	.L41
.L40:
	.loc 6 254 32
	movq	472(%rbp), %rax
	movsd	376(%rax), %xmm4
	movq	472(%rbp), %rax
	movsd	368(%rax), %xmm3
	movq	472(%rbp), %rax
	movsd	360(%rax), %xmm2
	movq	472(%rbp), %rax
	movsd	352(%rax), %xmm1
	movq	472(%rbp), %rax
	movsd	344(%rax), %xmm0
	movq	472(%rbp), %rax
	movsd	400(%rax), %xmm7
	movq	472(%rbp), %rax
	movsd	328(%rax), %xmm6
	movsd	480(%rbp), %xmm5
	leaq	-32(%rbp), %rax
	movsd	%xmm4, 72(%rsp)
	pxor	%xmm4, %xmm4
	movsd	%xmm4, 64(%rsp)
	movsd	%xmm3, 56(%rsp)
	movsd	%xmm2, 48(%rsp)
	movsd	%xmm1, 40(%rsp)
	movsd	%xmm0, 32(%rsp)
	movapd	%xmm7, %xmm3
	movapd	%xmm6, %xmm2
	movapd	%xmm5, %xmm1
	movq	%rax, %rcx
.LEHB12:
	call	_ZN12ElementosVoo3setEddddddddd
	.loc 6 255 19
	movq	472(%rbp), %rax
	movzbl	393(%rax), %eax
	.loc 6 255 16
	testb	%al, %al
	je	.L42
	.loc 6 257 30
	movq	472(%rbp), %rax
	movb	$1, 394(%rax)
	.loc 6 258 45
	movq	472(%rbp), %rax
	movsd	408(%rax), %xmm0
	leaq	-32(%rbp), %rax
	movapd	%xmm0, %xmm1
	movq	%rax, %rcx
	call	_ZN12ElementosVoo12setAlturaMaxEd
.L42:
	.loc 6 260 44
	movq	472(%rbp), %rax
	leaq	304(%rax), %rcx
	leaq	-32(%rbp), %rax
	movq	%rax, %rdx
	call	_ZNSt6vectorI12ElementosVooSaIS0_EE9push_backERKS0_
.LEHE12:
.L41:
	.loc 6 262 20
	addl	$1, 396(%rbp)
	.loc 6 251 25
	leaq	-32(%rbp), %rax
	movq	%rax, %rcx
	call	_ZN12ElementosVooD1Ev
.L39:
.LBE12:
.LBE11:
	.loc 6 266 29
	movq	472(%rbp), %rdx
	movzbl	-36(%rbp), %ecx
	movsd	496(%rbp), %xmm1
	movsd	480(%rbp), %xmm0
	movl	520(%rbp), %eax
	movl	%eax, 40(%rsp)
	leaq	168(%rbp), %rax
	movq	%rax, 32(%rsp)
	movl	%ecx, %r9d
	movapd	%xmm1, %xmm2
	movapd	%xmm0, %xmm1
	movq	%rdx, %rcx
.LEHB13:
	call	_ZN21CalculadorAtmosferico21checaCondicaoDeParadaEddbRd4RAMO
.LBE10:
	.loc 6 268 14
	movq	472(%rbp), %rax
	movzbl	394(%rax), %eax
	.loc 6 268 13
	testb	%al, %al
	jne	.L43
	.loc 6 115 5
	jmp	.L44
.L43:
	.loc 6 270 12
	movq	472(%rbp), %rax
	addq	$304, %rax
	movq	%rax, %rdx
	movq	464(%rbp), %rcx
	call	_ZNSt6vectorI12ElementosVooSaIS0_EEC1ERKS2_
.LEHE13:
	nop
	.loc 6 105 18
	leaq	64(%rbp), %rax
	movq	%rax, %rcx
	call	_ZN12ElementosVooD1Ev
	.loc 6 270 12
	jmp	.L52
.L49:
	movq	%rax, %rbx
.LBB15:
.LBB14:
.LBB13:
	.loc 6 251 25
	leaq	-32(%rbp), %rax
	movq	%rax, %rcx
	call	_ZN12ElementosVooD1Ev
	jmp	.L47
.L48:
	movq	%rax, %rbx
.L47:
.LBE13:
.LBE14:
.LBE15:
	.loc 6 105 18
	leaq	64(%rbp), %rax
	movq	%rax, %rcx
	call	_ZN12ElementosVooD1Ev
	movq	%rbx, %rax
	movq	%rax, %rcx
.LEHB14:
	call	_Unwind_Resume
.LEHE14:
.L52:
	.loc 6 271 1
	movq	464(%rbp), %rax
	movaps	400(%rbp), %xmm6
	movaps	416(%rbp), %xmm7
	addq	$568, %rsp
	.cfi_restore 24
	.cfi_restore 23
	popq	%rbx
	.cfi_restore 3
	popq	%rbp
	.cfi_restore 6
	.cfi_def_cfa 7, -552
	ret
	.cfi_endproc
.LFE2645:
	.seh_handler	__gxx_personality_seh0, @unwind, @except
	.seh_handlerdata
.LLSDA2645:
	.byte	0xff
	.byte	0xff
	.byte	0x1
	.uleb128 .LLSDACSE2645-.LLSDACSB2645
.LLSDACSB2645:
	.uleb128 .LEHB10-.LFB2645
	.uleb128 .LEHE10-.LEHB10
	.uleb128 0
	.uleb128 0
	.uleb128 .LEHB11-.LFB2645
	.uleb128 .LEHE11-.LEHB11
	.uleb128 .L48-.LFB2645
	.uleb128 0
	.uleb128 .LEHB12-.LFB2645
	.uleb128 .LEHE12-.LEHB12
	.uleb128 .L49-.LFB2645
	.uleb128 0
	.uleb128 .LEHB13-.LFB2645
	.uleb128 .LEHE13-.LEHB13
	.uleb128 .L48-.LFB2645
	.uleb128 0
	.uleb128 .LEHB14-.LFB2645
	.uleb128 .LEHE14-.LEHB14
	.uleb128 0
	.uleb128 0
.LLSDACSE2645:
	.text
	.seh_endproc
	.section	.text$_ZNSt6vectorI12ElementosVooSaIS0_EED1Ev,"x"
	.linkonce discard
	.align 2
	.globl	_ZNSt6vectorI12ElementosVooSaIS0_EED1Ev
	.def	_ZNSt6vectorI12ElementosVooSaIS0_EED1Ev;	.scl	2;	.type	32;	.endef
	.seh_proc	_ZNSt6vectorI12ElementosVooSaIS0_EED1Ev
_ZNSt6vectorI12ElementosVooSaIS0_EED1Ev:
.LFB2868:
	.file 7 "C:/Program Files/CodeBlocks/MinGW/lib/gcc/x86_64-w64-mingw32/8.1.0/include/c++/bits/stl_vector.h"
	.loc 7 565 7
	.cfi_startproc
	pushq	%rbp
	.seh_pushreg	%rbp
	.cfi_def_cfa_offset 16
	.cfi_offset 6, -16
	movq	%rsp, %rbp
	.seh_setframe	%rbp, 0
	.cfi_def_cfa_register 6
	subq	$32, %rsp
	.seh_stackalloc	32
	.seh_endprologue
	movq	%rcx, 16(%rbp)
.LBB16:
	.loc 7 568 28
	movq	16(%rbp), %rax
	movq	%rax, %rcx
	call	_ZNSt12_Vector_baseI12ElementosVooSaIS0_EE19_M_get_Tp_allocatorEv
	movq	%rax, %rcx
	.loc 7 567 15
	movq	16(%rbp), %rax
	movq	8(%rax), %rdx
	movq	16(%rbp), %rax
	movq	(%rax), %rax
	movq	%rcx, %r8
	movq	%rax, %rcx
	call	_ZSt8_DestroyIP12ElementosVooS0_EvT_S2_RSaIT0_E
	.loc 7 570 7
	movq	16(%rbp), %rax
	movq	%rax, %rcx
	call	_ZNSt12_Vector_baseI12ElementosVooSaIS0_EED2Ev
.LBE16:
	nop
	addq	$32, %rsp
	popq	%rbp
	.cfi_restore 6
	.cfi_def_cfa 7, 8
	ret
	.cfi_endproc
.LFE2868:
	.seh_handler	__gxx_personality_seh0, @unwind, @except
	.seh_handlerdata
.LLSDA2868:
	.byte	0xff
	.byte	0xff
	.byte	0x1
	.uleb128 .LLSDACSE2868-.LLSDACSB2868
.LLSDACSB2868:
.LLSDACSE2868:
	.section	.text$_ZNSt6vectorI12ElementosVooSaIS0_EED1Ev,"x"
	.linkonce discard
	.seh_endproc
	.section	.text$_ZNSt6vectorI12ElementosVooSaIS0_EE5clearEv,"x"
	.linkonce discard
	.align 2
	.globl	_ZNSt6vectorI12ElementosVooSaIS0_EE5clearEv
	.def	_ZNSt6vectorI12ElementosVooSaIS0_EE5clearEv;	.scl	2;	.type	32;	.endef
	.seh_proc	_ZNSt6vectorI12ElementosVooSaIS0_EE5clearEv
_ZNSt6vectorI12ElementosVooSaIS0_EE5clearEv:
.LFB2869:
	.loc 7 1385 7
	.cfi_startproc
	pushq	%rbp
	.seh_pushreg	%rbp
	.cfi_def_cfa_offset 16
	.cfi_offset 6, -16
	movq	%rsp, %rbp
	.seh_setframe	%rbp, 0
	.cfi_def_cfa_register 6
	subq	$32, %rsp
	.seh_stackalloc	32
	.seh_endprologue
	movq	%rcx, 16(%rbp)
	.loc 7 1386 9
	movq	16(%rbp), %rax
	movq	(%rax), %rax
	movq	%rax, %rdx
	movq	16(%rbp), %rcx
	call	_ZNSt6vectorI12ElementosVooSaIS0_EE15_M_erase_at_endEPS0_
	.loc 7 1386 50
	nop
	addq	$32, %rsp
	popq	%rbp
	.cfi_restore 6
	.cfi_def_cfa 7, 8
	ret
	.cfi_endproc
.LFE2869:
	.seh_endproc
	.section	.text$_ZNSt6vectorI12ElementosVooSaIS0_EE9push_backERKS0_,"x"
	.linkonce discard
	.align 2
	.globl	_ZNSt6vectorI12ElementosVooSaIS0_EE9push_backERKS0_
	.def	_ZNSt6vectorI12ElementosVooSaIS0_EE9push_backERKS0_;	.scl	2;	.type	32;	.endef
	.seh_proc	_ZNSt6vectorI12ElementosVooSaIS0_EE9push_backERKS0_
_ZNSt6vectorI12ElementosVooSaIS0_EE9push_backERKS0_:
.LFB2870:
	.loc 7 1074 7
	.cfi_startproc
	pushq	%rbp
	.seh_pushreg	%rbp
	.cfi_def_cfa_offset 16
	.cfi_offset 6, -16
	movq	%rsp, %rbp
	.seh_setframe	%rbp, 0
	.cfi_def_cfa_register 6
	subq	$32, %rsp
	.seh_stackalloc	32
	.seh_endprologue
	movq	%rcx, 16(%rbp)
	movq	%rdx, 24(%rbp)
	.loc 7 1076 20
	movq	16(%rbp), %rax
	movq	8(%rax), %rdx
	.loc 7 1076 47
	movq	16(%rbp), %rax
	movq	16(%rax), %rax
	.loc 7 1076 2
	cmpq	%rax, %rdx
	je	.L56
	.loc 7 1079 30
	movq	16(%rbp), %rax
	movq	8(%rax), %rdx
	.loc 7 1079 37
	movq	16(%rbp), %rax
	.loc 7 1079 30
	movq	24(%rbp), %rcx
	movq	%rcx, %r8
	movq	%rax, %rcx
	call	_ZNSt16allocator_traitsISaI12ElementosVooEE9constructIS0_JRKS0_EEEvRS1_PT_DpOT0_
	.loc 7 1081 22
	movq	16(%rbp), %rax
	movq	8(%rax), %rax
	.loc 7 1081 6
	leaq	96(%rax), %rdx
	movq	16(%rbp), %rax
	movq	%rdx, 8(%rax)
	.loc 7 1086 7
	jmp	.L58
.L56:
	.loc 7 1085 4
	movq	16(%rbp), %rcx
	call	_ZNSt6vectorI12ElementosVooSaIS0_EE3endEv
	movq	%rax, %rdx
	movq	24(%rbp), %rax
	movq	%rax, %r8
	movq	16(%rbp), %rcx
	call	_ZNSt6vectorI12ElementosVooSaIS0_EE17_M_realloc_insertIJRKS0_EEEvN9__gnu_cxx17__normal_iteratorIPS0_S2_EEDpOT_
.L58:
	.loc 7 1086 7
	nop
	addq	$32, %rsp
	popq	%rbp
	.cfi_restore 6
	.cfi_def_cfa 7, 8
	ret
	.cfi_endproc
.LFE2870:
	.seh_endproc
	.section	.text$_ZNSt6vectorI12ElementosVooSaIS0_EEC1ERKS2_,"x"
	.linkonce discard
	.align 2
	.globl	_ZNSt6vectorI12ElementosVooSaIS0_EEC1ERKS2_
	.def	_ZNSt6vectorI12ElementosVooSaIS0_EEC1ERKS2_;	.scl	2;	.type	32;	.endef
	.seh_proc	_ZNSt6vectorI12ElementosVooSaIS0_EEC1ERKS2_
_ZNSt6vectorI12ElementosVooSaIS0_EEC1ERKS2_:
.LFB2873:
	.loc 7 458 7
	.cfi_startproc
	pushq	%rbp
	.seh_pushreg	%rbp
	.cfi_def_cfa_offset 16
	.cfi_offset 6, -16
	pushq	%rdi
	.seh_pushreg	%rdi
	.cfi_def_cfa_offset 24
	.cfi_offset 5, -24
	pushq	%rsi
	.seh_pushreg	%rsi
	.cfi_def_cfa_offset 32
	.cfi_offset 4, -32
	pushq	%rbx
	.seh_pushreg	%rbx
	.cfi_def_cfa_offset 40
	.cfi_offset 3, -40
	subq	$56, %rsp
	.seh_stackalloc	56
	.cfi_def_cfa_offset 96
	leaq	128(%rsp), %rbp
	.seh_setframe	%rbp, 128
	.cfi_def_cfa 6, -32
	.seh_endprologue
	movq	%rcx, -32(%rbp)
	movq	%rdx, -24(%rbp)
.LBB17:
	.loc 7 460 61
	movq	-32(%rbp), %rbx
	.loc 7 460 34
	movq	-24(%rbp), %rax
	movq	%rax, %rcx
	call	_ZNKSt12_Vector_baseI12ElementosVooSaIS0_EE19_M_get_Tp_allocatorEv
	movq	%rax, %rdx
	.loc 7 460 61
	leaq	-81(%rbp), %rax
	movq	%rax, %rcx
.LEHB15:
	call	_ZN9__gnu_cxx14__alloc_traitsISaI12ElementosVooES1_E17_S_select_on_copyERKS2_
.LEHE15:
	movq	-24(%rbp), %rax
	movq	%rax, %rcx
	call	_ZNKSt6vectorI12ElementosVooSaIS0_EE4sizeEv
	movq	%rax, %rdx
	leaq	-81(%rbp), %rax
	movq	%rax, %r8
	movq	%rbx, %rcx
.LEHB16:
	call	_ZNSt12_Vector_baseI12ElementosVooSaIS0_EEC2EyRKS1_
.LEHE16:
	.loc 7 460 61 is_stmt 0 discriminator 2
	leaq	-81(%rbp), %rax
	movq	%rax, %rcx
	call	_ZNSaI12ElementosVooED1Ev
	.loc 7 465 30 is_stmt 1 discriminator 2
	movq	-32(%rbp), %rax
	movq	%rax, %rcx
	call	_ZNSt12_Vector_baseI12ElementosVooSaIS0_EE19_M_get_Tp_allocatorEv
	movq	%rax, %rdi
	.loc 7 463 31 discriminator 2
	movq	-32(%rbp), %rax
	movq	(%rax), %rbx
	movq	-24(%rbp), %rax
	movq	%rax, %rcx
	call	_ZNKSt6vectorI12ElementosVooSaIS0_EE3endEv
	movq	%rax, %rsi
	movq	-24(%rbp), %rax
	movq	%rax, %rcx
	call	_ZNKSt6vectorI12ElementosVooSaIS0_EE5beginEv
	movq	%rdi, %r9
	movq	%rbx, %r8
	movq	%rsi, %rdx
	movq	%rax, %rcx
.LEHB17:
	call	_ZSt22__uninitialized_copy_aIN9__gnu_cxx17__normal_iteratorIPK12ElementosVooSt6vectorIS2_SaIS2_EEEEPS2_S2_ET0_T_SB_SA_RSaIT1_E
.LEHE17:
	movq	%rax, %rdx
	.loc 7 462 2 discriminator 2
	movq	-32(%rbp), %rax
	movq	%rdx, 8(%rax)
.LBE17:
	.loc 7 466 7 discriminator 2
	jmp	.L64
.L62:
	movq	%rax, %rbx
.LBB18:
	.loc 7 460 61
	leaq	-81(%rbp), %rax
	movq	%rax, %rcx
	call	_ZNSaI12ElementosVooED1Ev
	movq	%rbx, %rax
	movq	%rax, %rcx
.LEHB18:
	call	_Unwind_Resume
.L63:
	movq	%rax, %rbx
	movq	-32(%rbp), %rax
	movq	%rax, %rcx
	call	_ZNSt12_Vector_baseI12ElementosVooSaIS0_EED2Ev
	movq	%rbx, %rax
	movq	%rax, %rcx
	call	_Unwind_Resume
	nop
.LEHE18:
.L64:
.LBE18:
	.loc 7 466 7
	addq	$56, %rsp
	popq	%rbx
	.cfi_restore 3
	popq	%rsi
	.cfi_restore 4
	popq	%rdi
	.cfi_restore 5
	popq	%rbp
	.cfi_restore 6
	.cfi_def_cfa 7, -24
	ret
	.cfi_endproc
.LFE2873:
	.seh_handler	__gxx_personality_seh0, @unwind, @except
	.seh_handlerdata
.LLSDA2873:
	.byte	0xff
	.byte	0xff
	.byte	0x1
	.uleb128 .LLSDACSE2873-.LLSDACSB2873
.LLSDACSB2873:
	.uleb128 .LEHB15-.LFB2873
	.uleb128 .LEHE15-.LEHB15
	.uleb128 0
	.uleb128 0
	.uleb128 .LEHB16-.LFB2873
	.uleb128 .LEHE16-.LEHB16
	.uleb128 .L62-.LFB2873
	.uleb128 0
	.uleb128 .LEHB17-.LFB2873
	.uleb128 .LEHE17-.LEHB17
	.uleb128 .L63-.LFB2873
	.uleb128 0
	.uleb128 .LEHB18-.LFB2873
	.uleb128 .LEHE18-.LEHB18
	.uleb128 0
	.uleb128 0
.LLSDACSE2873:
	.section	.text$_ZNSt6vectorI12ElementosVooSaIS0_EEC1ERKS2_,"x"
	.linkonce discard
	.seh_endproc
	.section	.text$_ZNSt12_Vector_baseI12ElementosVooSaIS0_EE12_Vector_implD1Ev,"x"
	.linkonce discard
	.align 2
	.globl	_ZNSt12_Vector_baseI12ElementosVooSaIS0_EE12_Vector_implD1Ev
	.def	_ZNSt12_Vector_baseI12ElementosVooSaIS0_EE12_Vector_implD1Ev;	.scl	2;	.type	32;	.endef
	.seh_proc	_ZNSt12_Vector_baseI12ElementosVooSaIS0_EE12_Vector_implD1Ev
_ZNSt12_Vector_baseI12ElementosVooSaIS0_EE12_Vector_implD1Ev:
.LFB2985:
	.loc 7 88 14
	.cfi_startproc
	pushq	%rbp
	.seh_pushreg	%rbp
	.cfi_def_cfa_offset 16
	.cfi_offset 6, -16
	movq	%rsp, %rbp
	.seh_setframe	%rbp, 0
	.cfi_def_cfa_register 6
	subq	$32, %rsp
	.seh_stackalloc	32
	.seh_endprologue
	movq	%rcx, 16(%rbp)
.LBB19:
	.loc 7 88 14
	movq	16(%rbp), %rcx
	call	_ZNSaI12ElementosVooED2Ev
.LBE19:
	nop
	addq	$32, %rsp
	popq	%rbp
	.cfi_restore 6
	.cfi_def_cfa 7, 8
	ret
	.cfi_endproc
.LFE2985:
	.seh_endproc
	.section	.text$_ZNSt12_Vector_baseI12ElementosVooSaIS0_EED2Ev,"x"
	.linkonce discard
	.align 2
	.globl	_ZNSt12_Vector_baseI12ElementosVooSaIS0_EED2Ev
	.def	_ZNSt12_Vector_baseI12ElementosVooSaIS0_EED2Ev;	.scl	2;	.type	32;	.endef
	.seh_proc	_ZNSt12_Vector_baseI12ElementosVooSaIS0_EED2Ev
_ZNSt12_Vector_baseI12ElementosVooSaIS0_EED2Ev:
.LFB2986:
	.loc 7 283 7
	.cfi_startproc
	pushq	%rbp
	.seh_pushreg	%rbp
	.cfi_def_cfa_offset 16
	.cfi_offset 6, -16
	movq	%rsp, %rbp
	.seh_setframe	%rbp, 0
	.cfi_def_cfa_register 6
	subq	$32, %rsp
	.seh_stackalloc	32
	.seh_endprologue
	movq	%rcx, 16(%rbp)
.LBB20:
	.loc 7 286 17
	movq	16(%rbp), %rax
	movq	16(%rax), %rdx
	.loc 7 286 45
	movq	16(%rbp), %rax
	movq	(%rax), %rax
	.loc 7 286 35
	subq	%rax, %rdx
	movq	%rdx, %rax
	sarq	$5, %rax
	movq	%rax, %rdx
	movabsq	$-6148914691236517205, %rax
	imulq	%rdx, %rax
	.loc 7 285 2
	movq	%rax, %rdx
	movq	16(%rbp), %rax
	movq	(%rax), %rax
	movq	%rdx, %r8
	movq	%rax, %rdx
	movq	16(%rbp), %rcx
	call	_ZNSt12_Vector_baseI12ElementosVooSaIS0_EE13_M_deallocateEPS0_y
	.loc 7 287 7
	movq	16(%rbp), %rax
	movq	%rax, %rcx
	call	_ZNSt12_Vector_baseI12ElementosVooSaIS0_EE12_Vector_implD1Ev
.LBE20:
	nop
	addq	$32, %rsp
	popq	%rbp
	.cfi_restore 6
	.cfi_def_cfa 7, 8
	ret
	.cfi_endproc
.LFE2986:
	.seh_handler	__gxx_personality_seh0, @unwind, @except
	.seh_handlerdata
.LLSDA2986:
	.byte	0xff
	.byte	0xff
	.byte	0x1
	.uleb128 .LLSDACSE2986-.LLSDACSB2986
.LLSDACSB2986:
.LLSDACSE2986:
	.section	.text$_ZNSt12_Vector_baseI12ElementosVooSaIS0_EED2Ev,"x"
	.linkonce discard
	.seh_endproc
	.section	.text$_ZNSt12_Vector_baseI12ElementosVooSaIS0_EE19_M_get_Tp_allocatorEv,"x"
	.linkonce discard
	.align 2
	.globl	_ZNSt12_Vector_baseI12ElementosVooSaIS0_EE19_M_get_Tp_allocatorEv
	.def	_ZNSt12_Vector_baseI12ElementosVooSaIS0_EE19_M_get_Tp_allocatorEv;	.scl	2;	.type	32;	.endef
	.seh_proc	_ZNSt12_Vector_baseI12ElementosVooSaIS0_EE19_M_get_Tp_allocatorEv
_ZNSt12_Vector_baseI12ElementosVooSaIS0_EE19_M_get_Tp_allocatorEv:
.LFB2988:
	.loc 7 237 7
	.cfi_startproc
	pushq	%rbp
	.seh_pushreg	%rbp
	.cfi_def_cfa_offset 16
	.cfi_offset 6, -16
	movq	%rsp, %rbp
	.seh_setframe	%rbp, 0
	.cfi_def_cfa_register 6
	.seh_endprologue
	movq	%rcx, 16(%rbp)
	.loc 7 238 60
	movq	16(%rbp), %rax
	.loc 7 238 63
	popq	%rbp
	.cfi_restore 6
	.cfi_def_cfa 7, 8
	ret
	.cfi_endproc
.LFE2988:
	.seh_endproc
	.section	.text$_ZSt8_DestroyIP12ElementosVooS0_EvT_S2_RSaIT0_E,"x"
	.linkonce discard
	.globl	_ZSt8_DestroyIP12ElementosVooS0_EvT_S2_RSaIT0_E
	.def	_ZSt8_DestroyIP12ElementosVooS0_EvT_S2_RSaIT0_E;	.scl	2;	.type	32;	.endef
	.seh_proc	_ZSt8_DestroyIP12ElementosVooS0_EvT_S2_RSaIT0_E
_ZSt8_DestroyIP12ElementosVooS0_EvT_S2_RSaIT0_E:
.LFB2989:
	.file 8 "C:/Program Files/CodeBlocks/MinGW/lib/gcc/x86_64-w64-mingw32/8.1.0/include/c++/bits/stl_construct.h"
	.loc 8 203 5
	.cfi_startproc
	pushq	%rbp
	.seh_pushreg	%rbp
	.cfi_def_cfa_offset 16
	.cfi_offset 6, -16
	movq	%rsp, %rbp
	.seh_setframe	%rbp, 0
	.cfi_def_cfa_register 6
	subq	$32, %rsp
	.seh_stackalloc	32
	.seh_endprologue
	movq	%rcx, 16(%rbp)
	movq	%rdx, 24(%rbp)
	movq	%r8, 32(%rbp)
	.loc 8 206 15
	movq	24(%rbp), %rax
	movq	%rax, %rdx
	movq	16(%rbp), %rcx
	call	_ZSt8_DestroyIP12ElementosVooEvT_S2_
	.loc 8 207 5
	nop
	addq	$32, %rsp
	popq	%rbp
	.cfi_restore 6
	.cfi_def_cfa 7, 8
	ret
	.cfi_endproc
.LFE2989:
	.seh_endproc
	.section	.text$_ZNSt6vectorI12ElementosVooSaIS0_EE15_M_erase_at_endEPS0_,"x"
	.linkonce discard
	.align 2
	.globl	_ZNSt6vectorI12ElementosVooSaIS0_EE15_M_erase_at_endEPS0_
	.def	_ZNSt6vectorI12ElementosVooSaIS0_EE15_M_erase_at_endEPS0_;	.scl	2;	.type	32;	.endef
	.seh_proc	_ZNSt6vectorI12ElementosVooSaIS0_EE15_M_erase_at_endEPS0_
_ZNSt6vectorI12ElementosVooSaIS0_EE15_M_erase_at_endEPS0_:
.LFB2990:
	.loc 7 1649 7
	.cfi_startproc
	pushq	%rbp
	.seh_pushreg	%rbp
	.cfi_def_cfa_offset 16
	.cfi_offset 6, -16
	movq	%rsp, %rbp
	.seh_setframe	%rbp, 0
	.cfi_def_cfa_register 6
	subq	$48, %rsp
	.seh_stackalloc	48
	.seh_endprologue
	movq	%rcx, 16(%rbp)
	movq	%rdx, 24(%rbp)
.LBB21:
	.loc 7 1651 36
	movq	16(%rbp), %rax
	movq	8(%rax), %rax
	.loc 7 1651 46
	subq	24(%rbp), %rax
	sarq	$5, %rax
	movq	%rax, %rdx
	movabsq	$-6148914691236517205, %rax
	imulq	%rdx, %rax
	.loc 7 1651 16
	movq	%rax, -8(%rbp)
	.loc 7 1651 2
	cmpq	$0, -8(%rbp)
	je	.L72
	.loc 7 1654 25
	movq	16(%rbp), %rax
	movq	%rax, %rcx
	call	_ZNSt12_Vector_baseI12ElementosVooSaIS0_EE19_M_get_Tp_allocatorEv
	movq	%rax, %rcx
	.loc 7 1653 19
	movq	16(%rbp), %rax
	movq	8(%rax), %rdx
	movq	24(%rbp), %rax
	movq	%rcx, %r8
	movq	%rax, %rcx
	call	_ZSt8_DestroyIP12ElementosVooS0_EvT_S2_RSaIT0_E
	.loc 7 1655 6
	movq	16(%rbp), %rax
	movq	24(%rbp), %rdx
	movq	%rdx, 8(%rax)
.L72:
.LBE21:
	.loc 7 1658 7
	nop
	addq	$48, %rsp
	popq	%rbp
	.cfi_restore 6
	.cfi_def_cfa 7, 8
	ret
	.cfi_endproc
.LFE2990:
	.seh_handler	__gxx_personality_seh0, @unwind, @except
	.seh_handlerdata
.LLSDA2990:
	.byte	0xff
	.byte	0xff
	.byte	0x1
	.uleb128 .LLSDACSE2990-.LLSDACSB2990
.LLSDACSB2990:
.LLSDACSE2990:
	.section	.text$_ZNSt6vectorI12ElementosVooSaIS0_EE15_M_erase_at_endEPS0_,"x"
	.linkonce discard
	.seh_endproc
	.section	.text$_ZSt7forwardIRK12ElementosVooEOT_RNSt16remove_referenceIS3_E4typeE,"x"
	.linkonce discard
	.globl	_ZSt7forwardIRK12ElementosVooEOT_RNSt16remove_referenceIS3_E4typeE
	.def	_ZSt7forwardIRK12ElementosVooEOT_RNSt16remove_referenceIS3_E4typeE;	.scl	2;	.type	32;	.endef
	.seh_proc	_ZSt7forwardIRK12ElementosVooEOT_RNSt16remove_referenceIS3_E4typeE
_ZSt7forwardIRK12ElementosVooEOT_RNSt16remove_referenceIS3_E4typeE:
.LFB2992:
	.file 9 "C:/Program Files/CodeBlocks/MinGW/lib/gcc/x86_64-w64-mingw32/8.1.0/include/c++/bits/move.h"
	.loc 9 74 5
	.cfi_startproc
	pushq	%rbp
	.seh_pushreg	%rbp
	.cfi_def_cfa_offset 16
	.cfi_offset 6, -16
	movq	%rsp, %rbp
	.seh_setframe	%rbp, 0
	.cfi_def_cfa_register 6
	.seh_endprologue
	movq	%rcx, 16(%rbp)
	.loc 9 75 36
	movq	16(%rbp), %rax
	.loc 9 75 39
	popq	%rbp
	.cfi_restore 6
	.cfi_def_cfa 7, 8
	ret
	.cfi_endproc
.LFE2992:
	.seh_endproc
	.section	.text$_ZNSt16allocator_traitsISaI12ElementosVooEE9constructIS0_JRKS0_EEEvRS1_PT_DpOT0_,"x"
	.linkonce discard
	.globl	_ZNSt16allocator_traitsISaI12ElementosVooEE9constructIS0_JRKS0_EEEvRS1_PT_DpOT0_
	.def	_ZNSt16allocator_traitsISaI12ElementosVooEE9constructIS0_JRKS0_EEEvRS1_PT_DpOT0_;	.scl	2;	.type	32;	.endef
	.seh_proc	_ZNSt16allocator_traitsISaI12ElementosVooEE9constructIS0_JRKS0_EEEvRS1_PT_DpOT0_
_ZNSt16allocator_traitsISaI12ElementosVooEE9constructIS0_JRKS0_EEEvRS1_PT_DpOT0_:
.LFB2991:
	.file 10 "C:/Program Files/CodeBlocks/MinGW/lib/gcc/x86_64-w64-mingw32/8.1.0/include/c++/bits/alloc_traits.h"
	.loc 10 474 2
	.cfi_startproc
	pushq	%rbp
	.seh_pushreg	%rbp
	.cfi_def_cfa_offset 16
	.cfi_offset 6, -16
	movq	%rsp, %rbp
	.seh_setframe	%rbp, 0
	.cfi_def_cfa_register 6
	subq	$32, %rsp
	.seh_stackalloc	32
	.seh_endprologue
	movq	%rcx, 16(%rbp)
	movq	%rdx, 24(%rbp)
	movq	%r8, 32(%rbp)
	.loc 10 475 4
	movq	32(%rbp), %rax
	movq	%rax, %rcx
	call	_ZSt7forwardIRK12ElementosVooEOT_RNSt16remove_referenceIS3_E4typeE
	movq	%rax, %rdx
	movq	24(%rbp), %rax
	movq	%rdx, %r8
	movq	%rax, %rdx
	movq	16(%rbp), %rcx
	call	_ZN9__gnu_cxx13new_allocatorI12ElementosVooE9constructIS1_JRKS1_EEEvPT_DpOT0_
	.loc 10 475 56
	nop
	addq	$32, %rsp
	popq	%rbp
	.cfi_restore 6
	.cfi_def_cfa 7, 8
	ret
	.cfi_endproc
.LFE2991:
	.seh_endproc
	.section	.text$_ZNSt6vectorI12ElementosVooSaIS0_EE3endEv,"x"
	.linkonce discard
	.align 2
	.globl	_ZNSt6vectorI12ElementosVooSaIS0_EE3endEv
	.def	_ZNSt6vectorI12ElementosVooSaIS0_EE3endEv;	.scl	2;	.type	32;	.endef
	.seh_proc	_ZNSt6vectorI12ElementosVooSaIS0_EE3endEv
_ZNSt6vectorI12ElementosVooSaIS0_EE3endEv:
.LFB2993:
	.loc 7 716 7
	.cfi_startproc
	pushq	%rbp
	.seh_pushreg	%rbp
	.cfi_def_cfa_offset 16
	.cfi_offset 6, -16
	movq	%rsp, %rbp
	.seh_setframe	%rbp, 0
	.cfi_def_cfa_register 6
	subq	$48, %rsp
	.seh_stackalloc	48
	.seh_endprologue
	movq	%rcx, 16(%rbp)
	.loc 7 717 39
	movq	16(%rbp), %rax
	leaq	8(%rax), %rdx
	.loc 7 717 48
	leaq	-8(%rbp), %rax
	movq	%rax, %rcx
	call	_ZN9__gnu_cxx17__normal_iteratorIP12ElementosVooSt6vectorIS1_SaIS1_EEEC1ERKS2_
	movq	-8(%rbp), %rax
	.loc 7 717 51
	addq	$48, %rsp
	popq	%rbp
	.cfi_restore 6
	.cfi_def_cfa 7, 8
	ret
	.cfi_endproc
.LFE2993:
	.seh_endproc
	.section .rdata,"dr"
.LC10:
	.ascii "vector::_M_realloc_insert\0"
	.section	.text$_ZNSt6vectorI12ElementosVooSaIS0_EE17_M_realloc_insertIJRKS0_EEEvN9__gnu_cxx17__normal_iteratorIPS0_S2_EEDpOT_,"x"
	.linkonce discard
	.align 2
	.globl	_ZNSt6vectorI12ElementosVooSaIS0_EE17_M_realloc_insertIJRKS0_EEEvN9__gnu_cxx17__normal_iteratorIPS0_S2_EEDpOT_
	.def	_ZNSt6vectorI12ElementosVooSaIS0_EE17_M_realloc_insertIJRKS0_EEEvN9__gnu_cxx17__normal_iteratorIPS0_S2_EEDpOT_;	.scl	2;	.type	32;	.endef
	.seh_proc	_ZNSt6vectorI12ElementosVooSaIS0_EE17_M_realloc_insertIJRKS0_EEEvN9__gnu_cxx17__normal_iteratorIPS0_S2_EEDpOT_
_ZNSt6vectorI12ElementosVooSaIS0_EE17_M_realloc_insertIJRKS0_EEEvN9__gnu_cxx17__normal_iteratorIPS0_S2_EEDpOT_:
.LFB2994:
	.file 11 "C:/Program Files/CodeBlocks/MinGW/lib/gcc/x86_64-w64-mingw32/8.1.0/include/c++/bits/vector.tcc"
	.loc 11 413 7
	.cfi_startproc
	pushq	%rbp
	.seh_pushreg	%rbp
	.cfi_def_cfa_offset 16
	.cfi_offset 6, -16
	pushq	%rbx
	.seh_pushreg	%rbx
	.cfi_def_cfa_offset 24
	.cfi_offset 3, -24
	subq	$104, %rsp
	.seh_stackalloc	104
	.cfi_def_cfa_offset 128
	leaq	128(%rsp), %rbp
	.seh_setframe	%rbp, 128
	.cfi_def_cfa 6, 0
	.seh_endprologue
	movq	%rcx, 0(%rbp)
	movq	%rdx, 8(%rbp)
	movq	%r8, 16(%rbp)
	.loc 11 422 23
	leaq	.LC10(%rip), %r8
	movl	$1, %edx
	movq	0(%rbp), %rcx
.LEHB19:
	call	_ZNKSt6vectorI12ElementosVooSaIS0_EE12_M_check_lenEyPKc
	movq	%rax, -48(%rbp)
	.loc 11 424 15
	movq	0(%rbp), %rax
	movq	(%rax), %rax
	movq	%rax, -56(%rbp)
	.loc 11 425 15
	movq	0(%rbp), %rax
	movq	8(%rax), %rax
	movq	%rax, -64(%rbp)
	.loc 11 426 51
	movq	0(%rbp), %rcx
	call	_ZNSt6vectorI12ElementosVooSaIS0_EE5beginEv
	movq	%rax, -88(%rbp)
	leaq	-88(%rbp), %rdx
	leaq	8(%rbp), %rax
	movq	%rax, %rcx
	call	_ZN9__gnu_cxxmiIP12ElementosVooSt6vectorIS1_SaIS1_EEEENS_17__normal_iteratorIT_T0_E15difference_typeERKS9_SC_
	.loc 11 426 23
	movq	%rax, -72(%rbp)
	.loc 11 427 15
	movq	0(%rbp), %rax
	movq	-48(%rbp), %rdx
	movq	%rax, %rcx
	call	_ZNSt12_Vector_baseI12ElementosVooSaIS0_EE11_M_allocateEy
.LEHE19:
	movq	%rax, -80(%rbp)
	.loc 11 428 15
	movq	-80(%rbp), %rax
	movq	%rax, -40(%rbp)
	.loc 11 436 28
	movq	16(%rbp), %rax
	movq	%rax, %rcx
	call	_ZSt7forwardIRK12ElementosVooEOT_RNSt16remove_referenceIS3_E4typeE
	movq	%rax, %rcx
	.loc 11 437 20
	movq	-72(%rbp), %rdx
	movq	%rdx, %rax
	addq	%rax, %rax
	addq	%rdx, %rax
	salq	$5, %rax
	movq	%rax, %rdx
	.loc 11 436 28
	movq	-80(%rbp), %rax
	addq	%rax, %rdx
	.loc 11 436 35
	movq	0(%rbp), %rax
	.loc 11 436 28
	movq	%rcx, %r8
	movq	%rax, %rcx
	call	_ZNSt16allocator_traitsISaI12ElementosVooEE9constructIS0_JRKS0_EEEvRS1_PT_DpOT0_
	.loc 11 443 4
	movq	$0, -40(%rbp)
	.loc 11 448 39
	movq	0(%rbp), %rax
	movq	%rax, %rcx
	call	_ZNSt12_Vector_baseI12ElementosVooSaIS0_EE19_M_get_Tp_allocatorEv
	movq	%rax, %rbx
	.loc 11 447 6
	leaq	8(%rbp), %rax
	movq	%rax, %rcx
	call	_ZNK9__gnu_cxx17__normal_iteratorIP12ElementosVooSt6vectorIS1_SaIS1_EEE4baseEv
	movq	(%rax), %rdx
	movq	-80(%rbp), %rcx
	movq	-56(%rbp), %rax
	movq	%rbx, %r9
	movq	%rcx, %r8
	movq	%rax, %rcx
.LEHB20:
	call	_ZSt34__uninitialized_move_if_noexcept_aIP12ElementosVooS1_SaIS0_EET0_T_S4_S3_RT1_
	movq	%rax, -40(%rbp)
	.loc 11 450 4
	addq	$96, -40(%rbp)
	.loc 11 455 40
	movq	0(%rbp), %rax
	movq	%rax, %rcx
	call	_ZNSt12_Vector_baseI12ElementosVooSaIS0_EE19_M_get_Tp_allocatorEv
	movq	%rax, %rbx
	.loc 11 454 6
	leaq	8(%rbp), %rax
	movq	%rax, %rcx
	call	_ZNK9__gnu_cxx17__normal_iteratorIP12ElementosVooSt6vectorIS1_SaIS1_EEE4baseEv
	movq	(%rax), %rax
	movq	-40(%rbp), %rcx
	movq	-64(%rbp), %rdx
	movq	%rbx, %r9
	movq	%rcx, %r8
	movq	%rax, %rcx
	call	_ZSt34__uninitialized_move_if_noexcept_aIP12ElementosVooS1_SaIS0_EET0_T_S4_S3_RT1_
.LEHE20:
	.loc 11 454 6 is_stmt 0 discriminator 1
	movq	%rax, -40(%rbp)
	.loc 11 468 67 is_stmt 1 discriminator 1
	movq	0(%rbp), %rax
	movq	%rax, %rcx
	call	_ZNSt12_Vector_baseI12ElementosVooSaIS0_EE19_M_get_Tp_allocatorEv
	movq	%rax, %rcx
	.loc 11 468 20 discriminator 1
	movq	-64(%rbp), %rdx
	movq	-56(%rbp), %rax
	movq	%rcx, %r8
	movq	%rax, %rcx
.LEHB21:
	call	_ZSt8_DestroyIP12ElementosVooS0_EvT_S2_RSaIT0_E
	.loc 11 469 20 discriminator 1
	movq	0(%rbp), %rax
	.loc 11 470 21 discriminator 1
	movq	0(%rbp), %rdx
	movq	16(%rdx), %rdx
	.loc 11 470 39 discriminator 1
	subq	-56(%rbp), %rdx
	movq	%rdx, %rcx
	sarq	$5, %rcx
	movabsq	$-6148914691236517205, %rdx
	imulq	%rcx, %rdx
	.loc 11 469 20 discriminator 1
	movq	%rdx, %rcx
	movq	-56(%rbp), %rdx
	movq	%rcx, %r8
	movq	%rax, %rcx
	call	_ZNSt12_Vector_baseI12ElementosVooSaIS0_EE13_M_deallocateEPS0_y
.LEHE21:
	.loc 11 471 7 discriminator 1
	movq	0(%rbp), %rax
	movq	-80(%rbp), %rdx
	movq	%rdx, (%rax)
	.loc 11 472 7 discriminator 1
	movq	0(%rbp), %rax
	movq	-40(%rbp), %rdx
	movq	%rdx, 8(%rax)
	.loc 11 473 53 discriminator 1
	movq	-48(%rbp), %rdx
	movq	%rdx, %rax
	addq	%rax, %rax
	addq	%rdx, %rax
	salq	$5, %rax
	movq	%rax, %rdx
	movq	-80(%rbp), %rax
	addq	%rax, %rdx
	.loc 11 473 7 discriminator 1
	movq	0(%rbp), %rax
	movq	%rdx, 16(%rax)
	.loc 11 474 5 discriminator 1
	jmp	.L85
.L83:
	.loc 11 457 7
	movq	%rax, %rcx
	call	__cxa_begin_catch
	.loc 11 459 4
	cmpq	$0, -40(%rbp)
	jne	.L80
	.loc 11 461 20
	movq	-72(%rbp), %rdx
	movq	%rdx, %rax
	addq	%rax, %rax
	addq	%rdx, %rax
	salq	$5, %rax
	movq	%rax, %rdx
	.loc 11 460 28
	movq	-80(%rbp), %rax
	addq	%rax, %rdx
	.loc 11 460 35
	movq	0(%rbp), %rax
	.loc 11 460 28
	movq	%rax, %rcx
.LEHB22:
	call	_ZNSt16allocator_traitsISaI12ElementosVooEE7destroyIS0_EEvRS1_PT_
	jmp	.L81
.L80:
	.loc 11 463 66
	movq	0(%rbp), %rax
	movq	%rax, %rcx
	call	_ZNSt12_Vector_baseI12ElementosVooSaIS0_EE19_M_get_Tp_allocatorEv
	movq	%rax, %rcx
	.loc 11 463 19
	movq	-40(%rbp), %rdx
	movq	-80(%rbp), %rax
	movq	%rcx, %r8
	movq	%rax, %rcx
	call	_ZSt8_DestroyIP12ElementosVooS0_EvT_S2_RSaIT0_E
.L81:
	.loc 11 464 17
	movq	0(%rbp), %rax
	movq	-48(%rbp), %rcx
	movq	-80(%rbp), %rdx
	movq	%rcx, %r8
	movq	%rax, %rcx
	call	_ZNSt12_Vector_baseI12ElementosVooSaIS0_EE13_M_deallocateEPS0_y
	.loc 11 465 4
	call	__cxa_rethrow
.LEHE22:
.L84:
	movq	%rax, %rbx
	.loc 11 457 7
	call	__cxa_end_catch
	movq	%rbx, %rax
	movq	%rax, %rcx
.LEHB23:
	call	_Unwind_Resume
	nop
.LEHE23:
.L85:
	.loc 11 474 5
	addq	$104, %rsp
	popq	%rbx
	.cfi_restore 3
	popq	%rbp
	.cfi_restore 6
	.cfi_def_cfa 7, -88
	ret
	.cfi_endproc
.LFE2994:
	.seh_handler	__gxx_personality_seh0, @unwind, @except
	.seh_handlerdata
	.align 4
.LLSDA2994:
	.byte	0xff
	.byte	0x9b
	.uleb128 .LLSDATT2994-.LLSDATTD2994
.LLSDATTD2994:
	.byte	0x1
	.uleb128 .LLSDACSE2994-.LLSDACSB2994
.LLSDACSB2994:
	.uleb128 .LEHB19-.LFB2994
	.uleb128 .LEHE19-.LEHB19
	.uleb128 0
	.uleb128 0
	.uleb128 .LEHB20-.LFB2994
	.uleb128 .LEHE20-.LEHB20
	.uleb128 .L83-.LFB2994
	.uleb128 0x1
	.uleb128 .LEHB21-.LFB2994
	.uleb128 .LEHE21-.LEHB21
	.uleb128 0
	.uleb128 0
	.uleb128 .LEHB22-.LFB2994
	.uleb128 .LEHE22-.LEHB22
	.uleb128 .L84-.LFB2994
	.uleb128 0
	.uleb128 .LEHB23-.LFB2994
	.uleb128 .LEHE23-.LEHB23
	.uleb128 0
	.uleb128 0
.LLSDACSE2994:
	.byte	0x1
	.byte	0
	.align 4
	.long	0

.LLSDATT2994:
	.section	.text$_ZNSt6vectorI12ElementosVooSaIS0_EE17_M_realloc_insertIJRKS0_EEEvN9__gnu_cxx17__normal_iteratorIPS0_S2_EEDpOT_,"x"
	.linkonce discard
	.seh_endproc
	.section	.text$_ZNKSt6vectorI12ElementosVooSaIS0_EE4sizeEv,"x"
	.linkonce discard
	.align 2
	.globl	_ZNKSt6vectorI12ElementosVooSaIS0_EE4sizeEv
	.def	_ZNKSt6vectorI12ElementosVooSaIS0_EE4sizeEv;	.scl	2;	.type	32;	.endef
	.seh_proc	_ZNKSt6vectorI12ElementosVooSaIS0_EE4sizeEv
_ZNKSt6vectorI12ElementosVooSaIS0_EE4sizeEv:
.LFB2995:
	.loc 7 805 7
	.cfi_startproc
	pushq	%rbp
	.seh_pushreg	%rbp
	.cfi_def_cfa_offset 16
	.cfi_offset 6, -16
	movq	%rsp, %rbp
	.seh_setframe	%rbp, 0
	.cfi_def_cfa_register 6
	.seh_endprologue
	movq	%rcx, 16(%rbp)
	.loc 7 806 40
	movq	16(%rbp), %rax
	movq	8(%rax), %rdx
	.loc 7 806 66
	movq	16(%rbp), %rax
	movq	(%rax), %rax
	.loc 7 806 50
	subq	%rax, %rdx
	movq	%rdx, %rax
	sarq	$5, %rax
	movq	%rax, %rdx
	movabsq	$-6148914691236517205, %rax
	imulq	%rdx, %rax
	.loc 7 806 77
	popq	%rbp
	.cfi_restore 6
	.cfi_def_cfa 7, 8
	ret
	.cfi_endproc
.LFE2995:
	.seh_endproc
	.section	.text$_ZN9__gnu_cxx14__alloc_traitsISaI12ElementosVooES1_E17_S_select_on_copyERKS2_,"x"
	.linkonce discard
	.globl	_ZN9__gnu_cxx14__alloc_traitsISaI12ElementosVooES1_E17_S_select_on_copyERKS2_
	.def	_ZN9__gnu_cxx14__alloc_traitsISaI12ElementosVooES1_E17_S_select_on_copyERKS2_;	.scl	2;	.type	32;	.endef
	.seh_proc	_ZN9__gnu_cxx14__alloc_traitsISaI12ElementosVooES1_E17_S_select_on_copyERKS2_
_ZN9__gnu_cxx14__alloc_traitsISaI12ElementosVooES1_E17_S_select_on_copyERKS2_:
.LFB2996:
	.file 12 "C:/Program Files/CodeBlocks/MinGW/lib/gcc/x86_64-w64-mingw32/8.1.0/include/c++/ext/alloc_traits.h"
	.loc 12 94 19
	.cfi_startproc
	pushq	%rbp
	.seh_pushreg	%rbp
	.cfi_def_cfa_offset 16
	.cfi_offset 6, -16
	movq	%rsp, %rbp
	.seh_setframe	%rbp, 0
	.cfi_def_cfa_register 6
	subq	$32, %rsp
	.seh_stackalloc	32
	.seh_endprologue
	movq	%rcx, 16(%rbp)
	movq	%rdx, 24(%rbp)
	.loc 12 95 67
	movq	16(%rbp), %rax
	movq	24(%rbp), %rdx
	movq	%rax, %rcx
	call	_ZNSt16allocator_traitsISaI12ElementosVooEE37select_on_container_copy_constructionERKS1_
	.loc 12 95 70
	movq	16(%rbp), %rax
	addq	$32, %rsp
	popq	%rbp
	.cfi_restore 6
	.cfi_def_cfa 7, 8
	ret
	.cfi_endproc
.LFE2996:
	.seh_endproc
	.section	.text$_ZNKSt12_Vector_baseI12ElementosVooSaIS0_EE19_M_get_Tp_allocatorEv,"x"
	.linkonce discard
	.align 2
	.globl	_ZNKSt12_Vector_baseI12ElementosVooSaIS0_EE19_M_get_Tp_allocatorEv
	.def	_ZNKSt12_Vector_baseI12ElementosVooSaIS0_EE19_M_get_Tp_allocatorEv;	.scl	2;	.type	32;	.endef
	.seh_proc	_ZNKSt12_Vector_baseI12ElementosVooSaIS0_EE19_M_get_Tp_allocatorEv
_ZNKSt12_Vector_baseI12ElementosVooSaIS0_EE19_M_get_Tp_allocatorEv:
.LFB2997:
	.loc 7 241 7
	.cfi_startproc
	pushq	%rbp
	.seh_pushreg	%rbp
	.cfi_def_cfa_offset 16
	.cfi_offset 6, -16
	movq	%rsp, %rbp
	.seh_setframe	%rbp, 0
	.cfi_def_cfa_register 6
	.seh_endprologue
	movq	%rcx, 16(%rbp)
	.loc 7 242 66
	movq	16(%rbp), %rax
	.loc 7 242 69
	popq	%rbp
	.cfi_restore 6
	.cfi_def_cfa 7, 8
	ret
	.cfi_endproc
.LFE2997:
	.seh_endproc
	.section	.text$_ZNSaI12ElementosVooED2Ev,"x"
	.linkonce discard
	.align 2
	.globl	_ZNSaI12ElementosVooED2Ev
	.def	_ZNSaI12ElementosVooED2Ev;	.scl	2;	.type	32;	.endef
	.seh_proc	_ZNSaI12ElementosVooED2Ev
_ZNSaI12ElementosVooED2Ev:
.LFB2999:
	.file 13 "C:/Program Files/CodeBlocks/MinGW/lib/gcc/x86_64-w64-mingw32/8.1.0/include/c++/bits/allocator.h"
	.loc 13 139 7
	.cfi_startproc
	pushq	%rbp
	.seh_pushreg	%rbp
	.cfi_def_cfa_offset 16
	.cfi_offset 6, -16
	movq	%rsp, %rbp
	.seh_setframe	%rbp, 0
	.cfi_def_cfa_register 6
	subq	$32, %rsp
	.seh_stackalloc	32
	.seh_endprologue
	movq	%rcx, 16(%rbp)
.LBB22:
	.loc 13 139 30
	movq	16(%rbp), %rcx
	call	_ZN9__gnu_cxx13new_allocatorI12ElementosVooED2Ev
.LBE22:
	nop
	addq	$32, %rsp
	popq	%rbp
	.cfi_restore 6
	.cfi_def_cfa 7, 8
	ret
	.cfi_endproc
.LFE2999:
	.seh_endproc
	.section	.text$_ZNSaI12ElementosVooED1Ev,"x"
	.linkonce discard
	.align 2
	.globl	_ZNSaI12ElementosVooED1Ev
	.def	_ZNSaI12ElementosVooED1Ev;	.scl	2;	.type	32;	.endef
	.seh_proc	_ZNSaI12ElementosVooED1Ev
_ZNSaI12ElementosVooED1Ev:
.LFB3000:
	.loc 13 139 7
	.cfi_startproc
	pushq	%rbp
	.seh_pushreg	%rbp
	.cfi_def_cfa_offset 16
	.cfi_offset 6, -16
	movq	%rsp, %rbp
	.seh_setframe	%rbp, 0
	.cfi_def_cfa_register 6
	subq	$32, %rsp
	.seh_stackalloc	32
	.seh_endprologue
	movq	%rcx, 16(%rbp)
.LBB23:
	.loc 13 139 30
	movq	16(%rbp), %rcx
	call	_ZN9__gnu_cxx13new_allocatorI12ElementosVooED2Ev
.LBE23:
	nop
	addq	$32, %rsp
	popq	%rbp
	.cfi_restore 6
	.cfi_def_cfa 7, 8
	ret
	.cfi_endproc
.LFE3000:
	.seh_endproc
	.section	.text$_ZNSt12_Vector_baseI12ElementosVooSaIS0_EEC2EyRKS1_,"x"
	.linkonce discard
	.align 2
	.globl	_ZNSt12_Vector_baseI12ElementosVooSaIS0_EEC2EyRKS1_
	.def	_ZNSt12_Vector_baseI12ElementosVooSaIS0_EEC2EyRKS1_;	.scl	2;	.type	32;	.endef
	.seh_proc	_ZNSt12_Vector_baseI12ElementosVooSaIS0_EEC2EyRKS1_
_ZNSt12_Vector_baseI12ElementosVooSaIS0_EEC2EyRKS1_:
.LFB3002:
	.loc 7 258 7
	.cfi_startproc
	pushq	%rbp
	.seh_pushreg	%rbp
	.cfi_def_cfa_offset 16
	.cfi_offset 6, -16
	pushq	%rbx
	.seh_pushreg	%rbx
	.cfi_def_cfa_offset 24
	.cfi_offset 3, -24
	subq	$40, %rsp
	.seh_stackalloc	40
	.cfi_def_cfa_offset 64
	leaq	128(%rsp), %rbp
	.seh_setframe	%rbp, 128
	.cfi_def_cfa 6, -64
	.seh_endprologue
	movq	%rcx, -64(%rbp)
	movq	%rdx, -56(%rbp)
	movq	%r8, -48(%rbp)
.LBB24:
	.loc 7 259 20
	movq	-64(%rbp), %rax
	movq	-48(%rbp), %rdx
	movq	%rax, %rcx
	call	_ZNSt12_Vector_baseI12ElementosVooSaIS0_EE12_Vector_implC1ERKS1_
	.loc 7 260 9
	movq	-56(%rbp), %rax
	movq	%rax, %rdx
	movq	-64(%rbp), %rcx
.LEHB24:
	call	_ZNSt12_Vector_baseI12ElementosVooSaIS0_EE17_M_create_storageEy
.LEHE24:
.LBE24:
	.loc 7 260 33
	jmp	.L97
.L96:
	movq	%rax, %rbx
.LBB25:
	.loc 7 259 20
	movq	-64(%rbp), %rax
	movq	%rax, %rcx
	call	_ZNSt12_Vector_baseI12ElementosVooSaIS0_EE12_Vector_implD1Ev
	movq	%rbx, %rax
	movq	%rax, %rcx
.LEHB25:
	call	_Unwind_Resume
	nop
.LEHE25:
.L97:
.LBE25:
	.loc 7 260 33
	addq	$40, %rsp
	popq	%rbx
	.cfi_restore 3
	popq	%rbp
	.cfi_restore 6
	.cfi_def_cfa 7, -24
	ret
	.cfi_endproc
.LFE3002:
	.seh_handler	__gxx_personality_seh0, @unwind, @except
	.seh_handlerdata
.LLSDA3002:
	.byte	0xff
	.byte	0xff
	.byte	0x1
	.uleb128 .LLSDACSE3002-.LLSDACSB3002
.LLSDACSB3002:
	.uleb128 .LEHB24-.LFB3002
	.uleb128 .LEHE24-.LEHB24
	.uleb128 .L96-.LFB3002
	.uleb128 0
	.uleb128 .LEHB25-.LFB3002
	.uleb128 .LEHE25-.LEHB25
	.uleb128 0
	.uleb128 0
.LLSDACSE3002:
	.section	.text$_ZNSt12_Vector_baseI12ElementosVooSaIS0_EEC2EyRKS1_,"x"
	.linkonce discard
	.seh_endproc
	.section	.text$_ZNKSt6vectorI12ElementosVooSaIS0_EE5beginEv,"x"
	.linkonce discard
	.align 2
	.globl	_ZNKSt6vectorI12ElementosVooSaIS0_EE5beginEv
	.def	_ZNKSt6vectorI12ElementosVooSaIS0_EE5beginEv;	.scl	2;	.type	32;	.endef
	.seh_proc	_ZNKSt6vectorI12ElementosVooSaIS0_EE5beginEv
_ZNKSt6vectorI12ElementosVooSaIS0_EE5beginEv:
.LFB3004:
	.loc 7 707 7
	.cfi_startproc
	pushq	%rbp
	.seh_pushreg	%rbp
	.cfi_def_cfa_offset 16
	.cfi_offset 6, -16
	movq	%rsp, %rbp
	.seh_setframe	%rbp, 0
	.cfi_def_cfa_register 6
	subq	$48, %rsp
	.seh_stackalloc	48
	.seh_endprologue
	movq	%rcx, 16(%rbp)
	.loc 7 708 45
	movq	16(%rbp), %rax
	movq	(%rax), %rax
	movq	%rax, -8(%rbp)
	.loc 7 708 53
	leaq	-8(%rbp), %rdx
	leaq	-16(%rbp), %rax
	movq	%rax, %rcx
	call	_ZN9__gnu_cxx17__normal_iteratorIPK12ElementosVooSt6vectorIS1_SaIS1_EEEC1ERKS3_
	movq	-16(%rbp), %rax
	.loc 7 708 56
	addq	$48, %rsp
	popq	%rbp
	.cfi_restore 6
	.cfi_def_cfa 7, 8
	ret
	.cfi_endproc
.LFE3004:
	.seh_endproc
	.section	.text$_ZNKSt6vectorI12ElementosVooSaIS0_EE3endEv,"x"
	.linkonce discard
	.align 2
	.globl	_ZNKSt6vectorI12ElementosVooSaIS0_EE3endEv
	.def	_ZNKSt6vectorI12ElementosVooSaIS0_EE3endEv;	.scl	2;	.type	32;	.endef
	.seh_proc	_ZNKSt6vectorI12ElementosVooSaIS0_EE3endEv
_ZNKSt6vectorI12ElementosVooSaIS0_EE3endEv:
.LFB3005:
	.loc 7 725 7
	.cfi_startproc
	pushq	%rbp
	.seh_pushreg	%rbp
	.cfi_def_cfa_offset 16
	.cfi_offset 6, -16
	movq	%rsp, %rbp
	.seh_setframe	%rbp, 0
	.cfi_def_cfa_register 6
	subq	$48, %rsp
	.seh_stackalloc	48
	.seh_endprologue
	movq	%rcx, 16(%rbp)
	.loc 7 726 45
	movq	16(%rbp), %rax
	movq	8(%rax), %rax
	movq	%rax, -8(%rbp)
	.loc 7 726 54
	leaq	-8(%rbp), %rdx
	leaq	-16(%rbp), %rax
	movq	%rax, %rcx
	call	_ZN9__gnu_cxx17__normal_iteratorIPK12ElementosVooSt6vectorIS1_SaIS1_EEEC1ERKS3_
	movq	-16(%rbp), %rax
	.loc 7 726 57
	addq	$48, %rsp
	popq	%rbp
	.cfi_restore 6
	.cfi_def_cfa 7, 8
	ret
	.cfi_endproc
.LFE3005:
	.seh_endproc
	.section	.text$_ZSt22__uninitialized_copy_aIN9__gnu_cxx17__normal_iteratorIPK12ElementosVooSt6vectorIS2_SaIS2_EEEEPS2_S2_ET0_T_SB_SA_RSaIT1_E,"x"
	.linkonce discard
	.globl	_ZSt22__uninitialized_copy_aIN9__gnu_cxx17__normal_iteratorIPK12ElementosVooSt6vectorIS2_SaIS2_EEEEPS2_S2_ET0_T_SB_SA_RSaIT1_E
	.def	_ZSt22__uninitialized_copy_aIN9__gnu_cxx17__normal_iteratorIPK12ElementosVooSt6vectorIS2_SaIS2_EEEEPS2_S2_ET0_T_SB_SA_RSaIT1_E;	.scl	2;	.type	32;	.endef
	.seh_proc	_ZSt22__uninitialized_copy_aIN9__gnu_cxx17__normal_iteratorIPK12ElementosVooSt6vectorIS2_SaIS2_EEEEPS2_S2_ET0_T_SB_SA_RSaIT1_E
_ZSt22__uninitialized_copy_aIN9__gnu_cxx17__normal_iteratorIPK12ElementosVooSt6vectorIS2_SaIS2_EEEEPS2_S2_ET0_T_SB_SA_RSaIT1_E:
.LFB3006:
	.file 14 "C:/Program Files/CodeBlocks/MinGW/lib/gcc/x86_64-w64-mingw32/8.1.0/include/c++/bits/stl_uninitialized.h"
	.loc 14 287 5
	.cfi_startproc
	pushq	%rbp
	.seh_pushreg	%rbp
	.cfi_def_cfa_offset 16
	.cfi_offset 6, -16
	movq	%rsp, %rbp
	.seh_setframe	%rbp, 0
	.cfi_def_cfa_register 6
	subq	$32, %rsp
	.seh_stackalloc	32
	.seh_endprologue
	movq	%rcx, 16(%rbp)
	movq	%rdx, 24(%rbp)
	movq	%r8, 32(%rbp)
	movq	%r9, 40(%rbp)
	.loc 14 289 37
	movq	32(%rbp), %rdx
	movq	24(%rbp), %rax
	movq	%rdx, %r8
	movq	%rax, %rdx
	movq	16(%rbp), %rcx
	call	_ZSt18uninitialized_copyIN9__gnu_cxx17__normal_iteratorIPK12ElementosVooSt6vectorIS2_SaIS2_EEEEPS2_ET0_T_SB_SA_
	.loc 14 289 66
	addq	$32, %rsp
	popq	%rbp
	.cfi_restore 6
	.cfi_def_cfa 7, 8
	ret
	.cfi_endproc
.LFE3006:
	.seh_endproc
	.section	.text$_ZNSt12_Vector_baseI12ElementosVooSaIS0_EE13_M_deallocateEPS0_y,"x"
	.linkonce discard
	.align 2
	.globl	_ZNSt12_Vector_baseI12ElementosVooSaIS0_EE13_M_deallocateEPS0_y
	.def	_ZNSt12_Vector_baseI12ElementosVooSaIS0_EE13_M_deallocateEPS0_y;	.scl	2;	.type	32;	.endef
	.seh_proc	_ZNSt12_Vector_baseI12ElementosVooSaIS0_EE13_M_deallocateEPS0_y
_ZNSt12_Vector_baseI12ElementosVooSaIS0_EE13_M_deallocateEPS0_y:
.LFB3070:
	.loc 7 300 7
	.cfi_startproc
	pushq	%rbp
	.seh_pushreg	%rbp
	.cfi_def_cfa_offset 16
	.cfi_offset 6, -16
	movq	%rsp, %rbp
	.seh_setframe	%rbp, 0
	.cfi_def_cfa_register 6
	subq	$32, %rsp
	.seh_stackalloc	32
	.seh_endprologue
	movq	%rcx, 16(%rbp)
	movq	%rdx, 24(%rbp)
	movq	%r8, 32(%rbp)
	.loc 7 303 2
	cmpq	$0, 24(%rbp)
	je	.L106
	.loc 7 304 20
	movq	16(%rbp), %rax
	.loc 7 304 19
	movq	32(%rbp), %rcx
	movq	24(%rbp), %rdx
	movq	%rcx, %r8
	movq	%rax, %rcx
	call	_ZNSt16allocator_traitsISaI12ElementosVooEE10deallocateERS1_PS0_y
.L106:
	.loc 7 305 7
	nop
	addq	$32, %rsp
	popq	%rbp
	.cfi_restore 6
	.cfi_def_cfa 7, 8
	ret
	.cfi_endproc
.LFE3070:
	.seh_endproc
	.section	.text$_ZSt8_DestroyIP12ElementosVooEvT_S2_,"x"
	.linkonce discard
	.globl	_ZSt8_DestroyIP12ElementosVooEvT_S2_
	.def	_ZSt8_DestroyIP12ElementosVooEvT_S2_;	.scl	2;	.type	32;	.endef
	.seh_proc	_ZSt8_DestroyIP12ElementosVooEvT_S2_
_ZSt8_DestroyIP12ElementosVooEvT_S2_:
.LFB3071:
	.loc 8 127 5
	.cfi_startproc
	pushq	%rbp
	.seh_pushreg	%rbp
	.cfi_def_cfa_offset 16
	.cfi_offset 6, -16
	movq	%rsp, %rbp
	.seh_setframe	%rbp, 0
	.cfi_def_cfa_register 6
	subq	$32, %rsp
	.seh_stackalloc	32
	.seh_endprologue
	movq	%rcx, 16(%rbp)
	movq	%rdx, 24(%rbp)
	.loc 8 137 11
	movq	24(%rbp), %rax
	movq	%rax, %rdx
	movq	16(%rbp), %rcx
	call	_ZNSt12_Destroy_auxILb0EE9__destroyIP12ElementosVooEEvT_S4_
	.loc 8 138 5
	nop
	addq	$32, %rsp
	popq	%rbp
	.cfi_restore 6
	.cfi_def_cfa 7, 8
	ret
	.cfi_endproc
.LFE3071:
	.seh_endproc
	.section	.text$_ZN12ElementosVooC1ERKS_,"x"
	.linkonce discard
	.align 2
	.globl	_ZN12ElementosVooC1ERKS_
	.def	_ZN12ElementosVooC1ERKS_;	.scl	2;	.type	32;	.endef
	.seh_proc	_ZN12ElementosVooC1ERKS_
_ZN12ElementosVooC1ERKS_:
.LFB3075:
	.loc 3 7 7
	.cfi_startproc
	pushq	%rbp
	.seh_pushreg	%rbp
	.cfi_def_cfa_offset 16
	.cfi_offset 6, -16
	movq	%rsp, %rbp
	.seh_setframe	%rbp, 0
	.cfi_def_cfa_register 6
	subq	$32, %rsp
	.seh_stackalloc	32
	.seh_endprologue
	movq	%rcx, 16(%rbp)
	movq	%rdx, 24(%rbp)
.LBB26:
	.loc 3 7 7
	movq	16(%rbp), %rax
	movq	24(%rbp), %rdx
	movq	%rax, %rcx
	call	_ZN10BaseObjectC2ERKS_
	leaq	16+_ZTV12ElementosVoo(%rip), %rdx
	movq	16(%rbp), %rax
	movq	%rdx, (%rax)
	movq	24(%rbp), %rax
	movsd	8(%rax), %xmm0
	movq	16(%rbp), %rax
	movsd	%xmm0, 8(%rax)
	movq	24(%rbp), %rax
	movsd	16(%rax), %xmm0
	movq	16(%rbp), %rax
	movsd	%xmm0, 16(%rax)
	movq	24(%rbp), %rax
	movsd	24(%rax), %xmm0
	movq	16(%rbp), %rax
	movsd	%xmm0, 24(%rax)
	movq	24(%rbp), %rax
	movsd	32(%rax), %xmm0
	movq	16(%rbp), %rax
	movsd	%xmm0, 32(%rax)
	movq	24(%rbp), %rax
	movsd	40(%rax), %xmm0
	movq	16(%rbp), %rax
	movsd	%xmm0, 40(%rax)
	movq	24(%rbp), %rax
	movsd	48(%rax), %xmm0
	movq	16(%rbp), %rax
	movsd	%xmm0, 48(%rax)
	movq	24(%rbp), %rax
	movsd	56(%rax), %xmm0
	movq	16(%rbp), %rax
	movsd	%xmm0, 56(%rax)
	movq	24(%rbp), %rax
	movsd	64(%rax), %xmm0
	movq	16(%rbp), %rax
	movsd	%xmm0, 64(%rax)
	movq	24(%rbp), %rax
	movsd	72(%rax), %xmm0
	movq	16(%rbp), %rax
	movsd	%xmm0, 72(%rax)
	movq	24(%rbp), %rax
	movsd	80(%rax), %xmm0
	movq	16(%rbp), %rax
	movsd	%xmm0, 80(%rax)
	movq	24(%rbp), %rax
	movsd	88(%rax), %xmm0
	movq	16(%rbp), %rax
	movsd	%xmm0, 88(%rax)
.LBE26:
	nop
	addq	$32, %rsp
	popq	%rbp
	.cfi_restore 6
	.cfi_def_cfa 7, 8
	ret
	.cfi_endproc
.LFE3075:
	.seh_endproc
	.section	.text$_ZN9__gnu_cxx13new_allocatorI12ElementosVooE9constructIS1_JRKS1_EEEvPT_DpOT0_,"x"
	.linkonce discard
	.align 2
	.globl	_ZN9__gnu_cxx13new_allocatorI12ElementosVooE9constructIS1_JRKS1_EEEvPT_DpOT0_
	.def	_ZN9__gnu_cxx13new_allocatorI12ElementosVooE9constructIS1_JRKS1_EEEvPT_DpOT0_;	.scl	2;	.type	32;	.endef
	.seh_proc	_ZN9__gnu_cxx13new_allocatorI12ElementosVooE9constructIS1_JRKS1_EEEvPT_DpOT0_
_ZN9__gnu_cxx13new_allocatorI12ElementosVooE9constructIS1_JRKS1_EEEvPT_DpOT0_:
.LFB3072:
	.file 15 "C:/Program Files/CodeBlocks/MinGW/lib/gcc/x86_64-w64-mingw32/8.1.0/include/c++/ext/new_allocator.h"
	.loc 15 135 2
	.cfi_startproc
	pushq	%rbp
	.seh_pushreg	%rbp
	.cfi_def_cfa_offset 16
	.cfi_offset 6, -16
	pushq	%rbx
	.seh_pushreg	%rbx
	.cfi_def_cfa_offset 24
	.cfi_offset 3, -24
	subq	$40, %rsp
	.seh_stackalloc	40
	.cfi_def_cfa_offset 64
	leaq	128(%rsp), %rbp
	.seh_setframe	%rbp, 128
	.cfi_def_cfa 6, -64
	.seh_endprologue
	movq	%rcx, -64(%rbp)
	movq	%rdx, -56(%rbp)
	movq	%r8, -48(%rbp)
	.loc 15 136 46
	movq	-48(%rbp), %rax
	movq	%rax, %rcx
	call	_ZSt7forwardIRK12ElementosVooEOT_RNSt16remove_referenceIS3_E4typeE
	movq	%rax, %rbx
	.loc 15 136 4
	movq	-56(%rbp), %rax
	movq	%rax, %rdx
	movl	$96, %ecx
	call	_ZnwyPv
	movq	%rbx, %rdx
	movq	%rax, %rcx
	call	_ZN12ElementosVooC1ERKS_
	.loc 15 136 60
	nop
	addq	$40, %rsp
	popq	%rbx
	.cfi_restore 3
	popq	%rbp
	.cfi_restore 6
	.cfi_def_cfa 7, -24
	ret
	.cfi_endproc
.LFE3072:
	.seh_endproc
	.section	.text$_ZN9__gnu_cxx17__normal_iteratorIP12ElementosVooSt6vectorIS1_SaIS1_EEEC1ERKS2_,"x"
	.linkonce discard
	.align 2
	.globl	_ZN9__gnu_cxx17__normal_iteratorIP12ElementosVooSt6vectorIS1_SaIS1_EEEC1ERKS2_
	.def	_ZN9__gnu_cxx17__normal_iteratorIP12ElementosVooSt6vectorIS1_SaIS1_EEEC1ERKS2_;	.scl	2;	.type	32;	.endef
	.seh_proc	_ZN9__gnu_cxx17__normal_iteratorIP12ElementosVooSt6vectorIS1_SaIS1_EEEC1ERKS2_
_ZN9__gnu_cxx17__normal_iteratorIP12ElementosVooSt6vectorIS1_SaIS1_EEEC1ERKS2_:
.LFB3078:
	.file 16 "C:/Program Files/CodeBlocks/MinGW/lib/gcc/x86_64-w64-mingw32/8.1.0/include/c++/bits/stl_iterator.h"
	.loc 16 780 7
	.cfi_startproc
	pushq	%rbp
	.seh_pushreg	%rbp
	.cfi_def_cfa_offset 16
	.cfi_offset 6, -16
	movq	%rsp, %rbp
	.seh_setframe	%rbp, 0
	.cfi_def_cfa_register 6
	.seh_endprologue
	movq	%rcx, 16(%rbp)
	movq	%rdx, 24(%rbp)
.LBB27:
	.loc 16 781 23
	movq	24(%rbp), %rax
	movq	(%rax), %rdx
	movq	16(%rbp), %rax
	movq	%rdx, (%rax)
.LBE27:
	.loc 16 781 27
	nop
	popq	%rbp
	.cfi_restore 6
	.cfi_def_cfa 7, 8
	ret
	.cfi_endproc
.LFE3078:
	.seh_endproc
	.section	.text$_ZNKSt6vectorI12ElementosVooSaIS0_EE12_M_check_lenEyPKc,"x"
	.linkonce discard
	.align 2
	.globl	_ZNKSt6vectorI12ElementosVooSaIS0_EE12_M_check_lenEyPKc
	.def	_ZNKSt6vectorI12ElementosVooSaIS0_EE12_M_check_lenEyPKc;	.scl	2;	.type	32;	.endef
	.seh_proc	_ZNKSt6vectorI12ElementosVooSaIS0_EE12_M_check_lenEyPKc
_ZNKSt6vectorI12ElementosVooSaIS0_EE12_M_check_lenEyPKc:
.LFB3079:
	.loc 7 1635 7
	.cfi_startproc
	pushq	%rbp
	.seh_pushreg	%rbp
	.cfi_def_cfa_offset 16
	.cfi_offset 6, -16
	pushq	%rbx
	.seh_pushreg	%rbx
	.cfi_def_cfa_offset 24
	.cfi_offset 3, -24
	subq	$56, %rsp
	.seh_stackalloc	56
	.cfi_def_cfa_offset 80
	leaq	128(%rsp), %rbp
	.seh_setframe	%rbp, 128
	.cfi_def_cfa 6, -48
	.seh_endprologue
	movq	%rcx, -48(%rbp)
	movq	%rdx, -40(%rbp)
	movq	%r8, -32(%rbp)
	.loc 7 1637 17
	movq	-48(%rbp), %rcx
	call	_ZNKSt6vectorI12ElementosVooSaIS0_EE8max_sizeEv
	movq	%rax, %rbx
	movq	-48(%rbp), %rcx
	call	_ZNKSt6vectorI12ElementosVooSaIS0_EE4sizeEv
	subq	%rax, %rbx
	movq	%rbx, %rdx
	.loc 7 1637 26
	movq	-40(%rbp), %rax
	cmpq	%rax, %rdx
	setb	%al
	.loc 7 1637 2
	testb	%al, %al
	je	.L112
	.loc 7 1638 24
	movq	-32(%rbp), %rax
	movq	%rax, %rcx
	call	_ZSt20__throw_length_errorPKc
.L112:
	.loc 7 1640 33
	movq	-48(%rbp), %rcx
	call	_ZNKSt6vectorI12ElementosVooSaIS0_EE4sizeEv
	movq	%rax, %rbx
	.loc 7 1640 43
	movq	-48(%rbp), %rcx
	call	_ZNKSt6vectorI12ElementosVooSaIS0_EE4sizeEv
	movq	%rax, -96(%rbp)
	leaq	-40(%rbp), %rdx
	leaq	-96(%rbp), %rax
	movq	%rax, %rcx
	call	_ZSt3maxIyERKT_S2_S2_
	.loc 7 1640 33
	movq	(%rax), %rax
	.loc 7 1640 18
	addq	%rbx, %rax
	movq	%rax, -88(%rbp)
	.loc 7 1641 16
	movq	-48(%rbp), %rcx
	call	_ZNKSt6vectorI12ElementosVooSaIS0_EE4sizeEv
	.loc 7 1641 48
	cmpq	%rax, -88(%rbp)
	jb	.L113
	.loc 7 1641 34 discriminator 2
	movq	-48(%rbp), %rcx
	call	_ZNKSt6vectorI12ElementosVooSaIS0_EE8max_sizeEv
	.loc 7 1641 25 discriminator 2
	cmpq	%rax, -88(%rbp)
	jbe	.L114
.L113:
	.loc 7 1641 48 discriminator 3
	movq	-48(%rbp), %rcx
	call	_ZNKSt6vectorI12ElementosVooSaIS0_EE8max_sizeEv
	jmp	.L115
.L114:
	.loc 7 1641 48 is_stmt 0 discriminator 4
	movq	-88(%rbp), %rax
.L115:
	.loc 7 1642 7 is_stmt 1 discriminator 6
	addq	$56, %rsp
	popq	%rbx
	.cfi_restore 3
	popq	%rbp
	.cfi_restore 6
	.cfi_def_cfa 7, -40
	ret
	.cfi_endproc
.LFE3079:
	.seh_endproc
	.section	.text$_ZNSt6vectorI12ElementosVooSaIS0_EE5beginEv,"x"
	.linkonce discard
	.align 2
	.globl	_ZNSt6vectorI12ElementosVooSaIS0_EE5beginEv
	.def	_ZNSt6vectorI12ElementosVooSaIS0_EE5beginEv;	.scl	2;	.type	32;	.endef
	.seh_proc	_ZNSt6vectorI12ElementosVooSaIS0_EE5beginEv
_ZNSt6vectorI12ElementosVooSaIS0_EE5beginEv:
.LFB3080:
	.loc 7 698 7
	.cfi_startproc
	pushq	%rbp
	.seh_pushreg	%rbp
	.cfi_def_cfa_offset 16
	.cfi_offset 6, -16
	movq	%rsp, %rbp
	.seh_setframe	%rbp, 0
	.cfi_def_cfa_register 6
	subq	$48, %rsp
	.seh_stackalloc	48
	.seh_endprologue
	movq	%rcx, 16(%rbp)
	.loc 7 699 39
	movq	16(%rbp), %rdx
	.loc 7 699 47
	leaq	-8(%rbp), %rax
	movq	%rax, %rcx
	call	_ZN9__gnu_cxx17__normal_iteratorIP12ElementosVooSt6vectorIS1_SaIS1_EEEC1ERKS2_
	movq	-8(%rbp), %rax
	.loc 7 699 50
	addq	$48, %rsp
	popq	%rbp
	.cfi_restore 6
	.cfi_def_cfa 7, 8
	ret
	.cfi_endproc
.LFE3080:
	.seh_endproc
	.section	.text$_ZN9__gnu_cxxmiIP12ElementosVooSt6vectorIS1_SaIS1_EEEENS_17__normal_iteratorIT_T0_E15difference_typeERKS9_SC_,"x"
	.linkonce discard
	.globl	_ZN9__gnu_cxxmiIP12ElementosVooSt6vectorIS1_SaIS1_EEEENS_17__normal_iteratorIT_T0_E15difference_typeERKS9_SC_
	.def	_ZN9__gnu_cxxmiIP12ElementosVooSt6vectorIS1_SaIS1_EEEENS_17__normal_iteratorIT_T0_E15difference_typeERKS9_SC_;	.scl	2;	.type	32;	.endef
	.seh_proc	_ZN9__gnu_cxxmiIP12ElementosVooSt6vectorIS1_SaIS1_EEEENS_17__normal_iteratorIT_T0_E15difference_typeERKS9_SC_
_ZN9__gnu_cxxmiIP12ElementosVooSt6vectorIS1_SaIS1_EEEENS_17__normal_iteratorIT_T0_E15difference_typeERKS9_SC_:
.LFB3081:
	.loc 16 963 5
	.cfi_startproc
	pushq	%rbp
	.seh_pushreg	%rbp
	.cfi_def_cfa_offset 16
	.cfi_offset 6, -16
	pushq	%rbx
	.seh_pushreg	%rbx
	.cfi_def_cfa_offset 24
	.cfi_offset 3, -24
	subq	$40, %rsp
	.seh_stackalloc	40
	.cfi_def_cfa_offset 64
	leaq	128(%rsp), %rbp
	.seh_setframe	%rbp, 128
	.cfi_def_cfa 6, -64
	.seh_endprologue
	movq	%rcx, -64(%rbp)
	movq	%rdx, -56(%rbp)
	.loc 16 966 27
	movq	-64(%rbp), %rcx
	call	_ZNK9__gnu_cxx17__normal_iteratorIP12ElementosVooSt6vectorIS1_SaIS1_EEE4baseEv
	movq	(%rax), %rbx
	movq	-56(%rbp), %rax
	movq	%rax, %rcx
	call	_ZNK9__gnu_cxx17__normal_iteratorIP12ElementosVooSt6vectorIS1_SaIS1_EEE4baseEv
	movq	(%rax), %rax
	subq	%rax, %rbx
	movq	%rbx, %rax
	.loc 16 966 40
	sarq	$5, %rax
	movq	%rax, %rdx
	movabsq	$-6148914691236517205, %rax
	imulq	%rdx, %rax
	.loc 16 966 43
	addq	$40, %rsp
	popq	%rbx
	.cfi_restore 3
	popq	%rbp
	.cfi_restore 6
	.cfi_def_cfa 7, -24
	ret
	.cfi_endproc
.LFE3081:
	.seh_endproc
	.section	.text$_ZNSt12_Vector_baseI12ElementosVooSaIS0_EE11_M_allocateEy,"x"
	.linkonce discard
	.align 2
	.globl	_ZNSt12_Vector_baseI12ElementosVooSaIS0_EE11_M_allocateEy
	.def	_ZNSt12_Vector_baseI12ElementosVooSaIS0_EE11_M_allocateEy;	.scl	2;	.type	32;	.endef
	.seh_proc	_ZNSt12_Vector_baseI12ElementosVooSaIS0_EE11_M_allocateEy
_ZNSt12_Vector_baseI12ElementosVooSaIS0_EE11_M_allocateEy:
.LFB3082:
	.loc 7 293 7
	.cfi_startproc
	pushq	%rbp
	.seh_pushreg	%rbp
	.cfi_def_cfa_offset 16
	.cfi_offset 6, -16
	movq	%rsp, %rbp
	.seh_setframe	%rbp, 0
	.cfi_def_cfa_register 6
	subq	$32, %rsp
	.seh_stackalloc	32
	.seh_endprologue
	movq	%rcx, 16(%rbp)
	movq	%rdx, 24(%rbp)
	.loc 7 296 18
	cmpq	$0, 24(%rbp)
	je	.L122
	.loc 7 296 34 discriminator 1
	movq	16(%rbp), %rax
	.loc 7 296 33 discriminator 1
	movq	24(%rbp), %rdx
	movq	%rax, %rcx
	call	_ZNSt16allocator_traitsISaI12ElementosVooEE8allocateERS1_y
	.loc 7 296 58 discriminator 1
	jmp	.L124
.L122:
	.loc 7 296 18 discriminator 2
	movl	$0, %eax
.L124:
	.loc 7 297 7 discriminator 5
	addq	$32, %rsp
	popq	%rbp
	.cfi_restore 6
	.cfi_def_cfa 7, 8
	ret
	.cfi_endproc
.LFE3082:
	.seh_endproc
	.section	.text$_ZNK9__gnu_cxx17__normal_iteratorIP12ElementosVooSt6vectorIS1_SaIS1_EEE4baseEv,"x"
	.linkonce discard
	.align 2
	.globl	_ZNK9__gnu_cxx17__normal_iteratorIP12ElementosVooSt6vectorIS1_SaIS1_EEE4baseEv
	.def	_ZNK9__gnu_cxx17__normal_iteratorIP12ElementosVooSt6vectorIS1_SaIS1_EEE4baseEv;	.scl	2;	.type	32;	.endef
	.seh_proc	_ZNK9__gnu_cxx17__normal_iteratorIP12ElementosVooSt6vectorIS1_SaIS1_EEE4baseEv
_ZNK9__gnu_cxx17__normal_iteratorIP12ElementosVooSt6vectorIS1_SaIS1_EEE4baseEv:
.LFB3083:
	.loc 16 845 7
	.cfi_startproc
	pushq	%rbp
	.seh_pushreg	%rbp
	.cfi_def_cfa_offset 16
	.cfi_offset 6, -16
	movq	%rsp, %rbp
	.seh_setframe	%rbp, 0
	.cfi_def_cfa_register 6
	.seh_endprologue
	movq	%rcx, 16(%rbp)
	.loc 16 846 16
	movq	16(%rbp), %rax
	.loc 16 846 28
	popq	%rbp
	.cfi_restore 6
	.cfi_def_cfa 7, 8
	ret
	.cfi_endproc
.LFE3083:
	.seh_endproc
	.section	.text$_ZSt34__uninitialized_move_if_noexcept_aIP12ElementosVooS1_SaIS0_EET0_T_S4_S3_RT1_,"x"
	.linkonce discard
	.globl	_ZSt34__uninitialized_move_if_noexcept_aIP12ElementosVooS1_SaIS0_EET0_T_S4_S3_RT1_
	.def	_ZSt34__uninitialized_move_if_noexcept_aIP12ElementosVooS1_SaIS0_EET0_T_S4_S3_RT1_;	.scl	2;	.type	32;	.endef
	.seh_proc	_ZSt34__uninitialized_move_if_noexcept_aIP12ElementosVooS1_SaIS0_EET0_T_S4_S3_RT1_
_ZSt34__uninitialized_move_if_noexcept_aIP12ElementosVooS1_SaIS0_EET0_T_S4_S3_RT1_:
.LFB3084:
	.loc 14 305 5
	.cfi_startproc
	pushq	%rbp
	.seh_pushreg	%rbp
	.cfi_def_cfa_offset 16
	.cfi_offset 6, -16
	pushq	%rbx
	.seh_pushreg	%rbx
	.cfi_def_cfa_offset 24
	.cfi_offset 3, -24
	subq	$40, %rsp
	.seh_stackalloc	40
	.cfi_def_cfa_offset 64
	leaq	128(%rsp), %rbp
	.seh_setframe	%rbp, 128
	.cfi_def_cfa 6, -64
	.seh_endprologue
	movq	%rcx, -64(%rbp)
	movq	%rdx, -56(%rbp)
	movq	%r8, -48(%rbp)
	movq	%r9, -40(%rbp)
	.loc 14 311 2
	movq	-56(%rbp), %rax
	movq	%rax, %rcx
	call	_ZSt32__make_move_if_noexcept_iteratorI12ElementosVooSt13move_iteratorIPS0_EET0_PT_
	movq	%rax, %rbx
	movq	-64(%rbp), %rcx
	call	_ZSt32__make_move_if_noexcept_iteratorI12ElementosVooSt13move_iteratorIPS0_EET0_PT_
	movq	%rax, %rcx
	movq	-40(%rbp), %rdx
	movq	-48(%rbp), %rax
	movq	%rdx, %r9
	movq	%rax, %r8
	movq	%rbx, %rdx
	call	_ZSt22__uninitialized_copy_aISt13move_iteratorIP12ElementosVooES2_S1_ET0_T_S5_S4_RSaIT1_E
	.loc 14 313 5
	addq	$40, %rsp
	popq	%rbx
	.cfi_restore 3
	popq	%rbp
	.cfi_restore 6
	.cfi_def_cfa 7, -24
	ret
	.cfi_endproc
.LFE3084:
	.seh_endproc
	.section	.text$_ZNSt16allocator_traitsISaI12ElementosVooEE7destroyIS0_EEvRS1_PT_,"x"
	.linkonce discard
	.globl	_ZNSt16allocator_traitsISaI12ElementosVooEE7destroyIS0_EEvRS1_PT_
	.def	_ZNSt16allocator_traitsISaI12ElementosVooEE7destroyIS0_EEvRS1_PT_;	.scl	2;	.type	32;	.endef
	.seh_proc	_ZNSt16allocator_traitsISaI12ElementosVooEE7destroyIS0_EEvRS1_PT_
_ZNSt16allocator_traitsISaI12ElementosVooEE7destroyIS0_EEvRS1_PT_:
.LFB3085:
	.loc 10 486 2
	.cfi_startproc
	pushq	%rbp
	.seh_pushreg	%rbp
	.cfi_def_cfa_offset 16
	.cfi_offset 6, -16
	movq	%rsp, %rbp
	.seh_setframe	%rbp, 0
	.cfi_def_cfa_register 6
	subq	$32, %rsp
	.seh_stackalloc	32
	.seh_endprologue
	movq	%rcx, 16(%rbp)
	movq	%rdx, 24(%rbp)
	.loc 10 487 4
	movq	24(%rbp), %rax
	movq	%rax, %rdx
	movq	16(%rbp), %rcx
	call	_ZN9__gnu_cxx13new_allocatorI12ElementosVooE7destroyIS1_EEvPT_
	.loc 10 487 22
	nop
	addq	$32, %rsp
	popq	%rbp
	.cfi_restore 6
	.cfi_def_cfa 7, 8
	ret
	.cfi_endproc
.LFE3085:
	.seh_endproc
	.section	.text$_ZNSt16allocator_traitsISaI12ElementosVooEE37select_on_container_copy_constructionERKS1_,"x"
	.linkonce discard
	.globl	_ZNSt16allocator_traitsISaI12ElementosVooEE37select_on_container_copy_constructionERKS1_
	.def	_ZNSt16allocator_traitsISaI12ElementosVooEE37select_on_container_copy_constructionERKS1_;	.scl	2;	.type	32;	.endef
	.seh_proc	_ZNSt16allocator_traitsISaI12ElementosVooEE37select_on_container_copy_constructionERKS1_
_ZNSt16allocator_traitsISaI12ElementosVooEE37select_on_container_copy_constructionERKS1_:
.LFB3086:
	.loc 10 504 7
	.cfi_startproc
	pushq	%rbp
	.seh_pushreg	%rbp
	.cfi_def_cfa_offset 16
	.cfi_offset 6, -16
	movq	%rsp, %rbp
	.seh_setframe	%rbp, 0
	.cfi_def_cfa_register 6
	subq	$32, %rsp
	.seh_stackalloc	32
	.seh_endprologue
	movq	%rcx, 16(%rbp)
	movq	%rdx, 24(%rbp)
	.loc 10 505 16
	movq	24(%rbp), %rax
	movq	%rax, %rdx
	movq	16(%rbp), %rcx
	call	_ZNSaI12ElementosVooEC1ERKS0_
	.loc 10 505 23
	movq	16(%rbp), %rax
	addq	$32, %rsp
	popq	%rbp
	.cfi_restore 6
	.cfi_def_cfa 7, 8
	ret
	.cfi_endproc
.LFE3086:
	.seh_endproc
	.section	.text$_ZNSaI12ElementosVooEC2ERKS0_,"x"
	.linkonce discard
	.align 2
	.globl	_ZNSaI12ElementosVooEC2ERKS0_
	.def	_ZNSaI12ElementosVooEC2ERKS0_;	.scl	2;	.type	32;	.endef
	.seh_proc	_ZNSaI12ElementosVooEC2ERKS0_
_ZNSaI12ElementosVooEC2ERKS0_:
.LFB3088:
	.loc 13 133 7
	.cfi_startproc
	pushq	%rbp
	.seh_pushreg	%rbp
	.cfi_def_cfa_offset 16
	.cfi_offset 6, -16
	movq	%rsp, %rbp
	.seh_setframe	%rbp, 0
	.cfi_def_cfa_register 6
	subq	$32, %rsp
	.seh_stackalloc	32
	.seh_endprologue
	movq	%rcx, 16(%rbp)
	movq	%rdx, 24(%rbp)
.LBB28:
	.loc 13 134 34
	movq	24(%rbp), %rax
	movq	%rax, %rdx
	movq	16(%rbp), %rcx
	call	_ZN9__gnu_cxx13new_allocatorI12ElementosVooEC2ERKS2_
.LBE28:
	.loc 13 134 38
	nop
	addq	$32, %rsp
	popq	%rbp
	.cfi_restore 6
	.cfi_def_cfa 7, 8
	ret
	.cfi_endproc
.LFE3088:
	.seh_endproc
	.section	.text$_ZNSaI12ElementosVooEC1ERKS0_,"x"
	.linkonce discard
	.align 2
	.globl	_ZNSaI12ElementosVooEC1ERKS0_
	.def	_ZNSaI12ElementosVooEC1ERKS0_;	.scl	2;	.type	32;	.endef
	.seh_proc	_ZNSaI12ElementosVooEC1ERKS0_
_ZNSaI12ElementosVooEC1ERKS0_:
.LFB3089:
	.loc 13 133 7
	.cfi_startproc
	pushq	%rbp
	.seh_pushreg	%rbp
	.cfi_def_cfa_offset 16
	.cfi_offset 6, -16
	movq	%rsp, %rbp
	.seh_setframe	%rbp, 0
	.cfi_def_cfa_register 6
	subq	$32, %rsp
	.seh_stackalloc	32
	.seh_endprologue
	movq	%rcx, 16(%rbp)
	movq	%rdx, 24(%rbp)
.LBB29:
	.loc 13 134 34
	movq	24(%rbp), %rax
	movq	%rax, %rdx
	movq	16(%rbp), %rcx
	call	_ZN9__gnu_cxx13new_allocatorI12ElementosVooEC2ERKS2_
.LBE29:
	.loc 13 134 38
	nop
	addq	$32, %rsp
	popq	%rbp
	.cfi_restore 6
	.cfi_def_cfa 7, 8
	ret
	.cfi_endproc
.LFE3089:
	.seh_endproc
	.section	.text$_ZN9__gnu_cxx13new_allocatorI12ElementosVooED2Ev,"x"
	.linkonce discard
	.align 2
	.globl	_ZN9__gnu_cxx13new_allocatorI12ElementosVooED2Ev
	.def	_ZN9__gnu_cxx13new_allocatorI12ElementosVooED2Ev;	.scl	2;	.type	32;	.endef
	.seh_proc	_ZN9__gnu_cxx13new_allocatorI12ElementosVooED2Ev
_ZN9__gnu_cxx13new_allocatorI12ElementosVooED2Ev:
.LFB3091:
	.loc 15 86 7
	.cfi_startproc
	pushq	%rbp
	.seh_pushreg	%rbp
	.cfi_def_cfa_offset 16
	.cfi_offset 6, -16
	movq	%rsp, %rbp
	.seh_setframe	%rbp, 0
	.cfi_def_cfa_register 6
	.seh_endprologue
	movq	%rcx, 16(%rbp)
	.loc 15 86 35
	nop
	popq	%rbp
	.cfi_restore 6
	.cfi_def_cfa 7, 8
	ret
	.cfi_endproc
.LFE3091:
	.seh_endproc
	.section	.text$_ZNSt12_Vector_baseI12ElementosVooSaIS0_EE12_Vector_implC1ERKS1_,"x"
	.linkonce discard
	.align 2
	.globl	_ZNSt12_Vector_baseI12ElementosVooSaIS0_EE12_Vector_implC1ERKS1_
	.def	_ZNSt12_Vector_baseI12ElementosVooSaIS0_EE12_Vector_implC1ERKS1_;	.scl	2;	.type	32;	.endef
	.seh_proc	_ZNSt12_Vector_baseI12ElementosVooSaIS0_EE12_Vector_implC1ERKS1_
_ZNSt12_Vector_baseI12ElementosVooSaIS0_EE12_Vector_implC1ERKS1_:
.LFB3095:
	.loc 7 99 2
	.cfi_startproc
	pushq	%rbp
	.seh_pushreg	%rbp
	.cfi_def_cfa_offset 16
	.cfi_offset 6, -16
	movq	%rsp, %rbp
	.seh_setframe	%rbp, 0
	.cfi_def_cfa_register 6
	subq	$32, %rsp
	.seh_stackalloc	32
	.seh_endprologue
	movq	%rcx, 16(%rbp)
	movq	%rdx, 24(%rbp)
.LBB30:
	.loc 7 100 68
	movq	24(%rbp), %rax
	movq	%rax, %rdx
	movq	16(%rbp), %rcx
	call	_ZNSaI12ElementosVooEC2ERKS0_
	movq	16(%rbp), %rax
	movq	$0, (%rax)
	movq	16(%rbp), %rax
	movq	$0, 8(%rax)
	movq	16(%rbp), %rax
	movq	$0, 16(%rax)
.LBE30:
	.loc 7 101 4
	nop
	addq	$32, %rsp
	popq	%rbp
	.cfi_restore 6
	.cfi_def_cfa 7, 8
	ret
	.cfi_endproc
.LFE3095:
	.seh_endproc
	.section	.text$_ZNSt12_Vector_baseI12ElementosVooSaIS0_EE17_M_create_storageEy,"x"
	.linkonce discard
	.align 2
	.globl	_ZNSt12_Vector_baseI12ElementosVooSaIS0_EE17_M_create_storageEy
	.def	_ZNSt12_Vector_baseI12ElementosVooSaIS0_EE17_M_create_storageEy;	.scl	2;	.type	32;	.endef
	.seh_proc	_ZNSt12_Vector_baseI12ElementosVooSaIS0_EE17_M_create_storageEy
_ZNSt12_Vector_baseI12ElementosVooSaIS0_EE17_M_create_storageEy:
.LFB3096:
	.loc 7 309 7
	.cfi_startproc
	pushq	%rbp
	.seh_pushreg	%rbp
	.cfi_def_cfa_offset 16
	.cfi_offset 6, -16
	movq	%rsp, %rbp
	.seh_setframe	%rbp, 0
	.cfi_def_cfa_register 6
	subq	$32, %rsp
	.seh_stackalloc	32
	.seh_endprologue
	movq	%rcx, 16(%rbp)
	movq	%rdx, 24(%rbp)
	.loc 7 311 25
	movq	24(%rbp), %rax
	movq	%rax, %rdx
	movq	16(%rbp), %rcx
	call	_ZNSt12_Vector_baseI12ElementosVooSaIS0_EE11_M_allocateEy
	movq	%rax, %rdx
	.loc 7 311 2
	movq	16(%rbp), %rax
	movq	%rdx, (%rax)
	.loc 7 312 42
	movq	16(%rbp), %rax
	movq	(%rax), %rdx
	.loc 7 312 2
	movq	16(%rbp), %rax
	movq	%rdx, 8(%rax)
	.loc 7 313 50
	movq	16(%rbp), %rax
	movq	(%rax), %rcx
	.loc 7 313 59
	movq	24(%rbp), %rdx
	movq	%rdx, %rax
	addq	%rax, %rax
	addq	%rdx, %rax
	salq	$5, %rax
	leaq	(%rcx,%rax), %rdx
	.loc 7 313 2
	movq	16(%rbp), %rax
	movq	%rdx, 16(%rax)
	.loc 7 314 7
	nop
	addq	$32, %rsp
	popq	%rbp
	.cfi_restore 6
	.cfi_def_cfa 7, 8
	ret
	.cfi_endproc
.LFE3096:
	.seh_endproc
	.section	.text$_ZN9__gnu_cxx17__normal_iteratorIPK12ElementosVooSt6vectorIS1_SaIS1_EEEC1ERKS3_,"x"
	.linkonce discard
	.align 2
	.globl	_ZN9__gnu_cxx17__normal_iteratorIPK12ElementosVooSt6vectorIS1_SaIS1_EEEC1ERKS3_
	.def	_ZN9__gnu_cxx17__normal_iteratorIPK12ElementosVooSt6vectorIS1_SaIS1_EEEC1ERKS3_;	.scl	2;	.type	32;	.endef
	.seh_proc	_ZN9__gnu_cxx17__normal_iteratorIPK12ElementosVooSt6vectorIS1_SaIS1_EEEC1ERKS3_
_ZN9__gnu_cxx17__normal_iteratorIPK12ElementosVooSt6vectorIS1_SaIS1_EEEC1ERKS3_:
.LFB3099:
	.loc 16 780 7
	.cfi_startproc
	pushq	%rbp
	.seh_pushreg	%rbp
	.cfi_def_cfa_offset 16
	.cfi_offset 6, -16
	movq	%rsp, %rbp
	.seh_setframe	%rbp, 0
	.cfi_def_cfa_register 6
	.seh_endprologue
	movq	%rcx, 16(%rbp)
	movq	%rdx, 24(%rbp)
.LBB31:
	.loc 16 781 23
	movq	24(%rbp), %rax
	movq	(%rax), %rdx
	movq	16(%rbp), %rax
	movq	%rdx, (%rax)
.LBE31:
	.loc 16 781 27
	nop
	popq	%rbp
	.cfi_restore 6
	.cfi_def_cfa 7, 8
	ret
	.cfi_endproc
.LFE3099:
	.seh_endproc
	.section	.text$_ZSt18uninitialized_copyIN9__gnu_cxx17__normal_iteratorIPK12ElementosVooSt6vectorIS2_SaIS2_EEEEPS2_ET0_T_SB_SA_,"x"
	.linkonce discard
	.globl	_ZSt18uninitialized_copyIN9__gnu_cxx17__normal_iteratorIPK12ElementosVooSt6vectorIS2_SaIS2_EEEEPS2_ET0_T_SB_SA_
	.def	_ZSt18uninitialized_copyIN9__gnu_cxx17__normal_iteratorIPK12ElementosVooSt6vectorIS2_SaIS2_EEEEPS2_ET0_T_SB_SA_;	.scl	2;	.type	32;	.endef
	.seh_proc	_ZSt18uninitialized_copyIN9__gnu_cxx17__normal_iteratorIPK12ElementosVooSt6vectorIS2_SaIS2_EEEEPS2_ET0_T_SB_SA_
_ZSt18uninitialized_copyIN9__gnu_cxx17__normal_iteratorIPK12ElementosVooSt6vectorIS2_SaIS2_EEEEPS2_ET0_T_SB_SA_:
.LFB3100:
	.loc 14 115 5
	.cfi_startproc
	pushq	%rbp
	.seh_pushreg	%rbp
	.cfi_def_cfa_offset 16
	.cfi_offset 6, -16
	movq	%rsp, %rbp
	.seh_setframe	%rbp, 0
	.cfi_def_cfa_register 6
	subq	$48, %rsp
	.seh_stackalloc	48
	.seh_endprologue
	movq	%rcx, 16(%rbp)
	movq	%rdx, 24(%rbp)
	movq	%r8, 32(%rbp)
	.loc 14 128 18
	movb	$1, -1(%rbp)
	.loc 14 134 15
	movq	32(%rbp), %rdx
	movq	24(%rbp), %rax
	movq	%rdx, %r8
	movq	%rax, %rdx
	movq	16(%rbp), %rcx
	call	_ZNSt20__uninitialized_copyILb0EE13__uninit_copyIN9__gnu_cxx17__normal_iteratorIPK12ElementosVooSt6vectorIS4_SaIS4_EEEEPS4_EET0_T_SD_SC_
	.loc 14 135 5
	addq	$48, %rsp
	popq	%rbp
	.cfi_restore 6
	.cfi_def_cfa 7, 8
	ret
	.cfi_endproc
.LFE3100:
	.seh_endproc
	.section	.text$_ZNSt16allocator_traitsISaI12ElementosVooEE10deallocateERS1_PS0_y,"x"
	.linkonce discard
	.globl	_ZNSt16allocator_traitsISaI12ElementosVooEE10deallocateERS1_PS0_y
	.def	_ZNSt16allocator_traitsISaI12ElementosVooEE10deallocateERS1_PS0_y;	.scl	2;	.type	32;	.endef
	.seh_proc	_ZNSt16allocator_traitsISaI12ElementosVooEE10deallocateERS1_PS0_y
_ZNSt16allocator_traitsISaI12ElementosVooEE10deallocateERS1_PS0_y:
.LFB3139:
	.loc 10 461 7
	.cfi_startproc
	pushq	%rbp
	.seh_pushreg	%rbp
	.cfi_def_cfa_offset 16
	.cfi_offset 6, -16
	movq	%rsp, %rbp
	.seh_setframe	%rbp, 0
	.cfi_def_cfa_register 6
	subq	$32, %rsp
	.seh_stackalloc	32
	.seh_endprologue
	movq	%rcx, 16(%rbp)
	movq	%rdx, 24(%rbp)
	movq	%r8, 32(%rbp)
	.loc 10 462 9
	movq	32(%rbp), %rdx
	movq	24(%rbp), %rax
	movq	%rdx, %r8
	movq	%rax, %rdx
	movq	16(%rbp), %rcx
	call	_ZN9__gnu_cxx13new_allocatorI12ElementosVooE10deallocateEPS1_y
	.loc 10 462 35
	nop
	addq	$32, %rsp
	popq	%rbp
	.cfi_restore 6
	.cfi_def_cfa 7, 8
	ret
	.cfi_endproc
.LFE3139:
	.seh_endproc
	.section	.text$_ZSt11__addressofI12ElementosVooEPT_RS1_,"x"
	.linkonce discard
	.globl	_ZSt11__addressofI12ElementosVooEPT_RS1_
	.def	_ZSt11__addressofI12ElementosVooEPT_RS1_;	.scl	2;	.type	32;	.endef
	.seh_proc	_ZSt11__addressofI12ElementosVooEPT_RS1_
_ZSt11__addressofI12ElementosVooEPT_RS1_:
.LFB3141:
	.loc 9 47 5
	.cfi_startproc
	pushq	%rbp
	.seh_pushreg	%rbp
	.cfi_def_cfa_offset 16
	.cfi_offset 6, -16
	movq	%rsp, %rbp
	.seh_setframe	%rbp, 0
	.cfi_def_cfa_register 6
	.seh_endprologue
	movq	%rcx, 16(%rbp)
	.loc 9 48 37
	movq	16(%rbp), %rax
	.loc 9 48 40
	popq	%rbp
	.cfi_restore 6
	.cfi_def_cfa 7, 8
	ret
	.cfi_endproc
.LFE3141:
	.seh_endproc
	.section	.text$_ZNSt12_Destroy_auxILb0EE9__destroyIP12ElementosVooEEvT_S4_,"x"
	.linkonce discard
	.globl	_ZNSt12_Destroy_auxILb0EE9__destroyIP12ElementosVooEEvT_S4_
	.def	_ZNSt12_Destroy_auxILb0EE9__destroyIP12ElementosVooEEvT_S4_;	.scl	2;	.type	32;	.endef
	.seh_proc	_ZNSt12_Destroy_auxILb0EE9__destroyIP12ElementosVooEEvT_S4_
_ZNSt12_Destroy_auxILb0EE9__destroyIP12ElementosVooEEvT_S4_:
.LFB3140:
	.loc 8 105 9
	.cfi_startproc
	pushq	%rbp
	.seh_pushreg	%rbp
	.cfi_def_cfa_offset 16
	.cfi_offset 6, -16
	movq	%rsp, %rbp
	.seh_setframe	%rbp, 0
	.cfi_def_cfa_register 6
	subq	$32, %rsp
	.seh_stackalloc	32
	.seh_endprologue
	movq	%rcx, 16(%rbp)
	movq	%rdx, 24(%rbp)
.L145:
	.loc 8 107 19 discriminator 2
	movq	16(%rbp), %rax
	cmpq	24(%rbp), %rax
	je	.L146
	.loc 8 108 19 discriminator 1
	movq	16(%rbp), %rcx
	call	_ZSt11__addressofI12ElementosVooEPT_RS1_
	movq	%rax, %rcx
	call	_ZSt8_DestroyI12ElementosVooEvPT_
	.loc 8 107 4 discriminator 1
	addq	$96, 16(%rbp)
	jmp	.L145
.L146:
	.loc 8 109 2
	nop
	addq	$32, %rsp
	popq	%rbp
	.cfi_restore 6
	.cfi_def_cfa 7, 8
	ret
	.cfi_endproc
.LFE3140:
	.seh_endproc
	.section	.text$_ZNKSt6vectorI12ElementosVooSaIS0_EE8max_sizeEv,"x"
	.linkonce discard
	.align 2
	.globl	_ZNKSt6vectorI12ElementosVooSaIS0_EE8max_sizeEv
	.def	_ZNKSt6vectorI12ElementosVooSaIS0_EE8max_sizeEv;	.scl	2;	.type	32;	.endef
	.seh_proc	_ZNKSt6vectorI12ElementosVooSaIS0_EE8max_sizeEv
_ZNKSt6vectorI12ElementosVooSaIS0_EE8max_sizeEv:
.LFB3142:
	.loc 7 810 7
	.cfi_startproc
	pushq	%rbp
	.seh_pushreg	%rbp
	.cfi_def_cfa_offset 16
	.cfi_offset 6, -16
	movq	%rsp, %rbp
	.seh_setframe	%rbp, 0
	.cfi_def_cfa_register 6
	subq	$32, %rsp
	.seh_stackalloc	32
	.seh_endprologue
	movq	%rcx, 16(%rbp)
	.loc 7 811 59
	movq	16(%rbp), %rax
	movq	%rax, %rcx
	call	_ZNKSt12_Vector_baseI12ElementosVooSaIS0_EE19_M_get_Tp_allocatorEv
	.loc 7 811 39
	movq	%rax, %rcx
	call	_ZNSt16allocator_traitsISaI12ElementosVooEE8max_sizeERKS1_
	.loc 7 811 64
	addq	$32, %rsp
	popq	%rbp
	.cfi_restore 6
	.cfi_def_cfa 7, 8
	ret
	.cfi_endproc
.LFE3142:
	.seh_endproc
	.section	.text$_ZSt3maxIyERKT_S2_S2_,"x"
	.linkonce discard
	.globl	_ZSt3maxIyERKT_S2_S2_
	.def	_ZSt3maxIyERKT_S2_S2_;	.scl	2;	.type	32;	.endef
	.seh_proc	_ZSt3maxIyERKT_S2_S2_
_ZSt3maxIyERKT_S2_S2_:
.LFB3143:
	.file 17 "C:/Program Files/CodeBlocks/MinGW/lib/gcc/x86_64-w64-mingw32/8.1.0/include/c++/bits/stl_algobase.h"
	.loc 17 219 5
	.cfi_startproc
	pushq	%rbp
	.seh_pushreg	%rbp
	.cfi_def_cfa_offset 16
	.cfi_offset 6, -16
	movq	%rsp, %rbp
	.seh_setframe	%rbp, 0
	.cfi_def_cfa_register 6
	.seh_endprologue
	movq	%rcx, 16(%rbp)
	movq	%rdx, 24(%rbp)
	.loc 17 224 15
	movq	16(%rbp), %rax
	movq	(%rax), %rdx
	movq	24(%rbp), %rax
	movq	(%rax), %rax
	.loc 17 224 7
	cmpq	%rax, %rdx
	jnb	.L150
	.loc 17 225 9
	movq	24(%rbp), %rax
	jmp	.L151
.L150:
	.loc 17 226 14
	movq	16(%rbp), %rax
.L151:
	.loc 17 227 5
	popq	%rbp
	.cfi_restore 6
	.cfi_def_cfa 7, 8
	ret
	.cfi_endproc
.LFE3143:
	.seh_endproc
	.section	.text$_ZNSt16allocator_traitsISaI12ElementosVooEE8allocateERS1_y,"x"
	.linkonce discard
	.globl	_ZNSt16allocator_traitsISaI12ElementosVooEE8allocateERS1_y
	.def	_ZNSt16allocator_traitsISaI12ElementosVooEE8allocateERS1_y;	.scl	2;	.type	32;	.endef
	.seh_proc	_ZNSt16allocator_traitsISaI12ElementosVooEE8allocateERS1_y
_ZNSt16allocator_traitsISaI12ElementosVooEE8allocateERS1_y:
.LFB3144:
	.loc 10 435 7
	.cfi_startproc
	pushq	%rbp
	.seh_pushreg	%rbp
	.cfi_def_cfa_offset 16
	.cfi_offset 6, -16
	movq	%rsp, %rbp
	.seh_setframe	%rbp, 0
	.cfi_def_cfa_register 6
	subq	$32, %rsp
	.seh_stackalloc	32
	.seh_endprologue
	movq	%rcx, 16(%rbp)
	movq	%rdx, 24(%rbp)
	.loc 10 436 32
	movq	24(%rbp), %rax
	movl	$0, %r8d
	movq	%rax, %rdx
	movq	16(%rbp), %rcx
	call	_ZN9__gnu_cxx13new_allocatorI12ElementosVooE8allocateEyPKv
	.loc 10 436 35
	addq	$32, %rsp
	popq	%rbp
	.cfi_restore 6
	.cfi_def_cfa 7, 8
	ret
	.cfi_endproc
.LFE3144:
	.seh_endproc
	.section	.text$_ZSt32__make_move_if_noexcept_iteratorI12ElementosVooSt13move_iteratorIPS0_EET0_PT_,"x"
	.linkonce discard
	.globl	_ZSt32__make_move_if_noexcept_iteratorI12ElementosVooSt13move_iteratorIPS0_EET0_PT_
	.def	_ZSt32__make_move_if_noexcept_iteratorI12ElementosVooSt13move_iteratorIPS0_EET0_PT_;	.scl	2;	.type	32;	.endef
	.seh_proc	_ZSt32__make_move_if_noexcept_iteratorI12ElementosVooSt13move_iteratorIPS0_EET0_PT_
_ZSt32__make_move_if_noexcept_iteratorI12ElementosVooSt13move_iteratorIPS0_EET0_PT_:
.LFB3145:
	.loc 16 1215 5
	.cfi_startproc
	pushq	%rbp
	.seh_pushreg	%rbp
	.cfi_def_cfa_offset 16
	.cfi_offset 6, -16
	movq	%rsp, %rbp
	.seh_setframe	%rbp, 0
	.cfi_def_cfa_register 6
	subq	$48, %rsp
	.seh_stackalloc	48
	.seh_endprologue
	movq	%rcx, 16(%rbp)
	.loc 16 1216 29
	leaq	-8(%rbp), %rax
	movq	16(%rbp), %rdx
	movq	%rax, %rcx
	call	_ZNSt13move_iteratorIP12ElementosVooEC1ES1_
	movq	-8(%rbp), %rax
	.loc 16 1216 32
	addq	$48, %rsp
	popq	%rbp
	.cfi_restore 6
	.cfi_def_cfa 7, 8
	ret
	.cfi_endproc
.LFE3145:
	.seh_endproc
	.section	.text$_ZSt22__uninitialized_copy_aISt13move_iteratorIP12ElementosVooES2_S1_ET0_T_S5_S4_RSaIT1_E,"x"
	.linkonce discard
	.globl	_ZSt22__uninitialized_copy_aISt13move_iteratorIP12ElementosVooES2_S1_ET0_T_S5_S4_RSaIT1_E
	.def	_ZSt22__uninitialized_copy_aISt13move_iteratorIP12ElementosVooES2_S1_ET0_T_S5_S4_RSaIT1_E;	.scl	2;	.type	32;	.endef
	.seh_proc	_ZSt22__uninitialized_copy_aISt13move_iteratorIP12ElementosVooES2_S1_ET0_T_S5_S4_RSaIT1_E
_ZSt22__uninitialized_copy_aISt13move_iteratorIP12ElementosVooES2_S1_ET0_T_S5_S4_RSaIT1_E:
.LFB3146:
	.loc 14 287 5
	.cfi_startproc
	pushq	%rbp
	.seh_pushreg	%rbp
	.cfi_def_cfa_offset 16
	.cfi_offset 6, -16
	movq	%rsp, %rbp
	.seh_setframe	%rbp, 0
	.cfi_def_cfa_register 6
	subq	$32, %rsp
	.seh_stackalloc	32
	.seh_endprologue
	movq	%rcx, 16(%rbp)
	movq	%rdx, 24(%rbp)
	movq	%r8, 32(%rbp)
	movq	%r9, 40(%rbp)
	.loc 14 289 37
	movq	32(%rbp), %rdx
	movq	24(%rbp), %rax
	movq	%rdx, %r8
	movq	%rax, %rdx
	movq	16(%rbp), %rcx
	call	_ZSt18uninitialized_copyISt13move_iteratorIP12ElementosVooES2_ET0_T_S5_S4_
	.loc 14 289 66
	addq	$32, %rsp
	popq	%rbp
	.cfi_restore 6
	.cfi_def_cfa 7, 8
	ret
	.cfi_endproc
.LFE3146:
	.seh_endproc
	.section	.text$_ZN9__gnu_cxx13new_allocatorI12ElementosVooE7destroyIS1_EEvPT_,"x"
	.linkonce discard
	.align 2
	.globl	_ZN9__gnu_cxx13new_allocatorI12ElementosVooE7destroyIS1_EEvPT_
	.def	_ZN9__gnu_cxx13new_allocatorI12ElementosVooE7destroyIS1_EEvPT_;	.scl	2;	.type	32;	.endef
	.seh_proc	_ZN9__gnu_cxx13new_allocatorI12ElementosVooE7destroyIS1_EEvPT_
_ZN9__gnu_cxx13new_allocatorI12ElementosVooE7destroyIS1_EEvPT_:
.LFB3147:
	.loc 15 140 2
	.cfi_startproc
	pushq	%rbp
	.seh_pushreg	%rbp
	.cfi_def_cfa_offset 16
	.cfi_offset 6, -16
	movq	%rsp, %rbp
	.seh_setframe	%rbp, 0
	.cfi_def_cfa_register 6
	subq	$32, %rsp
	.seh_stackalloc	32
	.seh_endprologue
	movq	%rcx, 16(%rbp)
	movq	%rdx, 24(%rbp)
	.loc 15 140 22
	movq	24(%rbp), %rax
	movq	(%rax), %rax
	movq	(%rax), %rax
	movq	24(%rbp), %rdx
	movq	%rdx, %rcx
	call	*%rax
.LVL4:
	.loc 15 140 35
	nop
	addq	$32, %rsp
	popq	%rbp
	.cfi_restore 6
	.cfi_def_cfa 7, 8
	ret
	.cfi_endproc
.LFE3147:
	.seh_endproc
	.section	.text$_ZN9__gnu_cxx13new_allocatorI12ElementosVooEC2ERKS2_,"x"
	.linkonce discard
	.align 2
	.globl	_ZN9__gnu_cxx13new_allocatorI12ElementosVooEC2ERKS2_
	.def	_ZN9__gnu_cxx13new_allocatorI12ElementosVooEC2ERKS2_;	.scl	2;	.type	32;	.endef
	.seh_proc	_ZN9__gnu_cxx13new_allocatorI12ElementosVooEC2ERKS2_
_ZN9__gnu_cxx13new_allocatorI12ElementosVooEC2ERKS2_:
.LFB3149:
	.loc 15 81 7
	.cfi_startproc
	pushq	%rbp
	.seh_pushreg	%rbp
	.cfi_def_cfa_offset 16
	.cfi_offset 6, -16
	movq	%rsp, %rbp
	.seh_setframe	%rbp, 0
	.cfi_def_cfa_register 6
	.seh_endprologue
	movq	%rcx, 16(%rbp)
	movq	%rdx, 24(%rbp)
	.loc 15 81 54
	nop
	popq	%rbp
	.cfi_restore 6
	.cfi_def_cfa 7, 8
	ret
	.cfi_endproc
.LFE3149:
	.seh_endproc
	.section	.text$_ZNSt20__uninitialized_copyILb0EE13__uninit_copyIN9__gnu_cxx17__normal_iteratorIPK12ElementosVooSt6vectorIS4_SaIS4_EEEEPS4_EET0_T_SD_SC_,"x"
	.linkonce discard
	.globl	_ZNSt20__uninitialized_copyILb0EE13__uninit_copyIN9__gnu_cxx17__normal_iteratorIPK12ElementosVooSt6vectorIS4_SaIS4_EEEEPS4_EET0_T_SD_SC_
	.def	_ZNSt20__uninitialized_copyILb0EE13__uninit_copyIN9__gnu_cxx17__normal_iteratorIPK12ElementosVooSt6vectorIS4_SaIS4_EEEEPS4_EET0_T_SD_SC_;	.scl	2;	.type	32;	.endef
	.seh_proc	_ZNSt20__uninitialized_copyILb0EE13__uninit_copyIN9__gnu_cxx17__normal_iteratorIPK12ElementosVooSt6vectorIS4_SaIS4_EEEEPS4_EET0_T_SD_SC_
_ZNSt20__uninitialized_copyILb0EE13__uninit_copyIN9__gnu_cxx17__normal_iteratorIPK12ElementosVooSt6vectorIS4_SaIS4_EEEEPS4_EET0_T_SD_SC_:
.LFB3151:
	.loc 14 76 9
	.cfi_startproc
	pushq	%rbp
	.seh_pushreg	%rbp
	.cfi_def_cfa_offset 16
	.cfi_offset 6, -16
	pushq	%rbx
	.seh_pushreg	%rbx
	.cfi_def_cfa_offset 24
	.cfi_offset 3, -24
	subq	$56, %rsp
	.seh_stackalloc	56
	.cfi_def_cfa_offset 80
	leaq	128(%rsp), %rbp
	.seh_setframe	%rbp, 128
	.cfi_def_cfa 6, -48
	.seh_endprologue
	movq	%rcx, -48(%rbp)
	movq	%rdx, -40(%rbp)
	movq	%r8, -32(%rbp)
	.loc 14 79 21
	movq	-32(%rbp), %rax
	movq	%rax, -88(%rbp)
.L162:
	.loc 14 82 23 discriminator 2
	leaq	-40(%rbp), %rax
	movq	%rax, %rdx
	leaq	-48(%rbp), %rcx
	call	_ZN9__gnu_cxxneIPK12ElementosVooSt6vectorIS1_SaIS1_EEEEbRKNS_17__normal_iteratorIT_T0_EESC_
	testb	%al, %al
	je	.L161
	.loc 14 83 45 discriminator 1
	leaq	-48(%rbp), %rcx
	call	_ZNK9__gnu_cxx17__normal_iteratorIPK12ElementosVooSt6vectorIS1_SaIS1_EEEdeEv
	movq	%rax, %rbx
	.loc 14 83 18 discriminator 1
	movq	-88(%rbp), %rax
	movq	%rax, %rcx
	call	_ZSt11__addressofI12ElementosVooEPT_RS1_
	movq	%rbx, %rdx
	movq	%rax, %rcx
	call	_ZSt10_ConstructI12ElementosVooJRKS0_EEvPT_DpOT0_
	.loc 14 82 34 discriminator 1
	leaq	-48(%rbp), %rcx
	call	_ZN9__gnu_cxx17__normal_iteratorIPK12ElementosVooSt6vectorIS1_SaIS1_EEEppEv
	.loc 14 82 8 discriminator 1
	addq	$96, -88(%rbp)
	jmp	.L162
.L161:
	.loc 14 84 15
	movq	-88(%rbp), %rax
	.loc 14 91 2
	addq	$56, %rsp
	popq	%rbx
	.cfi_restore 3
	popq	%rbp
	.cfi_restore 6
	.cfi_def_cfa 7, -40
	ret
	.cfi_endproc
.LFE3151:
	.seh_endproc
	.section	.text$_ZN9__gnu_cxx13new_allocatorI12ElementosVooE10deallocateEPS1_y,"x"
	.linkonce discard
	.align 2
	.globl	_ZN9__gnu_cxx13new_allocatorI12ElementosVooE10deallocateEPS1_y
	.def	_ZN9__gnu_cxx13new_allocatorI12ElementosVooE10deallocateEPS1_y;	.scl	2;	.type	32;	.endef
	.seh_proc	_ZN9__gnu_cxx13new_allocatorI12ElementosVooE10deallocateEPS1_y
_ZN9__gnu_cxx13new_allocatorI12ElementosVooE10deallocateEPS1_y:
.LFB3178:
	.loc 15 116 7
	.cfi_startproc
	pushq	%rbp
	.seh_pushreg	%rbp
	.cfi_def_cfa_offset 16
	.cfi_offset 6, -16
	movq	%rsp, %rbp
	.seh_setframe	%rbp, 0
	.cfi_def_cfa_register 6
	subq	$32, %rsp
	.seh_stackalloc	32
	.seh_endprologue
	movq	%rcx, 16(%rbp)
	movq	%rdx, 24(%rbp)
	movq	%r8, 32(%rbp)
	.loc 15 125 19
	movq	24(%rbp), %rax
	movq	%rax, %rcx
	call	_ZdlPv
	.loc 15 126 7
	nop
	addq	$32, %rsp
	popq	%rbp
	.cfi_restore 6
	.cfi_def_cfa 7, 8
	ret
	.cfi_endproc
.LFE3178:
	.seh_endproc
	.section	.text$_ZSt8_DestroyI12ElementosVooEvPT_,"x"
	.linkonce discard
	.globl	_ZSt8_DestroyI12ElementosVooEvPT_
	.def	_ZSt8_DestroyI12ElementosVooEvPT_;	.scl	2;	.type	32;	.endef
	.seh_proc	_ZSt8_DestroyI12ElementosVooEvPT_
_ZSt8_DestroyI12ElementosVooEvPT_:
.LFB3179:
	.loc 8 97 5
	.cfi_startproc
	pushq	%rbp
	.seh_pushreg	%rbp
	.cfi_def_cfa_offset 16
	.cfi_offset 6, -16
	movq	%rsp, %rbp
	.seh_setframe	%rbp, 0
	.cfi_def_cfa_register 6
	subq	$32, %rsp
	.seh_stackalloc	32
	.seh_endprologue
	movq	%rcx, 16(%rbp)
	.loc 8 98 7
	movq	16(%rbp), %rax
	movq	(%rax), %rax
	movq	(%rax), %rax
	movq	16(%rbp), %rcx
	call	*%rax
.LVL5:
	.loc 8 98 26
	nop
	addq	$32, %rsp
	popq	%rbp
	.cfi_restore 6
	.cfi_def_cfa 7, 8
	ret
	.cfi_endproc
.LFE3179:
	.seh_endproc
	.section	.text$_ZNSt16allocator_traitsISaI12ElementosVooEE8max_sizeERKS1_,"x"
	.linkonce discard
	.globl	_ZNSt16allocator_traitsISaI12ElementosVooEE8max_sizeERKS1_
	.def	_ZNSt16allocator_traitsISaI12ElementosVooEE8max_sizeERKS1_;	.scl	2;	.type	32;	.endef
	.seh_proc	_ZNSt16allocator_traitsISaI12ElementosVooEE8max_sizeERKS1_
_ZNSt16allocator_traitsISaI12ElementosVooEE8max_sizeERKS1_:
.LFB3180:
	.loc 10 495 7
	.cfi_startproc
	pushq	%rbp
	.seh_pushreg	%rbp
	.cfi_def_cfa_offset 16
	.cfi_offset 6, -16
	movq	%rsp, %rbp
	.seh_setframe	%rbp, 0
	.cfi_def_cfa_register 6
	subq	$32, %rsp
	.seh_stackalloc	32
	.seh_endprologue
	movq	%rcx, 16(%rbp)
	.loc 10 496 29
	movq	16(%rbp), %rcx
	call	_ZNK9__gnu_cxx13new_allocatorI12ElementosVooE8max_sizeEv
	.loc 10 496 32
	addq	$32, %rsp
	popq	%rbp
	.cfi_restore 6
	.cfi_def_cfa 7, 8
	ret
	.cfi_endproc
.LFE3180:
	.seh_endproc
	.section	.text$_ZN9__gnu_cxx13new_allocatorI12ElementosVooE8allocateEyPKv,"x"
	.linkonce discard
	.align 2
	.globl	_ZN9__gnu_cxx13new_allocatorI12ElementosVooE8allocateEyPKv
	.def	_ZN9__gnu_cxx13new_allocatorI12ElementosVooE8allocateEyPKv;	.scl	2;	.type	32;	.endef
	.seh_proc	_ZN9__gnu_cxx13new_allocatorI12ElementosVooE8allocateEyPKv
_ZN9__gnu_cxx13new_allocatorI12ElementosVooE8allocateEyPKv:
.LFB3181:
	.loc 15 99 7
	.cfi_startproc
	pushq	%rbp
	.seh_pushreg	%rbp
	.cfi_def_cfa_offset 16
	.cfi_offset 6, -16
	movq	%rsp, %rbp
	.seh_setframe	%rbp, 0
	.cfi_def_cfa_register 6
	subq	$32, %rsp
	.seh_stackalloc	32
	.seh_endprologue
	movq	%rcx, 16(%rbp)
	movq	%rdx, 24(%rbp)
	movq	%r8, 32(%rbp)
	.loc 15 101 10
	movq	16(%rbp), %rcx
	call	_ZNK9__gnu_cxx13new_allocatorI12ElementosVooE8max_sizeEv
	cmpq	%rax, 24(%rbp)
	seta	%al
	.loc 15 101 2
	testb	%al, %al
	je	.L169
	.loc 15 102 26
	call	_ZSt17__throw_bad_allocv
.L169:
	.loc 15 111 41
	movq	24(%rbp), %rdx
	movq	%rdx, %rax
	addq	%rax, %rax
	addq	%rdx, %rax
	salq	$5, %rax
	movq	%rax, %rcx
	call	_Znwy
	.loc 15 112 7
	addq	$32, %rsp
	popq	%rbp
	.cfi_restore 6
	.cfi_def_cfa 7, 8
	ret
	.cfi_endproc
.LFE3181:
	.seh_endproc
	.section	.text$_ZNSt13move_iteratorIP12ElementosVooEC1ES1_,"x"
	.linkonce discard
	.align 2
	.globl	_ZNSt13move_iteratorIP12ElementosVooEC1ES1_
	.def	_ZNSt13move_iteratorIP12ElementosVooEC1ES1_;	.scl	2;	.type	32;	.endef
	.seh_proc	_ZNSt13move_iteratorIP12ElementosVooEC1ES1_
_ZNSt13move_iteratorIP12ElementosVooEC1ES1_:
.LFB3184:
	.loc 16 1030 7
	.cfi_startproc
	pushq	%rbp
	.seh_pushreg	%rbp
	.cfi_def_cfa_offset 16
	.cfi_offset 6, -16
	movq	%rsp, %rbp
	.seh_setframe	%rbp, 0
	.cfi_def_cfa_register 6
	.seh_endprologue
	movq	%rcx, 16(%rbp)
	movq	%rdx, 24(%rbp)
.LBB32:
	.loc 16 1031 23
	movq	16(%rbp), %rax
	movq	24(%rbp), %rdx
	movq	%rdx, (%rax)
.LBE32:
	.loc 16 1031 27
	nop
	popq	%rbp
	.cfi_restore 6
	.cfi_def_cfa 7, 8
	ret
	.cfi_endproc
.LFE3184:
	.seh_endproc
	.section	.text$_ZSt18uninitialized_copyISt13move_iteratorIP12ElementosVooES2_ET0_T_S5_S4_,"x"
	.linkonce discard
	.globl	_ZSt18uninitialized_copyISt13move_iteratorIP12ElementosVooES2_ET0_T_S5_S4_
	.def	_ZSt18uninitialized_copyISt13move_iteratorIP12ElementosVooES2_ET0_T_S5_S4_;	.scl	2;	.type	32;	.endef
	.seh_proc	_ZSt18uninitialized_copyISt13move_iteratorIP12ElementosVooES2_ET0_T_S5_S4_
_ZSt18uninitialized_copyISt13move_iteratorIP12ElementosVooES2_ET0_T_S5_S4_:
.LFB3185:
	.loc 14 115 5
	.cfi_startproc
	pushq	%rbp
	.seh_pushreg	%rbp
	.cfi_def_cfa_offset 16
	.cfi_offset 6, -16
	movq	%rsp, %rbp
	.seh_setframe	%rbp, 0
	.cfi_def_cfa_register 6
	subq	$48, %rsp
	.seh_stackalloc	48
	.seh_endprologue
	movq	%rcx, 16(%rbp)
	movq	%rdx, 24(%rbp)
	movq	%r8, 32(%rbp)
	.loc 14 128 18
	movb	$1, -1(%rbp)
	.loc 14 134 15
	movq	32(%rbp), %rdx
	movq	24(%rbp), %rax
	movq	%rdx, %r8
	movq	%rax, %rdx
	movq	16(%rbp), %rcx
	call	_ZNSt20__uninitialized_copyILb0EE13__uninit_copyISt13move_iteratorIP12ElementosVooES4_EET0_T_S7_S6_
	.loc 14 135 5
	addq	$48, %rsp
	popq	%rbp
	.cfi_restore 6
	.cfi_def_cfa 7, 8
	ret
	.cfi_endproc
.LFE3185:
	.seh_endproc
	.section	.text$_ZN9__gnu_cxxneIPK12ElementosVooSt6vectorIS1_SaIS1_EEEEbRKNS_17__normal_iteratorIT_T0_EESC_,"x"
	.linkonce discard
	.globl	_ZN9__gnu_cxxneIPK12ElementosVooSt6vectorIS1_SaIS1_EEEEbRKNS_17__normal_iteratorIT_T0_EESC_
	.def	_ZN9__gnu_cxxneIPK12ElementosVooSt6vectorIS1_SaIS1_EEEEbRKNS_17__normal_iteratorIT_T0_EESC_;	.scl	2;	.type	32;	.endef
	.seh_proc	_ZN9__gnu_cxxneIPK12ElementosVooSt6vectorIS1_SaIS1_EEEEbRKNS_17__normal_iteratorIT_T0_EESC_
_ZN9__gnu_cxxneIPK12ElementosVooSt6vectorIS1_SaIS1_EEEEbRKNS_17__normal_iteratorIT_T0_EESC_:
.LFB3186:
	.loc 16 881 5
	.cfi_startproc
	pushq	%rbp
	.seh_pushreg	%rbp
	.cfi_def_cfa_offset 16
	.cfi_offset 6, -16
	pushq	%rbx
	.seh_pushreg	%rbx
	.cfi_def_cfa_offset 24
	.cfi_offset 3, -24
	subq	$40, %rsp
	.seh_stackalloc	40
	.cfi_def_cfa_offset 64
	leaq	128(%rsp), %rbp
	.seh_setframe	%rbp, 128
	.cfi_def_cfa 6, -64
	.seh_endprologue
	movq	%rcx, -64(%rbp)
	movq	%rdx, -56(%rbp)
	.loc 16 884 27
	movq	-64(%rbp), %rcx
	call	_ZNK9__gnu_cxx17__normal_iteratorIPK12ElementosVooSt6vectorIS1_SaIS1_EEE4baseEv
	movq	(%rax), %rbx
	movq	-56(%rbp), %rax
	movq	%rax, %rcx
	call	_ZNK9__gnu_cxx17__normal_iteratorIPK12ElementosVooSt6vectorIS1_SaIS1_EEE4baseEv
	movq	(%rax), %rax
	.loc 16 884 41
	cmpq	%rax, %rbx
	setne	%al
	.loc 16 884 44
	addq	$40, %rsp
	popq	%rbx
	.cfi_restore 3
	popq	%rbp
	.cfi_restore 6
	.cfi_def_cfa 7, -24
	ret
	.cfi_endproc
.LFE3186:
	.seh_endproc
	.section	.text$_ZN9__gnu_cxx17__normal_iteratorIPK12ElementosVooSt6vectorIS1_SaIS1_EEEppEv,"x"
	.linkonce discard
	.align 2
	.globl	_ZN9__gnu_cxx17__normal_iteratorIPK12ElementosVooSt6vectorIS1_SaIS1_EEEppEv
	.def	_ZN9__gnu_cxx17__normal_iteratorIPK12ElementosVooSt6vectorIS1_SaIS1_EEEppEv;	.scl	2;	.type	32;	.endef
	.seh_proc	_ZN9__gnu_cxx17__normal_iteratorIPK12ElementosVooSt6vectorIS1_SaIS1_EEEppEv
_ZN9__gnu_cxx17__normal_iteratorIPK12ElementosVooSt6vectorIS1_SaIS1_EEEppEv:
.LFB3187:
	.loc 16 801 7
	.cfi_startproc
	pushq	%rbp
	.seh_pushreg	%rbp
	.cfi_def_cfa_offset 16
	.cfi_offset 6, -16
	movq	%rsp, %rbp
	.seh_setframe	%rbp, 0
	.cfi_def_cfa_register 6
	.seh_endprologue
	movq	%rcx, 16(%rbp)
	.loc 16 803 4
	movq	16(%rbp), %rax
	movq	(%rax), %rax
	.loc 16 803 2
	leaq	96(%rax), %rdx
	movq	16(%rbp), %rax
	movq	%rdx, (%rax)
	.loc 16 804 10
	movq	16(%rbp), %rax
	.loc 16 805 7
	popq	%rbp
	.cfi_restore 6
	.cfi_def_cfa 7, 8
	ret
	.cfi_endproc
.LFE3187:
	.seh_endproc
	.section	.text$_ZNK9__gnu_cxx17__normal_iteratorIPK12ElementosVooSt6vectorIS1_SaIS1_EEEdeEv,"x"
	.linkonce discard
	.align 2
	.globl	_ZNK9__gnu_cxx17__normal_iteratorIPK12ElementosVooSt6vectorIS1_SaIS1_EEEdeEv
	.def	_ZNK9__gnu_cxx17__normal_iteratorIPK12ElementosVooSt6vectorIS1_SaIS1_EEEdeEv;	.scl	2;	.type	32;	.endef
	.seh_proc	_ZNK9__gnu_cxx17__normal_iteratorIPK12ElementosVooSt6vectorIS1_SaIS1_EEEdeEv
_ZNK9__gnu_cxx17__normal_iteratorIPK12ElementosVooSt6vectorIS1_SaIS1_EEEdeEv:
.LFB3188:
	.loc 16 793 7
	.cfi_startproc
	pushq	%rbp
	.seh_pushreg	%rbp
	.cfi_def_cfa_offset 16
	.cfi_offset 6, -16
	movq	%rsp, %rbp
	.seh_setframe	%rbp, 0
	.cfi_def_cfa_register 6
	.seh_endprologue
	movq	%rcx, 16(%rbp)
	.loc 16 794 17
	movq	16(%rbp), %rax
	movq	(%rax), %rax
	.loc 16 794 29
	popq	%rbp
	.cfi_restore 6
	.cfi_def_cfa 7, 8
	ret
	.cfi_endproc
.LFE3188:
	.seh_endproc
	.section	.text$_ZSt10_ConstructI12ElementosVooJRKS0_EEvPT_DpOT0_,"x"
	.linkonce discard
	.globl	_ZSt10_ConstructI12ElementosVooJRKS0_EEvPT_DpOT0_
	.def	_ZSt10_ConstructI12ElementosVooJRKS0_EEvPT_DpOT0_;	.scl	2;	.type	32;	.endef
	.seh_proc	_ZSt10_ConstructI12ElementosVooJRKS0_EEvPT_DpOT0_
_ZSt10_ConstructI12ElementosVooJRKS0_EEvPT_DpOT0_:
.LFB3189:
	.loc 8 74 5
	.cfi_startproc
	pushq	%rbp
	.seh_pushreg	%rbp
	.cfi_def_cfa_offset 16
	.cfi_offset 6, -16
	pushq	%rbx
	.seh_pushreg	%rbx
	.cfi_def_cfa_offset 24
	.cfi_offset 3, -24
	subq	$40, %rsp
	.seh_stackalloc	40
	.cfi_def_cfa_offset 64
	leaq	128(%rsp), %rbp
	.seh_setframe	%rbp, 128
	.cfi_def_cfa 6, -64
	.seh_endprologue
	movq	%rcx, -64(%rbp)
	movq	%rdx, -56(%rbp)
	.loc 8 75 61
	movq	-56(%rbp), %rax
	movq	%rax, %rcx
	call	_ZSt7forwardIRK12ElementosVooEOT_RNSt16remove_referenceIS3_E4typeE
	movq	%rax, %rbx
	.loc 8 75 7
	movq	-64(%rbp), %rax
	movq	%rax, %rdx
	movl	$96, %ecx
	call	_ZnwyPv
	movq	%rbx, %rdx
	movq	%rax, %rcx
	call	_ZN12ElementosVooC1ERKS_
	.loc 8 75 75
	nop
	addq	$40, %rsp
	popq	%rbx
	.cfi_restore 3
	popq	%rbp
	.cfi_restore 6
	.cfi_def_cfa 7, -24
	ret
	.cfi_endproc
.LFE3189:
	.seh_endproc
	.section	.text$_ZNK9__gnu_cxx13new_allocatorI12ElementosVooE8max_sizeEv,"x"
	.linkonce discard
	.align 2
	.globl	_ZNK9__gnu_cxx13new_allocatorI12ElementosVooE8max_sizeEv
	.def	_ZNK9__gnu_cxx13new_allocatorI12ElementosVooE8max_sizeEv;	.scl	2;	.type	32;	.endef
	.seh_proc	_ZNK9__gnu_cxx13new_allocatorI12ElementosVooE8max_sizeEv
_ZNK9__gnu_cxx13new_allocatorI12ElementosVooE8max_sizeEv:
.LFB3203:
	.loc 15 129 7
	.cfi_startproc
	pushq	%rbp
	.seh_pushreg	%rbp
	.cfi_def_cfa_offset 16
	.cfi_offset 6, -16
	movq	%rsp, %rbp
	.seh_setframe	%rbp, 0
	.cfi_def_cfa_register 6
	.seh_endprologue
	movq	%rcx, 16(%rbp)
	.loc 15 130 39
	movabsq	$192153584101141162, %rax
	.loc 15 130 42
	popq	%rbp
	.cfi_restore 6
	.cfi_def_cfa 7, 8
	ret
	.cfi_endproc
.LFE3203:
	.seh_endproc
	.section	.text$_ZNSt20__uninitialized_copyILb0EE13__uninit_copyISt13move_iteratorIP12ElementosVooES4_EET0_T_S7_S6_,"x"
	.linkonce discard
	.globl	_ZNSt20__uninitialized_copyILb0EE13__uninit_copyISt13move_iteratorIP12ElementosVooES4_EET0_T_S7_S6_
	.def	_ZNSt20__uninitialized_copyILb0EE13__uninit_copyISt13move_iteratorIP12ElementosVooES4_EET0_T_S7_S6_;	.scl	2;	.type	32;	.endef
	.seh_proc	_ZNSt20__uninitialized_copyILb0EE13__uninit_copyISt13move_iteratorIP12ElementosVooES4_EET0_T_S7_S6_
_ZNSt20__uninitialized_copyILb0EE13__uninit_copyISt13move_iteratorIP12ElementosVooES4_EET0_T_S7_S6_:
.LFB3204:
	.loc 14 76 9
	.cfi_startproc
	pushq	%rbp
	.seh_pushreg	%rbp
	.cfi_def_cfa_offset 16
	.cfi_offset 6, -16
	pushq	%rbx
	.seh_pushreg	%rbx
	.cfi_def_cfa_offset 24
	.cfi_offset 3, -24
	subq	$56, %rsp
	.seh_stackalloc	56
	.cfi_def_cfa_offset 80
	leaq	128(%rsp), %rbp
	.seh_setframe	%rbp, 128
	.cfi_def_cfa 6, -48
	.seh_endprologue
	movq	%rcx, -48(%rbp)
	movq	%rdx, -40(%rbp)
	movq	%r8, -32(%rbp)
	.loc 14 79 21
	movq	-32(%rbp), %rax
	movq	%rax, -88(%rbp)
.L185:
	.loc 14 82 23 discriminator 3
	leaq	-40(%rbp), %rax
	movq	%rax, %rdx
	leaq	-48(%rbp), %rcx
.LEHB26:
	call	_ZStneIP12ElementosVooEbRKSt13move_iteratorIT_ES6_
.LEHE26:
	testb	%al, %al
	je	.L184
	.loc 14 83 45 discriminator 2
	leaq	-48(%rbp), %rcx
	call	_ZNKSt13move_iteratorIP12ElementosVooEdeEv
	movq	%rax, %rbx
	.loc 14 83 18 discriminator 2
	movq	-88(%rbp), %rax
	movq	%rax, %rcx
	call	_ZSt11__addressofI12ElementosVooEPT_RS1_
	movq	%rbx, %rdx
	movq	%rax, %rcx
	call	_ZSt10_ConstructI12ElementosVooJS0_EEvPT_DpOT0_
	.loc 14 82 34 discriminator 2
	leaq	-48(%rbp), %rcx
	call	_ZNSt13move_iteratorIP12ElementosVooEppEv
	.loc 14 82 8 discriminator 2
	addq	$96, -88(%rbp)
	jmp	.L185
.L184:
	.loc 14 84 15
	movq	-88(%rbp), %rax
	jmp	.L191
.L189:
	.loc 14 86 4
	movq	%rax, %rcx
	call	__cxa_begin_catch
	.loc 14 88 21
	movq	-88(%rbp), %rdx
	movq	-32(%rbp), %rax
	movq	%rax, %rcx
.LEHB27:
	call	_ZSt8_DestroyIP12ElementosVooEvT_S2_
	.loc 14 89 8
	call	__cxa_rethrow
.LEHE27:
.L190:
	movq	%rax, %rbx
	.loc 14 86 4
	call	__cxa_end_catch
	movq	%rbx, %rax
	movq	%rax, %rcx
.LEHB28:
	call	_Unwind_Resume
.LEHE28:
.L191:
	.loc 14 91 2
	addq	$56, %rsp
	popq	%rbx
	.cfi_restore 3
	popq	%rbp
	.cfi_restore 6
	.cfi_def_cfa 7, -40
	ret
	.cfi_endproc
.LFE3204:
	.seh_handler	__gxx_personality_seh0, @unwind, @except
	.seh_handlerdata
	.align 4
.LLSDA3204:
	.byte	0xff
	.byte	0x9b
	.uleb128 .LLSDATT3204-.LLSDATTD3204
.LLSDATTD3204:
	.byte	0x1
	.uleb128 .LLSDACSE3204-.LLSDACSB3204
.LLSDACSB3204:
	.uleb128 .LEHB26-.LFB3204
	.uleb128 .LEHE26-.LEHB26
	.uleb128 .L189-.LFB3204
	.uleb128 0x1
	.uleb128 .LEHB27-.LFB3204
	.uleb128 .LEHE27-.LEHB27
	.uleb128 .L190-.LFB3204
	.uleb128 0
	.uleb128 .LEHB28-.LFB3204
	.uleb128 .LEHE28-.LEHB28
	.uleb128 0
	.uleb128 0
.LLSDACSE3204:
	.byte	0x1
	.byte	0
	.align 4
	.long	0

.LLSDATT3204:
	.section	.text$_ZNSt20__uninitialized_copyILb0EE13__uninit_copyISt13move_iteratorIP12ElementosVooES4_EET0_T_S7_S6_,"x"
	.linkonce discard
	.seh_endproc
	.section	.text$_ZNK9__gnu_cxx17__normal_iteratorIPK12ElementosVooSt6vectorIS1_SaIS1_EEE4baseEv,"x"
	.linkonce discard
	.align 2
	.globl	_ZNK9__gnu_cxx17__normal_iteratorIPK12ElementosVooSt6vectorIS1_SaIS1_EEE4baseEv
	.def	_ZNK9__gnu_cxx17__normal_iteratorIPK12ElementosVooSt6vectorIS1_SaIS1_EEE4baseEv;	.scl	2;	.type	32;	.endef
	.seh_proc	_ZNK9__gnu_cxx17__normal_iteratorIPK12ElementosVooSt6vectorIS1_SaIS1_EEE4baseEv
_ZNK9__gnu_cxx17__normal_iteratorIPK12ElementosVooSt6vectorIS1_SaIS1_EEE4baseEv:
.LFB3205:
	.loc 16 845 7
	.cfi_startproc
	pushq	%rbp
	.seh_pushreg	%rbp
	.cfi_def_cfa_offset 16
	.cfi_offset 6, -16
	movq	%rsp, %rbp
	.seh_setframe	%rbp, 0
	.cfi_def_cfa_register 6
	.seh_endprologue
	movq	%rcx, 16(%rbp)
	.loc 16 846 16
	movq	16(%rbp), %rax
	.loc 16 846 28
	popq	%rbp
	.cfi_restore 6
	.cfi_def_cfa 7, 8
	ret
	.cfi_endproc
.LFE3205:
	.seh_endproc
	.section	.text$_ZStneIP12ElementosVooEbRKSt13move_iteratorIT_ES6_,"x"
	.linkonce discard
	.globl	_ZStneIP12ElementosVooEbRKSt13move_iteratorIT_ES6_
	.def	_ZStneIP12ElementosVooEbRKSt13move_iteratorIT_ES6_;	.scl	2;	.type	32;	.endef
	.seh_proc	_ZStneIP12ElementosVooEbRKSt13move_iteratorIT_ES6_
_ZStneIP12ElementosVooEbRKSt13move_iteratorIT_ES6_:
.LFB3213:
	.loc 16 1130 5
	.cfi_startproc
	pushq	%rbp
	.seh_pushreg	%rbp
	.cfi_def_cfa_offset 16
	.cfi_offset 6, -16
	movq	%rsp, %rbp
	.seh_setframe	%rbp, 0
	.cfi_def_cfa_register 6
	subq	$32, %rsp
	.seh_stackalloc	32
	.seh_endprologue
	movq	%rcx, 16(%rbp)
	movq	%rdx, 24(%rbp)
	.loc 16 1132 20
	movq	24(%rbp), %rax
	movq	%rax, %rdx
	movq	16(%rbp), %rcx
	call	_ZSteqIP12ElementosVooEbRKSt13move_iteratorIT_ES6_
	.loc 16 1132 26
	xorl	$1, %eax
	.loc 16 1132 29
	addq	$32, %rsp
	popq	%rbp
	.cfi_restore 6
	.cfi_def_cfa 7, 8
	ret
	.cfi_endproc
.LFE3213:
	.seh_endproc
	.section	.text$_ZNSt13move_iteratorIP12ElementosVooEppEv,"x"
	.linkonce discard
	.align 2
	.globl	_ZNSt13move_iteratorIP12ElementosVooEppEv
	.def	_ZNSt13move_iteratorIP12ElementosVooEppEv;	.scl	2;	.type	32;	.endef
	.seh_proc	_ZNSt13move_iteratorIP12ElementosVooEppEv
_ZNSt13move_iteratorIP12ElementosVooEppEv:
.LFB3214:
	.loc 16 1051 7
	.cfi_startproc
	pushq	%rbp
	.seh_pushreg	%rbp
	.cfi_def_cfa_offset 16
	.cfi_offset 6, -16
	movq	%rsp, %rbp
	.seh_setframe	%rbp, 0
	.cfi_def_cfa_register 6
	.seh_endprologue
	movq	%rcx, 16(%rbp)
	.loc 16 1053 4
	movq	16(%rbp), %rax
	movq	(%rax), %rax
	.loc 16 1053 2
	leaq	96(%rax), %rdx
	movq	16(%rbp), %rax
	movq	%rdx, (%rax)
	.loc 16 1054 10
	movq	16(%rbp), %rax
	.loc 16 1055 7
	popq	%rbp
	.cfi_restore 6
	.cfi_def_cfa 7, 8
	ret
	.cfi_endproc
.LFE3214:
	.seh_endproc
	.section	.text$_ZNKSt13move_iteratorIP12ElementosVooEdeEv,"x"
	.linkonce discard
	.align 2
	.globl	_ZNKSt13move_iteratorIP12ElementosVooEdeEv
	.def	_ZNKSt13move_iteratorIP12ElementosVooEdeEv;	.scl	2;	.type	32;	.endef
	.seh_proc	_ZNKSt13move_iteratorIP12ElementosVooEdeEv
_ZNKSt13move_iteratorIP12ElementosVooEdeEv:
.LFB3215:
	.loc 16 1043 7
	.cfi_startproc
	pushq	%rbp
	.seh_pushreg	%rbp
	.cfi_def_cfa_offset 16
	.cfi_offset 6, -16
	movq	%rsp, %rbp
	.seh_setframe	%rbp, 0
	.cfi_def_cfa_register 6
	.seh_endprologue
	movq	%rcx, 16(%rbp)
	.loc 16 1044 50
	movq	16(%rbp), %rax
	movq	(%rax), %rax
	.loc 16 1044 53
	popq	%rbp
	.cfi_restore 6
	.cfi_def_cfa 7, 8
	ret
	.cfi_endproc
.LFE3215:
	.seh_endproc
	.section	.text$_ZSt7forwardI12ElementosVooEOT_RNSt16remove_referenceIS1_E4typeE,"x"
	.linkonce discard
	.globl	_ZSt7forwardI12ElementosVooEOT_RNSt16remove_referenceIS1_E4typeE
	.def	_ZSt7forwardI12ElementosVooEOT_RNSt16remove_referenceIS1_E4typeE;	.scl	2;	.type	32;	.endef
	.seh_proc	_ZSt7forwardI12ElementosVooEOT_RNSt16remove_referenceIS1_E4typeE
_ZSt7forwardI12ElementosVooEOT_RNSt16remove_referenceIS1_E4typeE:
.LFB3217:
	.loc 9 74 5
	.cfi_startproc
	pushq	%rbp
	.seh_pushreg	%rbp
	.cfi_def_cfa_offset 16
	.cfi_offset 6, -16
	movq	%rsp, %rbp
	.seh_setframe	%rbp, 0
	.cfi_def_cfa_register 6
	.seh_endprologue
	movq	%rcx, 16(%rbp)
	.loc 9 75 36
	movq	16(%rbp), %rax
	.loc 9 75 39
	popq	%rbp
	.cfi_restore 6
	.cfi_def_cfa 7, 8
	ret
	.cfi_endproc
.LFE3217:
	.seh_endproc
	.section	.text$_ZN12ElementosVooC1EOS_,"x"
	.linkonce discard
	.align 2
	.globl	_ZN12ElementosVooC1EOS_
	.def	_ZN12ElementosVooC1EOS_;	.scl	2;	.type	32;	.endef
	.seh_proc	_ZN12ElementosVooC1EOS_
_ZN12ElementosVooC1EOS_:
.LFB3220:
	.loc 3 7 7
	.cfi_startproc
	pushq	%rbp
	.seh_pushreg	%rbp
	.cfi_def_cfa_offset 16
	.cfi_offset 6, -16
	movq	%rsp, %rbp
	.seh_setframe	%rbp, 0
	.cfi_def_cfa_register 6
	subq	$32, %rsp
	.seh_stackalloc	32
	.seh_endprologue
	movq	%rcx, 16(%rbp)
	movq	%rdx, 24(%rbp)
.LBB33:
	.loc 3 7 7
	movq	16(%rbp), %rax
	movq	24(%rbp), %rdx
	movq	%rax, %rcx
	call	_ZN10BaseObjectC2ERKS_
	leaq	16+_ZTV12ElementosVoo(%rip), %rdx
	movq	16(%rbp), %rax
	movq	%rdx, (%rax)
	movq	24(%rbp), %rax
	movsd	8(%rax), %xmm0
	movq	16(%rbp), %rax
	movsd	%xmm0, 8(%rax)
	movq	24(%rbp), %rax
	movsd	16(%rax), %xmm0
	movq	16(%rbp), %rax
	movsd	%xmm0, 16(%rax)
	movq	24(%rbp), %rax
	movsd	24(%rax), %xmm0
	movq	16(%rbp), %rax
	movsd	%xmm0, 24(%rax)
	movq	24(%rbp), %rax
	movsd	32(%rax), %xmm0
	movq	16(%rbp), %rax
	movsd	%xmm0, 32(%rax)
	movq	24(%rbp), %rax
	movsd	40(%rax), %xmm0
	movq	16(%rbp), %rax
	movsd	%xmm0, 40(%rax)
	movq	24(%rbp), %rax
	movsd	48(%rax), %xmm0
	movq	16(%rbp), %rax
	movsd	%xmm0, 48(%rax)
	movq	24(%rbp), %rax
	movsd	56(%rax), %xmm0
	movq	16(%rbp), %rax
	movsd	%xmm0, 56(%rax)
	movq	24(%rbp), %rax
	movsd	64(%rax), %xmm0
	movq	16(%rbp), %rax
	movsd	%xmm0, 64(%rax)
	movq	24(%rbp), %rax
	movsd	72(%rax), %xmm0
	movq	16(%rbp), %rax
	movsd	%xmm0, 72(%rax)
	movq	24(%rbp), %rax
	movsd	80(%rax), %xmm0
	movq	16(%rbp), %rax
	movsd	%xmm0, 80(%rax)
	movq	24(%rbp), %rax
	movsd	88(%rax), %xmm0
	movq	16(%rbp), %rax
	movsd	%xmm0, 88(%rax)
.LBE33:
	nop
	addq	$32, %rsp
	popq	%rbp
	.cfi_restore 6
	.cfi_def_cfa 7, 8
	ret
	.cfi_endproc
.LFE3220:
	.seh_endproc
	.section	.text$_ZSt10_ConstructI12ElementosVooJS0_EEvPT_DpOT0_,"x"
	.linkonce discard
	.globl	_ZSt10_ConstructI12ElementosVooJS0_EEvPT_DpOT0_
	.def	_ZSt10_ConstructI12ElementosVooJS0_EEvPT_DpOT0_;	.scl	2;	.type	32;	.endef
	.seh_proc	_ZSt10_ConstructI12ElementosVooJS0_EEvPT_DpOT0_
_ZSt10_ConstructI12ElementosVooJS0_EEvPT_DpOT0_:
.LFB3216:
	.loc 8 74 5
	.cfi_startproc
	pushq	%rbp
	.seh_pushreg	%rbp
	.cfi_def_cfa_offset 16
	.cfi_offset 6, -16
	pushq	%rbx
	.seh_pushreg	%rbx
	.cfi_def_cfa_offset 24
	.cfi_offset 3, -24
	subq	$40, %rsp
	.seh_stackalloc	40
	.cfi_def_cfa_offset 64
	leaq	128(%rsp), %rbp
	.seh_setframe	%rbp, 128
	.cfi_def_cfa 6, -64
	.seh_endprologue
	movq	%rcx, -64(%rbp)
	movq	%rdx, -56(%rbp)
	.loc 8 75 61
	movq	-56(%rbp), %rax
	movq	%rax, %rcx
	call	_ZSt7forwardI12ElementosVooEOT_RNSt16remove_referenceIS1_E4typeE
	movq	%rax, %rbx
	.loc 8 75 7
	movq	-64(%rbp), %rax
	movq	%rax, %rdx
	movl	$96, %ecx
	call	_ZnwyPv
	movq	%rbx, %rdx
	movq	%rax, %rcx
	call	_ZN12ElementosVooC1EOS_
	.loc 8 75 75
	nop
	addq	$40, %rsp
	popq	%rbx
	.cfi_restore 3
	popq	%rbp
	.cfi_restore 6
	.cfi_def_cfa 7, -24
	ret
	.cfi_endproc
.LFE3216:
	.seh_endproc
	.section	.text$_ZSteqIP12ElementosVooEbRKSt13move_iteratorIT_ES6_,"x"
	.linkonce discard
	.globl	_ZSteqIP12ElementosVooEbRKSt13move_iteratorIT_ES6_
	.def	_ZSteqIP12ElementosVooEbRKSt13move_iteratorIT_ES6_;	.scl	2;	.type	32;	.endef
	.seh_proc	_ZSteqIP12ElementosVooEbRKSt13move_iteratorIT_ES6_
_ZSteqIP12ElementosVooEbRKSt13move_iteratorIT_ES6_:
.LFB3223:
	.loc 16 1118 5
	.cfi_startproc
	pushq	%rbp
	.seh_pushreg	%rbp
	.cfi_def_cfa_offset 16
	.cfi_offset 6, -16
	pushq	%rbx
	.seh_pushreg	%rbx
	.cfi_def_cfa_offset 24
	.cfi_offset 3, -24
	subq	$40, %rsp
	.seh_stackalloc	40
	.cfi_def_cfa_offset 64
	leaq	128(%rsp), %rbp
	.seh_setframe	%rbp, 128
	.cfi_def_cfa 6, -64
	.seh_endprologue
	movq	%rcx, -64(%rbp)
	movq	%rdx, -56(%rbp)
	.loc 16 1120 25
	movq	-64(%rbp), %rcx
	call	_ZNKSt13move_iteratorIP12ElementosVooE4baseEv
	movq	%rax, %rbx
	movq	-56(%rbp), %rax
	movq	%rax, %rcx
	call	_ZNKSt13move_iteratorIP12ElementosVooE4baseEv
	.loc 16 1120 37
	cmpq	%rax, %rbx
	sete	%al
	.loc 16 1120 40
	addq	$40, %rsp
	popq	%rbx
	.cfi_restore 3
	popq	%rbp
	.cfi_restore 6
	.cfi_def_cfa 7, -24
	ret
	.cfi_endproc
.LFE3223:
	.seh_endproc
	.section	.text$_ZNKSt13move_iteratorIP12ElementosVooE4baseEv,"x"
	.linkonce discard
	.align 2
	.globl	_ZNKSt13move_iteratorIP12ElementosVooE4baseEv
	.def	_ZNKSt13move_iteratorIP12ElementosVooE4baseEv;	.scl	2;	.type	32;	.endef
	.seh_proc	_ZNKSt13move_iteratorIP12ElementosVooE4baseEv
_ZNKSt13move_iteratorIP12ElementosVooE4baseEv:
.LFB3224:
	.loc 16 1039 7
	.cfi_startproc
	pushq	%rbp
	.seh_pushreg	%rbp
	.cfi_def_cfa_offset 16
	.cfi_offset 6, -16
	movq	%rsp, %rbp
	.seh_setframe	%rbp, 0
	.cfi_def_cfa_register 6
	.seh_endprologue
	movq	%rcx, 16(%rbp)
	.loc 16 1040 16
	movq	16(%rbp), %rax
	movq	(%rax), %rax
	.loc 16 1040 28
	popq	%rbp
	.cfi_restore 6
	.cfi_def_cfa 7, 8
	ret
	.cfi_endproc
.LFE3224:
	.seh_endproc
	.globl	_ZTV23CalculadorArrastoLinear
	.section	.rdata$_ZTV23CalculadorArrastoLinear,"dr"
	.linkonce same_size
	.align 8
_ZTV23CalculadorArrastoLinear:
	.quad	0
	.quad	_ZTI23CalculadorArrastoLinear
	.quad	_ZN23CalculadorArrastoLinear13solucaoDiretaEddddb4RAMO
	.quad	_ZN21CalculadorAtmosferico14solucaoReversaEddd15TIPO_TRAJETORIAddd4RAMO
	.globl	_ZTV21CoeficienteDragLinear
	.section	.rdata$_ZTV21CoeficienteDragLinear,"dr"
	.linkonce same_size
	.align 8
_ZTV21CoeficienteDragLinear:
	.quad	0
	.quad	_ZTI21CoeficienteDragLinear
	.quad	_ZN21CoeficienteDragLinearD1Ev
	.quad	_ZN21CoeficienteDragLinearD0Ev
	.globl	_ZTV8Projetil
	.section	.rdata$_ZTV8Projetil,"dr"
	.linkonce same_size
	.align 8
_ZTV8Projetil:
	.quad	0
	.quad	_ZTI8Projetil
	.quad	_ZN8ProjetilD1Ev
	.quad	_ZN8ProjetilD0Ev
	.section	.text$_ZN8ProjetilD1Ev,"x"
	.linkonce discard
	.align 2
	.globl	_ZN8ProjetilD1Ev
	.def	_ZN8ProjetilD1Ev;	.scl	2;	.type	32;	.endef
	.seh_proc	_ZN8ProjetilD1Ev
_ZN8ProjetilD1Ev:
.LFB3227:
	.loc 4 8 7
	.cfi_startproc
	pushq	%rbp
	.seh_pushreg	%rbp
	.cfi_def_cfa_offset 16
	.cfi_offset 6, -16
	movq	%rsp, %rbp
	.seh_setframe	%rbp, 0
	.cfi_def_cfa_register 6
	subq	$32, %rsp
	.seh_stackalloc	32
	.seh_endprologue
	movq	%rcx, 16(%rbp)
.LBB34:
	.loc 4 8 7
	leaq	16+_ZTV8Projetil(%rip), %rdx
	movq	16(%rbp), %rax
	movq	%rdx, (%rax)
	movq	16(%rbp), %rax
	addq	$48, %rax
	movq	%rax, %rcx
	call	_ZNSt7__cxx1112basic_stringIcSt11char_traitsIcESaIcEED1Ev
	movq	16(%rbp), %rax
	addq	$16, %rax
	movq	%rax, %rcx
	call	_ZNSt7__cxx1112basic_stringIcSt11char_traitsIcESaIcEED1Ev
	movq	16(%rbp), %rax
	movq	%rax, %rcx
	call	_ZN10BaseObjectD2Ev
.LBE34:
	nop
	addq	$32, %rsp
	popq	%rbp
	.cfi_restore 6
	.cfi_def_cfa 7, 8
	ret
	.cfi_endproc
.LFE3227:
	.seh_endproc
	.section	.text$_ZN8ProjetilD0Ev,"x"
	.linkonce discard
	.align 2
	.globl	_ZN8ProjetilD0Ev
	.def	_ZN8ProjetilD0Ev;	.scl	2;	.type	32;	.endef
	.seh_proc	_ZN8ProjetilD0Ev
_ZN8ProjetilD0Ev:
.LFB3228:
	.loc 4 8 7
	.cfi_startproc
	pushq	%rbp
	.seh_pushreg	%rbp
	.cfi_def_cfa_offset 16
	.cfi_offset 6, -16
	movq	%rsp, %rbp
	.seh_setframe	%rbp, 0
	.cfi_def_cfa_register 6
	subq	$32, %rsp
	.seh_stackalloc	32
	.seh_endprologue
	movq	%rcx, 16(%rbp)
	.loc 4 8 7
	movq	16(%rbp), %rcx
	call	_ZN8ProjetilD1Ev
	movq	16(%rbp), %rcx
	call	_ZdlPv
	nop
	addq	$32, %rsp
	popq	%rbp
	.cfi_restore 6
	.cfi_def_cfa 7, 8
	ret
	.cfi_endproc
.LFE3228:
	.seh_endproc
	.globl	_ZTV12ElementosVoo
	.section	.rdata$_ZTV12ElementosVoo,"dr"
	.linkonce same_size
	.align 8
_ZTV12ElementosVoo:
	.quad	0
	.quad	_ZTI12ElementosVoo
	.quad	_ZN12ElementosVooD1Ev
	.quad	_ZN12ElementosVooD0Ev
	.section	.text$_ZN12ElementosVooD1Ev,"x"
	.linkonce discard
	.align 2
	.globl	_ZN12ElementosVooD1Ev
	.def	_ZN12ElementosVooD1Ev;	.scl	2;	.type	32;	.endef
	.seh_proc	_ZN12ElementosVooD1Ev
_ZN12ElementosVooD1Ev:
.LFB3231:
	.loc 3 7 7
	.cfi_startproc
	pushq	%rbp
	.seh_pushreg	%rbp
	.cfi_def_cfa_offset 16
	.cfi_offset 6, -16
	movq	%rsp, %rbp
	.seh_setframe	%rbp, 0
	.cfi_def_cfa_register 6
	subq	$32, %rsp
	.seh_stackalloc	32
	.seh_endprologue
	movq	%rcx, 16(%rbp)
.LBB35:
	.loc 3 7 7
	leaq	16+_ZTV12ElementosVoo(%rip), %rdx
	movq	16(%rbp), %rax
	movq	%rdx, (%rax)
	movq	16(%rbp), %rax
	movq	%rax, %rcx
	call	_ZN10BaseObjectD2Ev
.LBE35:
	nop
	addq	$32, %rsp
	popq	%rbp
	.cfi_restore 6
	.cfi_def_cfa 7, 8
	ret
	.cfi_endproc
.LFE3231:
	.seh_endproc
	.section	.text$_ZN12ElementosVooD0Ev,"x"
	.linkonce discard
	.align 2
	.globl	_ZN12ElementosVooD0Ev
	.def	_ZN12ElementosVooD0Ev;	.scl	2;	.type	32;	.endef
	.seh_proc	_ZN12ElementosVooD0Ev
_ZN12ElementosVooD0Ev:
.LFB3232:
	.loc 3 7 7
	.cfi_startproc
	pushq	%rbp
	.seh_pushreg	%rbp
	.cfi_def_cfa_offset 16
	.cfi_offset 6, -16
	movq	%rsp, %rbp
	.seh_setframe	%rbp, 0
	.cfi_def_cfa_register 6
	subq	$32, %rsp
	.seh_stackalloc	32
	.seh_endprologue
	movq	%rcx, 16(%rbp)
	.loc 3 7 7
	movq	16(%rbp), %rcx
	call	_ZN12ElementosVooD1Ev
	movq	16(%rbp), %rcx
	call	_ZdlPv
	nop
	addq	$32, %rsp
	popq	%rbp
	.cfi_restore 6
	.cfi_def_cfa 7, 8
	ret
	.cfi_endproc
.LFE3232:
	.seh_endproc
	.globl	_ZTV10BaseObject
	.section	.rdata$_ZTV10BaseObject,"dr"
	.linkonce same_size
	.align 8
_ZTV10BaseObject:
	.quad	0
	.quad	_ZTI10BaseObject
	.quad	_ZN10BaseObjectD1Ev
	.quad	_ZN10BaseObjectD0Ev
	.globl	_ZTI23CalculadorArrastoLinear
	.section	.rdata$_ZTI23CalculadorArrastoLinear,"dr"
	.linkonce same_size
	.align 8
_ZTI23CalculadorArrastoLinear:
	.quad	_ZTVN10__cxxabiv120__si_class_type_infoE+16
	.quad	_ZTS23CalculadorArrastoLinear
	.quad	_ZTI21CalculadorAtmosferico
	.globl	_ZTS23CalculadorArrastoLinear
	.section	.rdata$_ZTS23CalculadorArrastoLinear,"dr"
	.linkonce same_size
	.align 16
_ZTS23CalculadorArrastoLinear:
	.ascii "23CalculadorArrastoLinear\0"
	.globl	_ZTI21CoeficienteDragLinear
	.section	.rdata$_ZTI21CoeficienteDragLinear,"dr"
	.linkonce same_size
	.align 8
_ZTI21CoeficienteDragLinear:
	.quad	_ZTVN10__cxxabiv120__si_class_type_infoE+16
	.quad	_ZTS21CoeficienteDragLinear
	.quad	_ZTI23CoeficienteAerodinamico
	.globl	_ZTI23CoeficienteAerodinamico
	.section	.rdata$_ZTI23CoeficienteAerodinamico,"dr"
	.linkonce same_size
	.align 8
_ZTI23CoeficienteAerodinamico:
	.quad	_ZTVN10__cxxabiv120__si_class_type_infoE+16
	.quad	_ZTS23CoeficienteAerodinamico
	.quad	_ZTI10BaseObject
	.globl	_ZTI21CalculadorAtmosferico
	.section	.rdata$_ZTI21CalculadorAtmosferico,"dr"
	.linkonce same_size
	.align 8
_ZTI21CalculadorAtmosferico:
	.quad	_ZTVN10__cxxabiv120__si_class_type_infoE+16
	.quad	_ZTS21CalculadorAtmosferico
	.quad	_ZTI10Calculador
	.globl	_ZTS21CalculadorAtmosferico
	.section	.rdata$_ZTS21CalculadorAtmosferico,"dr"
	.linkonce same_size
	.align 16
_ZTS21CalculadorAtmosferico:
	.ascii "21CalculadorAtmosferico\0"
	.globl	_ZTI8Projetil
	.section	.rdata$_ZTI8Projetil,"dr"
	.linkonce same_size
	.align 8
_ZTI8Projetil:
	.quad	_ZTVN10__cxxabiv120__si_class_type_infoE+16
	.quad	_ZTS8Projetil
	.quad	_ZTI10BaseObject
	.globl	_ZTS8Projetil
	.section	.rdata$_ZTS8Projetil,"dr"
	.linkonce same_size
	.align 8
_ZTS8Projetil:
	.ascii "8Projetil\0"
	.globl	_ZTI10Calculador
	.section	.rdata$_ZTI10Calculador,"dr"
	.linkonce same_size
	.align 8
_ZTI10Calculador:
	.quad	_ZTVN10__cxxabiv117__class_type_infoE+16
	.quad	_ZTS10Calculador
	.globl	_ZTS10Calculador
	.section	.rdata$_ZTS10Calculador,"dr"
	.linkonce same_size
	.align 8
_ZTS10Calculador:
	.ascii "10Calculador\0"
	.globl	_ZTI12ElementosVoo
	.section	.rdata$_ZTI12ElementosVoo,"dr"
	.linkonce same_size
	.align 8
_ZTI12ElementosVoo:
	.quad	_ZTVN10__cxxabiv120__si_class_type_infoE+16
	.quad	_ZTS12ElementosVoo
	.quad	_ZTI10BaseObject
	.globl	_ZTS12ElementosVoo
	.section	.rdata$_ZTS12ElementosVoo,"dr"
	.linkonce same_size
	.align 8
_ZTS12ElementosVoo:
	.ascii "12ElementosVoo\0"
	.globl	_ZTI10BaseObject
	.section	.rdata$_ZTI10BaseObject,"dr"
	.linkonce same_size
	.align 8
_ZTI10BaseObject:
	.quad	_ZTVN10__cxxabiv117__class_type_infoE+16
	.quad	_ZTS10BaseObject
	.globl	_ZTS10BaseObject
	.section	.rdata$_ZTS10BaseObject,"dr"
	.linkonce same_size
	.align 8
_ZTS10BaseObject:
	.ascii "10BaseObject\0"
	.section	.text$_ZN21CoeficienteDragLinearD1Ev,"x"
	.linkonce discard
	.align 2
	.globl	_ZN21CoeficienteDragLinearD1Ev
	.def	_ZN21CoeficienteDragLinearD1Ev;	.scl	2;	.type	32;	.endef
	.seh_proc	_ZN21CoeficienteDragLinearD1Ev
_ZN21CoeficienteDragLinearD1Ev:
.LFB3235:
	.file 18 "C:/PFC 2021/ballisticKernelCpp/CalculadorNumerico/coeficientes/coeficienteDragLinear.h"
	.loc 18 7 7
	.cfi_startproc
	pushq	%rbp
	.seh_pushreg	%rbp
	.cfi_def_cfa_offset 16
	.cfi_offset 6, -16
	movq	%rsp, %rbp
	.seh_setframe	%rbp, 0
	.cfi_def_cfa_register 6
	subq	$32, %rsp
	.seh_stackalloc	32
	.seh_endprologue
	movq	%rcx, 16(%rbp)
.LBB36:
	.loc 18 7 7
	leaq	16+_ZTV21CoeficienteDragLinear(%rip), %rdx
	movq	16(%rbp), %rax
	movq	%rdx, (%rax)
	movq	16(%rbp), %rax
	movq	%rax, %rcx
	call	_ZN23CoeficienteAerodinamicoD2Ev
.LBE36:
	nop
	addq	$32, %rsp
	popq	%rbp
	.cfi_restore 6
	.cfi_def_cfa 7, 8
	ret
	.cfi_endproc
.LFE3235:
	.seh_endproc
	.section	.text$_ZN21CoeficienteDragLinearD0Ev,"x"
	.linkonce discard
	.align 2
	.globl	_ZN21CoeficienteDragLinearD0Ev
	.def	_ZN21CoeficienteDragLinearD0Ev;	.scl	2;	.type	32;	.endef
	.seh_proc	_ZN21CoeficienteDragLinearD0Ev
_ZN21CoeficienteDragLinearD0Ev:
.LFB3236:
	.loc 18 7 7
	.cfi_startproc
	pushq	%rbp
	.seh_pushreg	%rbp
	.cfi_def_cfa_offset 16
	.cfi_offset 6, -16
	movq	%rsp, %rbp
	.seh_setframe	%rbp, 0
	.cfi_def_cfa_register 6
	subq	$32, %rsp
	.seh_stackalloc	32
	.seh_endprologue
	movq	%rcx, 16(%rbp)
	.loc 18 7 7
	movq	16(%rbp), %rcx
	call	_ZN21CoeficienteDragLinearD1Ev
	movq	16(%rbp), %rcx
	call	_ZdlPv
	nop
	addq	$32, %rsp
	popq	%rbp
	.cfi_restore 6
	.cfi_def_cfa 7, 8
	ret
	.cfi_endproc
.LFE3236:
	.seh_endproc
	.globl	_ZTS21CoeficienteDragLinear
	.section	.rdata$_ZTS21CoeficienteDragLinear,"dr"
	.linkonce same_size
	.align 16
_ZTS21CoeficienteDragLinear:
	.ascii "21CoeficienteDragLinear\0"
	.globl	_ZTS23CoeficienteAerodinamico
	.section	.rdata$_ZTS23CoeficienteAerodinamico,"dr"
	.linkonce same_size
	.align 16
_ZTS23CoeficienteAerodinamico:
	.ascii "23CoeficienteAerodinamico\0"
	.section .rdata,"dr"
	.align 8
.LC0:
	.long	0
	.long	1072693248
	.align 16
.LC2:
	.long	0
	.long	-2147483648
	.long	0
	.long	0
	.align 8
.LC3:
	.long	0
	.long	1071644672
	.align 8
.LC5:
	.long	1413754136
	.long	1074340347
	.align 8
.LC6:
	.long	0
	.long	1084817408
	.align 8
.LC7:
	.long	0
	.long	1075314688
	.align 8
.LC8:
	.long	0
	.long	1073741824
	.align 8
.LC9:
	.long	-2147483648
	.long	1097351111
	.text
.Letext0:
	.file 19 "C:/Program Files/CodeBlocks/MinGW/lib/gcc/x86_64-w64-mingw32/8.1.0/include/c++/bits/basic_string.h"
	.file 20 "C:/Program Files/CodeBlocks/MinGW/lib/gcc/x86_64-w64-mingw32/8.1.0/include/c++/bits/basic_string.tcc"
	.file 21 "C:/Program Files/CodeBlocks/MinGW/lib/gcc/x86_64-w64-mingw32/8.1.0/include/c++/bits/stringfwd.h"
	.file 22 "C:/Program Files/CodeBlocks/MinGW/lib/gcc/x86_64-w64-mingw32/8.1.0/include/c++/bits/stl_list.h"
	.file 23 "C:/Program Files/CodeBlocks/MinGW/lib/gcc/x86_64-w64-mingw32/8.1.0/include/c++/bits/list.tcc"
	.file 24 "C:/Program Files/CodeBlocks/MinGW/lib/gcc/x86_64-w64-mingw32/8.1.0/include/c++/cmath"
	.file 25 "C:/Program Files/CodeBlocks/MinGW/lib/gcc/x86_64-w64-mingw32/8.1.0/include/c++/bits/std_abs.h"
	.file 26 "C:/Program Files/CodeBlocks/MinGW/lib/gcc/x86_64-w64-mingw32/8.1.0/include/c++/type_traits"
	.file 27 "C:/Program Files/CodeBlocks/MinGW/lib/gcc/x86_64-w64-mingw32/8.1.0/include/c++/bits/stl_pair.h"
	.file 28 "C:/Program Files/CodeBlocks/MinGW/lib/gcc/x86_64-w64-mingw32/8.1.0/include/c++/bits/cpp_type_traits.h"
	.file 29 "C:/Program Files/CodeBlocks/MinGW/lib/gcc/x86_64-w64-mingw32/8.1.0/include/c++/bits/stl_iterator_base_types.h"
	.file 30 "C:/Program Files/CodeBlocks/MinGW/lib/gcc/x86_64-w64-mingw32/8.1.0/include/c++/debug/debug.h"
	.file 31 "C:/Program Files/CodeBlocks/MinGW/lib/gcc/x86_64-w64-mingw32/8.1.0/include/c++/cwchar"
	.file 32 "C:/Program Files/CodeBlocks/MinGW/lib/gcc/x86_64-w64-mingw32/8.1.0/include/c++/bits/char_traits.h"
	.file 33 "C:/Program Files/CodeBlocks/MinGW/lib/gcc/x86_64-w64-mingw32/8.1.0/include/c++/x86_64-w64-mingw32/bits/c++config.h"
	.file 34 "C:/Program Files/CodeBlocks/MinGW/lib/gcc/x86_64-w64-mingw32/8.1.0/include/c++/cstdint"
	.file 35 "C:/Program Files/CodeBlocks/MinGW/lib/gcc/x86_64-w64-mingw32/8.1.0/include/c++/bits/exception_ptr.h"
	.file 36 "C:/Program Files/CodeBlocks/MinGW/lib/gcc/x86_64-w64-mingw32/8.1.0/include/c++/clocale"
	.file 37 "C:/Program Files/CodeBlocks/MinGW/lib/gcc/x86_64-w64-mingw32/8.1.0/include/c++/cstdlib"
	.file 38 "C:/Program Files/CodeBlocks/MinGW/lib/gcc/x86_64-w64-mingw32/8.1.0/include/c++/cstdio"
	.file 39 "C:/Program Files/CodeBlocks/MinGW/lib/gcc/x86_64-w64-mingw32/8.1.0/include/c++/initializer_list"
	.file 40 "C:/Program Files/CodeBlocks/MinGW/lib/gcc/x86_64-w64-mingw32/8.1.0/include/c++/system_error"
	.file 41 "C:/Program Files/CodeBlocks/MinGW/lib/gcc/x86_64-w64-mingw32/8.1.0/include/c++/cwctype"
	.file 42 "C:/Program Files/CodeBlocks/MinGW/lib/gcc/x86_64-w64-mingw32/8.1.0/include/c++/bits/uses_allocator.h"
	.file 43 "C:/Program Files/CodeBlocks/MinGW/lib/gcc/x86_64-w64-mingw32/8.1.0/include/c++/tuple"
	.file 44 "C:/Program Files/CodeBlocks/MinGW/lib/gcc/x86_64-w64-mingw32/8.1.0/include/c++/bits/stl_iterator_base_funcs.h"
	.file 45 "C:/Program Files/CodeBlocks/MinGW/lib/gcc/x86_64-w64-mingw32/8.1.0/include/c++/bits/predefined_ops.h"
	.file 46 "C:/Program Files/CodeBlocks/MinGW/lib/gcc/x86_64-w64-mingw32/8.1.0/include/c++/ext/numeric_traits.h"
	.file 47 "C:/Program Files/CodeBlocks/MinGW/lib/gcc/x86_64-w64-mingw32/8.1.0/include/c++/ext/aligned_buffer.h"
	.file 48 "C:/Program Files/CodeBlocks/MinGW/lib/gcc/x86_64-w64-mingw32/8.1.0/include/c++/ext/type_traits.h"
	.file 49 "C:/Program Files/CodeBlocks/MinGW/x86_64-w64-mingw32/include/crtdefs.h"
	.file 50 "C:/Program Files/CodeBlocks/MinGW/x86_64-w64-mingw32/include/locale.h"
	.file 51 "C:/Program Files/CodeBlocks/MinGW/x86_64-w64-mingw32/include/math.h"
	.file 52 "C:/Program Files/CodeBlocks/MinGW/x86_64-w64-mingw32/include/stdlib.h"
	.file 53 "C:/Program Files/CodeBlocks/MinGW/x86_64-w64-mingw32/include/malloc.h"
	.file 54 "C:/Program Files/CodeBlocks/MinGW/lib/gcc/x86_64-w64-mingw32/8.1.0/include/c++/math.h"
	.file 55 "C:/Program Files/CodeBlocks/MinGW/x86_64-w64-mingw32/include/wchar.h"
	.file 56 "C:/Program Files/CodeBlocks/MinGW/x86_64-w64-mingw32/include/swprintf.inl"
	.file 57 "C:/Program Files/CodeBlocks/MinGW/x86_64-w64-mingw32/include/stdint.h"
	.file 58 "C:/Program Files/CodeBlocks/MinGW/x86_64-w64-mingw32/include/stdio.h"
	.file 59 "C:/Program Files/CodeBlocks/MinGW/x86_64-w64-mingw32/include/ctype.h"
	.file 60 "C:/Program Files/CodeBlocks/MinGW/x86_64-w64-mingw32/include/process.h"
	.file 61 "C:/Program Files/CodeBlocks/MinGW/x86_64-w64-mingw32/include/pthread.h"
	.file 62 "C:/Program Files/CodeBlocks/MinGW/x86_64-w64-mingw32/include/wctype.h"
	.file 63 "C:/PFC 2021/ballisticKernelCpp/CalculadorNumerico/padroes/observable.h"
	.file 64 "C:/PFC 2021/ballisticKernelCpp/CalculadorNumerico/calculador/calculador.h"
	.file 65 "C:/PFC 2021/ballisticKernelCpp/CalculadorNumerico/coeficientes/coeficienteAerodinamico.h"
	.file 66 "C:/PFC 2021/ballisticKernelCpp/CalculadorNumerico/sql/sqlite3.h"
	.file 67 "C:/PFC 2021/ballisticKernelCpp/CalculadorNumerico/coeficientes/coeficientesdao.h"
	.file 68 "C:/PFC 2021/ballisticKernelCpp/CalculadorNumerico/calculador/calculadorArrastoLinear.h"
	.file 69 "<built-in>"
	.section	.rdata$.refptr._ZTV21CalculadorAtmosferico, "dr"
	.globl	.refptr._ZTV21CalculadorAtmosferico
	.linkonce	discard
.refptr._ZTV21CalculadorAtmosferico:
	.quad	_ZTV21CalculadorAtmosferico
