	.file	"calculadorPontoMassaModificado.cpp"
	.text
.Ltext0:
	.cfi_sections	.debug_frame
	.section .rdata,"dr"
_ZStL19piecewise_construct:
	.space 1
	.section	.text$_ZnwyPv,"x"
	.linkonce discard
	.globl	_ZnwyPv
	.def	_ZnwyPv;	.scl	2;	.type	32;	.endef
	.seh_proc	_ZnwyPv
_ZnwyPv:
.LFB697:
	.file 1 "C:/Program Files/CodeBlocks/MinGW/lib/gcc/x86_64-w64-mingw32/8.1.0/include/c++/new"
	.loc 1 169 1
	.cfi_startproc
	pushq	%rbp
	.seh_pushreg	%rbp
	.cfi_def_cfa_offset 16
	.cfi_offset 6, -16
	movq	%rsp, %rbp
	.seh_setframe	%rbp, 0
	.cfi_def_cfa_register 6
	.seh_endprologue
	movq	%rcx, 16(%rbp)
	movq	%rdx, 24(%rbp)
	.loc 1 169 10
	movq	24(%rbp), %rax
	.loc 1 169 15
	popq	%rbp
	.cfi_restore 6
	.cfi_def_cfa 7, 8
	ret
	.cfi_endproc
.LFE697:
	.seh_endproc
	.text
	.def	_ZL6printfPKcz;	.scl	3;	.type	32;	.endef
	.seh_proc	_ZL6printfPKcz
_ZL6printfPKcz:
.LFB740:
	.file 2 "C:/Program Files/CodeBlocks/MinGW/x86_64-w64-mingw32/include/stdio.h"
	.loc 2 346 1
	.cfi_startproc
	pushq	%rbp
	.seh_pushreg	%rbp
	.cfi_def_cfa_offset 16
	.cfi_offset 6, -16
	pushq	%rbx
	.seh_pushreg	%rbx
	.cfi_def_cfa_offset 24
	.cfi_offset 3, -24
	subq	$56, %rsp
	.seh_stackalloc	56
	.cfi_def_cfa_offset 80
	leaq	128(%rsp), %rbp
	.seh_setframe	%rbp, 128
	.cfi_def_cfa 6, -48
	.seh_endprologue
	movq	%rcx, -48(%rbp)
	movq	%rdx, -40(%rbp)
	movq	%r8, -32(%rbp)
	movq	%r9, -24(%rbp)
	.loc 2 348 53
	leaq	-40(%rbp), %rax
	movq	%rax, -96(%rbp)
	.loc 2 349 30
	movq	-96(%rbp), %rbx
	movl	$1, %ecx
	movq	__imp___acrt_iob_func(%rip), %rax
	call	*%rax
.LVL0:
	movq	%rbx, %r8
	movq	-48(%rbp), %rdx
	movq	%rax, %rcx
	call	__mingw_vfprintf
	movl	%eax, -84(%rbp)
	.loc 2 351 10
	movl	-84(%rbp), %eax
	.loc 2 352 1
	addq	$56, %rsp
	popq	%rbx
	.cfi_restore 3
	popq	%rbp
	.cfi_restore 6
	.cfi_def_cfa 7, -40
	ret
	.cfi_endproc
.LFE740:
	.seh_endproc
	.section .rdata,"dr"
_ZStL13allocator_arg:
	.space 1
_ZStL6ignore:
	.space 1
	.section	.text$_ZN10BaseObjectD2Ev,"x"
	.linkonce discard
	.align 2
	.globl	_ZN10BaseObjectD2Ev
	.def	_ZN10BaseObjectD2Ev;	.scl	2;	.type	32;	.endef
	.seh_proc	_ZN10BaseObjectD2Ev
_ZN10BaseObjectD2Ev:
.LFB2363:
	.file 3 "C:/PFC 2021/ballisticKernelCpp/CalculadorNumerico/padroes/baseobject.h"
	.loc 3 8 17
	.cfi_startproc
	pushq	%rbp
	.seh_pushreg	%rbp
	.cfi_def_cfa_offset 16
	.cfi_offset 6, -16
	movq	%rsp, %rbp
	.seh_setframe	%rbp, 0
	.cfi_def_cfa_register 6
	.seh_endprologue
	movq	%rcx, 16(%rbp)
.LBB2:
	.loc 3 8 31
	leaq	16+_ZTV10BaseObject(%rip), %rdx
	movq	16(%rbp), %rax
	movq	%rdx, (%rax)
.LBE2:
	.loc 3 8 32
	nop
	popq	%rbp
	.cfi_restore 6
	.cfi_def_cfa 7, 8
	ret
	.cfi_endproc
.LFE2363:
	.seh_endproc
	.section	.text$_ZN10BaseObjectD1Ev,"x"
	.linkonce discard
	.align 2
	.globl	_ZN10BaseObjectD1Ev
	.def	_ZN10BaseObjectD1Ev;	.scl	2;	.type	32;	.endef
	.seh_proc	_ZN10BaseObjectD1Ev
_ZN10BaseObjectD1Ev:
.LFB2364:
	.loc 3 8 17
	.cfi_startproc
	pushq	%rbp
	.seh_pushreg	%rbp
	.cfi_def_cfa_offset 16
	.cfi_offset 6, -16
	movq	%rsp, %rbp
	.seh_setframe	%rbp, 0
	.cfi_def_cfa_register 6
	.seh_endprologue
	movq	%rcx, 16(%rbp)
.LBB3:
	.loc 3 8 31
	leaq	16+_ZTV10BaseObject(%rip), %rdx
	movq	16(%rbp), %rax
	movq	%rdx, (%rax)
.LBE3:
	.loc 3 8 32
	nop
	popq	%rbp
	.cfi_restore 6
	.cfi_def_cfa 7, 8
	ret
	.cfi_endproc
.LFE2364:
	.seh_endproc
	.section	.text$_ZN10BaseObjectD0Ev,"x"
	.linkonce discard
	.align 2
	.globl	_ZN10BaseObjectD0Ev
	.def	_ZN10BaseObjectD0Ev;	.scl	2;	.type	32;	.endef
	.seh_proc	_ZN10BaseObjectD0Ev
_ZN10BaseObjectD0Ev:
.LFB2365:
	.loc 3 8 17
	.cfi_startproc
	pushq	%rbp
	.seh_pushreg	%rbp
	.cfi_def_cfa_offset 16
	.cfi_offset 6, -16
	movq	%rsp, %rbp
	.seh_setframe	%rbp, 0
	.cfi_def_cfa_register 6
	subq	$32, %rsp
	.seh_stackalloc	32
	.seh_endprologue
	movq	%rcx, 16(%rbp)
	.loc 3 8 32
	movq	16(%rbp), %rcx
	call	_ZN10BaseObjectD1Ev
	movq	16(%rbp), %rcx
	call	_ZdlPv
	nop
	addq	$32, %rsp
	popq	%rbp
	.cfi_restore 6
	.cfi_def_cfa 7, 8
	ret
	.cfi_endproc
.LFE2365:
	.seh_endproc
	.section	.text$_ZN12ElementosVoo8setArMaxEd,"x"
	.linkonce discard
	.align 2
	.globl	_ZN12ElementosVoo8setArMaxEd
	.def	_ZN12ElementosVoo8setArMaxEd;	.scl	2;	.type	32;	.endef
	.seh_proc	_ZN12ElementosVoo8setArMaxEd
_ZN12ElementosVoo8setArMaxEd:
.LFB2561:
	.file 4 "C:/PFC 2021/ballisticKernelCpp/CalculadorNumerico/calculador/elementosvoo.h"
	.loc 4 11 10
	.cfi_startproc
	pushq	%rbp
	.seh_pushreg	%rbp
	.cfi_def_cfa_offset 16
	.cfi_offset 6, -16
	movq	%rsp, %rbp
	.seh_setframe	%rbp, 0
	.cfi_def_cfa_register 6
	.seh_endprologue
	movq	%rcx, 16(%rbp)
	movsd	%xmm1, 24(%rbp)
	.loc 4 11 47
	movq	16(%rbp), %rax
	movsd	24(%rbp), %xmm0
	movsd	%xmm0, 72(%rax)
	.loc 4 11 56
	nop
	popq	%rbp
	.cfi_restore 6
	.cfi_def_cfa 7, 8
	ret
	.cfi_endproc
.LFE2561:
	.seh_endproc
	.section	.text$_ZN12ElementosVoo12setAlturaMaxEd,"x"
	.linkonce discard
	.align 2
	.globl	_ZN12ElementosVoo12setAlturaMaxEd
	.def	_ZN12ElementosVoo12setAlturaMaxEd;	.scl	2;	.type	32;	.endef
	.seh_proc	_ZN12ElementosVoo12setAlturaMaxEd
_ZN12ElementosVoo12setAlturaMaxEd:
.LFB2562:
	.loc 4 12 10
	.cfi_startproc
	pushq	%rbp
	.seh_pushreg	%rbp
	.cfi_def_cfa_offset 16
	.cfi_offset 6, -16
	movq	%rsp, %rbp
	.seh_setframe	%rbp, 0
	.cfi_def_cfa_register 6
	.seh_endprologue
	movq	%rcx, 16(%rbp)
	movsd	%xmm1, 24(%rbp)
	.loc 4 12 59
	movq	16(%rbp), %rax
	movsd	24(%rbp), %xmm0
	movsd	%xmm0, 64(%rax)
	.loc 4 12 72
	nop
	popq	%rbp
	.cfi_restore 6
	.cfi_def_cfa 7, 8
	ret
	.cfi_endproc
.LFE2562:
	.seh_endproc
	.section	.text$_ZN8Projetil5getIxEv,"x"
	.linkonce discard
	.align 2
	.globl	_ZN8Projetil5getIxEv
	.def	_ZN8Projetil5getIxEv;	.scl	2;	.type	32;	.endef
	.seh_proc	_ZN8Projetil5getIxEv
_ZN8Projetil5getIxEv:
.LFB2580:
	.file 5 "C:/PFC 2021/ballisticKernelCpp/CalculadorNumerico/projetil/projetil.h"
	.loc 5 18 16
	.cfi_startproc
	pushq	%rbp
	.seh_pushreg	%rbp
	.cfi_def_cfa_offset 16
	.cfi_offset 6, -16
	movq	%rsp, %rbp
	.seh_setframe	%rbp, 0
	.cfi_def_cfa_register 6
	.seh_endprologue
	movq	%rcx, 16(%rbp)
	.loc 5 18 31
	movq	16(%rbp), %rax
	movsd	80(%rax), %xmm0
	movq	%xmm0, %rax
	.loc 5 18 34
	movq	%rax, %xmm0
	popq	%rbp
	.cfi_restore 6
	.cfi_def_cfa 7, 8
	ret
	.cfi_endproc
.LFE2580:
	.seh_endproc
	.section	.text$_ZN8Projetil7getTipoEv,"x"
	.linkonce discard
	.align 2
	.globl	_ZN8Projetil7getTipoEv
	.def	_ZN8Projetil7getTipoEv;	.scl	2;	.type	32;	.endef
	.seh_proc	_ZN8Projetil7getTipoEv
_ZN8Projetil7getTipoEv:
.LFB2586:
	.loc 5 24 23
	.cfi_startproc
	pushq	%rbp
	.seh_pushreg	%rbp
	.cfi_def_cfa_offset 16
	.cfi_offset 6, -16
	movq	%rsp, %rbp
	.seh_setframe	%rbp, 0
	.cfi_def_cfa_register 6
	.seh_endprologue
	movq	%rcx, 16(%rbp)
	.loc 5 24 40
	movq	16(%rbp), %rax
	movl	8(%rax), %eax
	.loc 5 24 45
	popq	%rbp
	.cfi_restore 6
	.cfi_def_cfa 7, 8
	ret
	.cfi_endproc
.LFE2586:
	.seh_endproc
	.section	.text$_ZN8Projetil13getTipoForcasEv,"x"
	.linkonce discard
	.align 2
	.globl	_ZN8Projetil13getTipoForcasEv
	.def	_ZN8Projetil13getTipoForcasEv;	.scl	2;	.type	32;	.endef
	.seh_proc	_ZN8Projetil13getTipoForcasEv
_ZN8Projetil13getTipoForcasEv:
.LFB2587:
	.loc 5 25 21
	.cfi_startproc
	pushq	%rbp
	.seh_pushreg	%rbp
	.cfi_def_cfa_offset 16
	.cfi_offset 6, -16
	movq	%rsp, %rbp
	.seh_setframe	%rbp, 0
	.cfi_def_cfa_register 6
	.seh_endprologue
	movq	%rcx, 16(%rbp)
	.loc 5 25 44
	movq	16(%rbp), %rax
	movl	12(%rax), %eax
	.loc 5 25 55
	popq	%rbp
	.cfi_restore 6
	.cfi_def_cfa 7, 8
	ret
	.cfi_endproc
.LFE2587:
	.seh_endproc
	.section	.text$_ZN10BaseObjectC2ERKS_,"x"
	.linkonce discard
	.align 2
	.globl	_ZN10BaseObjectC2ERKS_
	.def	_ZN10BaseObjectC2ERKS_;	.scl	2;	.type	32;	.endef
	.seh_proc	_ZN10BaseObjectC2ERKS_
_ZN10BaseObjectC2ERKS_:
.LFB2631:
	.loc 3 5 7
	.cfi_startproc
	pushq	%rbp
	.seh_pushreg	%rbp
	.cfi_def_cfa_offset 16
	.cfi_offset 6, -16
	movq	%rsp, %rbp
	.seh_setframe	%rbp, 0
	.cfi_def_cfa_register 6
	.seh_endprologue
	movq	%rcx, 16(%rbp)
	movq	%rdx, 24(%rbp)
.LBB4:
	.loc 3 5 7
	leaq	16+_ZTV10BaseObject(%rip), %rdx
	movq	16(%rbp), %rax
	movq	%rdx, (%rax)
.LBE4:
	nop
	popq	%rbp
	.cfi_restore 6
	.cfi_def_cfa 7, 8
	ret
	.cfi_endproc
.LFE2631:
	.seh_endproc
	.section	.text$_ZN8ProjetilC1ERKS_,"x"
	.linkonce discard
	.align 2
	.globl	_ZN8ProjetilC1ERKS_
	.def	_ZN8ProjetilC1ERKS_;	.scl	2;	.type	32;	.endef
	.seh_proc	_ZN8ProjetilC1ERKS_
_ZN8ProjetilC1ERKS_:
.LFB2634:
	.loc 5 8 7
	.cfi_startproc
	pushq	%rbp
	.seh_pushreg	%rbp
	.cfi_def_cfa_offset 16
	.cfi_offset 6, -16
	pushq	%rbx
	.seh_pushreg	%rbx
	.cfi_def_cfa_offset 24
	.cfi_offset 3, -24
	subq	$40, %rsp
	.seh_stackalloc	40
	.cfi_def_cfa_offset 64
	leaq	128(%rsp), %rbp
	.seh_setframe	%rbp, 128
	.cfi_def_cfa 6, -64
	.seh_endprologue
	movq	%rcx, -64(%rbp)
	movq	%rdx, -56(%rbp)
.LBB5:
	.loc 5 8 7
	movq	-64(%rbp), %rax
	movq	-56(%rbp), %rdx
	movq	%rax, %rcx
	call	_ZN10BaseObjectC2ERKS_
	leaq	16+_ZTV8Projetil(%rip), %rdx
	movq	-64(%rbp), %rax
	movq	%rdx, (%rax)
	movq	-56(%rbp), %rax
	movl	8(%rax), %edx
	movq	-64(%rbp), %rax
	movl	%edx, 8(%rax)
	movq	-56(%rbp), %rax
	movl	12(%rax), %edx
	movq	-64(%rbp), %rax
	movl	%edx, 12(%rax)
	movq	-64(%rbp), %rax
	addq	$16, %rax
	movq	-56(%rbp), %rdx
	addq	$16, %rdx
	movq	%rax, %rcx
.LEHB0:
	call	_ZNSt7__cxx1112basic_stringIcSt11char_traitsIcESaIcEEC1ERKS4_
.LEHE0:
	.loc 5 8 7 is_stmt 0 discriminator 2
	movq	-64(%rbp), %rax
	addq	$48, %rax
	movq	-56(%rbp), %rdx
	addq	$48, %rdx
	movq	%rax, %rcx
.LEHB1:
	call	_ZNSt7__cxx1112basic_stringIcSt11char_traitsIcESaIcEEC1ERKS4_
.LEHE1:
	.loc 5 8 7 discriminator 4
	movq	-56(%rbp), %rax
	movsd	80(%rax), %xmm0
	movq	-64(%rbp), %rax
	movsd	%xmm0, 80(%rax)
	movq	-56(%rbp), %rax
	movsd	88(%rax), %xmm0
	movq	-64(%rbp), %rax
	movsd	%xmm0, 88(%rax)
	movq	-56(%rbp), %rax
	movsd	96(%rax), %xmm0
	movq	-64(%rbp), %rax
	movsd	%xmm0, 96(%rax)
	movq	-56(%rbp), %rax
	movsd	104(%rax), %xmm0
	movq	-64(%rbp), %rax
	movsd	%xmm0, 104(%rax)
	movq	-56(%rbp), %rax
	movsd	112(%rax), %xmm0
	movq	-64(%rbp), %rax
	movsd	%xmm0, 112(%rax)
	movq	-56(%rbp), %rax
	movsd	120(%rax), %xmm0
	movq	-64(%rbp), %rax
	movsd	%xmm0, 120(%rax)
.LBE5:
	jmp	.L22
.L21:
	movq	%rax, %rbx
.LBB6:
	.loc 5 8 7
	movq	-64(%rbp), %rax
	addq	$16, %rax
	movq	%rax, %rcx
	call	_ZNSt7__cxx1112basic_stringIcSt11char_traitsIcESaIcEED1Ev
	jmp	.L19
.L20:
	movq	%rax, %rbx
.L19:
	.loc 5 8 7 discriminator 1
	movq	-64(%rbp), %rax
	movq	%rax, %rcx
	call	_ZN10BaseObjectD2Ev
	movq	%rbx, %rax
	movq	%rax, %rcx
.LEHB2:
	call	_Unwind_Resume
	nop
.LEHE2:
.L22:
.LBE6:
	.loc 5 8 7
	addq	$40, %rsp
	popq	%rbx
	.cfi_restore 3
	popq	%rbp
	.cfi_restore 6
	.cfi_def_cfa 7, -24
	ret
	.cfi_endproc
.LFE2634:
	.def	__gxx_personality_seh0;	.scl	2;	.type	32;	.endef
	.seh_handler	__gxx_personality_seh0, @unwind, @except
	.seh_handlerdata
.LLSDA2634:
	.byte	0xff
	.byte	0xff
	.byte	0x1
	.uleb128 .LLSDACSE2634-.LLSDACSB2634
.LLSDACSB2634:
	.uleb128 .LEHB0-.LFB2634
	.uleb128 .LEHE0-.LEHB0
	.uleb128 .L20-.LFB2634
	.uleb128 0
	.uleb128 .LEHB1-.LFB2634
	.uleb128 .LEHE1-.LEHB1
	.uleb128 .L21-.LFB2634
	.uleb128 0
	.uleb128 .LEHB2-.LFB2634
	.uleb128 .LEHE2-.LEHB2
	.uleb128 0
	.uleb128 0
.LLSDACSE2634:
	.section	.text$_ZN8ProjetilC1ERKS_,"x"
	.linkonce discard
	.seh_endproc
	.section	.text$_ZN12ElementosVooC1ERKS_,"x"
	.linkonce discard
	.align 2
	.globl	_ZN12ElementosVooC1ERKS_
	.def	_ZN12ElementosVooC1ERKS_;	.scl	2;	.type	32;	.endef
	.seh_proc	_ZN12ElementosVooC1ERKS_
_ZN12ElementosVooC1ERKS_:
.LFB2644:
	.loc 4 7 7 is_stmt 1
	.cfi_startproc
	pushq	%rbp
	.seh_pushreg	%rbp
	.cfi_def_cfa_offset 16
	.cfi_offset 6, -16
	movq	%rsp, %rbp
	.seh_setframe	%rbp, 0
	.cfi_def_cfa_register 6
	subq	$32, %rsp
	.seh_stackalloc	32
	.seh_endprologue
	movq	%rcx, 16(%rbp)
	movq	%rdx, 24(%rbp)
.LBB7:
	.loc 4 7 7
	movq	16(%rbp), %rax
	movq	24(%rbp), %rdx
	movq	%rax, %rcx
	call	_ZN10BaseObjectC2ERKS_
	leaq	16+_ZTV12ElementosVoo(%rip), %rdx
	movq	16(%rbp), %rax
	movq	%rdx, (%rax)
	movq	24(%rbp), %rax
	movsd	8(%rax), %xmm0
	movq	16(%rbp), %rax
	movsd	%xmm0, 8(%rax)
	movq	24(%rbp), %rax
	movsd	16(%rax), %xmm0
	movq	16(%rbp), %rax
	movsd	%xmm0, 16(%rax)
	movq	24(%rbp), %rax
	movsd	24(%rax), %xmm0
	movq	16(%rbp), %rax
	movsd	%xmm0, 24(%rax)
	movq	24(%rbp), %rax
	movsd	32(%rax), %xmm0
	movq	16(%rbp), %rax
	movsd	%xmm0, 32(%rax)
	movq	24(%rbp), %rax
	movsd	40(%rax), %xmm0
	movq	16(%rbp), %rax
	movsd	%xmm0, 40(%rax)
	movq	24(%rbp), %rax
	movsd	48(%rax), %xmm0
	movq	16(%rbp), %rax
	movsd	%xmm0, 48(%rax)
	movq	24(%rbp), %rax
	movsd	56(%rax), %xmm0
	movq	16(%rbp), %rax
	movsd	%xmm0, 56(%rax)
	movq	24(%rbp), %rax
	movsd	64(%rax), %xmm0
	movq	16(%rbp), %rax
	movsd	%xmm0, 64(%rax)
	movq	24(%rbp), %rax
	movsd	72(%rax), %xmm0
	movq	16(%rbp), %rax
	movsd	%xmm0, 72(%rax)
	movq	24(%rbp), %rax
	movsd	80(%rax), %xmm0
	movq	16(%rbp), %rax
	movsd	%xmm0, 80(%rax)
	movq	24(%rbp), %rax
	movsd	88(%rax), %xmm0
	movq	16(%rbp), %rax
	movsd	%xmm0, 88(%rax)
.LBE7:
	nop
	addq	$32, %rsp
	popq	%rbp
	.cfi_restore 6
	.cfi_def_cfa 7, 8
	ret
	.cfi_endproc
.LFE2644:
	.seh_endproc
	.section	.text$_ZN21CalculadorAtmosfericoD2Ev,"x"
	.linkonce discard
	.align 2
	.globl	_ZN21CalculadorAtmosfericoD2Ev
	.def	_ZN21CalculadorAtmosfericoD2Ev;	.scl	2;	.type	32;	.endef
	.seh_proc	_ZN21CalculadorAtmosfericoD2Ev
_ZN21CalculadorAtmosfericoD2Ev:
.LFB2648:
	.file 6 "C:/PFC 2021/ballisticKernelCpp/CalculadorNumerico/calculador/calculadorAtmosferico.h"
	.loc 6 23 7
	.cfi_startproc
	pushq	%rbp
	.seh_pushreg	%rbp
	.cfi_def_cfa_offset 16
	.cfi_offset 6, -16
	movq	%rsp, %rbp
	.seh_setframe	%rbp, 0
	.cfi_def_cfa_register 6
	subq	$32, %rsp
	.seh_stackalloc	32
	.seh_endprologue
	movq	%rcx, 16(%rbp)
.LBB8:
	.loc 6 23 7
	movq	.refptr._ZTV21CalculadorAtmosferico(%rip), %rax
	leaq	16(%rax), %rdx
	movq	16(%rbp), %rax
	movq	%rdx, (%rax)
	movq	16(%rbp), %rax
	addq	$304, %rax
	movq	%rax, %rcx
	call	_ZNSt6vectorI12ElementosVooSaIS0_EED1Ev
	movq	16(%rbp), %rax
	addq	$96, %rax
	movq	%rax, %rcx
	call	_ZN8ProjetilD1Ev
	movq	16(%rbp), %rax
	movq	%rax, %rcx
	call	_ZN10CalculadorD2Ev
.LBE8:
	nop
	addq	$32, %rsp
	popq	%rbp
	.cfi_restore 6
	.cfi_def_cfa 7, 8
	ret
	.cfi_endproc
.LFE2648:
	.seh_endproc
	.section	.text$_ZN20CalculadorPontoMassaD2Ev,"x"
	.linkonce discard
	.align 2
	.globl	_ZN20CalculadorPontoMassaD2Ev
	.def	_ZN20CalculadorPontoMassaD2Ev;	.scl	2;	.type	32;	.endef
	.seh_proc	_ZN20CalculadorPontoMassaD2Ev
_ZN20CalculadorPontoMassaD2Ev:
.LFB2650:
	.file 7 "C:/PFC 2021/ballisticKernelCpp/CalculadorNumerico/calculador/calculadorPontoMassa.h"
	.loc 7 9 7
	.cfi_startproc
	pushq	%rbp
	.seh_pushreg	%rbp
	.cfi_def_cfa_offset 16
	.cfi_offset 6, -16
	movq	%rsp, %rbp
	.seh_setframe	%rbp, 0
	.cfi_def_cfa_register 6
	subq	$32, %rsp
	.seh_stackalloc	32
	.seh_endprologue
	movq	%rcx, 16(%rbp)
.LBB9:
	.loc 7 9 7
	movq	.refptr._ZTV20CalculadorPontoMassa(%rip), %rax
	leaq	16(%rax), %rdx
	movq	16(%rbp), %rax
	movq	%rdx, (%rax)
	movq	16(%rbp), %rax
	addq	$424, %rax
	movq	%rax, %rcx
	call	_ZN15CoeficienteDragD1Ev
	movq	16(%rbp), %rax
	movq	%rax, %rcx
	call	_ZN21CalculadorAtmosfericoD2Ev
.LBE9:
	nop
	addq	$32, %rsp
	popq	%rbp
	.cfi_restore 6
	.cfi_def_cfa 7, 8
	ret
	.cfi_endproc
.LFE2650:
	.seh_endproc
	.section .rdata,"dr"
.LC0:
	.ascii "4-DoF\0"
	.text
	.align 2
	.globl	_ZN30CalculadorPontoMassaModificadoC2Ev
	.def	_ZN30CalculadorPontoMassaModificadoC2Ev;	.scl	2;	.type	32;	.endef
	.seh_proc	_ZN30CalculadorPontoMassaModificadoC2Ev
_ZN30CalculadorPontoMassaModificadoC2Ev:
.LFB2652:
	.file 8 "C:/PFC 2021/ballisticKernelCpp/CalculadorNumerico/calculador/calculadorPontoMassaModificado.cpp"
	.loc 8 9 1
	.cfi_startproc
	pushq	%rbp
	.seh_pushreg	%rbp
	.cfi_def_cfa_offset 16
	.cfi_offset 6, -16
	pushq	%rbx
	.seh_pushreg	%rbx
	.cfi_def_cfa_offset 24
	.cfi_offset 3, -24
	subq	$40, %rsp
	.seh_stackalloc	40
	.cfi_def_cfa_offset 64
	leaq	128(%rsp), %rbp
	.seh_setframe	%rbp, 128
	.cfi_def_cfa 6, -64
	.seh_endprologue
	movq	%rcx, -64(%rbp)
.LBB10:
	.loc 8 9 64
	movq	-64(%rbp), %rax
	movq	%rax, %rcx
.LEHB3:
	call	_ZN20CalculadorPontoMassaC2Ev
.LEHE3:
	leaq	16+_ZTV30CalculadorPontoMassaModificado(%rip), %rdx
	movq	-64(%rbp), %rax
	movq	%rdx, (%rax)
	movq	-64(%rbp), %rax
	addq	$488, %rax
	movq	%rax, %rcx
.LEHB4:
	call	_ZN16CoeficienteDrag2C1Ev
.LEHE4:
	.loc 8 9 64 is_stmt 0 discriminator 2
	movq	-64(%rbp), %rax
	addq	$552, %rax
	movq	%rax, %rcx
.LEHB5:
	call	_ZN22CoeficienteMagnusForceC1Ev
.LEHE5:
	.loc 8 9 64 discriminator 4
	movq	-64(%rbp), %rax
	addq	$616, %rax
	movq	%rax, %rcx
.LEHB6:
	call	_ZN15CoeficienteLiftC1Ev
.LEHE6:
	.loc 8 9 64 discriminator 6
	movq	-64(%rbp), %rax
	addq	$680, %rax
	movq	%rax, %rcx
.LEHB7:
	call	_ZN28CoeficienteOverturningMomentC1Ev
.LEHE7:
	.loc 8 9 64 discriminator 8
	movq	-64(%rbp), %rax
	addq	$744, %rax
	movq	%rax, %rcx
.LEHB8:
	call	_ZN28CoeficienteSpinDampingMomentC1Ev
.LEHE8:
	.loc 8 12 11 is_stmt 1
	movq	-64(%rbp), %rax
	movl	$18, 808(%rax)
	.loc 8 13 12
	movq	-64(%rbp), %rax
	addq	$16, %rax
	leaq	.LC0(%rip), %rdx
	movq	%rax, %rcx
.LEHB9:
	call	_ZNSt7__cxx1112basic_stringIcSt11char_traitsIcESaIcEEaSEPKc
.LEHE9:
.LBE10:
	.loc 8 14 1
	jmp	.L39
.L38:
	movq	%rax, %rbx
.LBB11:
	.loc 8 9 64
	movq	-64(%rbp), %rax
	addq	$744, %rax
	movq	%rax, %rcx
	call	_ZN28CoeficienteSpinDampingMomentD1Ev
	jmp	.L28
.L37:
	movq	%rax, %rbx
.L28:
	.loc 8 9 64 is_stmt 0 discriminator 9
	movq	-64(%rbp), %rax
	addq	$680, %rax
	movq	%rax, %rcx
	call	_ZN28CoeficienteOverturningMomentD1Ev
	jmp	.L29
.L36:
	movq	%rax, %rbx
.L29:
	.loc 8 9 64 discriminator 7
	movq	-64(%rbp), %rax
	addq	$616, %rax
	movq	%rax, %rcx
	call	_ZN15CoeficienteLiftD1Ev
	jmp	.L30
.L35:
	movq	%rax, %rbx
.L30:
	.loc 8 9 64 discriminator 5
	movq	-64(%rbp), %rax
	addq	$552, %rax
	movq	%rax, %rcx
	call	_ZN22CoeficienteMagnusForceD1Ev
	jmp	.L31
.L34:
	movq	%rax, %rbx
.L31:
	.loc 8 9 64 discriminator 3
	movq	-64(%rbp), %rax
	addq	$488, %rax
	movq	%rax, %rcx
	call	_ZN16CoeficienteDrag2D1Ev
	jmp	.L32
.L33:
	movq	%rax, %rbx
.L32:
	.loc 8 9 64 discriminator 1
	movq	-64(%rbp), %rax
	movq	%rax, %rcx
	call	_ZN20CalculadorPontoMassaD2Ev
	movq	%rbx, %rax
	movq	%rax, %rcx
.LEHB10:
	call	_Unwind_Resume
	nop
.LEHE10:
.L39:
.LBE11:
	.loc 8 14 1 is_stmt 1
	addq	$40, %rsp
	popq	%rbx
	.cfi_restore 3
	popq	%rbp
	.cfi_restore 6
	.cfi_def_cfa 7, -24
	ret
	.cfi_endproc
.LFE2652:
	.seh_handler	__gxx_personality_seh0, @unwind, @except
	.seh_handlerdata
.LLSDA2652:
	.byte	0xff
	.byte	0xff
	.byte	0x1
	.uleb128 .LLSDACSE2652-.LLSDACSB2652
.LLSDACSB2652:
	.uleb128 .LEHB3-.LFB2652
	.uleb128 .LEHE3-.LEHB3
	.uleb128 0
	.uleb128 0
	.uleb128 .LEHB4-.LFB2652
	.uleb128 .LEHE4-.LEHB4
	.uleb128 .L33-.LFB2652
	.uleb128 0
	.uleb128 .LEHB5-.LFB2652
	.uleb128 .LEHE5-.LEHB5
	.uleb128 .L34-.LFB2652
	.uleb128 0
	.uleb128 .LEHB6-.LFB2652
	.uleb128 .LEHE6-.LEHB6
	.uleb128 .L35-.LFB2652
	.uleb128 0
	.uleb128 .LEHB7-.LFB2652
	.uleb128 .LEHE7-.LEHB7
	.uleb128 .L36-.LFB2652
	.uleb128 0
	.uleb128 .LEHB8-.LFB2652
	.uleb128 .LEHE8-.LEHB8
	.uleb128 .L37-.LFB2652
	.uleb128 0
	.uleb128 .LEHB9-.LFB2652
	.uleb128 .LEHE9-.LEHB9
	.uleb128 .L38-.LFB2652
	.uleb128 0
	.uleb128 .LEHB10-.LFB2652
	.uleb128 .LEHE10-.LEHB10
	.uleb128 0
	.uleb128 0
.LLSDACSE2652:
	.text
	.seh_endproc
	.globl	_ZN30CalculadorPontoMassaModificadoC1Ev
	.def	_ZN30CalculadorPontoMassaModificadoC1Ev;	.scl	2;	.type	32;	.endef
	.set	_ZN30CalculadorPontoMassaModificadoC1Ev,_ZN30CalculadorPontoMassaModificadoC2Ev
	.align 2
	.globl	_ZN30CalculadorPontoMassaModificado3acxEdddddddddd
	.def	_ZN30CalculadorPontoMassaModificado3acxEdddddddddd;	.scl	2;	.type	32;	.endef
	.seh_proc	_ZN30CalculadorPontoMassaModificado3acxEdddddddddd
_ZN30CalculadorPontoMassaModificado3acxEdddddddddd:
.LFB2654:
	.loc 8 32 1
	.cfi_startproc
	pushq	%rbp
	.seh_pushreg	%rbp
	.cfi_def_cfa_offset 16
	.cfi_offset 6, -16
	pushq	%rbx
	.seh_pushreg	%rbx
	.cfi_def_cfa_offset 24
	.cfi_offset 3, -24
	subq	$120, %rsp
	.seh_stackalloc	120
	.cfi_def_cfa_offset 144
	leaq	128(%rsp), %rbp
	.seh_setframe	%rbp, 128
	.cfi_def_cfa 6, 16
	movaps	%xmm6, -48(%rbp)
	.seh_savexmm	%xmm6, 80
	movaps	%xmm7, -32(%rbp)
	.seh_savexmm	%xmm7, 96
	.cfi_offset 23, -64
	.cfi_offset 24, -48
	.seh_endprologue
	movq	%rcx, 16(%rbp)
	movsd	%xmm1, 24(%rbp)
	movsd	%xmm2, 32(%rbp)
	movsd	%xmm3, 40(%rbp)
	.loc 8 33 24
	movq	16(%rbp), %rbx
	.loc 8 33 90
	movq	16(%rbp), %rax
	movsd	72(%rbp), %xmm0
	movapd	%xmm0, %xmm1
	movq	%rax, %rcx
	call	_ZN21CalculadorAtmosferico19getVentoTransversalEd
	movapd	%xmm0, %xmm1
	.loc 8 33 24
	movsd	40(%rbp), %xmm0
	movapd	%xmm0, %xmm6
	subsd	%xmm1, %xmm6
	.loc 8 33 50
	movq	16(%rbp), %rax
	movsd	72(%rbp), %xmm0
	movapd	%xmm0, %xmm1
	movq	%rax, %rcx
	call	_ZN21CalculadorAtmosferico20getVentoLongitudinalEd
	movapd	%xmm0, %xmm1
	.loc 8 33 24
	movsd	24(%rbp), %xmm0
	subsd	%xmm1, %xmm0
	movsd	32(%rbp), %xmm1
	movapd	%xmm6, %xmm3
	movapd	%xmm1, %xmm2
	movapd	%xmm0, %xmm1
	movq	%rbx, %rcx
	call	_ZN10Calculador1vEddd
	movq	%xmm0, %rax
	movq	%rax, -56(%rbp)
	.loc 8 34 26
	movq	16(%rbp), %rax
	movsd	40(%rbp), %xmm2
	movsd	32(%rbp), %xmm1
	movsd	24(%rbp), %xmm0
	movapd	%xmm2, %xmm3
	movapd	%xmm1, %xmm2
	movapd	%xmm0, %xmm1
	movq	%rax, %rcx
	call	_ZN10Calculador1vEddd
	movq	%xmm0, %rax
	movq	%rax, -64(%rbp)
	.loc 8 35 28
	movq	16(%rbp), %rax
	movsd	72(%rbp), %xmm1
	movsd	-64(%rbp), %xmm0
	movapd	%xmm1, %xmm2
	movapd	%xmm0, %xmm1
	movq	%rax, %rcx
	call	_ZN21CalculadorAtmosferico8vel_machEdd
	movq	%xmm0, %rax
	movq	%rax, -72(%rbp)
	.loc 8 36 23
	movq	16(%rbp), %rax
	movq	232(%rax), %rdx
	movq	16(%rbp), %rax
	movq	232(%rax), %rax
	.loc 8 36 48
	movq	(%rax), %rax
	addq	$32, %rax
	movq	(%rax), %rax
	.loc 8 36 39
	movsd	72(%rbp), %xmm0
	movapd	%xmm0, %xmm1
	movq	%rdx, %rcx
	call	*%rax
.LVL1:
	movapd	%xmm0, %xmm1
	.loc 8 36 22
	movq	.LC1(%rip), %xmm0
	xorpd	%xmm0, %xmm1
	.loc 8 36 49
	movsd	.LC2(%rip), %xmm0
	mulsd	%xmm0, %xmm1
	.loc 8 36 54
	movq	16(%rbp), %rax
	movsd	240(%rax), %xmm0
	.loc 8 36 53
	mulsd	%xmm0, %xmm1
	.loc 8 36 56
	movq	16(%rbp), %rax
	movsd	256(%rax), %xmm0
	.loc 8 36 55
	movapd	%xmm1, %xmm6
	mulsd	%xmm0, %xmm6
	.loc 8 36 70
	movsd	88(%rbp), %xmm1
	movsd	-72(%rbp), %xmm0
	movapd	%xmm1, %xmm2
	movapd	%xmm0, %xmm1
	movq	16(%rbp), %rcx
	call	_ZN30CalculadorPontoMassaModificado12getDragTotalEdd
	.loc 8 36 57
	mulsd	%xmm0, %xmm6
	.loc 8 36 114
	movq	16(%rbp), %rax
	movsd	72(%rbp), %xmm0
	movapd	%xmm0, %xmm1
	movq	%rax, %rcx
	call	_ZN21CalculadorAtmosferico20getVentoLongitudinalEd
	movapd	%xmm0, %xmm1
	.loc 8 36 92
	movsd	24(%rbp), %xmm0
	subsd	%xmm1, %xmm0
	.loc 8 36 87
	mulsd	%xmm6, %xmm0
	.loc 8 36 125
	movapd	%xmm0, %xmm6
	mulsd	-56(%rbp), %xmm6
	.loc 8 37 25
	movq	16(%rbp), %rax
	movq	232(%rax), %rdx
	movq	16(%rbp), %rax
	movq	232(%rax), %rax
	.loc 8 37 50
	movq	(%rax), %rax
	addq	$32, %rax
	movq	(%rax), %rax
	.loc 8 37 41
	movsd	72(%rbp), %xmm0
	movapd	%xmm0, %xmm1
	movq	%rdx, %rcx
	call	*%rax
.LVL2:
	movapd	%xmm0, %xmm1
	.loc 8 37 51
	movsd	.LC2(%rip), %xmm0
	mulsd	%xmm0, %xmm1
	.loc 8 37 56
	movq	16(%rbp), %rax
	movsd	240(%rax), %xmm0
	.loc 8 37 55
	mulsd	%xmm0, %xmm1
	.loc 8 37 58
	movq	16(%rbp), %rax
	movsd	256(%rax), %xmm0
	.loc 8 37 57
	movapd	%xmm1, %xmm7
	mulsd	%xmm0, %xmm7
	.loc 8 37 72
	movsd	88(%rbp), %xmm1
	movsd	-72(%rbp), %xmm0
	movapd	%xmm1, %xmm2
	movapd	%xmm0, %xmm1
	movq	16(%rbp), %rcx
	call	_ZN30CalculadorPontoMassaModificado12getLiftTotalEdd
	.loc 8 37 59
	mulsd	%xmm7, %xmm0
	.loc 8 37 88
	mulsd	-56(%rbp), %xmm0
	.loc 8 37 97
	mulsd	-56(%rbp), %xmm0
	.loc 8 37 106
	mulsd	48(%rbp), %xmm0
	.loc 8 37 23
	addsd	%xmm0, %xmm6
	.loc 8 38 25
	movq	16(%rbp), %rax
	movq	232(%rax), %rdx
	movq	16(%rbp), %rax
	movq	232(%rax), %rax
	.loc 8 38 50
	movq	(%rax), %rax
	addq	$32, %rax
	movq	(%rax), %rax
	.loc 8 38 41
	movsd	72(%rbp), %xmm0
	movapd	%xmm0, %xmm1
	movq	%rdx, %rcx
	call	*%rax
.LVL3:
	movapd	%xmm0, %xmm1
	.loc 8 38 51
	movsd	.LC2(%rip), %xmm0
	mulsd	%xmm0, %xmm1
	.loc 8 38 56
	movq	16(%rbp), %rax
	movsd	240(%rax), %xmm0
	.loc 8 38 55
	mulsd	%xmm0, %xmm1
	.loc 8 38 58
	movq	16(%rbp), %rax
	movsd	256(%rax), %xmm0
	.loc 8 38 57
	mulsd	%xmm0, %xmm1
	.loc 8 38 60
	movq	16(%rbp), %rax
	movsd	248(%rax), %xmm0
	.loc 8 38 59
	movapd	%xmm1, %xmm7
	mulsd	%xmm0, %xmm7
	.loc 8 38 93
	movq	16(%rbp), %rax
	addq	$552, %rax
	movsd	-72(%rbp), %xmm0
	movapd	%xmm0, %xmm1
	movq	%rax, %rcx
	call	_ZN23CoeficienteAerodinamico8getValorEd
	.loc 8 38 68
	mulsd	%xmm7, %xmm0
	.loc 8 38 100
	movapd	%xmm0, %xmm2
	mulsd	96(%rbp), %xmm2
	.loc 8 38 114
	movsd	56(%rbp), %xmm0
	mulsd	40(%rbp), %xmm0
	.loc 8 38 123
	movsd	64(%rbp), %xmm1
	mulsd	32(%rbp), %xmm1
	.loc 8 38 118
	subsd	%xmm1, %xmm0
	.loc 8 38 109
	mulsd	%xmm2, %xmm0
	.loc 8 38 23
	addsd	%xmm0, %xmm6
	.loc 8 39 30
	movq	16(%rbp), %rax
	movsd	80(%rbp), %xmm0
	movapd	%xmm0, %xmm1
	movq	%rax, %rcx
	call	_ZN10Calculador5gravxEd
	.loc 8 39 23
	addsd	%xmm0, %xmm6
	.loc 8 39 55
	movq	16(%rbp), %rax
	movq	16(%rbp), %rdx
	movsd	280(%rdx), %xmm2
	movq	16(%rbp), %rdx
	movsd	80(%rdx), %xmm1
	movsd	32(%rbp), %xmm3
	movsd	40(%rbp), %xmm0
	movsd	%xmm0, 32(%rsp)
	movq	%rax, %rcx
	call	_ZN21CalculadorAtmosferico11acCoriolisxEdddd
	.loc 8 39 84
	addsd	%xmm6, %xmm0
	movsd	%xmm0, -80(%rbp)
	.loc 8 40 12
	movsd	-80(%rbp), %xmm0
	movq	%xmm0, %rax
	.loc 8 41 1
	movq	%rax, %xmm0
	movaps	-48(%rbp), %xmm6
	movaps	-32(%rbp), %xmm7
	addq	$120, %rsp
	.cfi_restore 24
	.cfi_restore 23
	popq	%rbx
	.cfi_restore 3
	popq	%rbp
	.cfi_restore 6
	.cfi_def_cfa 7, -104
	ret
	.cfi_endproc
.LFE2654:
	.seh_endproc
	.align 2
	.globl	_ZN30CalculadorPontoMassaModificado3acyEddddddddd
	.def	_ZN30CalculadorPontoMassaModificado3acyEddddddddd;	.scl	2;	.type	32;	.endef
	.seh_proc	_ZN30CalculadorPontoMassaModificado3acyEddddddddd
_ZN30CalculadorPontoMassaModificado3acyEddddddddd:
.LFB2655:
	.loc 8 58 1
	.cfi_startproc
	pushq	%rbp
	.seh_pushreg	%rbp
	.cfi_def_cfa_offset 16
	.cfi_offset 6, -16
	pushq	%rbx
	.seh_pushreg	%rbx
	.cfi_def_cfa_offset 24
	.cfi_offset 3, -24
	subq	$120, %rsp
	.seh_stackalloc	120
	.cfi_def_cfa_offset 144
	leaq	128(%rsp), %rbp
	.seh_setframe	%rbp, 128
	.cfi_def_cfa 6, 16
	movaps	%xmm6, -48(%rbp)
	.seh_savexmm	%xmm6, 80
	movaps	%xmm7, -32(%rbp)
	.seh_savexmm	%xmm7, 96
	.cfi_offset 23, -64
	.cfi_offset 24, -48
	.seh_endprologue
	movq	%rcx, 16(%rbp)
	movsd	%xmm1, 24(%rbp)
	movsd	%xmm2, 32(%rbp)
	movsd	%xmm3, 40(%rbp)
	.loc 8 59 24
	movq	16(%rbp), %rbx
	.loc 8 59 90
	movq	16(%rbp), %rax
	movsd	72(%rbp), %xmm0
	movapd	%xmm0, %xmm1
	movq	%rax, %rcx
	call	_ZN21CalculadorAtmosferico19getVentoTransversalEd
	movapd	%xmm0, %xmm1
	.loc 8 59 24
	movsd	40(%rbp), %xmm0
	movapd	%xmm0, %xmm6
	subsd	%xmm1, %xmm6
	.loc 8 59 50
	movq	16(%rbp), %rax
	movsd	72(%rbp), %xmm0
	movapd	%xmm0, %xmm1
	movq	%rax, %rcx
	call	_ZN21CalculadorAtmosferico20getVentoLongitudinalEd
	movapd	%xmm0, %xmm1
	.loc 8 59 24
	movsd	24(%rbp), %xmm0
	subsd	%xmm1, %xmm0
	movsd	32(%rbp), %xmm1
	movapd	%xmm6, %xmm3
	movapd	%xmm1, %xmm2
	movapd	%xmm0, %xmm1
	movq	%rbx, %rcx
	call	_ZN10Calculador1vEddd
	movq	%xmm0, %rax
	movq	%rax, -56(%rbp)
	.loc 8 60 26
	movq	16(%rbp), %rax
	movsd	40(%rbp), %xmm2
	movsd	32(%rbp), %xmm1
	movsd	24(%rbp), %xmm0
	movapd	%xmm2, %xmm3
	movapd	%xmm1, %xmm2
	movapd	%xmm0, %xmm1
	movq	%rax, %rcx
	call	_ZN10Calculador1vEddd
	movq	%xmm0, %rax
	movq	%rax, -64(%rbp)
	.loc 8 61 28
	movq	16(%rbp), %rax
	movsd	72(%rbp), %xmm1
	movsd	-64(%rbp), %xmm0
	movapd	%xmm1, %xmm2
	movapd	%xmm0, %xmm1
	movq	%rax, %rcx
	call	_ZN21CalculadorAtmosferico8vel_machEdd
	movq	%xmm0, %rax
	movq	%rax, -72(%rbp)
	.loc 8 62 13
	movq	16(%rbp), %rax
	movq	232(%rax), %rdx
	movq	16(%rbp), %rax
	movq	232(%rax), %rax
	.loc 8 62 38
	movq	(%rax), %rax
	addq	$32, %rax
	movq	(%rax), %rax
	.loc 8 62 29
	movsd	72(%rbp), %xmm0
	movapd	%xmm0, %xmm1
	movq	%rdx, %rcx
	call	*%rax
.LVL4:
	movapd	%xmm0, %xmm1
	.loc 8 62 12
	movq	.LC1(%rip), %xmm0
	xorpd	%xmm0, %xmm1
	.loc 8 62 39
	movsd	.LC2(%rip), %xmm0
	mulsd	%xmm0, %xmm1
	.loc 8 62 44
	movq	16(%rbp), %rax
	movsd	256(%rax), %xmm0
	.loc 8 62 43
	mulsd	%xmm0, %xmm1
	.loc 8 62 46
	movq	16(%rbp), %rax
	movsd	240(%rax), %xmm0
	.loc 8 62 45
	movapd	%xmm1, %xmm6
	mulsd	%xmm0, %xmm6
	.loc 8 62 60
	movsd	80(%rbp), %xmm1
	movsd	-72(%rbp), %xmm0
	movapd	%xmm1, %xmm2
	movapd	%xmm0, %xmm1
	movq	16(%rbp), %rcx
	call	_ZN30CalculadorPontoMassaModificado12getDragTotalEdd
	.loc 8 62 47
	mulsd	%xmm6, %xmm0
	.loc 8 62 76
	mulsd	32(%rbp), %xmm0
	.loc 8 62 79
	movapd	%xmm0, %xmm6
	mulsd	-56(%rbp), %xmm6
	.loc 8 63 15
	movq	16(%rbp), %rax
	movq	232(%rax), %rdx
	movq	16(%rbp), %rax
	movq	232(%rax), %rax
	.loc 8 63 40
	movq	(%rax), %rax
	addq	$32, %rax
	movq	(%rax), %rax
	.loc 8 63 31
	movsd	72(%rbp), %xmm0
	movapd	%xmm0, %xmm1
	movq	%rdx, %rcx
	call	*%rax
.LVL5:
	movapd	%xmm0, %xmm1
	.loc 8 63 41
	movsd	.LC2(%rip), %xmm0
	mulsd	%xmm0, %xmm1
	.loc 8 63 46
	movq	16(%rbp), %rax
	movsd	240(%rax), %xmm0
	.loc 8 63 45
	mulsd	%xmm0, %xmm1
	.loc 8 63 48
	movq	16(%rbp), %rax
	movsd	256(%rax), %xmm0
	.loc 8 63 47
	movapd	%xmm1, %xmm7
	mulsd	%xmm0, %xmm7
	.loc 8 63 62
	movsd	80(%rbp), %xmm1
	movsd	-72(%rbp), %xmm0
	movapd	%xmm1, %xmm2
	movapd	%xmm0, %xmm1
	movq	16(%rbp), %rcx
	call	_ZN30CalculadorPontoMassaModificado12getLiftTotalEdd
	.loc 8 63 49
	mulsd	%xmm7, %xmm0
	.loc 8 63 77
	mulsd	-56(%rbp), %xmm0
	.loc 8 63 86
	mulsd	-56(%rbp), %xmm0
	.loc 8 63 95
	mulsd	56(%rbp), %xmm0
	.loc 8 63 13
	addsd	%xmm0, %xmm6
	.loc 8 64 15
	movq	16(%rbp), %rax
	movq	232(%rax), %rdx
	movq	16(%rbp), %rax
	movq	232(%rax), %rax
	.loc 8 64 40
	movq	(%rax), %rax
	addq	$32, %rax
	movq	(%rax), %rax
	.loc 8 64 31
	movsd	72(%rbp), %xmm0
	movapd	%xmm0, %xmm1
	movq	%rdx, %rcx
	call	*%rax
.LVL6:
	movapd	%xmm0, %xmm1
	.loc 8 64 41
	movsd	.LC2(%rip), %xmm0
	mulsd	%xmm0, %xmm1
	.loc 8 64 46
	movq	16(%rbp), %rax
	movsd	240(%rax), %xmm0
	.loc 8 64 45
	mulsd	%xmm0, %xmm1
	.loc 8 64 48
	movq	16(%rbp), %rax
	movsd	256(%rax), %xmm0
	.loc 8 64 47
	mulsd	%xmm0, %xmm1
	.loc 8 64 50
	movq	16(%rbp), %rax
	movsd	248(%rax), %xmm0
	.loc 8 64 49
	movapd	%xmm1, %xmm7
	mulsd	%xmm0, %xmm7
	.loc 8 64 83
	movq	16(%rbp), %rax
	addq	$552, %rax
	movsd	-72(%rbp), %xmm0
	movapd	%xmm0, %xmm1
	movq	%rax, %rcx
	call	_ZN23CoeficienteAerodinamico8getValorEd
	.loc 8 64 58
	mulsd	%xmm7, %xmm0
	.loc 8 64 90
	movapd	%xmm0, %xmm2
	mulsd	88(%rbp), %xmm2
	.loc 8 64 104
	movsd	64(%rbp), %xmm0
	mulsd	24(%rbp), %xmm0
	.loc 8 64 113
	movsd	48(%rbp), %xmm1
	mulsd	40(%rbp), %xmm1
	.loc 8 64 108
	subsd	%xmm1, %xmm0
	.loc 8 64 99
	mulsd	%xmm2, %xmm0
	.loc 8 64 13
	addsd	%xmm0, %xmm6
	.loc 8 65 20
	movq	16(%rbp), %rax
	movsd	72(%rbp), %xmm0
	movapd	%xmm0, %xmm1
	movq	%rax, %rcx
	call	_ZN10Calculador5gravyEd
	.loc 8 65 13
	addsd	%xmm0, %xmm6
	.loc 8 65 44
	movq	16(%rbp), %rax
	movq	16(%rbp), %rdx
	movsd	280(%rdx), %xmm2
	movq	16(%rbp), %rdx
	movsd	80(%rdx), %xmm1
	movsd	24(%rbp), %xmm3
	movsd	40(%rbp), %xmm0
	movsd	%xmm0, 32(%rsp)
	movq	%rax, %rcx
	call	_ZN21CalculadorAtmosferico11acCoriolisyEdddd
	.loc 8 65 73
	addsd	%xmm6, %xmm0
	movq	%xmm0, %rax
	.loc 8 66 1
	movq	%rax, %xmm0
	movaps	-48(%rbp), %xmm6
	movaps	-32(%rbp), %xmm7
	addq	$120, %rsp
	.cfi_restore 24
	.cfi_restore 23
	popq	%rbx
	.cfi_restore 3
	popq	%rbp
	.cfi_restore 6
	.cfi_def_cfa 7, -104
	ret
	.cfi_endproc
.LFE2655:
	.seh_endproc
	.align 2
	.globl	_ZN30CalculadorPontoMassaModificado3aczEdddddddddd
	.def	_ZN30CalculadorPontoMassaModificado3aczEdddddddddd;	.scl	2;	.type	32;	.endef
	.seh_proc	_ZN30CalculadorPontoMassaModificado3aczEdddddddddd
_ZN30CalculadorPontoMassaModificado3aczEdddddddddd:
.LFB2656:
	.loc 8 84 1
	.cfi_startproc
	pushq	%rbp
	.seh_pushreg	%rbp
	.cfi_def_cfa_offset 16
	.cfi_offset 6, -16
	pushq	%rbx
	.seh_pushreg	%rbx
	.cfi_def_cfa_offset 24
	.cfi_offset 3, -24
	subq	$120, %rsp
	.seh_stackalloc	120
	.cfi_def_cfa_offset 144
	leaq	128(%rsp), %rbp
	.seh_setframe	%rbp, 128
	.cfi_def_cfa 6, 16
	movaps	%xmm6, -48(%rbp)
	.seh_savexmm	%xmm6, 80
	movaps	%xmm7, -32(%rbp)
	.seh_savexmm	%xmm7, 96
	.cfi_offset 23, -64
	.cfi_offset 24, -48
	.seh_endprologue
	movq	%rcx, 16(%rbp)
	movsd	%xmm1, 24(%rbp)
	movsd	%xmm2, 32(%rbp)
	movsd	%xmm3, 40(%rbp)
	.loc 8 85 24
	movq	16(%rbp), %rbx
	.loc 8 85 90
	movq	16(%rbp), %rax
	movsd	72(%rbp), %xmm0
	movapd	%xmm0, %xmm1
	movq	%rax, %rcx
	call	_ZN21CalculadorAtmosferico19getVentoTransversalEd
	movapd	%xmm0, %xmm1
	.loc 8 85 24
	movsd	40(%rbp), %xmm0
	movapd	%xmm0, %xmm6
	subsd	%xmm1, %xmm6
	.loc 8 85 50
	movq	16(%rbp), %rax
	movsd	72(%rbp), %xmm0
	movapd	%xmm0, %xmm1
	movq	%rax, %rcx
	call	_ZN21CalculadorAtmosferico20getVentoLongitudinalEd
	movapd	%xmm0, %xmm1
	.loc 8 85 24
	movsd	24(%rbp), %xmm0
	subsd	%xmm1, %xmm0
	movsd	32(%rbp), %xmm1
	movapd	%xmm6, %xmm3
	movapd	%xmm1, %xmm2
	movapd	%xmm0, %xmm1
	movq	%rbx, %rcx
	call	_ZN10Calculador1vEddd
	movq	%xmm0, %rax
	movq	%rax, -56(%rbp)
	.loc 8 86 26
	movq	16(%rbp), %rax
	movsd	40(%rbp), %xmm2
	movsd	32(%rbp), %xmm1
	movsd	24(%rbp), %xmm0
	movapd	%xmm2, %xmm3
	movapd	%xmm1, %xmm2
	movapd	%xmm0, %xmm1
	movq	%rax, %rcx
	call	_ZN10Calculador1vEddd
	movq	%xmm0, %rax
	movq	%rax, -64(%rbp)
	.loc 8 87 28
	movq	16(%rbp), %rax
	movsd	72(%rbp), %xmm1
	movsd	-64(%rbp), %xmm0
	movapd	%xmm1, %xmm2
	movapd	%xmm0, %xmm1
	movq	%rax, %rcx
	call	_ZN21CalculadorAtmosferico8vel_machEdd
	movq	%xmm0, %rax
	movq	%rax, -72(%rbp)
	.loc 8 89 23
	movq	16(%rbp), %rax
	movq	232(%rax), %rdx
	movq	16(%rbp), %rax
	movq	232(%rax), %rax
	.loc 8 89 48
	movq	(%rax), %rax
	addq	$32, %rax
	movq	(%rax), %rax
	.loc 8 89 39
	movsd	72(%rbp), %xmm0
	movapd	%xmm0, %xmm1
	movq	%rdx, %rcx
	call	*%rax
.LVL7:
	movapd	%xmm0, %xmm1
	.loc 8 89 22
	movq	.LC1(%rip), %xmm0
	xorpd	%xmm0, %xmm1
	.loc 8 89 49
	movsd	.LC2(%rip), %xmm0
	mulsd	%xmm0, %xmm1
	.loc 8 89 54
	movq	16(%rbp), %rax
	movsd	240(%rax), %xmm0
	.loc 8 89 53
	mulsd	%xmm0, %xmm1
	.loc 8 89 56
	movq	16(%rbp), %rax
	movsd	256(%rax), %xmm0
	.loc 8 89 55
	movapd	%xmm1, %xmm6
	mulsd	%xmm0, %xmm6
	.loc 8 89 70
	movsd	88(%rbp), %xmm1
	movsd	-72(%rbp), %xmm0
	movapd	%xmm1, %xmm2
	movapd	%xmm0, %xmm1
	movq	16(%rbp), %rcx
	call	_ZN30CalculadorPontoMassaModificado12getDragTotalEdd
	.loc 8 89 57
	mulsd	%xmm0, %xmm6
	.loc 8 89 112
	movq	16(%rbp), %rax
	movsd	72(%rbp), %xmm0
	movapd	%xmm0, %xmm1
	movq	%rax, %rcx
	call	_ZN21CalculadorAtmosferico19getVentoTransversalEd
	movapd	%xmm0, %xmm1
	.loc 8 89 91
	movsd	40(%rbp), %xmm0
	subsd	%xmm1, %xmm0
	.loc 8 89 86
	mulsd	%xmm6, %xmm0
	.loc 8 89 123
	movapd	%xmm0, %xmm6
	mulsd	-56(%rbp), %xmm6
	.loc 8 90 24
	movq	16(%rbp), %rax
	movq	232(%rax), %rdx
	movq	16(%rbp), %rax
	movq	232(%rax), %rax
	.loc 8 90 49
	movq	(%rax), %rax
	addq	$32, %rax
	movq	(%rax), %rax
	.loc 8 90 40
	movsd	72(%rbp), %xmm0
	movapd	%xmm0, %xmm1
	movq	%rdx, %rcx
	call	*%rax
.LVL8:
	movapd	%xmm0, %xmm1
	.loc 8 90 50
	movsd	.LC2(%rip), %xmm0
	mulsd	%xmm0, %xmm1
	.loc 8 90 55
	movq	16(%rbp), %rax
	movsd	240(%rax), %xmm0
	.loc 8 90 54
	mulsd	%xmm0, %xmm1
	.loc 8 90 57
	movq	16(%rbp), %rax
	movsd	256(%rax), %xmm0
	.loc 8 90 56
	movapd	%xmm1, %xmm7
	mulsd	%xmm0, %xmm7
	.loc 8 90 71
	movsd	88(%rbp), %xmm1
	movsd	-72(%rbp), %xmm0
	movapd	%xmm1, %xmm2
	movapd	%xmm0, %xmm1
	movq	16(%rbp), %rcx
	call	_ZN30CalculadorPontoMassaModificado12getLiftTotalEdd
	.loc 8 90 58
	mulsd	%xmm7, %xmm0
	.loc 8 90 86
	mulsd	-56(%rbp), %xmm0
	.loc 8 90 95
	mulsd	-56(%rbp), %xmm0
	.loc 8 90 104
	mulsd	64(%rbp), %xmm0
	.loc 8 90 23
	addsd	%xmm0, %xmm6
	.loc 8 91 24
	movq	16(%rbp), %rax
	movq	232(%rax), %rdx
	movq	16(%rbp), %rax
	movq	232(%rax), %rax
	.loc 8 91 49
	movq	(%rax), %rax
	addq	$32, %rax
	movq	(%rax), %rax
	.loc 8 91 40
	movsd	72(%rbp), %xmm0
	movapd	%xmm0, %xmm1
	movq	%rdx, %rcx
	call	*%rax
.LVL9:
	movapd	%xmm0, %xmm1
	.loc 8 91 50
	movsd	.LC2(%rip), %xmm0
	mulsd	%xmm0, %xmm1
	.loc 8 91 55
	movq	16(%rbp), %rax
	movsd	240(%rax), %xmm0
	.loc 8 91 54
	mulsd	%xmm0, %xmm1
	.loc 8 91 57
	movq	16(%rbp), %rax
	movsd	256(%rax), %xmm0
	.loc 8 91 56
	mulsd	%xmm0, %xmm1
	.loc 8 91 59
	movq	16(%rbp), %rax
	movsd	248(%rax), %xmm0
	.loc 8 91 58
	movapd	%xmm1, %xmm7
	mulsd	%xmm0, %xmm7
	.loc 8 91 92
	movq	16(%rbp), %rax
	addq	$552, %rax
	movsd	-72(%rbp), %xmm0
	movapd	%xmm0, %xmm1
	movq	%rax, %rcx
	call	_ZN23CoeficienteAerodinamico8getValorEd
	.loc 8 91 67
	mulsd	%xmm7, %xmm0
	.loc 8 91 99
	movapd	%xmm0, %xmm2
	mulsd	96(%rbp), %xmm2
	.loc 8 91 113
	movsd	48(%rbp), %xmm0
	mulsd	32(%rbp), %xmm0
	.loc 8 91 122
	movsd	56(%rbp), %xmm1
	mulsd	24(%rbp), %xmm1
	.loc 8 91 117
	subsd	%xmm1, %xmm0
	.loc 8 91 108
	mulsd	%xmm2, %xmm0
	.loc 8 91 23
	addsd	%xmm0, %xmm6
	.loc 8 92 30
	movq	16(%rbp), %rax
	movsd	80(%rbp), %xmm0
	movapd	%xmm0, %xmm1
	movq	%rax, %rcx
	call	_ZN10Calculador5gravzEd
	.loc 8 92 23
	addsd	%xmm0, %xmm6
	.loc 8 93 36
	movq	16(%rbp), %rax
	movq	16(%rbp), %rdx
	movsd	280(%rdx), %xmm2
	movq	16(%rbp), %rdx
	movsd	80(%rdx), %xmm1
	movsd	24(%rbp), %xmm3
	movsd	32(%rbp), %xmm0
	movsd	%xmm0, 32(%rsp)
	movq	%rax, %rcx
	call	_ZN21CalculadorAtmosferico11acCorioliszEdddd
	.loc 8 93 65
	addsd	%xmm6, %xmm0
	movsd	%xmm0, -80(%rbp)
	.loc 8 94 12
	movsd	-80(%rbp), %xmm0
	movq	%xmm0, %rax
	.loc 8 95 1
	movq	%rax, %xmm0
	movaps	-48(%rbp), %xmm6
	movaps	-32(%rbp), %xmm7
	addq	$120, %rsp
	.cfi_restore 24
	.cfi_restore 23
	popq	%rbx
	.cfi_restore 3
	popq	%rbp
	.cfi_restore 6
	.cfi_def_cfa 7, -104
	ret
	.cfi_endproc
.LFE2656:
	.seh_endproc
	.align 2
	.globl	_ZN30CalculadorPontoMassaModificado2arEddddddddd
	.def	_ZN30CalculadorPontoMassaModificado2arEddddddddd;	.scl	2;	.type	32;	.endef
	.seh_proc	_ZN30CalculadorPontoMassaModificado2arEddddddddd
_ZN30CalculadorPontoMassaModificado2arEddddddddd:
.LFB2657:
	.loc 8 112 1
	.cfi_startproc
	pushq	%rbp
	.seh_pushreg	%rbp
	.cfi_def_cfa_offset 16
	.cfi_offset 6, -16
	movq	%rsp, %rbp
	.seh_setframe	%rbp, 0
	.cfi_def_cfa_register 6
	subq	$112, %rsp
	.seh_stackalloc	112
	.seh_endprologue
	movq	%rcx, 16(%rbp)
	movsd	%xmm1, 24(%rbp)
	movsd	%xmm2, 32(%rbp)
	movsd	%xmm3, 40(%rbp)
	.loc 8 113 22
	movsd	40(%rbp), %xmm3
	movsd	32(%rbp), %xmm2
	movsd	24(%rbp), %xmm1
	movsd	88(%rbp), %xmm0
	movsd	%xmm0, 72(%rsp)
	movsd	80(%rbp), %xmm0
	movsd	%xmm0, 64(%rsp)
	movsd	72(%rbp), %xmm0
	movsd	%xmm0, 56(%rsp)
	movsd	64(%rbp), %xmm0
	movsd	%xmm0, 48(%rsp)
	movsd	56(%rbp), %xmm0
	movsd	%xmm0, 40(%rsp)
	movsd	48(%rbp), %xmm0
	movsd	%xmm0, 32(%rsp)
	movq	16(%rbp), %rcx
	call	_ZN30CalculadorPontoMassaModificado4ar_xEddddddddd
	movq	%xmm0, %rax
	movq	%rax, -8(%rbp)
	.loc 8 114 22
	movsd	40(%rbp), %xmm3
	movsd	32(%rbp), %xmm2
	movsd	24(%rbp), %xmm1
	movsd	88(%rbp), %xmm0
	movsd	%xmm0, 72(%rsp)
	movsd	80(%rbp), %xmm0
	movsd	%xmm0, 64(%rsp)
	movsd	72(%rbp), %xmm0
	movsd	%xmm0, 56(%rsp)
	movsd	64(%rbp), %xmm0
	movsd	%xmm0, 48(%rsp)
	movsd	56(%rbp), %xmm0
	movsd	%xmm0, 40(%rsp)
	movsd	48(%rbp), %xmm0
	movsd	%xmm0, 32(%rsp)
	movq	16(%rbp), %rcx
	call	_ZN30CalculadorPontoMassaModificado4ar_yEddddddddd
	movq	%xmm0, %rax
	movq	%rax, -16(%rbp)
	.loc 8 115 22
	movsd	40(%rbp), %xmm3
	movsd	32(%rbp), %xmm2
	movsd	24(%rbp), %xmm1
	movsd	88(%rbp), %xmm0
	movsd	%xmm0, 72(%rsp)
	movsd	80(%rbp), %xmm0
	movsd	%xmm0, 64(%rsp)
	movsd	72(%rbp), %xmm0
	movsd	%xmm0, 56(%rsp)
	movsd	64(%rbp), %xmm0
	movsd	%xmm0, 48(%rsp)
	movsd	56(%rbp), %xmm0
	movsd	%xmm0, 40(%rsp)
	movsd	48(%rbp), %xmm0
	movsd	%xmm0, 32(%rsp)
	movq	16(%rbp), %rcx
	call	_ZN30CalculadorPontoMassaModificado4ar_zEddddddddd
	movq	%xmm0, %rax
	movq	%rax, -24(%rbp)
	.loc 8 117 20
	movsd	-8(%rbp), %xmm0
	movapd	%xmm0, %xmm1
	mulsd	-8(%rbp), %xmm1
	.loc 8 117 30
	movsd	-16(%rbp), %xmm0
	mulsd	-16(%rbp), %xmm0
	.loc 8 117 25
	addsd	%xmm0, %xmm1
	.loc 8 117 40
	movsd	-24(%rbp), %xmm0
	mulsd	-24(%rbp), %xmm0
	.loc 8 117 16
	addsd	%xmm1, %xmm0
	call	sqrt
	movq	%xmm0, %rax
	.loc 8 118 1
	movq	%rax, %xmm0
	addq	$112, %rsp
	popq	%rbp
	.cfi_restore 6
	.cfi_def_cfa 7, 8
	ret
	.cfi_endproc
.LFE2657:
	.seh_endproc
	.section	.text$_ZSt3powIdiEN9__gnu_cxx11__promote_2IT_T0_NS0_9__promoteIS2_XsrSt12__is_integerIS2_E7__valueEE6__typeENS4_IS3_XsrS5_IS3_E7__valueEE6__typeEE6__typeES2_S3_,"x"
	.linkonce discard
	.globl	_ZSt3powIdiEN9__gnu_cxx11__promote_2IT_T0_NS0_9__promoteIS2_XsrSt12__is_integerIS2_E7__valueEE6__typeENS4_IS3_XsrS5_IS3_E7__valueEE6__typeEE6__typeES2_S3_
	.def	_ZSt3powIdiEN9__gnu_cxx11__promote_2IT_T0_NS0_9__promoteIS2_XsrSt12__is_integerIS2_E7__valueEE6__typeENS4_IS3_XsrS5_IS3_E7__valueEE6__typeEE6__typeES2_S3_;	.scl	2;	.type	32;	.endef
	.seh_proc	_ZSt3powIdiEN9__gnu_cxx11__promote_2IT_T0_NS0_9__promoteIS2_XsrSt12__is_integerIS2_E7__valueEE6__typeENS4_IS3_XsrS5_IS3_E7__valueEE6__typeEE6__typeES2_S3_
_ZSt3powIdiEN9__gnu_cxx11__promote_2IT_T0_NS0_9__promoteIS2_XsrSt12__is_integerIS2_E7__valueEE6__typeENS4_IS3_XsrS5_IS3_E7__valueEE6__typeEE6__typeES2_S3_:
.LFB2659:
	.file 9 "C:/Program Files/CodeBlocks/MinGW/lib/gcc/x86_64-w64-mingw32/8.1.0/include/c++/cmath"
	.loc 9 415 5
	.cfi_startproc
	pushq	%rbp
	.seh_pushreg	%rbp
	.cfi_def_cfa_offset 16
	.cfi_offset 6, -16
	movq	%rsp, %rbp
	.seh_setframe	%rbp, 0
	.cfi_def_cfa_register 6
	subq	$32, %rsp
	.seh_stackalloc	32
	.seh_endprologue
	movsd	%xmm0, 16(%rbp)
	movl	%edx, 24(%rbp)
	.loc 9 418 17
	cvtsi2sd	24(%rbp), %xmm0
	movapd	%xmm0, %xmm1
	movsd	16(%rbp), %xmm0
	call	pow
	movq	%xmm0, %rax
	.loc 9 419 5
	movq	%rax, %xmm0
	addq	$32, %rsp
	popq	%rbp
	.cfi_restore 6
	.cfi_def_cfa 7, 8
	ret
	.cfi_endproc
.LFE2659:
	.seh_endproc
	.text
	.align 2
	.globl	_ZN30CalculadorPontoMassaModificado4ar_xEddddddddd
	.def	_ZN30CalculadorPontoMassaModificado4ar_xEddddddddd;	.scl	2;	.type	32;	.endef
	.seh_proc	_ZN30CalculadorPontoMassaModificado4ar_xEddddddddd
_ZN30CalculadorPontoMassaModificado4ar_xEddddddddd:
.LFB2658:
	.loc 8 137 1
	.cfi_startproc
	pushq	%rbp
	.seh_pushreg	%rbp
	.cfi_def_cfa_offset 16
	.cfi_offset 6, -16
	pushq	%rbx
	.seh_pushreg	%rbx
	.cfi_def_cfa_offset 24
	.cfi_offset 3, -24
	subq	$104, %rsp
	.seh_stackalloc	104
	.cfi_def_cfa_offset 128
	leaq	128(%rsp), %rbp
	.seh_setframe	%rbp, 128
	.cfi_def_cfa 6, 0
	movaps	%xmm6, -64(%rbp)
	.seh_savexmm	%xmm6, 64
	movaps	%xmm7, -48(%rbp)
	.seh_savexmm	%xmm7, 80
	.cfi_offset 23, -64
	.cfi_offset 24, -48
	.seh_endprologue
	movq	%rcx, 0(%rbp)
	movsd	%xmm1, 8(%rbp)
	movsd	%xmm2, 16(%rbp)
	movsd	%xmm3, 24(%rbp)
	.loc 8 138 24
	movq	0(%rbp), %rbx
	.loc 8 138 90
	movq	0(%rbp), %rax
	movsd	56(%rbp), %xmm0
	movapd	%xmm0, %xmm1
	movq	%rax, %rcx
	call	_ZN21CalculadorAtmosferico19getVentoTransversalEd
	movapd	%xmm0, %xmm1
	.loc 8 138 24
	movsd	24(%rbp), %xmm0
	movapd	%xmm0, %xmm6
	subsd	%xmm1, %xmm6
	.loc 8 138 50
	movq	0(%rbp), %rax
	movsd	56(%rbp), %xmm0
	movapd	%xmm0, %xmm1
	movq	%rax, %rcx
	call	_ZN21CalculadorAtmosferico20getVentoLongitudinalEd
	movapd	%xmm0, %xmm1
	.loc 8 138 24
	movsd	8(%rbp), %xmm0
	subsd	%xmm1, %xmm0
	movsd	16(%rbp), %xmm1
	movapd	%xmm6, %xmm3
	movapd	%xmm1, %xmm2
	movapd	%xmm0, %xmm1
	movq	%rbx, %rcx
	call	_ZN10Calculador1vEddd
	movq	%xmm0, %rax
	movq	%rax, -72(%rbp)
	.loc 8 139 26
	movq	0(%rbp), %rax
	movsd	24(%rbp), %xmm2
	movsd	16(%rbp), %xmm1
	movsd	8(%rbp), %xmm0
	movapd	%xmm2, %xmm3
	movapd	%xmm1, %xmm2
	movapd	%xmm0, %xmm1
	movq	%rax, %rcx
	call	_ZN10Calculador1vEddd
	movq	%xmm0, %rax
	movq	%rax, -80(%rbp)
	.loc 8 140 28
	movq	0(%rbp), %rax
	movsd	56(%rbp), %xmm1
	movsd	-80(%rbp), %xmm0
	movapd	%xmm1, %xmm2
	movapd	%xmm0, %xmm1
	movq	%rax, %rcx
	call	_ZN21CalculadorAtmosferico8vel_machEdd
	movq	%xmm0, %rax
	movq	%rax, -88(%rbp)
	.loc 8 141 43
	movsd	64(%rbp), %xmm1
	movsd	-88(%rbp), %xmm0
	movapd	%xmm1, %xmm2
	movapd	%xmm0, %xmm1
	movq	0(%rbp), %rcx
	call	_ZN30CalculadorPontoMassaModificado25getOverturningMomentTotalEdd
	movq	%xmm0, %rax
	movq	%rax, -96(%rbp)
	.loc 8 142 16
	movsd	48(%rbp), %xmm0
	movapd	%xmm0, %xmm6
	mulsd	16(%rbp), %xmm6
	.loc 8 142 50
	movq	0(%rbp), %rax
	movsd	56(%rbp), %xmm0
	movapd	%xmm0, %xmm1
	movq	%rax, %rcx
	call	_ZN21CalculadorAtmosferico19getVentoTransversalEd
	movapd	%xmm0, %xmm1
	.loc 8 142 29
	movsd	24(%rbp), %xmm0
	subsd	%xmm1, %xmm0
	.loc 8 142 24
	mulsd	40(%rbp), %xmm0
	.loc 8 142 20
	subsd	%xmm0, %xmm6
	movapd	%xmm6, %xmm0
	.loc 8 142 12
	movq	.LC1(%rip), %xmm1
	movapd	%xmm0, %xmm6
	xorpd	%xmm1, %xmm6
	.loc 8 142 80
	movq	0(%rbp), %rax
	addq	$96, %rax
	movq	%rax, %rcx
	call	_ZN8Projetil5getIxEv
	.loc 8 142 65
	addsd	%xmm0, %xmm0
	.loc 8 142 82
	mulsd	72(%rbp), %xmm0
	.loc 8 142 62
	mulsd	%xmm0, %xmm6
	.loc 8 142 94
	movq	0(%rbp), %rax
	movq	232(%rax), %rdx
	movq	0(%rbp), %rax
	movq	232(%rax), %rax
	.loc 8 142 119
	movq	(%rax), %rax
	addq	$32, %rax
	movq	(%rax), %rax
	.loc 8 142 110
	movsd	56(%rbp), %xmm0
	movapd	%xmm0, %xmm1
	movq	%rdx, %rcx
	call	*%rax
.LVL10:
	movapd	%xmm0, %xmm1
	.loc 8 142 121
	movq	0(%rbp), %rax
	movsd	256(%rax), %xmm0
	.loc 8 142 120
	mulsd	%xmm0, %xmm1
	.loc 8 142 123
	movq	0(%rbp), %rax
	movsd	248(%rax), %xmm0
	.loc 8 142 122
	movapd	%xmm1, %xmm7
	mulsd	%xmm0, %xmm7
	.loc 8 142 135
	movq	-72(%rbp), %rax
	movl	$4, %edx
	movq	%rax, %xmm0
	call	_ZSt3powIdiEN9__gnu_cxx11__promote_2IT_T0_NS0_9__promoteIS2_XsrSt12__is_integerIS2_E7__valueEE6__typeENS4_IS3_XsrS5_IS3_E7__valueEE6__typeEE6__typeES2_S3_
	.loc 8 142 131
	mulsd	%xmm7, %xmm0
	.loc 8 142 148
	mulsd	-96(%rbp), %xmm0
	.loc 8 142 152
	divsd	%xmm0, %xmm6
	movapd	%xmm6, %xmm0
	movq	%xmm0, %rax
	.loc 8 144 1
	movq	%rax, %xmm0
	movaps	-64(%rbp), %xmm6
	movaps	-48(%rbp), %xmm7
	addq	$104, %rsp
	.cfi_restore 24
	.cfi_restore 23
	popq	%rbx
	.cfi_restore 3
	popq	%rbp
	.cfi_restore 6
	.cfi_def_cfa 7, -88
	ret
	.cfi_endproc
.LFE2658:
	.seh_endproc
	.align 2
	.globl	_ZN30CalculadorPontoMassaModificado4ar_yEddddddddd
	.def	_ZN30CalculadorPontoMassaModificado4ar_yEddddddddd;	.scl	2;	.type	32;	.endef
	.seh_proc	_ZN30CalculadorPontoMassaModificado4ar_yEddddddddd
_ZN30CalculadorPontoMassaModificado4ar_yEddddddddd:
.LFB2660:
	.loc 8 161 1
	.cfi_startproc
	pushq	%rbp
	.seh_pushreg	%rbp
	.cfi_def_cfa_offset 16
	.cfi_offset 6, -16
	pushq	%rbx
	.seh_pushreg	%rbx
	.cfi_def_cfa_offset 24
	.cfi_offset 3, -24
	subq	$104, %rsp
	.seh_stackalloc	104
	.cfi_def_cfa_offset 128
	leaq	128(%rsp), %rbp
	.seh_setframe	%rbp, 128
	.cfi_def_cfa 6, 0
	movaps	%xmm6, -64(%rbp)
	.seh_savexmm	%xmm6, 64
	movaps	%xmm7, -48(%rbp)
	.seh_savexmm	%xmm7, 80
	.cfi_offset 23, -64
	.cfi_offset 24, -48
	.seh_endprologue
	movq	%rcx, 0(%rbp)
	movsd	%xmm1, 8(%rbp)
	movsd	%xmm2, 16(%rbp)
	movsd	%xmm3, 24(%rbp)
	.loc 8 162 24
	movq	0(%rbp), %rbx
	.loc 8 162 90
	movq	0(%rbp), %rax
	movsd	56(%rbp), %xmm0
	movapd	%xmm0, %xmm1
	movq	%rax, %rcx
	call	_ZN21CalculadorAtmosferico19getVentoTransversalEd
	movapd	%xmm0, %xmm1
	.loc 8 162 24
	movsd	24(%rbp), %xmm0
	movapd	%xmm0, %xmm6
	subsd	%xmm1, %xmm6
	.loc 8 162 50
	movq	0(%rbp), %rax
	movsd	56(%rbp), %xmm0
	movapd	%xmm0, %xmm1
	movq	%rax, %rcx
	call	_ZN21CalculadorAtmosferico20getVentoLongitudinalEd
	movapd	%xmm0, %xmm1
	.loc 8 162 24
	movsd	8(%rbp), %xmm0
	subsd	%xmm1, %xmm0
	movsd	16(%rbp), %xmm1
	movapd	%xmm6, %xmm3
	movapd	%xmm1, %xmm2
	movapd	%xmm0, %xmm1
	movq	%rbx, %rcx
	call	_ZN10Calculador1vEddd
	movq	%xmm0, %rax
	movq	%rax, -72(%rbp)
	.loc 8 163 26
	movq	0(%rbp), %rax
	movsd	24(%rbp), %xmm2
	movsd	16(%rbp), %xmm1
	movsd	8(%rbp), %xmm0
	movapd	%xmm2, %xmm3
	movapd	%xmm1, %xmm2
	movapd	%xmm0, %xmm1
	movq	%rax, %rcx
	call	_ZN10Calculador1vEddd
	movq	%xmm0, %rax
	movq	%rax, -80(%rbp)
	.loc 8 164 28
	movq	0(%rbp), %rax
	movsd	56(%rbp), %xmm1
	movsd	-80(%rbp), %xmm0
	movapd	%xmm1, %xmm2
	movapd	%xmm0, %xmm1
	movq	%rax, %rcx
	call	_ZN21CalculadorAtmosferico8vel_machEdd
	movq	%xmm0, %rax
	movq	%rax, -88(%rbp)
	.loc 8 165 43
	movsd	64(%rbp), %xmm1
	movsd	-88(%rbp), %xmm0
	movapd	%xmm1, %xmm2
	movapd	%xmm0, %xmm1
	movq	0(%rbp), %rcx
	call	_ZN30CalculadorPontoMassaModificado25getOverturningMomentTotalEdd
	movq	%xmm0, %rax
	movq	%rax, -96(%rbp)
	.loc 8 166 42
	movq	0(%rbp), %rax
	movsd	56(%rbp), %xmm0
	movapd	%xmm0, %xmm1
	movq	%rax, %rcx
	call	_ZN21CalculadorAtmosferico19getVentoTransversalEd
	movapd	%xmm0, %xmm1
	.loc 8 166 21
	movsd	24(%rbp), %xmm0
	subsd	%xmm1, %xmm0
	.loc 8 166 16
	movapd	%xmm0, %xmm6
	mulsd	32(%rbp), %xmm6
	.loc 8 166 84
	movq	0(%rbp), %rax
	movsd	56(%rbp), %xmm0
	movapd	%xmm0, %xmm1
	movq	%rax, %rcx
	call	_ZN21CalculadorAtmosferico20getVentoLongitudinalEd
	movapd	%xmm0, %xmm1
	.loc 8 166 62
	movsd	8(%rbp), %xmm0
	subsd	%xmm1, %xmm0
	.loc 8 166 57
	mulsd	48(%rbp), %xmm0
	.loc 8 166 54
	subsd	%xmm0, %xmm6
	movapd	%xmm6, %xmm0
	.loc 8 166 12
	movq	.LC1(%rip), %xmm1
	movapd	%xmm0, %xmm6
	xorpd	%xmm1, %xmm6
	.loc 8 166 114
	movq	0(%rbp), %rax
	addq	$96, %rax
	movq	%rax, %rcx
	call	_ZN8Projetil5getIxEv
	.loc 8 166 99
	addsd	%xmm0, %xmm0
	.loc 8 166 116
	mulsd	72(%rbp), %xmm0
	.loc 8 166 96
	mulsd	%xmm0, %xmm6
	.loc 8 166 128
	movq	0(%rbp), %rax
	movq	232(%rax), %rdx
	movq	0(%rbp), %rax
	movq	232(%rax), %rax
	.loc 8 166 153
	movq	(%rax), %rax
	addq	$32, %rax
	movq	(%rax), %rax
	.loc 8 166 144
	movsd	56(%rbp), %xmm0
	movapd	%xmm0, %xmm1
	movq	%rdx, %rcx
	call	*%rax
.LVL11:
	movapd	%xmm0, %xmm1
	.loc 8 166 155
	movq	0(%rbp), %rax
	movsd	256(%rax), %xmm0
	.loc 8 166 154
	mulsd	%xmm0, %xmm1
	.loc 8 166 157
	movq	0(%rbp), %rax
	movsd	248(%rax), %xmm0
	.loc 8 166 156
	movapd	%xmm1, %xmm7
	mulsd	%xmm0, %xmm7
	.loc 8 166 169
	movq	-72(%rbp), %rax
	movl	$4, %edx
	movq	%rax, %xmm0
	call	_ZSt3powIdiEN9__gnu_cxx11__promote_2IT_T0_NS0_9__promoteIS2_XsrSt12__is_integerIS2_E7__valueEE6__typeENS4_IS3_XsrS5_IS3_E7__valueEE6__typeEE6__typeES2_S3_
	.loc 8 166 165
	mulsd	%xmm7, %xmm0
	.loc 8 166 182
	mulsd	-96(%rbp), %xmm0
	.loc 8 166 186
	divsd	%xmm0, %xmm6
	movapd	%xmm6, %xmm0
	movq	%xmm0, %rax
	.loc 8 168 1
	movq	%rax, %xmm0
	movaps	-64(%rbp), %xmm6
	movaps	-48(%rbp), %xmm7
	addq	$104, %rsp
	.cfi_restore 24
	.cfi_restore 23
	popq	%rbx
	.cfi_restore 3
	popq	%rbp
	.cfi_restore 6
	.cfi_def_cfa 7, -88
	ret
	.cfi_endproc
.LFE2660:
	.seh_endproc
	.align 2
	.globl	_ZN30CalculadorPontoMassaModificado4ar_zEddddddddd
	.def	_ZN30CalculadorPontoMassaModificado4ar_zEddddddddd;	.scl	2;	.type	32;	.endef
	.seh_proc	_ZN30CalculadorPontoMassaModificado4ar_zEddddddddd
_ZN30CalculadorPontoMassaModificado4ar_zEddddddddd:
.LFB2661:
	.loc 8 185 1
	.cfi_startproc
	pushq	%rbp
	.seh_pushreg	%rbp
	.cfi_def_cfa_offset 16
	.cfi_offset 6, -16
	pushq	%rbx
	.seh_pushreg	%rbx
	.cfi_def_cfa_offset 24
	.cfi_offset 3, -24
	subq	$104, %rsp
	.seh_stackalloc	104
	.cfi_def_cfa_offset 128
	leaq	128(%rsp), %rbp
	.seh_setframe	%rbp, 128
	.cfi_def_cfa 6, 0
	movaps	%xmm6, -64(%rbp)
	.seh_savexmm	%xmm6, 64
	movaps	%xmm7, -48(%rbp)
	.seh_savexmm	%xmm7, 80
	.cfi_offset 23, -64
	.cfi_offset 24, -48
	.seh_endprologue
	movq	%rcx, 0(%rbp)
	movsd	%xmm1, 8(%rbp)
	movsd	%xmm2, 16(%rbp)
	movsd	%xmm3, 24(%rbp)
	.loc 8 186 24
	movq	0(%rbp), %rbx
	.loc 8 186 90
	movq	0(%rbp), %rax
	movsd	56(%rbp), %xmm0
	movapd	%xmm0, %xmm1
	movq	%rax, %rcx
	call	_ZN21CalculadorAtmosferico19getVentoTransversalEd
	movapd	%xmm0, %xmm1
	.loc 8 186 24
	movsd	24(%rbp), %xmm0
	movapd	%xmm0, %xmm6
	subsd	%xmm1, %xmm6
	.loc 8 186 50
	movq	0(%rbp), %rax
	movsd	56(%rbp), %xmm0
	movapd	%xmm0, %xmm1
	movq	%rax, %rcx
	call	_ZN21CalculadorAtmosferico20getVentoLongitudinalEd
	movapd	%xmm0, %xmm1
	.loc 8 186 24
	movsd	8(%rbp), %xmm0
	subsd	%xmm1, %xmm0
	movsd	16(%rbp), %xmm1
	movapd	%xmm6, %xmm3
	movapd	%xmm1, %xmm2
	movapd	%xmm0, %xmm1
	movq	%rbx, %rcx
	call	_ZN10Calculador1vEddd
	movq	%xmm0, %rax
	movq	%rax, -72(%rbp)
	.loc 8 187 26
	movq	0(%rbp), %rax
	movsd	24(%rbp), %xmm2
	movsd	16(%rbp), %xmm1
	movsd	8(%rbp), %xmm0
	movapd	%xmm2, %xmm3
	movapd	%xmm1, %xmm2
	movapd	%xmm0, %xmm1
	movq	%rax, %rcx
	call	_ZN10Calculador1vEddd
	movq	%xmm0, %rax
	movq	%rax, -80(%rbp)
	.loc 8 188 28
	movq	0(%rbp), %rax
	movsd	56(%rbp), %xmm1
	movsd	-80(%rbp), %xmm0
	movapd	%xmm1, %xmm2
	movapd	%xmm0, %xmm1
	movq	%rax, %rcx
	call	_ZN21CalculadorAtmosferico8vel_machEdd
	movq	%xmm0, %rax
	movq	%rax, -88(%rbp)
	.loc 8 189 43
	movsd	64(%rbp), %xmm1
	movsd	-88(%rbp), %xmm0
	movapd	%xmm1, %xmm2
	movapd	%xmm0, %xmm1
	movq	0(%rbp), %rcx
	call	_ZN30CalculadorPontoMassaModificado25getOverturningMomentTotalEdd
	movq	%xmm0, %rax
	movq	%rax, -96(%rbp)
	.loc 8 190 43
	movq	0(%rbp), %rax
	movsd	56(%rbp), %xmm0
	movapd	%xmm0, %xmm1
	movq	%rax, %rcx
	call	_ZN21CalculadorAtmosferico20getVentoLongitudinalEd
	movapd	%xmm0, %xmm1
	.loc 8 190 21
	movsd	8(%rbp), %xmm0
	subsd	%xmm1, %xmm0
	.loc 8 190 16
	mulsd	40(%rbp), %xmm0
	.loc 8 190 58
	movsd	32(%rbp), %xmm1
	mulsd	16(%rbp), %xmm1
	.loc 8 190 55
	subsd	%xmm1, %xmm0
	.loc 8 190 12
	movq	.LC1(%rip), %xmm1
	movapd	%xmm0, %xmm6
	xorpd	%xmm1, %xmm6
	.loc 8 190 80
	movq	0(%rbp), %rax
	addq	$96, %rax
	movq	%rax, %rcx
	call	_ZN8Projetil5getIxEv
	.loc 8 190 65
	addsd	%xmm0, %xmm0
	.loc 8 190 82
	mulsd	72(%rbp), %xmm0
	.loc 8 190 62
	mulsd	%xmm0, %xmm6
	.loc 8 190 94
	movq	0(%rbp), %rax
	movq	232(%rax), %rdx
	movq	0(%rbp), %rax
	movq	232(%rax), %rax
	.loc 8 190 119
	movq	(%rax), %rax
	addq	$32, %rax
	movq	(%rax), %rax
	.loc 8 190 110
	movsd	56(%rbp), %xmm0
	movapd	%xmm0, %xmm1
	movq	%rdx, %rcx
	call	*%rax
.LVL12:
	movapd	%xmm0, %xmm1
	.loc 8 190 121
	movq	0(%rbp), %rax
	movsd	256(%rax), %xmm0
	.loc 8 190 120
	mulsd	%xmm0, %xmm1
	.loc 8 190 123
	movq	0(%rbp), %rax
	movsd	248(%rax), %xmm0
	.loc 8 190 122
	movapd	%xmm1, %xmm7
	mulsd	%xmm0, %xmm7
	.loc 8 190 135
	movq	-72(%rbp), %rax
	movl	$4, %edx
	movq	%rax, %xmm0
	call	_ZSt3powIdiEN9__gnu_cxx11__promote_2IT_T0_NS0_9__promoteIS2_XsrSt12__is_integerIS2_E7__valueEE6__typeENS4_IS3_XsrS5_IS3_E7__valueEE6__typeEE6__typeES2_S3_
	.loc 8 190 131
	mulsd	%xmm7, %xmm0
	.loc 8 190 148
	mulsd	-96(%rbp), %xmm0
	.loc 8 190 152
	divsd	%xmm0, %xmm6
	movapd	%xmm6, %xmm0
	movq	%xmm0, %rax
	.loc 8 192 1
	movq	%rax, %xmm0
	movaps	-64(%rbp), %xmm6
	movaps	-48(%rbp), %xmm7
	addq	$104, %rsp
	.cfi_restore 24
	.cfi_restore 23
	popq	%rbx
	.cfi_restore 3
	popq	%rbp
	.cfi_restore 6
	.cfi_def_cfa 7, -88
	ret
	.cfi_endproc
.LFE2661:
	.seh_endproc
	.align 2
	.globl	_ZN30CalculadorPontoMassaModificado12getDragTotalEdd
	.def	_ZN30CalculadorPontoMassaModificado12getDragTotalEdd;	.scl	2;	.type	32;	.endef
	.seh_proc	_ZN30CalculadorPontoMassaModificado12getDragTotalEdd
_ZN30CalculadorPontoMassaModificado12getDragTotalEdd:
.LFB2662:
	.loc 8 205 1
	.cfi_startproc
	pushq	%rbp
	.seh_pushreg	%rbp
	.cfi_def_cfa_offset 16
	.cfi_offset 6, -16
	movq	%rsp, %rbp
	.seh_setframe	%rbp, 0
	.cfi_def_cfa_register 6
	subq	$80, %rsp
	.seh_stackalloc	80
	movaps	%xmm6, -16(%rbp)
	.seh_savexmm	%xmm6, 64
	.cfi_offset 23, -32
	.seh_endprologue
	movq	%rcx, 16(%rbp)
	movsd	%xmm1, 24(%rbp)
	movsd	%xmm2, 32(%rbp)
	.loc 8 207 46
	movq	16(%rbp), %rax
	addq	$424, %rax
	movsd	24(%rbp), %xmm0
	movapd	%xmm0, %xmm1
	movq	%rax, %rcx
	call	_ZN23CoeficienteAerodinamico8getValorEd
	movapd	%xmm0, %xmm6
	.loc 8 207 76
	movq	16(%rbp), %rax
	addq	$488, %rax
	movsd	24(%rbp), %xmm0
	movapd	%xmm0, %xmm1
	movq	%rax, %rcx
	call	_ZN23CoeficienteAerodinamico8getValorEd
	.loc 8 207 86
	mulsd	32(%rbp), %xmm0
	.loc 8 207 90
	mulsd	32(%rbp), %xmm0
	.loc 8 207 91
	addsd	%xmm6, %xmm0
	movsd	%xmm0, -24(%rbp)
	.loc 8 209 29
	movq	16(%rbp), %rax
	addq	$96, %rax
	movq	%rax, %rcx
	call	_ZN8Projetil13getTipoForcasEv
	.loc 8 209 32
	testl	%eax, %eax
	sete	%al
	.loc 8 209 4
	testb	%al, %al
	je	.L57
	.loc 8 210 16
	movsd	-24(%rbp), %xmm0
	jmp	.L58
.L57:
	.loc 8 213 48
	movq	16(%rbp), %rax
	addq	$616, %rax
	movsd	24(%rbp), %xmm0
	movapd	%xmm0, %xmm1
	movq	%rax, %rcx
	call	_ZN23CoeficienteAerodinamico8getValorEd
	movq	%xmm0, %rax
	movq	%rax, -32(%rbp)
	.loc 8 214 11
	movsd	-24(%rbp), %xmm0
	movsd	%xmm0, -40(%rbp)
	.loc 8 215 43
	movsd	32(%rbp), %xmm0
	movapd	%xmm0, %xmm1
	mulsd	32(%rbp), %xmm1
	.loc 8 215 34
	movsd	.LC3(%rip), %xmm0
	subsd	%xmm1, %xmm0
	call	sqrt
	.loc 8 215 28
	mulsd	-40(%rbp), %xmm0
	.loc 8 215 67
	movsd	-32(%rbp), %xmm1
	mulsd	32(%rbp), %xmm1
	.loc 8 215 70
	mulsd	32(%rbp), %xmm1
	.loc 8 215 71
	subsd	%xmm1, %xmm0
.L58:
	movq	%xmm0, %rax
	.loc 8 216 1
	movq	%rax, %xmm0
	movaps	-16(%rbp), %xmm6
	addq	$80, %rsp
	.cfi_restore 23
	popq	%rbp
	.cfi_restore 6
	.cfi_def_cfa 7, 8
	ret
	.cfi_endproc
.LFE2662:
	.seh_endproc
	.align 2
	.globl	_ZN30CalculadorPontoMassaModificado12getLiftTotalEdd
	.def	_ZN30CalculadorPontoMassaModificado12getLiftTotalEdd;	.scl	2;	.type	32;	.endef
	.seh_proc	_ZN30CalculadorPontoMassaModificado12getLiftTotalEdd
_ZN30CalculadorPontoMassaModificado12getLiftTotalEdd:
.LFB2663:
	.loc 8 229 1
	.cfi_startproc
	pushq	%rbp
	.seh_pushreg	%rbp
	.cfi_def_cfa_offset 16
	.cfi_offset 6, -16
	movq	%rsp, %rbp
	.seh_setframe	%rbp, 0
	.cfi_def_cfa_register 6
	subq	$80, %rsp
	.seh_stackalloc	80
	movaps	%xmm6, -16(%rbp)
	.seh_savexmm	%xmm6, 64
	.cfi_offset 23, -32
	.seh_endprologue
	movq	%rcx, 16(%rbp)
	movsd	%xmm1, 24(%rbp)
	movsd	%xmm2, 32(%rbp)
	.loc 8 231 46
	movq	16(%rbp), %rax
	addq	$616, %rax
	movsd	24(%rbp), %xmm0
	movapd	%xmm0, %xmm1
	movq	%rax, %rcx
	call	_ZN23CoeficienteAerodinamico8getValorEd
	movq	%xmm0, %rax
	movq	%rax, -24(%rbp)
	.loc 8 233 29
	movq	16(%rbp), %rax
	addq	$96, %rax
	movq	%rax, %rcx
	call	_ZN8Projetil13getTipoForcasEv
	.loc 8 233 32
	testl	%eax, %eax
	sete	%al
	.loc 8 233 4
	testb	%al, %al
	je	.L60
	.loc 8 234 16
	movsd	-24(%rbp), %xmm0
	jmp	.L61
.L60:
	.loc 8 237 47
	movq	16(%rbp), %rax
	addq	$424, %rax
	movsd	24(%rbp), %xmm0
	movapd	%xmm0, %xmm1
	movq	%rax, %rcx
	call	_ZN23CoeficienteAerodinamico8getValorEd
	movapd	%xmm0, %xmm6
	.loc 8 237 77
	movq	16(%rbp), %rax
	addq	$488, %rax
	movsd	24(%rbp), %xmm0
	movapd	%xmm0, %xmm1
	movq	%rax, %rcx
	call	_ZN23CoeficienteAerodinamico8getValorEd
	.loc 8 237 87
	mulsd	32(%rbp), %xmm0
	.loc 8 237 91
	mulsd	32(%rbp), %xmm0
	.loc 8 237 92
	addsd	%xmm6, %xmm0
	movsd	%xmm0, -32(%rbp)
	.loc 8 238 11
	movsd	-24(%rbp), %xmm0
	movsd	%xmm0, -40(%rbp)
	.loc 8 239 62
	movsd	32(%rbp), %xmm0
	movapd	%xmm0, %xmm1
	mulsd	32(%rbp), %xmm1
	.loc 8 239 53
	movsd	.LC3(%rip), %xmm0
	subsd	%xmm1, %xmm0
	call	sqrt
	.loc 8 239 47
	mulsd	-40(%rbp), %xmm0
	.loc 8 239 65
	addsd	-32(%rbp), %xmm0
.L61:
	movq	%xmm0, %rax
	.loc 8 240 1
	movq	%rax, %xmm0
	movaps	-16(%rbp), %xmm6
	addq	$80, %rsp
	.cfi_restore 23
	popq	%rbp
	.cfi_restore 6
	.cfi_def_cfa 7, 8
	ret
	.cfi_endproc
.LFE2663:
	.seh_endproc
	.align 2
	.globl	_ZN30CalculadorPontoMassaModificado25getOverturningMomentTotalEdd
	.def	_ZN30CalculadorPontoMassaModificado25getOverturningMomentTotalEdd;	.scl	2;	.type	32;	.endef
	.seh_proc	_ZN30CalculadorPontoMassaModificado25getOverturningMomentTotalEdd
_ZN30CalculadorPontoMassaModificado25getOverturningMomentTotalEdd:
.LFB2664:
	.loc 8 243 1
	.cfi_startproc
	pushq	%rbp
	.seh_pushreg	%rbp
	.cfi_def_cfa_offset 16
	.cfi_offset 6, -16
	movq	%rsp, %rbp
	.seh_setframe	%rbp, 0
	.cfi_def_cfa_register 6
	subq	$32, %rsp
	.seh_stackalloc	32
	.seh_endprologue
	movq	%rcx, 16(%rbp)
	movsd	%xmm1, 24(%rbp)
	movsd	%xmm2, 32(%rbp)
	.loc 8 244 42
	movq	16(%rbp), %rax
	addq	$680, %rax
	movsd	24(%rbp), %xmm0
	movapd	%xmm0, %xmm1
	movq	%rax, %rcx
	call	_ZN23CoeficienteAerodinamico8getValorEd
	movq	%xmm0, %rax
	.loc 8 245 1
	movq	%rax, %xmm0
	addq	$32, %rsp
	popq	%rbp
	.cfi_restore 6
	.cfi_def_cfa 7, 8
	ret
	.cfi_endproc
.LFE2664:
	.seh_endproc
	.section .rdata,"dr"
	.align 8
.LC11:
	.ascii "falha em sx = %f  sy = %f ang = %f\12\0"
	.text
	.align 2
	.globl	_ZN30CalculadorPontoMassaModificado13solucaoDiretaEddddb4RAMO
	.def	_ZN30CalculadorPontoMassaModificado13solucaoDiretaEddddb4RAMO;	.scl	2;	.type	32;	.endef
	.seh_proc	_ZN30CalculadorPontoMassaModificado13solucaoDiretaEddddb4RAMO
_ZN30CalculadorPontoMassaModificado13solucaoDiretaEddddb4RAMO:
.LFB2665:
	.loc 8 249 1
	.cfi_startproc
	pushq	%rbp
	.seh_pushreg	%rbp
	.cfi_def_cfa_offset 16
	.cfi_offset 6, -16
	pushq	%rbx
	.seh_pushreg	%rbx
	.cfi_def_cfa_offset 24
	.cfi_offset 3, -24
	subq	$808, %rsp
	.seh_stackalloc	808
	.cfi_def_cfa_offset 832
	leaq	128(%rsp), %rbp
	.seh_setframe	%rbp, 128
	.cfi_def_cfa 6, 704
	movaps	%xmm6, 624(%rbp)
	.seh_savexmm	%xmm6, 752
	movaps	%xmm7, 640(%rbp)
	.seh_savexmm	%xmm7, 768
	movaps	%xmm8, 656(%rbp)
	.seh_savexmm	%xmm8, 784
	.cfi_offset 23, -80
	.cfi_offset 24, -64
	.cfi_offset 25, -48
	.seh_endprologue
	movq	%rcx, 704(%rbp)
	movq	%rdx, 712(%rbp)
	movsd	%xmm2, 720(%rbp)
	movsd	%xmm3, 728(%rbp)
	movl	752(%rbp), %eax
	movb	%al, -20(%rbp)
	.loc 8 250 29
	movq	712(%rbp), %rax
	addq	$304, %rax
	movq	%rax, %rcx
	call	_ZNSt6vectorI12ElementosVooSaIS0_EE5clearEv
	.loc 8 251 8
	movq	712(%rbp), %rax
	pxor	%xmm0, %xmm0
	movsd	%xmm0, 328(%rax)
	.loc 8 251 17
	movq	712(%rbp), %rax
	pxor	%xmm0, %xmm0
	movsd	%xmm0, 336(%rax)
	.loc 8 251 27
	movq	712(%rbp), %rax
	pxor	%xmm0, %xmm0
	movsd	%xmm0, 344(%rax)
	.loc 8 251 45
	movq	712(%rbp), %rax
	pxor	%xmm0, %xmm0
	movsd	%xmm0, 400(%rax)
	.loc 8 252 23
	movsd	720(%rbp), %xmm1
	movsd	.LC5(%rip), %xmm0
	mulsd	%xmm1, %xmm0
	.loc 8 252 16
	movsd	.LC6(%rip), %xmm1
	divsd	%xmm1, %xmm0
	call	cos
	.loc 8 252 12
	mulsd	728(%rbp), %xmm0
	.loc 8 252 8
	movq	712(%rbp), %rax
	movsd	%xmm0, 352(%rax)
	.loc 8 252 73
	movsd	720(%rbp), %xmm1
	movsd	.LC5(%rip), %xmm0
	mulsd	%xmm1, %xmm0
	.loc 8 252 66
	movsd	.LC6(%rip), %xmm1
	divsd	%xmm1, %xmm0
	call	sin
	.loc 8 252 62
	mulsd	728(%rbp), %xmm0
	.loc 8 252 58
	movq	712(%rbp), %rax
	movsd	%xmm0, 360(%rax)
	.loc 8 252 108
	movq	712(%rbp), %rax
	pxor	%xmm0, %xmm0
	movsd	%xmm0, 368(%rax)
	.loc 8 253 11
	movq	712(%rbp), %rax
	pxor	%xmm0, %xmm0
	movsd	%xmm0, 376(%rax)
	.loc 8 254 25
	movq	712(%rbp), %rax
	movq	232(%rax), %rdx
	movq	712(%rbp), %rax
	movq	232(%rax), %rax
	.loc 8 254 47
	movq	(%rax), %rax
	addq	$24, %rax
	movq	(%rax), %rax
	.loc 8 254 45
	pxor	%xmm1, %xmm1
	movq	%rdx, %rcx
.LEHB11:
	call	*%rax
.LVL13:
	movq	%xmm0, %rdx
	.loc 8 254 23
	movq	712(%rbp), %rax
	movq	%rdx, 272(%rax)
	.loc 8 255 14
	movq	712(%rbp), %rax
	pxor	%xmm0, %xmm0
	movsd	%xmm0, 384(%rax)
	.loc 8 256 13
	movq	712(%rbp), %rax
	movb	$0, 392(%rax)
	.loc 8 257 20
	movq	712(%rbp), %rax
	movb	$0, 393(%rax)
	.loc 8 258 15
	movq	712(%rbp), %rax
	movb	$0, 394(%rax)
	.loc 8 259 16
	movq	712(%rbp), %rax
	pxor	%xmm0, %xmm0
	movsd	%xmm0, 408(%rax)
	.loc 8 260 12
	movq	712(%rbp), %rax
	pxor	%xmm0, %xmm0
	movsd	%xmm0, 416(%rax)
	.loc 8 262 47
	movq	712(%rbp), %rax
	movsd	744(%rbp), %xmm0
	movapd	%xmm0, %xmm1
	movq	%rax, %rcx
	call	_ZN10Calculador22intervaloEntreAmostrasEd
	movl	%eax, %edx
	.loc 8 262 23
	movq	712(%rbp), %rax
	movl	%edx, 72(%rax)
	.loc 8 264 43
	movq	712(%rbp), %rax
	movq	712(%rbp), %rdx
	movsd	80(%rdx), %xmm0
	movapd	%xmm0, %xmm1
	movq	%rax, %rcx
	call	_ZN10Calculador21calculaGravidadeLocalEd
	movq	%xmm0, %rdx
	.loc 8 264 20
	movq	712(%rbp), %rax
	movq	%rdx, 48(%rax)
	.loc 8 265 18
	leaq	96(%rbp), %rax
	movq	%rax, %rcx
	call	_ZN12ElementosVooC1Ev
.LEHE11:
	.loc 8 266 21
	movq	712(%rbp), %rax
	movsd	376(%rax), %xmm4
	movq	712(%rbp), %rax
	movsd	368(%rax), %xmm3
	movq	712(%rbp), %rax
	movsd	360(%rax), %xmm2
	movq	712(%rbp), %rax
	movsd	352(%rax), %xmm1
	movq	712(%rbp), %rax
	movsd	344(%rax), %xmm0
	movq	712(%rbp), %rax
	movsd	336(%rax), %xmm7
	movq	712(%rbp), %rax
	movsd	328(%rax), %xmm6
	movsd	720(%rbp), %xmm5
	leaq	96(%rbp), %rax
	movsd	%xmm4, 72(%rsp)
	pxor	%xmm4, %xmm4
	movsd	%xmm4, 64(%rsp)
	movsd	%xmm3, 56(%rsp)
	movsd	%xmm2, 48(%rsp)
	movsd	%xmm1, 40(%rsp)
	movsd	%xmm0, 32(%rsp)
	movapd	%xmm7, %xmm3
	movapd	%xmm6, %xmm2
	movapd	%xmm5, %xmm1
	movq	%rax, %rcx
.LEHB12:
	call	_ZN12ElementosVoo3setEddddddddd
	.loc 8 267 33
	movq	712(%rbp), %rax
	leaq	304(%rax), %rcx
	leaq	96(%rbp), %rax
	movq	%rax, %rdx
	call	_ZNSt6vectorI12ElementosVooSaIS0_EE9push_backERKS0_
	.loc 8 269 12
	movsd	744(%rbp), %xmm0
	movsd	%xmm0, 88(%rbp)
	.loc 8 270 23
	movl	$0, 620(%rbp)
	.loc 8 271 49
	movsd	728(%rbp), %xmm1
	movsd	.LC7(%rip), %xmm0
	mulsd	%xmm1, %xmm0
	.loc 8 271 55
	movq	712(%rbp), %rax
	movl	808(%rax), %eax
	.loc 8 271 60
	cvtsi2sd	%eax, %xmm2
	.loc 8 271 61
	movq	712(%rbp), %rax
	movsd	248(%rax), %xmm1
	.loc 8 271 60
	mulsd	%xmm2, %xmm1
	.loc 8 271 12
	divsd	%xmm1, %xmm0
	movsd	%xmm0, 608(%rbp)
	.loc 8 276 13
	movq	712(%rbp), %rax
	movsd	384(%rax), %xmm2
	movq	712(%rbp), %rax
	movsd	328(%rax), %xmm1
	movq	712(%rbp), %rax
	movsd	336(%rax), %xmm0
	movq	712(%rbp), %rax
	movsd	368(%rax), %xmm6
	movq	712(%rbp), %rax
	movsd	360(%rax), %xmm5
	movq	712(%rbp), %rax
	movsd	352(%rax), %xmm4
	movq	712(%rbp), %rax
	movsd	608(%rbp), %xmm3
	movsd	%xmm3, 80(%rsp)
	movsd	%xmm2, 72(%rsp)
	movsd	%xmm1, 64(%rsp)
	movsd	%xmm0, 56(%rsp)
	pxor	%xmm0, %xmm0
	movsd	%xmm0, 48(%rsp)
	pxor	%xmm0, %xmm0
	movsd	%xmm0, 40(%rsp)
	pxor	%xmm0, %xmm0
	movsd	%xmm0, 32(%rsp)
	movapd	%xmm6, %xmm3
	movapd	%xmm5, %xmm2
	movapd	%xmm4, %xmm1
	movq	%rax, %rcx
	call	_ZN30CalculadorPontoMassaModificado3acxEdddddddddd
	movq	%xmm0, %rax
	movq	%rax, 600(%rbp)
	.loc 8 277 13
	movq	712(%rbp), %rax
	movsd	384(%rax), %xmm1
	movq	712(%rbp), %rax
	movsd	336(%rax), %xmm0
	movq	712(%rbp), %rax
	movsd	368(%rax), %xmm3
	movq	712(%rbp), %rax
	movsd	360(%rax), %xmm5
	movq	712(%rbp), %rax
	movsd	352(%rax), %xmm4
	movq	712(%rbp), %rax
	movsd	608(%rbp), %xmm2
	movsd	%xmm2, 72(%rsp)
	movsd	%xmm1, 64(%rsp)
	movsd	%xmm0, 56(%rsp)
	pxor	%xmm0, %xmm0
	movsd	%xmm0, 48(%rsp)
	pxor	%xmm0, %xmm0
	movsd	%xmm0, 40(%rsp)
	pxor	%xmm0, %xmm0
	movsd	%xmm0, 32(%rsp)
	movapd	%xmm5, %xmm2
	movapd	%xmm4, %xmm1
	movq	%rax, %rcx
	call	_ZN30CalculadorPontoMassaModificado3acyEddddddddd
	.loc 8 277 13 is_stmt 0 discriminator 1
	movq	%xmm0, %rax
	movq	%rax, 592(%rbp)
	.loc 8 278 13 is_stmt 1 discriminator 1
	movq	712(%rbp), %rax
	movsd	384(%rax), %xmm2
	movq	712(%rbp), %rax
	movsd	344(%rax), %xmm1
	movq	712(%rbp), %rax
	movsd	336(%rax), %xmm0
	movq	712(%rbp), %rax
	movsd	368(%rax), %xmm6
	movq	712(%rbp), %rax
	movsd	360(%rax), %xmm5
	movq	712(%rbp), %rax
	movsd	352(%rax), %xmm4
	movq	712(%rbp), %rax
	movsd	608(%rbp), %xmm3
	movsd	%xmm3, 80(%rsp)
	movsd	%xmm2, 72(%rsp)
	movsd	%xmm1, 64(%rsp)
	movsd	%xmm0, 56(%rsp)
	pxor	%xmm0, %xmm0
	movsd	%xmm0, 48(%rsp)
	pxor	%xmm0, %xmm0
	movsd	%xmm0, 40(%rsp)
	pxor	%xmm0, %xmm0
	movsd	%xmm0, 32(%rsp)
	movapd	%xmm6, %xmm3
	movapd	%xmm5, %xmm2
	movapd	%xmm4, %xmm1
	movq	%rax, %rcx
	call	_ZN30CalculadorPontoMassaModificado3aczEdddddddddd
	movq	%xmm0, %rax
	movq	%rax, 584(%rbp)
.L80:
.LBB12:
	.loc 8 283 20
	movq	712(%rbp), %rax
	movsd	384(%rax), %xmm1
	movq	712(%rbp), %rax
	movsd	336(%rax), %xmm0
	movq	712(%rbp), %rax
	movsd	368(%rax), %xmm3
	movq	712(%rbp), %rax
	movsd	360(%rax), %xmm5
	movq	712(%rbp), %rax
	movsd	352(%rax), %xmm4
	movq	712(%rbp), %rax
	movsd	608(%rbp), %xmm2
	movsd	%xmm2, 72(%rsp)
	movsd	%xmm1, 64(%rsp)
	movsd	%xmm0, 56(%rsp)
	movsd	584(%rbp), %xmm0
	movsd	%xmm0, 48(%rsp)
	movsd	592(%rbp), %xmm0
	movsd	%xmm0, 40(%rsp)
	movsd	600(%rbp), %xmm0
	movsd	%xmm0, 32(%rsp)
	movapd	%xmm5, %xmm2
	movapd	%xmm4, %xmm1
	movq	%rax, %rcx
	call	_ZN30CalculadorPontoMassaModificado4ar_xEddddddddd
	movq	%xmm0, %rax
	movq	%rax, 576(%rbp)
	.loc 8 284 20
	movq	712(%rbp), %rax
	movsd	384(%rax), %xmm1
	movq	712(%rbp), %rax
	movsd	336(%rax), %xmm0
	movq	712(%rbp), %rax
	movsd	368(%rax), %xmm3
	movq	712(%rbp), %rax
	movsd	360(%rax), %xmm5
	movq	712(%rbp), %rax
	movsd	352(%rax), %xmm4
	movq	712(%rbp), %rax
	movsd	608(%rbp), %xmm2
	movsd	%xmm2, 72(%rsp)
	movsd	%xmm1, 64(%rsp)
	movsd	%xmm0, 56(%rsp)
	movsd	584(%rbp), %xmm0
	movsd	%xmm0, 48(%rsp)
	movsd	592(%rbp), %xmm0
	movsd	%xmm0, 40(%rsp)
	movsd	600(%rbp), %xmm0
	movsd	%xmm0, 32(%rsp)
	movapd	%xmm5, %xmm2
	movapd	%xmm4, %xmm1
	movq	%rax, %rcx
	call	_ZN30CalculadorPontoMassaModificado4ar_yEddddddddd
	.loc 8 284 20 is_stmt 0 discriminator 1
	movq	%xmm0, %rax
	movq	%rax, 568(%rbp)
	.loc 8 285 20 is_stmt 1 discriminator 1
	movq	712(%rbp), %rax
	movsd	384(%rax), %xmm1
	movq	712(%rbp), %rax
	movsd	336(%rax), %xmm0
	movq	712(%rbp), %rax
	movsd	368(%rax), %xmm3
	movq	712(%rbp), %rax
	movsd	360(%rax), %xmm5
	movq	712(%rbp), %rax
	movsd	352(%rax), %xmm4
	movq	712(%rbp), %rax
	movsd	608(%rbp), %xmm2
	movsd	%xmm2, 72(%rsp)
	movsd	%xmm1, 64(%rsp)
	movsd	%xmm0, 56(%rsp)
	movsd	584(%rbp), %xmm0
	movsd	%xmm0, 48(%rsp)
	movsd	592(%rbp), %xmm0
	movsd	%xmm0, 40(%rsp)
	movsd	600(%rbp), %xmm0
	movsd	%xmm0, 32(%rsp)
	movapd	%xmm5, %xmm2
	movapd	%xmm4, %xmm1
	movq	%rax, %rcx
	call	_ZN30CalculadorPontoMassaModificado4ar_zEddddddddd
	movq	%xmm0, %rax
	movq	%rax, 560(%rbp)
	.loc 8 286 17 discriminator 1
	movq	712(%rbp), %rax
	movsd	384(%rax), %xmm2
	movq	712(%rbp), %rax
	movsd	328(%rax), %xmm1
	movq	712(%rbp), %rax
	movsd	336(%rax), %xmm0
	movq	712(%rbp), %rax
	movsd	368(%rax), %xmm6
	movq	712(%rbp), %rax
	movsd	360(%rax), %xmm5
	movq	712(%rbp), %rax
	movsd	352(%rax), %xmm4
	movq	712(%rbp), %rax
	movsd	608(%rbp), %xmm3
	movsd	%xmm3, 80(%rsp)
	movsd	%xmm2, 72(%rsp)
	movsd	%xmm1, 64(%rsp)
	movsd	%xmm0, 56(%rsp)
	movsd	560(%rbp), %xmm0
	movsd	%xmm0, 48(%rsp)
	movsd	568(%rbp), %xmm0
	movsd	%xmm0, 40(%rsp)
	movsd	576(%rbp), %xmm0
	movsd	%xmm0, 32(%rsp)
	movapd	%xmm6, %xmm3
	movapd	%xmm5, %xmm2
	movapd	%xmm4, %xmm1
	movq	%rax, %rcx
	call	_ZN30CalculadorPontoMassaModificado3acxEdddddddddd
	movq	%xmm0, %rax
	movq	%rax, 552(%rbp)
	.loc 8 287 17 discriminator 1
	movq	712(%rbp), %rax
	movsd	384(%rax), %xmm1
	movq	712(%rbp), %rax
	movsd	336(%rax), %xmm0
	movq	712(%rbp), %rax
	movsd	368(%rax), %xmm3
	movq	712(%rbp), %rax
	movsd	360(%rax), %xmm5
	movq	712(%rbp), %rax
	movsd	352(%rax), %xmm4
	movq	712(%rbp), %rax
	movsd	608(%rbp), %xmm2
	movsd	%xmm2, 72(%rsp)
	movsd	%xmm1, 64(%rsp)
	movsd	%xmm0, 56(%rsp)
	movsd	560(%rbp), %xmm0
	movsd	%xmm0, 48(%rsp)
	movsd	568(%rbp), %xmm0
	movsd	%xmm0, 40(%rsp)
	movsd	576(%rbp), %xmm0
	movsd	%xmm0, 32(%rsp)
	movapd	%xmm5, %xmm2
	movapd	%xmm4, %xmm1
	movq	%rax, %rcx
	call	_ZN30CalculadorPontoMassaModificado3acyEddddddddd
	movq	%xmm0, %rax
	movq	%rax, 544(%rbp)
	.loc 8 288 17 discriminator 1
	movq	712(%rbp), %rax
	movsd	384(%rax), %xmm2
	movq	712(%rbp), %rax
	movsd	344(%rax), %xmm1
	movq	712(%rbp), %rax
	movsd	336(%rax), %xmm0
	movq	712(%rbp), %rax
	movsd	368(%rax), %xmm6
	movq	712(%rbp), %rax
	movsd	360(%rax), %xmm5
	movq	712(%rbp), %rax
	movsd	352(%rax), %xmm4
	movq	712(%rbp), %rax
	movsd	608(%rbp), %xmm3
	movsd	%xmm3, 80(%rsp)
	movsd	%xmm2, 72(%rsp)
	movsd	%xmm1, 64(%rsp)
	movsd	%xmm0, 56(%rsp)
	movsd	560(%rbp), %xmm0
	movsd	%xmm0, 48(%rsp)
	movsd	568(%rbp), %xmm0
	movsd	%xmm0, 40(%rsp)
	movsd	576(%rbp), %xmm0
	movsd	%xmm0, 32(%rsp)
	movapd	%xmm6, %xmm3
	movapd	%xmm5, %xmm2
	movapd	%xmm4, %xmm1
	movq	%rax, %rcx
	call	_ZN30CalculadorPontoMassaModificado3aczEdddddddddd
	movq	%xmm0, %rax
	movq	%rax, 536(%rbp)
	.loc 8 290 20 discriminator 1
	movq	712(%rbp), %rax
	movsd	384(%rax), %xmm1
	movq	712(%rbp), %rax
	movsd	336(%rax), %xmm0
	.loc 8 290 51 discriminator 1
	movq	712(%rbp), %rax
	movsd	368(%rax), %xmm3
	.loc 8 290 57 discriminator 1
	movsd	88(%rbp), %xmm4
	movsd	.LC2(%rip), %xmm2
	mulsd	%xmm4, %xmm2
	.loc 8 290 61 discriminator 1
	mulsd	536(%rbp), %xmm2
	.loc 8 290 20 discriminator 1
	movapd	%xmm3, %xmm6
	addsd	%xmm2, %xmm6
	.loc 8 290 36 discriminator 1
	movq	712(%rbp), %rax
	movsd	360(%rax), %xmm3
	.loc 8 290 42 discriminator 1
	movsd	88(%rbp), %xmm4
	movsd	.LC2(%rip), %xmm2
	mulsd	%xmm4, %xmm2
	.loc 8 290 46 discriminator 1
	mulsd	544(%rbp), %xmm2
	.loc 8 290 20 discriminator 1
	movapd	%xmm3, %xmm5
	addsd	%xmm2, %xmm5
	.loc 8 290 21 discriminator 1
	movq	712(%rbp), %rax
	movsd	352(%rax), %xmm3
	.loc 8 290 27 discriminator 1
	movsd	88(%rbp), %xmm4
	movsd	.LC2(%rip), %xmm2
	mulsd	%xmm4, %xmm2
	.loc 8 290 31 discriminator 1
	mulsd	552(%rbp), %xmm2
	.loc 8 290 20 discriminator 1
	movapd	%xmm3, %xmm4
	addsd	%xmm2, %xmm4
	movq	712(%rbp), %rax
	movsd	608(%rbp), %xmm2
	movsd	%xmm2, 72(%rsp)
	movsd	%xmm1, 64(%rsp)
	movsd	%xmm0, 56(%rsp)
	movsd	536(%rbp), %xmm0
	movsd	%xmm0, 48(%rsp)
	movsd	544(%rbp), %xmm0
	movsd	%xmm0, 40(%rsp)
	movsd	552(%rbp), %xmm0
	movsd	%xmm0, 32(%rsp)
	movapd	%xmm6, %xmm3
	movapd	%xmm5, %xmm2
	movapd	%xmm4, %xmm1
	movq	%rax, %rcx
	call	_ZN30CalculadorPontoMassaModificado4ar_xEddddddddd
	movq	%xmm0, %rax
	movq	%rax, 528(%rbp)
	.loc 8 291 20 discriminator 1
	movq	712(%rbp), %rax
	movsd	384(%rax), %xmm1
	movq	712(%rbp), %rax
	movsd	336(%rax), %xmm0
	.loc 8 291 51 discriminator 1
	movq	712(%rbp), %rax
	movsd	368(%rax), %xmm3
	.loc 8 291 57 discriminator 1
	movsd	88(%rbp), %xmm4
	movsd	.LC2(%rip), %xmm2
	mulsd	%xmm4, %xmm2
	.loc 8 291 61 discriminator 1
	mulsd	536(%rbp), %xmm2
	.loc 8 291 20 discriminator 1
	movapd	%xmm3, %xmm6
	addsd	%xmm2, %xmm6
	.loc 8 291 36 discriminator 1
	movq	712(%rbp), %rax
	movsd	360(%rax), %xmm3
	.loc 8 291 42 discriminator 1
	movsd	88(%rbp), %xmm4
	movsd	.LC2(%rip), %xmm2
	mulsd	%xmm4, %xmm2
	.loc 8 291 46 discriminator 1
	mulsd	544(%rbp), %xmm2
	.loc 8 291 20 discriminator 1
	movapd	%xmm3, %xmm5
	addsd	%xmm2, %xmm5
	.loc 8 291 21 discriminator 1
	movq	712(%rbp), %rax
	movsd	352(%rax), %xmm3
	.loc 8 291 27 discriminator 1
	movsd	88(%rbp), %xmm4
	movsd	.LC2(%rip), %xmm2
	mulsd	%xmm4, %xmm2
	.loc 8 291 31 discriminator 1
	mulsd	552(%rbp), %xmm2
	.loc 8 291 20 discriminator 1
	movapd	%xmm3, %xmm4
	addsd	%xmm2, %xmm4
	movq	712(%rbp), %rax
	movsd	608(%rbp), %xmm2
	movsd	%xmm2, 72(%rsp)
	movsd	%xmm1, 64(%rsp)
	movsd	%xmm0, 56(%rsp)
	movsd	536(%rbp), %xmm0
	movsd	%xmm0, 48(%rsp)
	movsd	544(%rbp), %xmm0
	movsd	%xmm0, 40(%rsp)
	movsd	552(%rbp), %xmm0
	movsd	%xmm0, 32(%rsp)
	movapd	%xmm6, %xmm3
	movapd	%xmm5, %xmm2
	movapd	%xmm4, %xmm1
	movq	%rax, %rcx
	call	_ZN30CalculadorPontoMassaModificado4ar_yEddddddddd
	movq	%xmm0, %rax
	movq	%rax, 520(%rbp)
	.loc 8 292 20 discriminator 1
	movq	712(%rbp), %rax
	movsd	384(%rax), %xmm1
	movq	712(%rbp), %rax
	movsd	336(%rax), %xmm0
	.loc 8 292 51 discriminator 1
	movq	712(%rbp), %rax
	movsd	368(%rax), %xmm3
	.loc 8 292 57 discriminator 1
	movsd	88(%rbp), %xmm4
	movsd	.LC2(%rip), %xmm2
	mulsd	%xmm4, %xmm2
	.loc 8 292 61 discriminator 1
	mulsd	536(%rbp), %xmm2
	.loc 8 292 20 discriminator 1
	movapd	%xmm3, %xmm6
	addsd	%xmm2, %xmm6
	.loc 8 292 36 discriminator 1
	movq	712(%rbp), %rax
	movsd	360(%rax), %xmm3
	.loc 8 292 42 discriminator 1
	movsd	88(%rbp), %xmm4
	movsd	.LC2(%rip), %xmm2
	mulsd	%xmm4, %xmm2
	.loc 8 292 46 discriminator 1
	mulsd	544(%rbp), %xmm2
	.loc 8 292 20 discriminator 1
	movapd	%xmm3, %xmm5
	addsd	%xmm2, %xmm5
	.loc 8 292 21 discriminator 1
	movq	712(%rbp), %rax
	movsd	352(%rax), %xmm3
	.loc 8 292 27 discriminator 1
	movsd	88(%rbp), %xmm4
	movsd	.LC2(%rip), %xmm2
	mulsd	%xmm4, %xmm2
	.loc 8 292 31 discriminator 1
	mulsd	552(%rbp), %xmm2
	.loc 8 292 20 discriminator 1
	movapd	%xmm3, %xmm4
	addsd	%xmm2, %xmm4
	movq	712(%rbp), %rax
	movsd	608(%rbp), %xmm2
	movsd	%xmm2, 72(%rsp)
	movsd	%xmm1, 64(%rsp)
	movsd	%xmm0, 56(%rsp)
	movsd	536(%rbp), %xmm0
	movsd	%xmm0, 48(%rsp)
	movsd	544(%rbp), %xmm0
	movsd	%xmm0, 40(%rsp)
	movsd	552(%rbp), %xmm0
	movsd	%xmm0, 32(%rsp)
	movapd	%xmm6, %xmm3
	movapd	%xmm5, %xmm2
	movapd	%xmm4, %xmm1
	movq	%rax, %rcx
	call	_ZN30CalculadorPontoMassaModificado4ar_zEddddddddd
	movq	%xmm0, %rax
	movq	%rax, 512(%rbp)
	.loc 8 293 17 discriminator 1
	movq	712(%rbp), %rax
	movsd	384(%rax), %xmm2
	movq	712(%rbp), %rax
	movsd	328(%rax), %xmm1
	movq	712(%rbp), %rax
	movsd	336(%rax), %xmm0
	.loc 8 293 48 discriminator 1
	movq	712(%rbp), %rax
	movsd	368(%rax), %xmm4
	.loc 8 293 54 discriminator 1
	movsd	88(%rbp), %xmm5
	movsd	.LC2(%rip), %xmm3
	mulsd	%xmm5, %xmm3
	.loc 8 293 58 discriminator 1
	mulsd	536(%rbp), %xmm3
	.loc 8 293 17 discriminator 1
	movapd	%xmm4, %xmm7
	addsd	%xmm3, %xmm7
	.loc 8 293 33 discriminator 1
	movq	712(%rbp), %rax
	movsd	360(%rax), %xmm4
	.loc 8 293 39 discriminator 1
	movsd	88(%rbp), %xmm5
	movsd	.LC2(%rip), %xmm3
	mulsd	%xmm5, %xmm3
	.loc 8 293 43 discriminator 1
	mulsd	544(%rbp), %xmm3
	.loc 8 293 17 discriminator 1
	movapd	%xmm4, %xmm6
	addsd	%xmm3, %xmm6
	.loc 8 293 18 discriminator 1
	movq	712(%rbp), %rax
	movsd	352(%rax), %xmm4
	.loc 8 293 24 discriminator 1
	movsd	88(%rbp), %xmm5
	movsd	.LC2(%rip), %xmm3
	mulsd	%xmm5, %xmm3
	.loc 8 293 28 discriminator 1
	mulsd	552(%rbp), %xmm3
	.loc 8 293 17 discriminator 1
	addsd	%xmm3, %xmm4
	movq	712(%rbp), %rax
	movsd	608(%rbp), %xmm3
	movsd	%xmm3, 80(%rsp)
	movsd	%xmm2, 72(%rsp)
	movsd	%xmm1, 64(%rsp)
	movsd	%xmm0, 56(%rsp)
	movsd	512(%rbp), %xmm0
	movsd	%xmm0, 48(%rsp)
	movsd	520(%rbp), %xmm0
	movsd	%xmm0, 40(%rsp)
	movsd	528(%rbp), %xmm0
	movsd	%xmm0, 32(%rsp)
	movapd	%xmm7, %xmm3
	movapd	%xmm6, %xmm2
	movapd	%xmm4, %xmm1
	movq	%rax, %rcx
	call	_ZN30CalculadorPontoMassaModificado3acxEdddddddddd
	movq	%xmm0, %rax
	movq	%rax, 504(%rbp)
	.loc 8 294 17 discriminator 1
	movq	712(%rbp), %rax
	movsd	384(%rax), %xmm1
	movq	712(%rbp), %rax
	movsd	336(%rax), %xmm0
	.loc 8 294 48 discriminator 1
	movq	712(%rbp), %rax
	movsd	368(%rax), %xmm3
	.loc 8 294 54 discriminator 1
	movsd	88(%rbp), %xmm4
	movsd	.LC2(%rip), %xmm2
	mulsd	%xmm4, %xmm2
	.loc 8 294 58 discriminator 1
	mulsd	536(%rbp), %xmm2
	.loc 8 294 17 discriminator 1
	movapd	%xmm3, %xmm6
	addsd	%xmm2, %xmm6
	.loc 8 294 33 discriminator 1
	movq	712(%rbp), %rax
	movsd	360(%rax), %xmm3
	.loc 8 294 39 discriminator 1
	movsd	88(%rbp), %xmm4
	movsd	.LC2(%rip), %xmm2
	mulsd	%xmm4, %xmm2
	.loc 8 294 43 discriminator 1
	mulsd	544(%rbp), %xmm2
	.loc 8 294 17 discriminator 1
	movapd	%xmm3, %xmm5
	addsd	%xmm2, %xmm5
	.loc 8 294 18 discriminator 1
	movq	712(%rbp), %rax
	movsd	352(%rax), %xmm3
	.loc 8 294 24 discriminator 1
	movsd	88(%rbp), %xmm4
	movsd	.LC2(%rip), %xmm2
	mulsd	%xmm4, %xmm2
	.loc 8 294 28 discriminator 1
	mulsd	552(%rbp), %xmm2
	.loc 8 294 17 discriminator 1
	movapd	%xmm3, %xmm4
	addsd	%xmm2, %xmm4
	movq	712(%rbp), %rax
	movsd	608(%rbp), %xmm2
	movsd	%xmm2, 72(%rsp)
	movsd	%xmm1, 64(%rsp)
	movsd	%xmm0, 56(%rsp)
	movsd	512(%rbp), %xmm0
	movsd	%xmm0, 48(%rsp)
	movsd	520(%rbp), %xmm0
	movsd	%xmm0, 40(%rsp)
	movsd	528(%rbp), %xmm0
	movsd	%xmm0, 32(%rsp)
	movapd	%xmm6, %xmm3
	movapd	%xmm5, %xmm2
	movapd	%xmm4, %xmm1
	movq	%rax, %rcx
	call	_ZN30CalculadorPontoMassaModificado3acyEddddddddd
	movq	%xmm0, %rax
	movq	%rax, 496(%rbp)
	.loc 8 295 17 discriminator 1
	movq	712(%rbp), %rax
	movsd	384(%rax), %xmm2
	movq	712(%rbp), %rax
	movsd	344(%rax), %xmm1
	movq	712(%rbp), %rax
	movsd	336(%rax), %xmm0
	.loc 8 295 48 discriminator 1
	movq	712(%rbp), %rax
	movsd	368(%rax), %xmm4
	.loc 8 295 54 discriminator 1
	movsd	88(%rbp), %xmm5
	movsd	.LC2(%rip), %xmm3
	mulsd	%xmm5, %xmm3
	.loc 8 295 58 discriminator 1
	mulsd	536(%rbp), %xmm3
	.loc 8 295 17 discriminator 1
	movapd	%xmm4, %xmm7
	addsd	%xmm3, %xmm7
	.loc 8 295 33 discriminator 1
	movq	712(%rbp), %rax
	movsd	360(%rax), %xmm4
	.loc 8 295 39 discriminator 1
	movsd	88(%rbp), %xmm5
	movsd	.LC2(%rip), %xmm3
	mulsd	%xmm5, %xmm3
	.loc 8 295 43 discriminator 1
	mulsd	544(%rbp), %xmm3
	.loc 8 295 17 discriminator 1
	movapd	%xmm4, %xmm6
	addsd	%xmm3, %xmm6
	.loc 8 295 18 discriminator 1
	movq	712(%rbp), %rax
	movsd	352(%rax), %xmm4
	.loc 8 295 24 discriminator 1
	movsd	88(%rbp), %xmm5
	movsd	.LC2(%rip), %xmm3
	mulsd	%xmm5, %xmm3
	.loc 8 295 28 discriminator 1
	mulsd	552(%rbp), %xmm3
	.loc 8 295 17 discriminator 1
	addsd	%xmm3, %xmm4
	movq	712(%rbp), %rax
	movsd	608(%rbp), %xmm3
	movsd	%xmm3, 80(%rsp)
	movsd	%xmm2, 72(%rsp)
	movsd	%xmm1, 64(%rsp)
	movsd	%xmm0, 56(%rsp)
	movsd	512(%rbp), %xmm0
	movsd	%xmm0, 48(%rsp)
	movsd	520(%rbp), %xmm0
	movsd	%xmm0, 40(%rsp)
	movsd	528(%rbp), %xmm0
	movsd	%xmm0, 32(%rsp)
	movapd	%xmm7, %xmm3
	movapd	%xmm6, %xmm2
	movapd	%xmm4, %xmm1
	movq	%rax, %rcx
	call	_ZN30CalculadorPontoMassaModificado3aczEdddddddddd
	movq	%xmm0, %rax
	movq	%rax, 488(%rbp)
	.loc 8 297 20 discriminator 1
	movq	712(%rbp), %rax
	movsd	384(%rax), %xmm1
	movq	712(%rbp), %rax
	movsd	336(%rax), %xmm0
	.loc 8 297 51 discriminator 1
	movq	712(%rbp), %rax
	movsd	368(%rax), %xmm3
	.loc 8 297 57 discriminator 1
	movsd	88(%rbp), %xmm4
	movsd	.LC2(%rip), %xmm2
	mulsd	%xmm4, %xmm2
	.loc 8 297 61 discriminator 1
	mulsd	488(%rbp), %xmm2
	.loc 8 297 20 discriminator 1
	movapd	%xmm3, %xmm6
	addsd	%xmm2, %xmm6
	.loc 8 297 36 discriminator 1
	movq	712(%rbp), %rax
	movsd	360(%rax), %xmm3
	.loc 8 297 42 discriminator 1
	movsd	88(%rbp), %xmm4
	movsd	.LC2(%rip), %xmm2
	mulsd	%xmm4, %xmm2
	.loc 8 297 46 discriminator 1
	mulsd	496(%rbp), %xmm2
	.loc 8 297 20 discriminator 1
	movapd	%xmm3, %xmm5
	addsd	%xmm2, %xmm5
	.loc 8 297 21 discriminator 1
	movq	712(%rbp), %rax
	movsd	352(%rax), %xmm3
	.loc 8 297 27 discriminator 1
	movsd	88(%rbp), %xmm4
	movsd	.LC2(%rip), %xmm2
	mulsd	%xmm4, %xmm2
	.loc 8 297 31 discriminator 1
	mulsd	504(%rbp), %xmm2
	.loc 8 297 20 discriminator 1
	movapd	%xmm3, %xmm4
	addsd	%xmm2, %xmm4
	movq	712(%rbp), %rax
	movsd	608(%rbp), %xmm2
	movsd	%xmm2, 72(%rsp)
	movsd	%xmm1, 64(%rsp)
	movsd	%xmm0, 56(%rsp)
	movsd	488(%rbp), %xmm0
	movsd	%xmm0, 48(%rsp)
	movsd	496(%rbp), %xmm0
	movsd	%xmm0, 40(%rsp)
	movsd	504(%rbp), %xmm0
	movsd	%xmm0, 32(%rsp)
	movapd	%xmm6, %xmm3
	movapd	%xmm5, %xmm2
	movapd	%xmm4, %xmm1
	movq	%rax, %rcx
	call	_ZN30CalculadorPontoMassaModificado4ar_xEddddddddd
	movq	%xmm0, %rax
	movq	%rax, 480(%rbp)
	.loc 8 298 20 discriminator 1
	movq	712(%rbp), %rax
	movsd	384(%rax), %xmm1
	movq	712(%rbp), %rax
	movsd	336(%rax), %xmm0
	.loc 8 298 51 discriminator 1
	movq	712(%rbp), %rax
	movsd	368(%rax), %xmm3
	.loc 8 298 57 discriminator 1
	movsd	88(%rbp), %xmm4
	movsd	.LC2(%rip), %xmm2
	mulsd	%xmm4, %xmm2
	.loc 8 298 61 discriminator 1
	mulsd	488(%rbp), %xmm2
	.loc 8 298 20 discriminator 1
	movapd	%xmm3, %xmm6
	addsd	%xmm2, %xmm6
	.loc 8 298 36 discriminator 1
	movq	712(%rbp), %rax
	movsd	360(%rax), %xmm3
	.loc 8 298 42 discriminator 1
	movsd	88(%rbp), %xmm4
	movsd	.LC2(%rip), %xmm2
	mulsd	%xmm4, %xmm2
	.loc 8 298 46 discriminator 1
	mulsd	496(%rbp), %xmm2
	.loc 8 298 20 discriminator 1
	movapd	%xmm3, %xmm5
	addsd	%xmm2, %xmm5
	.loc 8 298 21 discriminator 1
	movq	712(%rbp), %rax
	movsd	352(%rax), %xmm3
	.loc 8 298 27 discriminator 1
	movsd	88(%rbp), %xmm4
	movsd	.LC2(%rip), %xmm2
	mulsd	%xmm4, %xmm2
	.loc 8 298 31 discriminator 1
	mulsd	504(%rbp), %xmm2
	.loc 8 298 20 discriminator 1
	movapd	%xmm3, %xmm4
	addsd	%xmm2, %xmm4
	movq	712(%rbp), %rax
	movsd	608(%rbp), %xmm2
	movsd	%xmm2, 72(%rsp)
	movsd	%xmm1, 64(%rsp)
	movsd	%xmm0, 56(%rsp)
	movsd	488(%rbp), %xmm0
	movsd	%xmm0, 48(%rsp)
	movsd	496(%rbp), %xmm0
	movsd	%xmm0, 40(%rsp)
	movsd	504(%rbp), %xmm0
	movsd	%xmm0, 32(%rsp)
	movapd	%xmm6, %xmm3
	movapd	%xmm5, %xmm2
	movapd	%xmm4, %xmm1
	movq	%rax, %rcx
	call	_ZN30CalculadorPontoMassaModificado4ar_yEddddddddd
	movq	%xmm0, %rax
	movq	%rax, 472(%rbp)
	.loc 8 299 20 discriminator 1
	movq	712(%rbp), %rax
	movsd	384(%rax), %xmm1
	movq	712(%rbp), %rax
	movsd	336(%rax), %xmm0
	.loc 8 299 51 discriminator 1
	movq	712(%rbp), %rax
	movsd	368(%rax), %xmm3
	.loc 8 299 57 discriminator 1
	movsd	88(%rbp), %xmm4
	movsd	.LC2(%rip), %xmm2
	mulsd	%xmm4, %xmm2
	.loc 8 299 61 discriminator 1
	mulsd	488(%rbp), %xmm2
	.loc 8 299 20 discriminator 1
	movapd	%xmm3, %xmm6
	addsd	%xmm2, %xmm6
	.loc 8 299 36 discriminator 1
	movq	712(%rbp), %rax
	movsd	360(%rax), %xmm3
	.loc 8 299 42 discriminator 1
	movsd	88(%rbp), %xmm4
	movsd	.LC2(%rip), %xmm2
	mulsd	%xmm4, %xmm2
	.loc 8 299 46 discriminator 1
	mulsd	496(%rbp), %xmm2
	.loc 8 299 20 discriminator 1
	movapd	%xmm3, %xmm5
	addsd	%xmm2, %xmm5
	.loc 8 299 21 discriminator 1
	movq	712(%rbp), %rax
	movsd	352(%rax), %xmm3
	.loc 8 299 27 discriminator 1
	movsd	88(%rbp), %xmm4
	movsd	.LC2(%rip), %xmm2
	mulsd	%xmm4, %xmm2
	.loc 8 299 31 discriminator 1
	mulsd	504(%rbp), %xmm2
	.loc 8 299 20 discriminator 1
	movapd	%xmm3, %xmm4
	addsd	%xmm2, %xmm4
	movq	712(%rbp), %rax
	movsd	608(%rbp), %xmm2
	movsd	%xmm2, 72(%rsp)
	movsd	%xmm1, 64(%rsp)
	movsd	%xmm0, 56(%rsp)
	movsd	488(%rbp), %xmm0
	movsd	%xmm0, 48(%rsp)
	movsd	496(%rbp), %xmm0
	movsd	%xmm0, 40(%rsp)
	movsd	504(%rbp), %xmm0
	movsd	%xmm0, 32(%rsp)
	movapd	%xmm6, %xmm3
	movapd	%xmm5, %xmm2
	movapd	%xmm4, %xmm1
	movq	%rax, %rcx
	call	_ZN30CalculadorPontoMassaModificado4ar_zEddddddddd
	movq	%xmm0, %rax
	movq	%rax, 464(%rbp)
	.loc 8 300 17 discriminator 1
	movq	712(%rbp), %rax
	movsd	384(%rax), %xmm2
	movq	712(%rbp), %rax
	movsd	328(%rax), %xmm1
	movq	712(%rbp), %rax
	movsd	336(%rax), %xmm0
	.loc 8 300 48 discriminator 1
	movq	712(%rbp), %rax
	movsd	368(%rax), %xmm4
	.loc 8 300 54 discriminator 1
	movsd	88(%rbp), %xmm5
	movsd	.LC2(%rip), %xmm3
	mulsd	%xmm5, %xmm3
	.loc 8 300 58 discriminator 1
	mulsd	488(%rbp), %xmm3
	.loc 8 300 17 discriminator 1
	movapd	%xmm4, %xmm7
	addsd	%xmm3, %xmm7
	.loc 8 300 33 discriminator 1
	movq	712(%rbp), %rax
	movsd	360(%rax), %xmm4
	.loc 8 300 39 discriminator 1
	movsd	88(%rbp), %xmm5
	movsd	.LC2(%rip), %xmm3
	mulsd	%xmm5, %xmm3
	.loc 8 300 43 discriminator 1
	mulsd	496(%rbp), %xmm3
	.loc 8 300 17 discriminator 1
	movapd	%xmm4, %xmm6
	addsd	%xmm3, %xmm6
	.loc 8 300 18 discriminator 1
	movq	712(%rbp), %rax
	movsd	352(%rax), %xmm4
	.loc 8 300 24 discriminator 1
	movsd	88(%rbp), %xmm5
	movsd	.LC2(%rip), %xmm3
	mulsd	%xmm5, %xmm3
	.loc 8 300 28 discriminator 1
	mulsd	504(%rbp), %xmm3
	.loc 8 300 17 discriminator 1
	addsd	%xmm3, %xmm4
	movq	712(%rbp), %rax
	movsd	608(%rbp), %xmm3
	movsd	%xmm3, 80(%rsp)
	movsd	%xmm2, 72(%rsp)
	movsd	%xmm1, 64(%rsp)
	movsd	%xmm0, 56(%rsp)
	movsd	464(%rbp), %xmm0
	movsd	%xmm0, 48(%rsp)
	movsd	472(%rbp), %xmm0
	movsd	%xmm0, 40(%rsp)
	movsd	480(%rbp), %xmm0
	movsd	%xmm0, 32(%rsp)
	movapd	%xmm7, %xmm3
	movapd	%xmm6, %xmm2
	movapd	%xmm4, %xmm1
	movq	%rax, %rcx
	call	_ZN30CalculadorPontoMassaModificado3acxEdddddddddd
	movq	%xmm0, %rax
	movq	%rax, 456(%rbp)
	.loc 8 301 17 discriminator 1
	movq	712(%rbp), %rax
	movsd	384(%rax), %xmm1
	movq	712(%rbp), %rax
	movsd	336(%rax), %xmm0
	.loc 8 301 48 discriminator 1
	movq	712(%rbp), %rax
	movsd	368(%rax), %xmm3
	.loc 8 301 54 discriminator 1
	movsd	88(%rbp), %xmm4
	movsd	.LC2(%rip), %xmm2
	mulsd	%xmm4, %xmm2
	.loc 8 301 58 discriminator 1
	mulsd	488(%rbp), %xmm2
	.loc 8 301 17 discriminator 1
	movapd	%xmm3, %xmm6
	addsd	%xmm2, %xmm6
	.loc 8 301 33 discriminator 1
	movq	712(%rbp), %rax
	movsd	360(%rax), %xmm3
	.loc 8 301 39 discriminator 1
	movsd	88(%rbp), %xmm4
	movsd	.LC2(%rip), %xmm2
	mulsd	%xmm4, %xmm2
	.loc 8 301 43 discriminator 1
	mulsd	496(%rbp), %xmm2
	.loc 8 301 17 discriminator 1
	movapd	%xmm3, %xmm5
	addsd	%xmm2, %xmm5
	.loc 8 301 18 discriminator 1
	movq	712(%rbp), %rax
	movsd	352(%rax), %xmm3
	.loc 8 301 24 discriminator 1
	movsd	88(%rbp), %xmm4
	movsd	.LC2(%rip), %xmm2
	mulsd	%xmm4, %xmm2
	.loc 8 301 28 discriminator 1
	mulsd	504(%rbp), %xmm2
	.loc 8 301 17 discriminator 1
	movapd	%xmm3, %xmm4
	addsd	%xmm2, %xmm4
	movq	712(%rbp), %rax
	movsd	608(%rbp), %xmm2
	movsd	%xmm2, 72(%rsp)
	movsd	%xmm1, 64(%rsp)
	movsd	%xmm0, 56(%rsp)
	movsd	464(%rbp), %xmm0
	movsd	%xmm0, 48(%rsp)
	movsd	472(%rbp), %xmm0
	movsd	%xmm0, 40(%rsp)
	movsd	480(%rbp), %xmm0
	movsd	%xmm0, 32(%rsp)
	movapd	%xmm6, %xmm3
	movapd	%xmm5, %xmm2
	movapd	%xmm4, %xmm1
	movq	%rax, %rcx
	call	_ZN30CalculadorPontoMassaModificado3acyEddddddddd
	movq	%xmm0, %rax
	movq	%rax, 448(%rbp)
	.loc 8 302 17 discriminator 1
	movq	712(%rbp), %rax
	movsd	384(%rax), %xmm2
	movq	712(%rbp), %rax
	movsd	344(%rax), %xmm1
	movq	712(%rbp), %rax
	movsd	336(%rax), %xmm0
	.loc 8 302 48 discriminator 1
	movq	712(%rbp), %rax
	movsd	368(%rax), %xmm4
	.loc 8 302 54 discriminator 1
	movsd	88(%rbp), %xmm5
	movsd	.LC2(%rip), %xmm3
	mulsd	%xmm5, %xmm3
	.loc 8 302 58 discriminator 1
	mulsd	488(%rbp), %xmm3
	.loc 8 302 17 discriminator 1
	movapd	%xmm4, %xmm7
	addsd	%xmm3, %xmm7
	.loc 8 302 33 discriminator 1
	movq	712(%rbp), %rax
	movsd	360(%rax), %xmm4
	.loc 8 302 39 discriminator 1
	movsd	88(%rbp), %xmm5
	movsd	.LC2(%rip), %xmm3
	mulsd	%xmm5, %xmm3
	.loc 8 302 43 discriminator 1
	mulsd	496(%rbp), %xmm3
	.loc 8 302 17 discriminator 1
	movapd	%xmm4, %xmm6
	addsd	%xmm3, %xmm6
	.loc 8 302 18 discriminator 1
	movq	712(%rbp), %rax
	movsd	352(%rax), %xmm4
	.loc 8 302 24 discriminator 1
	movsd	88(%rbp), %xmm5
	movsd	.LC2(%rip), %xmm3
	mulsd	%xmm5, %xmm3
	.loc 8 302 28 discriminator 1
	mulsd	504(%rbp), %xmm3
	.loc 8 302 17 discriminator 1
	addsd	%xmm3, %xmm4
	movq	712(%rbp), %rax
	movsd	608(%rbp), %xmm3
	movsd	%xmm3, 80(%rsp)
	movsd	%xmm2, 72(%rsp)
	movsd	%xmm1, 64(%rsp)
	movsd	%xmm0, 56(%rsp)
	movsd	464(%rbp), %xmm0
	movsd	%xmm0, 48(%rsp)
	movsd	472(%rbp), %xmm0
	movsd	%xmm0, 40(%rsp)
	movsd	480(%rbp), %xmm0
	movsd	%xmm0, 32(%rsp)
	movapd	%xmm7, %xmm3
	movapd	%xmm6, %xmm2
	movapd	%xmm4, %xmm1
	movq	%rax, %rcx
	call	_ZN30CalculadorPontoMassaModificado3aczEdddddddddd
	movq	%xmm0, %rax
	movq	%rax, 440(%rbp)
	.loc 8 304 20 discriminator 1
	movq	712(%rbp), %rax
	movsd	384(%rax), %xmm1
	movq	712(%rbp), %rax
	movsd	336(%rax), %xmm0
	.loc 8 304 43 discriminator 1
	movq	712(%rbp), %rax
	movsd	368(%rax), %xmm3
	.loc 8 304 49 discriminator 1
	movsd	88(%rbp), %xmm2
	mulsd	440(%rbp), %xmm2
	.loc 8 304 20 discriminator 1
	movapd	%xmm3, %xmm6
	addsd	%xmm2, %xmm6
	.loc 8 304 32 discriminator 1
	movq	712(%rbp), %rax
	movsd	360(%rax), %xmm3
	.loc 8 304 38 discriminator 1
	movsd	88(%rbp), %xmm2
	mulsd	448(%rbp), %xmm2
	.loc 8 304 20 discriminator 1
	movapd	%xmm3, %xmm5
	addsd	%xmm2, %xmm5
	.loc 8 304 21 discriminator 1
	movq	712(%rbp), %rax
	movsd	352(%rax), %xmm3
	.loc 8 304 27 discriminator 1
	movsd	88(%rbp), %xmm2
	mulsd	456(%rbp), %xmm2
	.loc 8 304 20 discriminator 1
	movapd	%xmm3, %xmm4
	addsd	%xmm2, %xmm4
	movq	712(%rbp), %rax
	movsd	608(%rbp), %xmm2
	movsd	%xmm2, 72(%rsp)
	movsd	%xmm1, 64(%rsp)
	movsd	%xmm0, 56(%rsp)
	movsd	440(%rbp), %xmm0
	movsd	%xmm0, 48(%rsp)
	movsd	448(%rbp), %xmm0
	movsd	%xmm0, 40(%rsp)
	movsd	456(%rbp), %xmm0
	movsd	%xmm0, 32(%rsp)
	movapd	%xmm6, %xmm3
	movapd	%xmm5, %xmm2
	movapd	%xmm4, %xmm1
	movq	%rax, %rcx
	call	_ZN30CalculadorPontoMassaModificado4ar_xEddddddddd
	movq	%xmm0, %rax
	movq	%rax, 432(%rbp)
	.loc 8 305 20 discriminator 1
	movq	712(%rbp), %rax
	movsd	384(%rax), %xmm1
	movq	712(%rbp), %rax
	movsd	336(%rax), %xmm0
	.loc 8 305 43 discriminator 1
	movq	712(%rbp), %rax
	movsd	368(%rax), %xmm3
	.loc 8 305 49 discriminator 1
	movsd	88(%rbp), %xmm2
	mulsd	440(%rbp), %xmm2
	.loc 8 305 20 discriminator 1
	movapd	%xmm3, %xmm6
	addsd	%xmm2, %xmm6
	.loc 8 305 32 discriminator 1
	movq	712(%rbp), %rax
	movsd	360(%rax), %xmm3
	.loc 8 305 38 discriminator 1
	movsd	88(%rbp), %xmm2
	mulsd	448(%rbp), %xmm2
	.loc 8 305 20 discriminator 1
	movapd	%xmm3, %xmm5
	addsd	%xmm2, %xmm5
	.loc 8 305 21 discriminator 1
	movq	712(%rbp), %rax
	movsd	352(%rax), %xmm3
	.loc 8 305 27 discriminator 1
	movsd	88(%rbp), %xmm2
	mulsd	456(%rbp), %xmm2
	.loc 8 305 20 discriminator 1
	movapd	%xmm3, %xmm4
	addsd	%xmm2, %xmm4
	movq	712(%rbp), %rax
	movsd	608(%rbp), %xmm2
	movsd	%xmm2, 72(%rsp)
	movsd	%xmm1, 64(%rsp)
	movsd	%xmm0, 56(%rsp)
	movsd	440(%rbp), %xmm0
	movsd	%xmm0, 48(%rsp)
	movsd	448(%rbp), %xmm0
	movsd	%xmm0, 40(%rsp)
	movsd	456(%rbp), %xmm0
	movsd	%xmm0, 32(%rsp)
	movapd	%xmm6, %xmm3
	movapd	%xmm5, %xmm2
	movapd	%xmm4, %xmm1
	movq	%rax, %rcx
	call	_ZN30CalculadorPontoMassaModificado4ar_yEddddddddd
	movq	%xmm0, %rax
	movq	%rax, 424(%rbp)
	.loc 8 306 20 discriminator 1
	movq	712(%rbp), %rax
	movsd	384(%rax), %xmm1
	movq	712(%rbp), %rax
	movsd	336(%rax), %xmm0
	.loc 8 306 43 discriminator 1
	movq	712(%rbp), %rax
	movsd	368(%rax), %xmm3
	.loc 8 306 49 discriminator 1
	movsd	88(%rbp), %xmm2
	mulsd	440(%rbp), %xmm2
	.loc 8 306 20 discriminator 1
	movapd	%xmm3, %xmm6
	addsd	%xmm2, %xmm6
	.loc 8 306 32 discriminator 1
	movq	712(%rbp), %rax
	movsd	360(%rax), %xmm3
	.loc 8 306 38 discriminator 1
	movsd	88(%rbp), %xmm2
	mulsd	448(%rbp), %xmm2
	.loc 8 306 20 discriminator 1
	movapd	%xmm3, %xmm5
	addsd	%xmm2, %xmm5
	.loc 8 306 21 discriminator 1
	movq	712(%rbp), %rax
	movsd	352(%rax), %xmm3
	.loc 8 306 27 discriminator 1
	movsd	88(%rbp), %xmm2
	mulsd	456(%rbp), %xmm2
	.loc 8 306 20 discriminator 1
	movapd	%xmm3, %xmm4
	addsd	%xmm2, %xmm4
	movq	712(%rbp), %rax
	movsd	608(%rbp), %xmm2
	movsd	%xmm2, 72(%rsp)
	movsd	%xmm1, 64(%rsp)
	movsd	%xmm0, 56(%rsp)
	movsd	440(%rbp), %xmm0
	movsd	%xmm0, 48(%rsp)
	movsd	448(%rbp), %xmm0
	movsd	%xmm0, 40(%rsp)
	movsd	456(%rbp), %xmm0
	movsd	%xmm0, 32(%rsp)
	movapd	%xmm6, %xmm3
	movapd	%xmm5, %xmm2
	movapd	%xmm4, %xmm1
	movq	%rax, %rcx
	call	_ZN30CalculadorPontoMassaModificado4ar_zEddddddddd
	movq	%xmm0, %rax
	movq	%rax, 416(%rbp)
	.loc 8 307 17 discriminator 1
	movq	712(%rbp), %rax
	movsd	384(%rax), %xmm2
	movq	712(%rbp), %rax
	movsd	328(%rax), %xmm1
	movq	712(%rbp), %rax
	movsd	336(%rax), %xmm0
	.loc 8 307 40 discriminator 1
	movq	712(%rbp), %rax
	movsd	368(%rax), %xmm4
	.loc 8 307 46 discriminator 1
	movsd	88(%rbp), %xmm3
	mulsd	440(%rbp), %xmm3
	.loc 8 307 17 discriminator 1
	movapd	%xmm4, %xmm6
	addsd	%xmm3, %xmm6
	.loc 8 307 29 discriminator 1
	movq	712(%rbp), %rax
	movsd	360(%rax), %xmm4
	.loc 8 307 35 discriminator 1
	movsd	88(%rbp), %xmm3
	mulsd	448(%rbp), %xmm3
	.loc 8 307 17 discriminator 1
	movapd	%xmm4, %xmm5
	addsd	%xmm3, %xmm5
	.loc 8 307 18 discriminator 1
	movq	712(%rbp), %rax
	movsd	352(%rax), %xmm4
	.loc 8 307 24 discriminator 1
	movsd	88(%rbp), %xmm3
	mulsd	456(%rbp), %xmm3
	.loc 8 307 17 discriminator 1
	addsd	%xmm3, %xmm4
	movq	712(%rbp), %rax
	movsd	608(%rbp), %xmm3
	movsd	%xmm3, 80(%rsp)
	movsd	%xmm2, 72(%rsp)
	movsd	%xmm1, 64(%rsp)
	movsd	%xmm0, 56(%rsp)
	movsd	416(%rbp), %xmm0
	movsd	%xmm0, 48(%rsp)
	movsd	424(%rbp), %xmm0
	movsd	%xmm0, 40(%rsp)
	movsd	432(%rbp), %xmm0
	movsd	%xmm0, 32(%rsp)
	movapd	%xmm6, %xmm3
	movapd	%xmm5, %xmm2
	movapd	%xmm4, %xmm1
	movq	%rax, %rcx
	call	_ZN30CalculadorPontoMassaModificado3acxEdddddddddd
	movq	%xmm0, %rax
	movq	%rax, 408(%rbp)
	.loc 8 308 17 discriminator 1
	movq	712(%rbp), %rax
	movsd	384(%rax), %xmm1
	movq	712(%rbp), %rax
	movsd	336(%rax), %xmm0
	.loc 8 308 40 discriminator 1
	movq	712(%rbp), %rax
	movsd	368(%rax), %xmm3
	.loc 8 308 46 discriminator 1
	movsd	88(%rbp), %xmm2
	mulsd	440(%rbp), %xmm2
	.loc 8 308 17 discriminator 1
	movapd	%xmm3, %xmm6
	addsd	%xmm2, %xmm6
	.loc 8 308 29 discriminator 1
	movq	712(%rbp), %rax
	movsd	360(%rax), %xmm3
	.loc 8 308 35 discriminator 1
	movsd	88(%rbp), %xmm2
	mulsd	448(%rbp), %xmm2
	.loc 8 308 17 discriminator 1
	movapd	%xmm3, %xmm5
	addsd	%xmm2, %xmm5
	.loc 8 308 18 discriminator 1
	movq	712(%rbp), %rax
	movsd	352(%rax), %xmm3
	.loc 8 308 24 discriminator 1
	movsd	88(%rbp), %xmm2
	mulsd	456(%rbp), %xmm2
	.loc 8 308 17 discriminator 1
	movapd	%xmm3, %xmm4
	addsd	%xmm2, %xmm4
	movq	712(%rbp), %rax
	movsd	608(%rbp), %xmm2
	movsd	%xmm2, 72(%rsp)
	movsd	%xmm1, 64(%rsp)
	movsd	%xmm0, 56(%rsp)
	movsd	416(%rbp), %xmm0
	movsd	%xmm0, 48(%rsp)
	movsd	424(%rbp), %xmm0
	movsd	%xmm0, 40(%rsp)
	movsd	432(%rbp), %xmm0
	movsd	%xmm0, 32(%rsp)
	movapd	%xmm6, %xmm3
	movapd	%xmm5, %xmm2
	movapd	%xmm4, %xmm1
	movq	%rax, %rcx
	call	_ZN30CalculadorPontoMassaModificado3acyEddddddddd
	movq	%xmm0, %rax
	movq	%rax, 400(%rbp)
	.loc 8 309 17 discriminator 1
	movq	712(%rbp), %rax
	movsd	384(%rax), %xmm2
	movq	712(%rbp), %rax
	movsd	344(%rax), %xmm1
	movq	712(%rbp), %rax
	movsd	336(%rax), %xmm0
	.loc 8 309 40 discriminator 1
	movq	712(%rbp), %rax
	movsd	368(%rax), %xmm4
	.loc 8 309 46 discriminator 1
	movsd	88(%rbp), %xmm3
	mulsd	440(%rbp), %xmm3
	.loc 8 309 17 discriminator 1
	movapd	%xmm4, %xmm6
	addsd	%xmm3, %xmm6
	.loc 8 309 29 discriminator 1
	movq	712(%rbp), %rax
	movsd	360(%rax), %xmm4
	.loc 8 309 35 discriminator 1
	movsd	88(%rbp), %xmm3
	mulsd	448(%rbp), %xmm3
	.loc 8 309 17 discriminator 1
	movapd	%xmm4, %xmm5
	addsd	%xmm3, %xmm5
	.loc 8 309 18 discriminator 1
	movq	712(%rbp), %rax
	movsd	352(%rax), %xmm4
	.loc 8 309 24 discriminator 1
	movsd	88(%rbp), %xmm3
	mulsd	456(%rbp), %xmm3
	.loc 8 309 17 discriminator 1
	addsd	%xmm3, %xmm4
	movq	712(%rbp), %rax
	movsd	608(%rbp), %xmm3
	movsd	%xmm3, 80(%rsp)
	movsd	%xmm2, 72(%rsp)
	movsd	%xmm1, 64(%rsp)
	movsd	%xmm0, 56(%rsp)
	movsd	416(%rbp), %xmm0
	movsd	%xmm0, 48(%rsp)
	movsd	424(%rbp), %xmm0
	movsd	%xmm0, 40(%rsp)
	movsd	432(%rbp), %xmm0
	movsd	%xmm0, 32(%rsp)
	movapd	%xmm6, %xmm3
	movapd	%xmm5, %xmm2
	movapd	%xmm4, %xmm1
	movq	%rax, %rcx
	call	_ZN30CalculadorPontoMassaModificado3aczEdddddddddd
	movq	%xmm0, %rax
	movq	%rax, 392(%rbp)
	.loc 8 312 15 discriminator 1
	movsd	88(%rbp), %xmm0
	movsd	.LC8(%rip), %xmm1
	divsd	%xmm1, %xmm0
	movapd	%xmm0, %xmm1
	.loc 8 312 25 discriminator 1
	movsd	504(%rbp), %xmm0
	addsd	%xmm0, %xmm0
	.loc 8 312 22 discriminator 1
	movapd	%xmm0, %xmm2
	addsd	552(%rbp), %xmm2
	.loc 8 312 32 discriminator 1
	movsd	456(%rbp), %xmm0
	addsd	%xmm0, %xmm0
	.loc 8 312 29 discriminator 1
	addsd	%xmm2, %xmm0
	.loc 8 312 36 discriminator 1
	addsd	408(%rbp), %xmm0
	.loc 8 312 12 discriminator 1
	mulsd	%xmm1, %xmm0
	movsd	%xmm0, 600(%rbp)
	.loc 8 313 15 discriminator 1
	movsd	88(%rbp), %xmm0
	movsd	.LC8(%rip), %xmm1
	divsd	%xmm1, %xmm0
	movapd	%xmm0, %xmm1
	.loc 8 313 25 discriminator 1
	movsd	496(%rbp), %xmm0
	addsd	%xmm0, %xmm0
	.loc 8 313 22 discriminator 1
	movapd	%xmm0, %xmm2
	addsd	544(%rbp), %xmm2
	.loc 8 313 32 discriminator 1
	movsd	448(%rbp), %xmm0
	addsd	%xmm0, %xmm0
	.loc 8 313 29 discriminator 1
	addsd	%xmm2, %xmm0
	.loc 8 313 36 discriminator 1
	addsd	400(%rbp), %xmm0
	.loc 8 313 12 discriminator 1
	mulsd	%xmm1, %xmm0
	movsd	%xmm0, 592(%rbp)
	.loc 8 314 15 discriminator 1
	movsd	88(%rbp), %xmm0
	movsd	.LC8(%rip), %xmm1
	divsd	%xmm1, %xmm0
	movapd	%xmm0, %xmm1
	.loc 8 314 25 discriminator 1
	movsd	488(%rbp), %xmm0
	addsd	%xmm0, %xmm0
	.loc 8 314 22 discriminator 1
	movapd	%xmm0, %xmm2
	addsd	536(%rbp), %xmm2
	.loc 8 314 32 discriminator 1
	movsd	440(%rbp), %xmm0
	addsd	%xmm0, %xmm0
	.loc 8 314 29 discriminator 1
	addsd	%xmm2, %xmm0
	.loc 8 314 36 discriminator 1
	addsd	392(%rbp), %xmm0
	.loc 8 314 12 discriminator 1
	mulsd	%xmm1, %xmm0
	movsd	%xmm0, 584(%rbp)
	.loc 8 320 22 discriminator 1
	movq	712(%rbp), %rax
	movsd	384(%rax), %xmm1
	movq	712(%rbp), %rax
	movsd	336(%rax), %xmm0
	movq	712(%rbp), %rax
	movsd	368(%rax), %xmm3
	movq	712(%rbp), %rax
	movsd	360(%rax), %xmm5
	movq	712(%rbp), %rax
	movsd	352(%rax), %xmm4
	movq	712(%rbp), %rax
	movsd	608(%rbp), %xmm2
	movsd	%xmm2, 72(%rsp)
	movsd	%xmm1, 64(%rsp)
	movsd	%xmm0, 56(%rsp)
	movsd	536(%rbp), %xmm0
	movsd	%xmm0, 48(%rsp)
	movsd	544(%rbp), %xmm0
	movsd	%xmm0, 40(%rsp)
	movsd	552(%rbp), %xmm0
	movsd	%xmm0, 32(%rsp)
	movapd	%xmm5, %xmm2
	movapd	%xmm4, %xmm1
	movq	%rax, %rcx
	call	_ZN30CalculadorPontoMassaModificado2arEddddddddd
	movq	%xmm0, %rdx
	.loc 8 320 18 discriminator 1
	movq	712(%rbp), %rax
	movq	%rdx, 384(%rax)
	.loc 8 327 14 discriminator 1
	movq	712(%rbp), %rax
	movsd	352(%rax), %xmm0
	movsd	%xmm0, 384(%rbp)
	.loc 8 328 16 discriminator 1
	movq	712(%rbp), %rax
	movsd	352(%rax), %xmm1
	.loc 8 328 23 discriminator 1
	movsd	88(%rbp), %xmm0
	mulsd	552(%rbp), %xmm0
	.loc 8 328 25 discriminator 1
	movsd	.LC9(%rip), %xmm2
	divsd	%xmm2, %xmm0
	.loc 8 328 14 discriminator 1
	addsd	%xmm1, %xmm0
	movsd	%xmm0, 376(%rbp)
	.loc 8 329 16 discriminator 1
	movq	712(%rbp), %rax
	movsd	352(%rax), %xmm1
	.loc 8 329 23 discriminator 1
	movsd	88(%rbp), %xmm0
	mulsd	504(%rbp), %xmm0
	.loc 8 329 25 discriminator 1
	movsd	.LC9(%rip), %xmm2
	divsd	%xmm2, %xmm0
	.loc 8 329 14 discriminator 1
	addsd	%xmm1, %xmm0
	movsd	%xmm0, 368(%rbp)
	.loc 8 330 16 discriminator 1
	movq	712(%rbp), %rax
	movsd	352(%rax), %xmm1
	.loc 8 330 23 discriminator 1
	movsd	88(%rbp), %xmm0
	mulsd	456(%rbp), %xmm0
	.loc 8 330 14 discriminator 1
	addsd	%xmm1, %xmm0
	movsd	%xmm0, 360(%rbp)
	.loc 8 334 14 discriminator 1
	movq	712(%rbp), %rax
	movsd	360(%rax), %xmm0
	movsd	%xmm0, 352(%rbp)
	.loc 8 335 16 discriminator 1
	movq	712(%rbp), %rax
	movsd	360(%rax), %xmm1
	.loc 8 335 23 discriminator 1
	movsd	88(%rbp), %xmm0
	mulsd	544(%rbp), %xmm0
	.loc 8 335 25 discriminator 1
	movsd	.LC9(%rip), %xmm2
	divsd	%xmm2, %xmm0
	.loc 8 335 14 discriminator 1
	addsd	%xmm1, %xmm0
	movsd	%xmm0, 344(%rbp)
	.loc 8 336 16 discriminator 1
	movq	712(%rbp), %rax
	movsd	360(%rax), %xmm1
	.loc 8 336 23 discriminator 1
	movsd	88(%rbp), %xmm0
	mulsd	496(%rbp), %xmm0
	.loc 8 336 25 discriminator 1
	movsd	.LC9(%rip), %xmm2
	divsd	%xmm2, %xmm0
	.loc 8 336 14 discriminator 1
	addsd	%xmm1, %xmm0
	movsd	%xmm0, 336(%rbp)
	.loc 8 337 16 discriminator 1
	movq	712(%rbp), %rax
	movsd	360(%rax), %xmm1
	.loc 8 337 23 discriminator 1
	movsd	88(%rbp), %xmm0
	mulsd	448(%rbp), %xmm0
	.loc 8 337 14 discriminator 1
	addsd	%xmm1, %xmm0
	movsd	%xmm0, 328(%rbp)
	.loc 8 341 14 discriminator 1
	movq	712(%rbp), %rax
	movsd	368(%rax), %xmm0
	movsd	%xmm0, 320(%rbp)
	.loc 8 342 16 discriminator 1
	movq	712(%rbp), %rax
	movsd	368(%rax), %xmm1
	.loc 8 342 23 discriminator 1
	movsd	88(%rbp), %xmm0
	mulsd	536(%rbp), %xmm0
	.loc 8 342 25 discriminator 1
	movsd	.LC9(%rip), %xmm2
	divsd	%xmm2, %xmm0
	.loc 8 342 14 discriminator 1
	addsd	%xmm1, %xmm0
	movsd	%xmm0, 312(%rbp)
	.loc 8 343 16 discriminator 1
	movq	712(%rbp), %rax
	movsd	368(%rax), %xmm1
	.loc 8 343 23 discriminator 1
	movsd	88(%rbp), %xmm0
	mulsd	488(%rbp), %xmm0
	.loc 8 343 25 discriminator 1
	movsd	.LC9(%rip), %xmm2
	divsd	%xmm2, %xmm0
	.loc 8 343 14 discriminator 1
	addsd	%xmm1, %xmm0
	movsd	%xmm0, 304(%rbp)
	.loc 8 344 16 discriminator 1
	movq	712(%rbp), %rax
	movsd	368(%rax), %xmm1
	.loc 8 344 23 discriminator 1
	movsd	88(%rbp), %xmm0
	mulsd	440(%rbp), %xmm0
	.loc 8 344 14 discriminator 1
	addsd	%xmm1, %xmm0
	movsd	%xmm0, 296(%rbp)
	.loc 8 347 23 discriminator 1
	movq	712(%rbp), %rax
	movsd	320(%rbp), %xmm2
	movsd	352(%rbp), %xmm1
	movsd	384(%rbp), %xmm0
	movapd	%xmm2, %xmm3
	movapd	%xmm1, %xmm2
	movapd	%xmm0, %xmm1
	movq	%rax, %rcx
	call	_ZN10Calculador1vEddd
	movq	%xmm0, %rax
	movq	%rax, 288(%rbp)
	.loc 8 348 33 discriminator 1
	movq	712(%rbp), %rax
	movq	712(%rbp), %rdx
	movsd	336(%rdx), %xmm1
	movsd	288(%rbp), %xmm0
	movapd	%xmm1, %xmm2
	movapd	%xmm0, %xmm1
	movq	%rax, %rcx
	call	_ZN21CalculadorAtmosferico8vel_machEdd
	movq	%xmm0, %rax
	movq	%rax, 280(%rbp)
	.loc 8 349 23 discriminator 1
	movq	712(%rbp), %rax
	movsd	312(%rbp), %xmm2
	movsd	344(%rbp), %xmm1
	movsd	376(%rbp), %xmm0
	movapd	%xmm2, %xmm3
	movapd	%xmm1, %xmm2
	movapd	%xmm0, %xmm1
	movq	%rax, %rcx
	call	_ZN10Calculador1vEddd
	movq	%xmm0, %rax
	movq	%rax, 272(%rbp)
	.loc 8 350 33 discriminator 1
	movq	712(%rbp), %rax
	movq	712(%rbp), %rdx
	movsd	336(%rdx), %xmm1
	movsd	272(%rbp), %xmm0
	movapd	%xmm1, %xmm2
	movapd	%xmm0, %xmm1
	movq	%rax, %rcx
	call	_ZN21CalculadorAtmosferico8vel_machEdd
	movq	%xmm0, %rax
	movq	%rax, 264(%rbp)
	.loc 8 351 23 discriminator 1
	movq	712(%rbp), %rax
	movsd	304(%rbp), %xmm2
	movsd	336(%rbp), %xmm1
	movsd	368(%rbp), %xmm0
	movapd	%xmm2, %xmm3
	movapd	%xmm1, %xmm2
	movapd	%xmm0, %xmm1
	movq	%rax, %rcx
	call	_ZN10Calculador1vEddd
	movq	%xmm0, %rax
	movq	%rax, 256(%rbp)
	.loc 8 352 33 discriminator 1
	movq	712(%rbp), %rax
	movq	712(%rbp), %rdx
	movsd	336(%rdx), %xmm1
	movsd	256(%rbp), %xmm0
	movapd	%xmm1, %xmm2
	movapd	%xmm0, %xmm1
	movq	%rax, %rcx
	call	_ZN21CalculadorAtmosferico8vel_machEdd
	movq	%xmm0, %rax
	movq	%rax, 248(%rbp)
	.loc 8 353 23 discriminator 1
	movq	712(%rbp), %rax
	movsd	296(%rbp), %xmm2
	movsd	328(%rbp), %xmm1
	movsd	360(%rbp), %xmm0
	movapd	%xmm2, %xmm3
	movapd	%xmm1, %xmm2
	movapd	%xmm0, %xmm1
	movq	%rax, %rcx
	call	_ZN10Calculador1vEddd
	movq	%xmm0, %rax
	movq	%rax, 240(%rbp)
	.loc 8 354 33 discriminator 1
	movq	712(%rbp), %rax
	movq	712(%rbp), %rdx
	movsd	336(%rdx), %xmm1
	movsd	240(%rbp), %xmm0
	movapd	%xmm1, %xmm2
	movapd	%xmm0, %xmm1
	movq	%rax, %rcx
	call	_ZN21CalculadorAtmosferico8vel_machEdd
	movq	%xmm0, %rax
	movq	%rax, 232(%rbp)
	.loc 8 356 41 discriminator 1
	movq	712(%rbp), %rax
	movq	232(%rax), %rdx
	movq	712(%rbp), %rax
	movq	232(%rax), %rax
	.loc 8 356 60 discriminator 1
	movq	(%rax), %rax
	addq	$32, %rax
	movq	(%rax), %rax
	.loc 8 356 57 discriminator 1
	movq	712(%rbp), %rcx
	movsd	336(%rcx), %xmm0
	movapd	%xmm0, %xmm1
	movq	%rdx, %rcx
	call	*%rax
.LVL14:
	movapd	%xmm0, %xmm1
	.loc 8 356 62 discriminator 1
	movq	712(%rbp), %rax
	movsd	256(%rax), %xmm0
	.loc 8 356 61 discriminator 1
	mulsd	%xmm0, %xmm1
	.loc 8 356 65 discriminator 1
	movq	712(%rbp), %rax
	movsd	248(%rax), %xmm0
	.loc 8 356 63 discriminator 1
	mulsd	%xmm0, %xmm1
	.loc 8 356 76 discriminator 1
	movq	712(%rbp), %rax
	movsd	248(%rax), %xmm0
	.loc 8 356 74 discriminator 1
	mulsd	%xmm1, %xmm0
	.loc 8 356 85 discriminator 1
	movapd	%xmm0, %xmm6
	mulsd	608(%rbp), %xmm6
	.loc 8 356 112 discriminator 1
	movq	712(%rbp), %rax
	addq	$96, %rax
	movq	%rax, %rcx
	call	_ZN8Projetil5getIxEv
	.loc 8 356 97 discriminator 1
	addsd	%xmm0, %xmm0
	.loc 8 356 114 discriminator 1
	divsd	%xmm0, %xmm6
	movapd	%xmm6, %xmm0
	movsd	%xmm0, 224(%rbp)
	.loc 8 357 51 discriminator 1
	movsd	224(%rbp), %xmm0
	movapd	%xmm0, %xmm6
	mulsd	288(%rbp), %xmm6
	.loc 8 357 86 discriminator 1
	movq	712(%rbp), %rax
	addq	$744, %rax
	movsd	280(%rbp), %xmm0
	movapd	%xmm0, %xmm1
	movq	%rax, %rcx
	call	_ZN23CoeficienteAerodinamico8getValorEd
	.loc 8 357 93 discriminator 1
	mulsd	%xmm6, %xmm0
	movsd	%xmm0, 216(%rbp)
	.loc 8 358 51 discriminator 1
	movsd	224(%rbp), %xmm0
	movapd	%xmm0, %xmm6
	mulsd	272(%rbp), %xmm6
	.loc 8 358 86 discriminator 1
	movq	712(%rbp), %rax
	addq	$744, %rax
	movsd	264(%rbp), %xmm0
	movapd	%xmm0, %xmm1
	movq	%rax, %rcx
	call	_ZN23CoeficienteAerodinamico8getValorEd
	.loc 8 358 93 discriminator 1
	mulsd	%xmm6, %xmm0
	movsd	%xmm0, 208(%rbp)
	.loc 8 359 51 discriminator 1
	movsd	224(%rbp), %xmm0
	movapd	%xmm0, %xmm6
	mulsd	256(%rbp), %xmm6
	.loc 8 359 86 discriminator 1
	movq	712(%rbp), %rax
	addq	$744, %rax
	movsd	248(%rbp), %xmm0
	movapd	%xmm0, %xmm1
	movq	%rax, %rcx
	call	_ZN23CoeficienteAerodinamico8getValorEd
	.loc 8 359 93 discriminator 1
	mulsd	%xmm6, %xmm0
	movsd	%xmm0, 200(%rbp)
	.loc 8 360 51 discriminator 1
	movsd	224(%rbp), %xmm0
	movapd	%xmm0, %xmm6
	mulsd	240(%rbp), %xmm6
	.loc 8 360 86 discriminator 1
	movq	712(%rbp), %rax
	addq	$744, %rax
	movsd	232(%rbp), %xmm0
	movapd	%xmm0, %xmm1
	movq	%rax, %rcx
	call	_ZN23CoeficienteAerodinamico8getValorEd
	.loc 8 360 93 discriminator 1
	mulsd	%xmm6, %xmm0
	movsd	%xmm0, 192(%rbp)
	.loc 8 362 36 discriminator 1
	movsd	208(%rbp), %xmm0
	addsd	%xmm0, %xmm0
	.loc 8 362 33 discriminator 1
	movapd	%xmm0, %xmm1
	addsd	216(%rbp), %xmm1
	.loc 8 362 51 discriminator 1
	movsd	200(%rbp), %xmm0
	addsd	%xmm0, %xmm0
	.loc 8 362 48 discriminator 1
	addsd	%xmm1, %xmm0
	.loc 8 362 63 discriminator 1
	movapd	%xmm0, %xmm1
	addsd	192(%rbp), %xmm1
	.loc 8 362 79 discriminator 1
	movsd	88(%rbp), %xmm0
	movsd	.LC8(%rip), %xmm2
	divsd	%xmm2, %xmm0
	.loc 8 362 76 discriminator 1
	mulsd	%xmm1, %xmm0
	.loc 8 362 18 discriminator 1
	movsd	608(%rbp), %xmm1
	addsd	%xmm1, %xmm0
	movsd	%xmm0, 608(%rbp)
	.loc 8 365 12 discriminator 1
	movq	712(%rbp), %rax
	movsd	352(%rax), %xmm0
	addsd	600(%rbp), %xmm0
	movq	712(%rbp), %rax
	movsd	%xmm0, 352(%rax)
	.loc 8 366 12 discriminator 1
	movq	712(%rbp), %rax
	movsd	360(%rax), %xmm0
	addsd	592(%rbp), %xmm0
	movq	712(%rbp), %rax
	movsd	%xmm0, 360(%rax)
	.loc 8 367 12 discriminator 1
	movq	712(%rbp), %rax
	movsd	368(%rax), %xmm0
	addsd	584(%rbp), %xmm0
	movq	712(%rbp), %rax
	movsd	%xmm0, 368(%rax)
	.loc 8 370 12 discriminator 1
	movq	712(%rbp), %rax
	movsd	328(%rax), %xmm1
	.loc 8 370 24 discriminator 1
	movsd	376(%rbp), %xmm0
	addsd	%xmm0, %xmm0
	.loc 8 370 21 discriminator 1
	movapd	%xmm0, %xmm2
	addsd	384(%rbp), %xmm2
	.loc 8 370 33 discriminator 1
	movsd	368(%rbp), %xmm0
	addsd	%xmm0, %xmm0
	.loc 8 370 30 discriminator 1
	addsd	%xmm2, %xmm0
	.loc 8 370 39 discriminator 1
	movapd	%xmm0, %xmm2
	addsd	360(%rbp), %xmm2
	.loc 8 370 49 discriminator 1
	movsd	88(%rbp), %xmm0
	movsd	.LC8(%rip), %xmm3
	divsd	%xmm3, %xmm0
	.loc 8 370 46 discriminator 1
	mulsd	%xmm2, %xmm0
	.loc 8 370 12 discriminator 1
	addsd	%xmm1, %xmm0
	movq	712(%rbp), %rax
	movsd	%xmm0, 328(%rax)
	.loc 8 371 12 discriminator 1
	movq	712(%rbp), %rax
	movsd	336(%rax), %xmm1
	.loc 8 371 24 discriminator 1
	movsd	344(%rbp), %xmm0
	addsd	%xmm0, %xmm0
	.loc 8 371 21 discriminator 1
	movapd	%xmm0, %xmm2
	addsd	352(%rbp), %xmm2
	.loc 8 371 33 discriminator 1
	movsd	336(%rbp), %xmm0
	addsd	%xmm0, %xmm0
	.loc 8 371 30 discriminator 1
	addsd	%xmm2, %xmm0
	.loc 8 371 39 discriminator 1
	movapd	%xmm0, %xmm2
	addsd	328(%rbp), %xmm2
	.loc 8 371 49 discriminator 1
	movsd	88(%rbp), %xmm0
	movsd	.LC8(%rip), %xmm3
	divsd	%xmm3, %xmm0
	.loc 8 371 46 discriminator 1
	mulsd	%xmm2, %xmm0
	.loc 8 371 12 discriminator 1
	addsd	%xmm1, %xmm0
	movq	712(%rbp), %rax
	movsd	%xmm0, 336(%rax)
	.loc 8 372 12 discriminator 1
	movq	712(%rbp), %rax
	movsd	344(%rax), %xmm1
	.loc 8 372 24 discriminator 1
	movsd	312(%rbp), %xmm0
	addsd	%xmm0, %xmm0
	.loc 8 372 21 discriminator 1
	movapd	%xmm0, %xmm2
	addsd	320(%rbp), %xmm2
	.loc 8 372 33 discriminator 1
	movsd	304(%rbp), %xmm0
	addsd	%xmm0, %xmm0
	.loc 8 372 30 discriminator 1
	addsd	%xmm2, %xmm0
	.loc 8 372 39 discriminator 1
	movapd	%xmm0, %xmm2
	addsd	296(%rbp), %xmm2
	.loc 8 372 49 discriminator 1
	movsd	88(%rbp), %xmm0
	movsd	.LC8(%rip), %xmm3
	divsd	%xmm3, %xmm0
	.loc 8 372 46 discriminator 1
	mulsd	%xmm2, %xmm0
	.loc 8 372 12 discriminator 1
	addsd	%xmm1, %xmm0
	movq	712(%rbp), %rax
	movsd	%xmm0, 344(%rax)
	.loc 8 374 22 discriminator 1
	movq	712(%rbp), %rax
	movsd	336(%rax), %xmm1
	.loc 8 374 28 discriminator 1
	movq	712(%rbp), %rax
	movsd	328(%rax), %xmm2
	.loc 8 374 31 discriminator 1
	movq	712(%rbp), %rax
	movsd	328(%rax), %xmm0
	.loc 8 374 30 discriminator 1
	mulsd	%xmm0, %xmm2
	.loc 8 374 36 discriminator 1
	movq	712(%rbp), %rax
	movsd	344(%rax), %xmm3
	.loc 8 374 39 discriminator 1
	movq	712(%rbp), %rax
	movsd	344(%rax), %xmm0
	.loc 8 374 38 discriminator 1
	mulsd	%xmm3, %xmm0
	.loc 8 374 34 discriminator 1
	addsd	%xmm2, %xmm0
	.loc 8 374 42 discriminator 1
	movsd	.LC10(%rip), %xmm2
	divsd	%xmm2, %xmm0
	.loc 8 374 25 discriminator 1
	addsd	%xmm1, %xmm0
	.loc 8 374 20 discriminator 1
	movq	712(%rbp), %rax
	movsd	%xmm0, 400(%rax)
	.loc 8 377 15 discriminator 1
	movq	712(%rbp), %rax
	movsd	376(%rax), %xmm1
	movsd	88(%rbp), %xmm0
	addsd	%xmm1, %xmm0
	movq	712(%rbp), %rax
	movsd	%xmm0, 376(%rax)
	.loc 8 378 12 discriminator 1
	movq	712(%rbp), %rax
	movsd	360(%rax), %xmm1
	.loc 8 378 9 discriminator 1
	pxor	%xmm0, %xmm0
	comisd	%xmm1, %xmm0
	jbe	.L65
	.loc 8 378 23 discriminator 1
	movq	712(%rbp), %rax
	movzbl	392(%rax), %eax
	.loc 8 378 22 discriminator 1
	xorl	$1, %eax
	.loc 8 378 19 discriminator 1
	testb	%al, %al
	je	.L65
	.loc 8 380 19
	movq	712(%rbp), %rax
	movb	$1, 392(%rax)
	.loc 8 381 12
	cmpl	$0, 760(%rbp)
	jne	.L65
	.loc 8 382 32
	movq	712(%rbp), %rax
	movb	$1, 393(%rax)
.L65:
	.loc 8 388 11
	movq	712(%rbp), %rax
	movsd	384(%rax), %xmm0
	.loc 8 388 8
	movsd	.LC3(%rip), %xmm1
	comisd	%xmm1, %xmm0
	jbe	.L90
	.loc 8 390 17
	movq	712(%rbp), %rax
	movsd	56(%rax), %xmm2
	movq	712(%rbp), %rax
	movsd	336(%rax), %xmm1
	movq	712(%rbp), %rax
	movsd	328(%rax), %xmm0
	movq	%xmm2, %rax
	movq	%rax, %rdx
	movq	%rdx, %r8
	movq	%rax, %xmm2
	movq	%xmm1, %rax
	movq	%rax, %rdx
	movq	%rdx, %rcx
	movq	%rax, %xmm1
	movq	%xmm0, %rax
	movq	%rax, %rdx
	movq	%r8, %xmm3
	movq	%xmm2, %r9
	movq	%rcx, %xmm2
	movq	%xmm1, %r8
	movq	%rdx, %xmm1
	movq	%rax, %rdx
	leaq	.LC11(%rip), %rcx
	call	_ZL6printfPKcz
	.loc 8 391 27
	movq	712(%rbp), %rax
	movsd	376(%rax), %xmm5
	movq	712(%rbp), %rax
	movsd	384(%rax), %xmm4
	movq	712(%rbp), %rax
	movsd	368(%rax), %xmm3
	movq	712(%rbp), %rax
	movsd	360(%rax), %xmm2
	movq	712(%rbp), %rax
	movsd	352(%rax), %xmm1
	movq	712(%rbp), %rax
	movsd	344(%rax), %xmm0
	movq	712(%rbp), %rax
	movsd	336(%rax), %xmm8
	movq	712(%rbp), %rax
	movsd	328(%rax), %xmm7
	movsd	720(%rbp), %xmm6
	leaq	96(%rbp), %rax
	movsd	%xmm5, 72(%rsp)
	movsd	%xmm4, 64(%rsp)
	movsd	%xmm3, 56(%rsp)
	movsd	%xmm2, 48(%rsp)
	movsd	%xmm1, 40(%rsp)
	movsd	%xmm0, 32(%rsp)
	movapd	%xmm8, %xmm3
	movapd	%xmm7, %xmm2
	movapd	%xmm6, %xmm1
	movq	%rax, %rcx
	call	_ZN12ElementosVoo3setEddddddddd
	.loc 8 392 32
	movq	712(%rbp), %rax
	movsd	384(%rax), %xmm0
	leaq	96(%rbp), %rax
	movapd	%xmm0, %xmm1
	movq	%rax, %rcx
	call	_ZN12ElementosVoo8setArMaxEd
	.loc 8 393 36
	movq	712(%rbp), %rax
	movsd	408(%rax), %xmm0
	leaq	96(%rbp), %rax
	movapd	%xmm0, %xmm1
	movq	%rax, %rcx
	call	_ZN12ElementosVoo12setAlturaMaxEd
	.loc 8 394 39
	movq	712(%rbp), %rax
	leaq	304(%rax), %rcx
	leaq	96(%rbp), %rax
	movq	%rax, %rdx
	call	_ZNSt6vectorI12ElementosVooSaIS0_EE9push_backERKS0_
	.loc 8 395 18
	movq	712(%rbp), %rax
	addq	$304, %rax
	movq	%rax, %rdx
	movq	704(%rbp), %rcx
	call	_ZNSt6vectorI12ElementosVooSaIS0_EEC1ERKS2_
	jmp	.L69
.L90:
	.loc 8 397 11
	movq	712(%rbp), %rax
	movsd	384(%rax), %xmm0
	.loc 8 397 22
	movq	712(%rbp), %rax
	movsd	416(%rax), %xmm1
	.loc 8 397 8
	comisd	%xmm1, %xmm0
	jbe	.L70
	.loc 8 398 21
	movq	712(%rbp), %rax
	movsd	384(%rax), %xmm0
	.loc 8 398 19
	movq	712(%rbp), %rax
	movsd	%xmm0, 416(%rax)
.L70:
	.loc 8 401 11
	movq	712(%rbp), %rax
	movsd	400(%rax), %xmm0
	.loc 8 401 24
	movq	712(%rbp), %rax
	movsd	408(%rax), %xmm1
	.loc 8 401 8
	comisd	%xmm1, %xmm0
	jbe	.L72
	.loc 8 401 49 discriminator 1
	movq	712(%rbp), %rax
	movsd	400(%rax), %xmm0
	.loc 8 401 47 discriminator 1
	movq	712(%rbp), %rax
	movsd	%xmm0, 408(%rax)
.L72:
.LBB13:
	.loc 8 405 8
	cmpb	$0, -20(%rbp)
	jne	.L74
	.loc 8 405 47 discriminator 1
	movq	712(%rbp), %rax
	movzbl	393(%rax), %eax
	.loc 8 405 44 discriminator 1
	testb	%al, %al
	je	.L75
.L74:
.LBB14:
	.loc 8 407 25
	leaq	-16(%rbp), %rax
	movq	%rax, %rcx
	call	_ZN12ElementosVooC1Ev
.LEHE12:
	.loc 8 408 24
	movq	712(%rbp), %rax
	movl	72(%rax), %eax
	movl	%eax, %ecx
	.loc 8 408 23
	movl	620(%rbp), %eax
	movl	$0, %edx
	divl	%ecx
	movl	%edx, %eax
	.loc 8 408 12
	testl	%eax, %eax
	je	.L76
	.loc 8 408 50 discriminator 1
	movq	712(%rbp), %rax
	movzbl	393(%rax), %eax
	.loc 8 408 47 discriminator 1
	testb	%al, %al
	je	.L77
.L76:
	.loc 8 410 32
	movq	712(%rbp), %rax
	movsd	376(%rax), %xmm5
	movq	712(%rbp), %rax
	movsd	384(%rax), %xmm4
	movq	712(%rbp), %rax
	movsd	368(%rax), %xmm3
	movq	712(%rbp), %rax
	movsd	360(%rax), %xmm2
	movq	712(%rbp), %rax
	movsd	352(%rax), %xmm1
	movq	712(%rbp), %rax
	movsd	344(%rax), %xmm0
	movq	712(%rbp), %rax
	movsd	400(%rax), %xmm8
	movq	712(%rbp), %rax
	movsd	328(%rax), %xmm7
	movsd	720(%rbp), %xmm6
	leaq	-16(%rbp), %rax
	movsd	%xmm5, 72(%rsp)
	movsd	%xmm4, 64(%rsp)
	movsd	%xmm3, 56(%rsp)
	movsd	%xmm2, 48(%rsp)
	movsd	%xmm1, 40(%rsp)
	movsd	%xmm0, 32(%rsp)
	movapd	%xmm8, %xmm3
	movapd	%xmm7, %xmm2
	movapd	%xmm6, %xmm1
	movq	%rax, %rcx
.LEHB13:
	call	_ZN12ElementosVoo3setEddddddddd
	.loc 8 411 19
	movq	712(%rbp), %rax
	movzbl	393(%rax), %eax
	.loc 8 411 16
	testb	%al, %al
	je	.L78
	.loc 8 413 30
	movq	712(%rbp), %rax
	movb	$1, 394(%rax)
	.loc 8 414 41
	movq	712(%rbp), %rax
	movsd	416(%rax), %xmm0
	leaq	-16(%rbp), %rax
	movapd	%xmm0, %xmm1
	movq	%rax, %rcx
	call	_ZN12ElementosVoo8setArMaxEd
	.loc 8 415 45
	movq	712(%rbp), %rax
	movsd	408(%rax), %xmm0
	leaq	-16(%rbp), %rax
	movapd	%xmm0, %xmm1
	movq	%rax, %rcx
	call	_ZN12ElementosVoo12setAlturaMaxEd
.L78:
	.loc 8 417 44
	movq	712(%rbp), %rax
	leaq	304(%rax), %rcx
	leaq	-16(%rbp), %rax
	movq	%rax, %rdx
	call	_ZNSt6vectorI12ElementosVooSaIS0_EE9push_backERKS0_
.LEHE13:
.L77:
	.loc 8 419 20
	addl	$1, 620(%rbp)
	.loc 8 407 25
	leaq	-16(%rbp), %rax
	movq	%rax, %rcx
	call	_ZN12ElementosVooD1Ev
.L75:
.LBE14:
.LBE13:
	.loc 8 423 30
	movq	712(%rbp), %rdx
	movzbl	-20(%rbp), %ecx
	movsd	736(%rbp), %xmm1
	movsd	720(%rbp), %xmm0
	movl	760(%rbp), %eax
	movl	%eax, 40(%rsp)
	leaq	88(%rbp), %rax
	movq	%rax, 32(%rsp)
	movl	%ecx, %r9d
	movapd	%xmm1, %xmm2
	movapd	%xmm0, %xmm1
	movq	%rdx, %rcx
.LEHB14:
	call	_ZN21CalculadorAtmosferico21checaCondicaoDeParadaEddbRd4RAMO
.LBE12:
	.loc 8 426 13
	movq	712(%rbp), %rax
	movzbl	394(%rax), %eax
	.loc 8 426 12
	testb	%al, %al
	jne	.L79
	.loc 8 281 5
	jmp	.L80
.L79:
	.loc 8 428 12
	movq	712(%rbp), %rax
	addq	$304, %rax
	movq	%rax, %rdx
	movq	704(%rbp), %rcx
	call	_ZNSt6vectorI12ElementosVooSaIS0_EEC1ERKS2_
.LEHE14:
.L69:
	.loc 8 265 18
	leaq	96(%rbp), %rax
	movq	%rax, %rcx
	call	_ZN12ElementosVooD1Ev
	jmp	.L91
.L85:
	movq	%rax, %rbx
.LBB17:
.LBB16:
.LBB15:
	.loc 8 407 25
	leaq	-16(%rbp), %rax
	movq	%rax, %rcx
	call	_ZN12ElementosVooD1Ev
	jmp	.L83
.L84:
	movq	%rax, %rbx
.L83:
.LBE15:
.LBE16:
.LBE17:
	.loc 8 265 18
	leaq	96(%rbp), %rax
	movq	%rax, %rcx
	call	_ZN12ElementosVooD1Ev
	movq	%rbx, %rax
	movq	%rax, %rcx
.LEHB15:
	call	_Unwind_Resume
.LEHE15:
.L91:
	.loc 8 429 1
	movq	704(%rbp), %rax
	movaps	624(%rbp), %xmm6
	movaps	640(%rbp), %xmm7
	movaps	656(%rbp), %xmm8
	addq	$808, %rsp
	.cfi_restore 25
	.cfi_restore 24
	.cfi_restore 23
	popq	%rbx
	.cfi_restore 3
	popq	%rbp
	.cfi_restore 6
	.cfi_def_cfa 7, -792
	ret
	.cfi_endproc
.LFE2665:
	.seh_handler	__gxx_personality_seh0, @unwind, @except
	.seh_handlerdata
.LLSDA2665:
	.byte	0xff
	.byte	0xff
	.byte	0x1
	.uleb128 .LLSDACSE2665-.LLSDACSB2665
.LLSDACSB2665:
	.uleb128 .LEHB11-.LFB2665
	.uleb128 .LEHE11-.LEHB11
	.uleb128 0
	.uleb128 0
	.uleb128 .LEHB12-.LFB2665
	.uleb128 .LEHE12-.LEHB12
	.uleb128 .L84-.LFB2665
	.uleb128 0
	.uleb128 .LEHB13-.LFB2665
	.uleb128 .LEHE13-.LEHB13
	.uleb128 .L85-.LFB2665
	.uleb128 0
	.uleb128 .LEHB14-.LFB2665
	.uleb128 .LEHE14-.LEHB14
	.uleb128 .L84-.LFB2665
	.uleb128 0
	.uleb128 .LEHB15-.LFB2665
	.uleb128 .LEHE15-.LEHB15
	.uleb128 0
	.uleb128 0
.LLSDACSE2665:
	.text
	.seh_endproc
	.align 2
	.globl	_ZN30CalculadorPontoMassaModificado11setProjetilE8Projetil
	.def	_ZN30CalculadorPontoMassaModificado11setProjetilE8Projetil;	.scl	2;	.type	32;	.endef
	.seh_proc	_ZN30CalculadorPontoMassaModificado11setProjetilE8Projetil
_ZN30CalculadorPontoMassaModificado11setProjetilE8Projetil:
.LFB2666:
	.loc 8 433 1
	.cfi_startproc
	pushq	%rbp
	.seh_pushreg	%rbp
	.cfi_def_cfa_offset 16
	.cfi_offset 6, -16
	pushq	%rbx
	.seh_pushreg	%rbx
	.cfi_def_cfa_offset 24
	.cfi_offset 3, -24
	subq	$504, %rsp
	.seh_stackalloc	504
	.cfi_def_cfa_offset 528
	leaq	128(%rsp), %rbp
	.seh_setframe	%rbp, 128
	.cfi_def_cfa 6, 400
	.seh_endprologue
	movq	%rcx, 400(%rbp)
	movq	%rdx, 408(%rbp)
	.loc 8 435 38
	movq	400(%rbp), %rbx
	movq	408(%rbp), %rdx
	leaq	-96(%rbp), %rax
	movq	%rax, %rcx
.LEHB16:
	call	_ZN8ProjetilC1ERKS_
.LEHE16:
	leaq	-96(%rbp), %rax
	movq	%rax, %rdx
	movq	%rbx, %rcx
.LEHB17:
	call	_ZN20CalculadorPontoMassa11setProjetilE8Projetil
.LEHE17:
	.loc 8 435 38 is_stmt 0 discriminator 2
	leaq	-96(%rbp), %rax
	movq	%rax, %rcx
	call	_ZN8ProjetilD1Ev
.LEHB18:
	.loc 8 436 60 is_stmt 1 discriminator 2
	call	_ZN15CoeficientesDAO11getInstanceEv
	movq	%rax, 360(%rbp)
	.loc 8 437 25 discriminator 2
	movq	408(%rbp), %rax
	movq	%rax, %rcx
	call	_ZN8Projetil7getTipoEv
	movl	%eax, %edx
	movq	360(%rbp), %rax
	movq	%rax, %rcx
	call	_ZN15CoeficientesDAO11setProjetilE13TIPO_PROJETIL
	.loc 8 438 29 discriminator 2
	movq	400(%rbp), %rax
	leaq	488(%rax), %rcx
	leaq	32(%rbp), %rax
	movq	360(%rbp), %rdx
	movq	%rcx, %r8
	movq	%rax, %rcx
	call	_ZN15CoeficientesDAO15geraCoeficienteER23CoeficienteAerodinamico
	leaq	32(%rbp), %rax
	movq	%rax, %rcx
	call	_ZN23CoeficienteAerodinamicoD1Ev
	.loc 8 439 29 discriminator 2
	movq	400(%rbp), %rax
	leaq	552(%rax), %rcx
	leaq	96(%rbp), %rax
	movq	360(%rbp), %rdx
	movq	%rcx, %r8
	movq	%rax, %rcx
	call	_ZN15CoeficientesDAO15geraCoeficienteER23CoeficienteAerodinamico
	leaq	96(%rbp), %rax
	movq	%rax, %rcx
	call	_ZN23CoeficienteAerodinamicoD1Ev
	.loc 8 440 29 discriminator 2
	movq	400(%rbp), %rax
	leaq	616(%rax), %rcx
	leaq	160(%rbp), %rax
	movq	360(%rbp), %rdx
	movq	%rcx, %r8
	movq	%rax, %rcx
	call	_ZN15CoeficientesDAO15geraCoeficienteER23CoeficienteAerodinamico
	leaq	160(%rbp), %rax
	movq	%rax, %rcx
	call	_ZN23CoeficienteAerodinamicoD1Ev
	.loc 8 441 29 discriminator 2
	movq	400(%rbp), %rax
	leaq	680(%rax), %rcx
	leaq	224(%rbp), %rax
	movq	360(%rbp), %rdx
	movq	%rcx, %r8
	movq	%rax, %rcx
	call	_ZN15CoeficientesDAO15geraCoeficienteER23CoeficienteAerodinamico
	leaq	224(%rbp), %rax
	movq	%rax, %rcx
	call	_ZN23CoeficienteAerodinamicoD1Ev
	.loc 8 443 29 discriminator 2
	movq	400(%rbp), %rax
	leaq	744(%rax), %rcx
	leaq	288(%rbp), %rax
	movq	360(%rbp), %rdx
	movq	%rcx, %r8
	movq	%rax, %rcx
	call	_ZN15CoeficientesDAO15geraCoeficienteER23CoeficienteAerodinamico
	leaq	288(%rbp), %rax
	movq	%rax, %rcx
	call	_ZN23CoeficienteAerodinamicoD1Ev
	.loc 8 446 1 discriminator 2
	jmp	.L95
.L94:
	movq	%rax, %rbx
	.loc 8 435 38
	leaq	-96(%rbp), %rax
	movq	%rax, %rcx
	call	_ZN8ProjetilD1Ev
	movq	%rbx, %rax
	movq	%rax, %rcx
	call	_Unwind_Resume
	nop
.LEHE18:
.L95:
	.loc 8 446 1
	addq	$504, %rsp
	popq	%rbx
	.cfi_restore 3
	popq	%rbp
	.cfi_restore 6
	.cfi_def_cfa 7, -488
	ret
	.cfi_endproc
.LFE2666:
	.seh_handler	__gxx_personality_seh0, @unwind, @except
	.seh_handlerdata
.LLSDA2666:
	.byte	0xff
	.byte	0xff
	.byte	0x1
	.uleb128 .LLSDACSE2666-.LLSDACSB2666
.LLSDACSB2666:
	.uleb128 .LEHB16-.LFB2666
	.uleb128 .LEHE16-.LEHB16
	.uleb128 0
	.uleb128 0
	.uleb128 .LEHB17-.LFB2666
	.uleb128 .LEHE17-.LEHB17
	.uleb128 .L94-.LFB2666
	.uleb128 0
	.uleb128 .LEHB18-.LFB2666
	.uleb128 .LEHE18-.LEHB18
	.uleb128 0
	.uleb128 0
.LLSDACSE2666:
	.text
	.seh_endproc
	.align 2
	.globl	_ZN30CalculadorPontoMassaModificado14solucaoReversaEddd15TIPO_TRAJETORIAddd4RAMO
	.def	_ZN30CalculadorPontoMassaModificado14solucaoReversaEddd15TIPO_TRAJETORIAddd4RAMO;	.scl	2;	.type	32;	.endef
	.seh_proc	_ZN30CalculadorPontoMassaModificado14solucaoReversaEddd15TIPO_TRAJETORIAddd4RAMO
_ZN30CalculadorPontoMassaModificado14solucaoReversaEddd15TIPO_TRAJETORIAddd4RAMO:
.LFB2667:
	.loc 8 449 1
	.cfi_startproc
	pushq	%rbp
	.seh_pushreg	%rbp
	.cfi_def_cfa_offset 16
	.cfi_offset 6, -16
	movq	%rsp, %rbp
	.seh_setframe	%rbp, 0
	.cfi_def_cfa_register 6
	subq	$80, %rsp
	.seh_stackalloc	80
	.seh_endprologue
	movq	%rcx, 16(%rbp)
	movq	%rdx, 24(%rbp)
	movsd	%xmm2, 32(%rbp)
	movsd	%xmm3, 40(%rbp)
	.loc 8 450 121
	movq	24(%rbp), %rdx
	movq	16(%rbp), %rax
	movsd	40(%rbp), %xmm2
	movsd	32(%rbp), %xmm1
	movl	88(%rbp), %ecx
	movl	%ecx, 72(%rsp)
	movsd	80(%rbp), %xmm0
	movsd	%xmm0, 64(%rsp)
	movsd	72(%rbp), %xmm0
	movsd	%xmm0, 56(%rsp)
	movsd	64(%rbp), %xmm0
	movsd	%xmm0, 48(%rsp)
	movl	56(%rbp), %ecx
	movl	%ecx, 40(%rsp)
	movsd	48(%rbp), %xmm0
	movsd	%xmm0, 32(%rsp)
	movapd	%xmm2, %xmm3
	movapd	%xmm1, %xmm2
	movq	%rax, %rcx
	call	_ZN21CalculadorAtmosferico14solucaoReversaEddd15TIPO_TRAJETORIAddd4RAMO
	.loc 8 454 1
	movq	16(%rbp), %rax
	addq	$80, %rsp
	popq	%rbp
	.cfi_restore 6
	.cfi_def_cfa 7, 8
	ret
	.cfi_endproc
.LFE2667:
	.seh_endproc
	.section	.text$_ZNSt6vectorI12ElementosVooSaIS0_EED1Ev,"x"
	.linkonce discard
	.align 2
	.globl	_ZNSt6vectorI12ElementosVooSaIS0_EED1Ev
	.def	_ZNSt6vectorI12ElementosVooSaIS0_EED1Ev;	.scl	2;	.type	32;	.endef
	.seh_proc	_ZNSt6vectorI12ElementosVooSaIS0_EED1Ev
_ZNSt6vectorI12ElementosVooSaIS0_EED1Ev:
.LFB2893:
	.file 10 "C:/Program Files/CodeBlocks/MinGW/lib/gcc/x86_64-w64-mingw32/8.1.0/include/c++/bits/stl_vector.h"
	.loc 10 565 7
	.cfi_startproc
	pushq	%rbp
	.seh_pushreg	%rbp
	.cfi_def_cfa_offset 16
	.cfi_offset 6, -16
	movq	%rsp, %rbp
	.seh_setframe	%rbp, 0
	.cfi_def_cfa_register 6
	subq	$32, %rsp
	.seh_stackalloc	32
	.seh_endprologue
	movq	%rcx, 16(%rbp)
.LBB18:
	.loc 10 568 28
	movq	16(%rbp), %rax
	movq	%rax, %rcx
	call	_ZNSt12_Vector_baseI12ElementosVooSaIS0_EE19_M_get_Tp_allocatorEv
	movq	%rax, %rcx
	.loc 10 567 15
	movq	16(%rbp), %rax
	movq	8(%rax), %rdx
	movq	16(%rbp), %rax
	movq	(%rax), %rax
	movq	%rcx, %r8
	movq	%rax, %rcx
	call	_ZSt8_DestroyIP12ElementosVooS0_EvT_S2_RSaIT0_E
	.loc 10 570 7
	movq	16(%rbp), %rax
	movq	%rax, %rcx
	call	_ZNSt12_Vector_baseI12ElementosVooSaIS0_EED2Ev
.LBE18:
	nop
	addq	$32, %rsp
	popq	%rbp
	.cfi_restore 6
	.cfi_def_cfa 7, 8
	ret
	.cfi_endproc
.LFE2893:
	.seh_handler	__gxx_personality_seh0, @unwind, @except
	.seh_handlerdata
.LLSDA2893:
	.byte	0xff
	.byte	0xff
	.byte	0x1
	.uleb128 .LLSDACSE2893-.LLSDACSB2893
.LLSDACSB2893:
.LLSDACSE2893:
	.section	.text$_ZNSt6vectorI12ElementosVooSaIS0_EED1Ev,"x"
	.linkonce discard
	.seh_endproc
	.section	.text$_ZNSt6vectorI12ElementosVooSaIS0_EE5clearEv,"x"
	.linkonce discard
	.align 2
	.globl	_ZNSt6vectorI12ElementosVooSaIS0_EE5clearEv
	.def	_ZNSt6vectorI12ElementosVooSaIS0_EE5clearEv;	.scl	2;	.type	32;	.endef
	.seh_proc	_ZNSt6vectorI12ElementosVooSaIS0_EE5clearEv
_ZNSt6vectorI12ElementosVooSaIS0_EE5clearEv:
.LFB2894:
	.loc 10 1385 7
	.cfi_startproc
	pushq	%rbp
	.seh_pushreg	%rbp
	.cfi_def_cfa_offset 16
	.cfi_offset 6, -16
	movq	%rsp, %rbp
	.seh_setframe	%rbp, 0
	.cfi_def_cfa_register 6
	subq	$32, %rsp
	.seh_stackalloc	32
	.seh_endprologue
	movq	%rcx, 16(%rbp)
	.loc 10 1386 9
	movq	16(%rbp), %rax
	movq	(%rax), %rax
	movq	%rax, %rdx
	movq	16(%rbp), %rcx
	call	_ZNSt6vectorI12ElementosVooSaIS0_EE15_M_erase_at_endEPS0_
	.loc 10 1386 50
	nop
	addq	$32, %rsp
	popq	%rbp
	.cfi_restore 6
	.cfi_def_cfa 7, 8
	ret
	.cfi_endproc
.LFE2894:
	.seh_endproc
	.section	.text$_ZNSt6vectorI12ElementosVooSaIS0_EE9push_backERKS0_,"x"
	.linkonce discard
	.align 2
	.globl	_ZNSt6vectorI12ElementosVooSaIS0_EE9push_backERKS0_
	.def	_ZNSt6vectorI12ElementosVooSaIS0_EE9push_backERKS0_;	.scl	2;	.type	32;	.endef
	.seh_proc	_ZNSt6vectorI12ElementosVooSaIS0_EE9push_backERKS0_
_ZNSt6vectorI12ElementosVooSaIS0_EE9push_backERKS0_:
.LFB2895:
	.loc 10 1074 7
	.cfi_startproc
	pushq	%rbp
	.seh_pushreg	%rbp
	.cfi_def_cfa_offset 16
	.cfi_offset 6, -16
	movq	%rsp, %rbp
	.seh_setframe	%rbp, 0
	.cfi_def_cfa_register 6
	subq	$32, %rsp
	.seh_stackalloc	32
	.seh_endprologue
	movq	%rcx, 16(%rbp)
	movq	%rdx, 24(%rbp)
	.loc 10 1076 20
	movq	16(%rbp), %rax
	movq	8(%rax), %rdx
	.loc 10 1076 47
	movq	16(%rbp), %rax
	movq	16(%rax), %rax
	.loc 10 1076 2
	cmpq	%rax, %rdx
	je	.L101
	.loc 10 1079 30
	movq	16(%rbp), %rax
	movq	8(%rax), %rdx
	.loc 10 1079 37
	movq	16(%rbp), %rax
	.loc 10 1079 30
	movq	24(%rbp), %rcx
	movq	%rcx, %r8
	movq	%rax, %rcx
	call	_ZNSt16allocator_traitsISaI12ElementosVooEE9constructIS0_JRKS0_EEEvRS1_PT_DpOT0_
	.loc 10 1081 22
	movq	16(%rbp), %rax
	movq	8(%rax), %rax
	.loc 10 1081 6
	leaq	96(%rax), %rdx
	movq	16(%rbp), %rax
	movq	%rdx, 8(%rax)
	.loc 10 1086 7
	jmp	.L103
.L101:
	.loc 10 1085 4
	movq	16(%rbp), %rcx
	call	_ZNSt6vectorI12ElementosVooSaIS0_EE3endEv
	movq	%rax, %rdx
	movq	24(%rbp), %rax
	movq	%rax, %r8
	movq	16(%rbp), %rcx
	call	_ZNSt6vectorI12ElementosVooSaIS0_EE17_M_realloc_insertIJRKS0_EEEvN9__gnu_cxx17__normal_iteratorIPS0_S2_EEDpOT_
.L103:
	.loc 10 1086 7
	nop
	addq	$32, %rsp
	popq	%rbp
	.cfi_restore 6
	.cfi_def_cfa 7, 8
	ret
	.cfi_endproc
.LFE2895:
	.seh_endproc
	.section	.text$_ZNSt6vectorI12ElementosVooSaIS0_EEC1ERKS2_,"x"
	.linkonce discard
	.align 2
	.globl	_ZNSt6vectorI12ElementosVooSaIS0_EEC1ERKS2_
	.def	_ZNSt6vectorI12ElementosVooSaIS0_EEC1ERKS2_;	.scl	2;	.type	32;	.endef
	.seh_proc	_ZNSt6vectorI12ElementosVooSaIS0_EEC1ERKS2_
_ZNSt6vectorI12ElementosVooSaIS0_EEC1ERKS2_:
.LFB2898:
	.loc 10 458 7
	.cfi_startproc
	pushq	%rbp
	.seh_pushreg	%rbp
	.cfi_def_cfa_offset 16
	.cfi_offset 6, -16
	pushq	%rdi
	.seh_pushreg	%rdi
	.cfi_def_cfa_offset 24
	.cfi_offset 5, -24
	pushq	%rsi
	.seh_pushreg	%rsi
	.cfi_def_cfa_offset 32
	.cfi_offset 4, -32
	pushq	%rbx
	.seh_pushreg	%rbx
	.cfi_def_cfa_offset 40
	.cfi_offset 3, -40
	subq	$56, %rsp
	.seh_stackalloc	56
	.cfi_def_cfa_offset 96
	leaq	128(%rsp), %rbp
	.seh_setframe	%rbp, 128
	.cfi_def_cfa 6, -32
	.seh_endprologue
	movq	%rcx, -32(%rbp)
	movq	%rdx, -24(%rbp)
.LBB19:
	.loc 10 460 61
	movq	-32(%rbp), %rbx
	.loc 10 460 34
	movq	-24(%rbp), %rax
	movq	%rax, %rcx
	call	_ZNKSt12_Vector_baseI12ElementosVooSaIS0_EE19_M_get_Tp_allocatorEv
	movq	%rax, %rdx
	.loc 10 460 61
	leaq	-81(%rbp), %rax
	movq	%rax, %rcx
.LEHB19:
	call	_ZN9__gnu_cxx14__alloc_traitsISaI12ElementosVooES1_E17_S_select_on_copyERKS2_
.LEHE19:
	movq	-24(%rbp), %rax
	movq	%rax, %rcx
	call	_ZNKSt6vectorI12ElementosVooSaIS0_EE4sizeEv
	movq	%rax, %rdx
	leaq	-81(%rbp), %rax
	movq	%rax, %r8
	movq	%rbx, %rcx
.LEHB20:
	call	_ZNSt12_Vector_baseI12ElementosVooSaIS0_EEC2EyRKS1_
.LEHE20:
	.loc 10 460 61 is_stmt 0 discriminator 2
	leaq	-81(%rbp), %rax
	movq	%rax, %rcx
	call	_ZNSaI12ElementosVooED1Ev
	.loc 10 465 30 is_stmt 1 discriminator 2
	movq	-32(%rbp), %rax
	movq	%rax, %rcx
	call	_ZNSt12_Vector_baseI12ElementosVooSaIS0_EE19_M_get_Tp_allocatorEv
	movq	%rax, %rdi
	.loc 10 463 31 discriminator 2
	movq	-32(%rbp), %rax
	movq	(%rax), %rbx
	movq	-24(%rbp), %rax
	movq	%rax, %rcx
	call	_ZNKSt6vectorI12ElementosVooSaIS0_EE3endEv
	movq	%rax, %rsi
	movq	-24(%rbp), %rax
	movq	%rax, %rcx
	call	_ZNKSt6vectorI12ElementosVooSaIS0_EE5beginEv
	movq	%rdi, %r9
	movq	%rbx, %r8
	movq	%rsi, %rdx
	movq	%rax, %rcx
.LEHB21:
	call	_ZSt22__uninitialized_copy_aIN9__gnu_cxx17__normal_iteratorIPK12ElementosVooSt6vectorIS2_SaIS2_EEEEPS2_S2_ET0_T_SB_SA_RSaIT1_E
.LEHE21:
	movq	%rax, %rdx
	.loc 10 462 2 discriminator 2
	movq	-32(%rbp), %rax
	movq	%rdx, 8(%rax)
.LBE19:
	.loc 10 466 7 discriminator 2
	jmp	.L109
.L107:
	movq	%rax, %rbx
.LBB20:
	.loc 10 460 61
	leaq	-81(%rbp), %rax
	movq	%rax, %rcx
	call	_ZNSaI12ElementosVooED1Ev
	movq	%rbx, %rax
	movq	%rax, %rcx
.LEHB22:
	call	_Unwind_Resume
.L108:
	movq	%rax, %rbx
	movq	-32(%rbp), %rax
	movq	%rax, %rcx
	call	_ZNSt12_Vector_baseI12ElementosVooSaIS0_EED2Ev
	movq	%rbx, %rax
	movq	%rax, %rcx
	call	_Unwind_Resume
	nop
.LEHE22:
.L109:
.LBE20:
	.loc 10 466 7
	addq	$56, %rsp
	popq	%rbx
	.cfi_restore 3
	popq	%rsi
	.cfi_restore 4
	popq	%rdi
	.cfi_restore 5
	popq	%rbp
	.cfi_restore 6
	.cfi_def_cfa 7, -24
	ret
	.cfi_endproc
.LFE2898:
	.seh_handler	__gxx_personality_seh0, @unwind, @except
	.seh_handlerdata
.LLSDA2898:
	.byte	0xff
	.byte	0xff
	.byte	0x1
	.uleb128 .LLSDACSE2898-.LLSDACSB2898
.LLSDACSB2898:
	.uleb128 .LEHB19-.LFB2898
	.uleb128 .LEHE19-.LEHB19
	.uleb128 0
	.uleb128 0
	.uleb128 .LEHB20-.LFB2898
	.uleb128 .LEHE20-.LEHB20
	.uleb128 .L107-.LFB2898
	.uleb128 0
	.uleb128 .LEHB21-.LFB2898
	.uleb128 .LEHE21-.LEHB21
	.uleb128 .L108-.LFB2898
	.uleb128 0
	.uleb128 .LEHB22-.LFB2898
	.uleb128 .LEHE22-.LEHB22
	.uleb128 0
	.uleb128 0
.LLSDACSE2898:
	.section	.text$_ZNSt6vectorI12ElementosVooSaIS0_EEC1ERKS2_,"x"
	.linkonce discard
	.seh_endproc
	.section	.text$_ZNSt12_Vector_baseI12ElementosVooSaIS0_EE12_Vector_implD1Ev,"x"
	.linkonce discard
	.align 2
	.globl	_ZNSt12_Vector_baseI12ElementosVooSaIS0_EE12_Vector_implD1Ev
	.def	_ZNSt12_Vector_baseI12ElementosVooSaIS0_EE12_Vector_implD1Ev;	.scl	2;	.type	32;	.endef
	.seh_proc	_ZNSt12_Vector_baseI12ElementosVooSaIS0_EE12_Vector_implD1Ev
_ZNSt12_Vector_baseI12ElementosVooSaIS0_EE12_Vector_implD1Ev:
.LFB3010:
	.loc 10 88 14
	.cfi_startproc
	pushq	%rbp
	.seh_pushreg	%rbp
	.cfi_def_cfa_offset 16
	.cfi_offset 6, -16
	movq	%rsp, %rbp
	.seh_setframe	%rbp, 0
	.cfi_def_cfa_register 6
	subq	$32, %rsp
	.seh_stackalloc	32
	.seh_endprologue
	movq	%rcx, 16(%rbp)
.LBB21:
	.loc 10 88 14
	movq	16(%rbp), %rcx
	call	_ZNSaI12ElementosVooED2Ev
.LBE21:
	nop
	addq	$32, %rsp
	popq	%rbp
	.cfi_restore 6
	.cfi_def_cfa 7, 8
	ret
	.cfi_endproc
.LFE3010:
	.seh_endproc
	.section	.text$_ZNSt12_Vector_baseI12ElementosVooSaIS0_EED2Ev,"x"
	.linkonce discard
	.align 2
	.globl	_ZNSt12_Vector_baseI12ElementosVooSaIS0_EED2Ev
	.def	_ZNSt12_Vector_baseI12ElementosVooSaIS0_EED2Ev;	.scl	2;	.type	32;	.endef
	.seh_proc	_ZNSt12_Vector_baseI12ElementosVooSaIS0_EED2Ev
_ZNSt12_Vector_baseI12ElementosVooSaIS0_EED2Ev:
.LFB3011:
	.loc 10 283 7
	.cfi_startproc
	pushq	%rbp
	.seh_pushreg	%rbp
	.cfi_def_cfa_offset 16
	.cfi_offset 6, -16
	movq	%rsp, %rbp
	.seh_setframe	%rbp, 0
	.cfi_def_cfa_register 6
	subq	$32, %rsp
	.seh_stackalloc	32
	.seh_endprologue
	movq	%rcx, 16(%rbp)
.LBB22:
	.loc 10 286 17
	movq	16(%rbp), %rax
	movq	16(%rax), %rdx
	.loc 10 286 45
	movq	16(%rbp), %rax
	movq	(%rax), %rax
	.loc 10 286 35
	subq	%rax, %rdx
	movq	%rdx, %rax
	sarq	$5, %rax
	movq	%rax, %rdx
	movabsq	$-6148914691236517205, %rax
	imulq	%rdx, %rax
	.loc 10 285 2
	movq	%rax, %rdx
	movq	16(%rbp), %rax
	movq	(%rax), %rax
	movq	%rdx, %r8
	movq	%rax, %rdx
	movq	16(%rbp), %rcx
	call	_ZNSt12_Vector_baseI12ElementosVooSaIS0_EE13_M_deallocateEPS0_y
	.loc 10 287 7
	movq	16(%rbp), %rax
	movq	%rax, %rcx
	call	_ZNSt12_Vector_baseI12ElementosVooSaIS0_EE12_Vector_implD1Ev
.LBE22:
	nop
	addq	$32, %rsp
	popq	%rbp
	.cfi_restore 6
	.cfi_def_cfa 7, 8
	ret
	.cfi_endproc
.LFE3011:
	.seh_handler	__gxx_personality_seh0, @unwind, @except
	.seh_handlerdata
.LLSDA3011:
	.byte	0xff
	.byte	0xff
	.byte	0x1
	.uleb128 .LLSDACSE3011-.LLSDACSB3011
.LLSDACSB3011:
.LLSDACSE3011:
	.section	.text$_ZNSt12_Vector_baseI12ElementosVooSaIS0_EED2Ev,"x"
	.linkonce discard
	.seh_endproc
	.section	.text$_ZNSt12_Vector_baseI12ElementosVooSaIS0_EE19_M_get_Tp_allocatorEv,"x"
	.linkonce discard
	.align 2
	.globl	_ZNSt12_Vector_baseI12ElementosVooSaIS0_EE19_M_get_Tp_allocatorEv
	.def	_ZNSt12_Vector_baseI12ElementosVooSaIS0_EE19_M_get_Tp_allocatorEv;	.scl	2;	.type	32;	.endef
	.seh_proc	_ZNSt12_Vector_baseI12ElementosVooSaIS0_EE19_M_get_Tp_allocatorEv
_ZNSt12_Vector_baseI12ElementosVooSaIS0_EE19_M_get_Tp_allocatorEv:
.LFB3013:
	.loc 10 237 7
	.cfi_startproc
	pushq	%rbp
	.seh_pushreg	%rbp
	.cfi_def_cfa_offset 16
	.cfi_offset 6, -16
	movq	%rsp, %rbp
	.seh_setframe	%rbp, 0
	.cfi_def_cfa_register 6
	.seh_endprologue
	movq	%rcx, 16(%rbp)
	.loc 10 238 60
	movq	16(%rbp), %rax
	.loc 10 238 63
	popq	%rbp
	.cfi_restore 6
	.cfi_def_cfa 7, 8
	ret
	.cfi_endproc
.LFE3013:
	.seh_endproc
	.section	.text$_ZSt8_DestroyIP12ElementosVooS0_EvT_S2_RSaIT0_E,"x"
	.linkonce discard
	.globl	_ZSt8_DestroyIP12ElementosVooS0_EvT_S2_RSaIT0_E
	.def	_ZSt8_DestroyIP12ElementosVooS0_EvT_S2_RSaIT0_E;	.scl	2;	.type	32;	.endef
	.seh_proc	_ZSt8_DestroyIP12ElementosVooS0_EvT_S2_RSaIT0_E
_ZSt8_DestroyIP12ElementosVooS0_EvT_S2_RSaIT0_E:
.LFB3014:
	.file 11 "C:/Program Files/CodeBlocks/MinGW/lib/gcc/x86_64-w64-mingw32/8.1.0/include/c++/bits/stl_construct.h"
	.loc 11 203 5
	.cfi_startproc
	pushq	%rbp
	.seh_pushreg	%rbp
	.cfi_def_cfa_offset 16
	.cfi_offset 6, -16
	movq	%rsp, %rbp
	.seh_setframe	%rbp, 0
	.cfi_def_cfa_register 6
	subq	$32, %rsp
	.seh_stackalloc	32
	.seh_endprologue
	movq	%rcx, 16(%rbp)
	movq	%rdx, 24(%rbp)
	movq	%r8, 32(%rbp)
	.loc 11 206 15
	movq	24(%rbp), %rax
	movq	%rax, %rdx
	movq	16(%rbp), %rcx
	call	_ZSt8_DestroyIP12ElementosVooEvT_S2_
	.loc 11 207 5
	nop
	addq	$32, %rsp
	popq	%rbp
	.cfi_restore 6
	.cfi_def_cfa 7, 8
	ret
	.cfi_endproc
.LFE3014:
	.seh_endproc
	.section	.text$_ZNSt6vectorI12ElementosVooSaIS0_EE15_M_erase_at_endEPS0_,"x"
	.linkonce discard
	.align 2
	.globl	_ZNSt6vectorI12ElementosVooSaIS0_EE15_M_erase_at_endEPS0_
	.def	_ZNSt6vectorI12ElementosVooSaIS0_EE15_M_erase_at_endEPS0_;	.scl	2;	.type	32;	.endef
	.seh_proc	_ZNSt6vectorI12ElementosVooSaIS0_EE15_M_erase_at_endEPS0_
_ZNSt6vectorI12ElementosVooSaIS0_EE15_M_erase_at_endEPS0_:
.LFB3015:
	.loc 10 1649 7
	.cfi_startproc
	pushq	%rbp
	.seh_pushreg	%rbp
	.cfi_def_cfa_offset 16
	.cfi_offset 6, -16
	movq	%rsp, %rbp
	.seh_setframe	%rbp, 0
	.cfi_def_cfa_register 6
	subq	$48, %rsp
	.seh_stackalloc	48
	.seh_endprologue
	movq	%rcx, 16(%rbp)
	movq	%rdx, 24(%rbp)
.LBB23:
	.loc 10 1651 36
	movq	16(%rbp), %rax
	movq	8(%rax), %rax
	.loc 10 1651 46
	subq	24(%rbp), %rax
	sarq	$5, %rax
	movq	%rax, %rdx
	movabsq	$-6148914691236517205, %rax
	imulq	%rdx, %rax
	.loc 10 1651 16
	movq	%rax, -8(%rbp)
	.loc 10 1651 2
	cmpq	$0, -8(%rbp)
	je	.L117
	.loc 10 1654 25
	movq	16(%rbp), %rax
	movq	%rax, %rcx
	call	_ZNSt12_Vector_baseI12ElementosVooSaIS0_EE19_M_get_Tp_allocatorEv
	movq	%rax, %rcx
	.loc 10 1653 19
	movq	16(%rbp), %rax
	movq	8(%rax), %rdx
	movq	24(%rbp), %rax
	movq	%rcx, %r8
	movq	%rax, %rcx
	call	_ZSt8_DestroyIP12ElementosVooS0_EvT_S2_RSaIT0_E
	.loc 10 1655 6
	movq	16(%rbp), %rax
	movq	24(%rbp), %rdx
	movq	%rdx, 8(%rax)
.L117:
.LBE23:
	.loc 10 1658 7
	nop
	addq	$48, %rsp
	popq	%rbp
	.cfi_restore 6
	.cfi_def_cfa 7, 8
	ret
	.cfi_endproc
.LFE3015:
	.seh_handler	__gxx_personality_seh0, @unwind, @except
	.seh_handlerdata
.LLSDA3015:
	.byte	0xff
	.byte	0xff
	.byte	0x1
	.uleb128 .LLSDACSE3015-.LLSDACSB3015
.LLSDACSB3015:
.LLSDACSE3015:
	.section	.text$_ZNSt6vectorI12ElementosVooSaIS0_EE15_M_erase_at_endEPS0_,"x"
	.linkonce discard
	.seh_endproc
	.section	.text$_ZSt7forwardIRK12ElementosVooEOT_RNSt16remove_referenceIS3_E4typeE,"x"
	.linkonce discard
	.globl	_ZSt7forwardIRK12ElementosVooEOT_RNSt16remove_referenceIS3_E4typeE
	.def	_ZSt7forwardIRK12ElementosVooEOT_RNSt16remove_referenceIS3_E4typeE;	.scl	2;	.type	32;	.endef
	.seh_proc	_ZSt7forwardIRK12ElementosVooEOT_RNSt16remove_referenceIS3_E4typeE
_ZSt7forwardIRK12ElementosVooEOT_RNSt16remove_referenceIS3_E4typeE:
.LFB3017:
	.file 12 "C:/Program Files/CodeBlocks/MinGW/lib/gcc/x86_64-w64-mingw32/8.1.0/include/c++/bits/move.h"
	.loc 12 74 5
	.cfi_startproc
	pushq	%rbp
	.seh_pushreg	%rbp
	.cfi_def_cfa_offset 16
	.cfi_offset 6, -16
	movq	%rsp, %rbp
	.seh_setframe	%rbp, 0
	.cfi_def_cfa_register 6
	.seh_endprologue
	movq	%rcx, 16(%rbp)
	.loc 12 75 36
	movq	16(%rbp), %rax
	.loc 12 75 39
	popq	%rbp
	.cfi_restore 6
	.cfi_def_cfa 7, 8
	ret
	.cfi_endproc
.LFE3017:
	.seh_endproc
	.section	.text$_ZNSt16allocator_traitsISaI12ElementosVooEE9constructIS0_JRKS0_EEEvRS1_PT_DpOT0_,"x"
	.linkonce discard
	.globl	_ZNSt16allocator_traitsISaI12ElementosVooEE9constructIS0_JRKS0_EEEvRS1_PT_DpOT0_
	.def	_ZNSt16allocator_traitsISaI12ElementosVooEE9constructIS0_JRKS0_EEEvRS1_PT_DpOT0_;	.scl	2;	.type	32;	.endef
	.seh_proc	_ZNSt16allocator_traitsISaI12ElementosVooEE9constructIS0_JRKS0_EEEvRS1_PT_DpOT0_
_ZNSt16allocator_traitsISaI12ElementosVooEE9constructIS0_JRKS0_EEEvRS1_PT_DpOT0_:
.LFB3016:
	.file 13 "C:/Program Files/CodeBlocks/MinGW/lib/gcc/x86_64-w64-mingw32/8.1.0/include/c++/bits/alloc_traits.h"
	.loc 13 474 2
	.cfi_startproc
	pushq	%rbp
	.seh_pushreg	%rbp
	.cfi_def_cfa_offset 16
	.cfi_offset 6, -16
	movq	%rsp, %rbp
	.seh_setframe	%rbp, 0
	.cfi_def_cfa_register 6
	subq	$32, %rsp
	.seh_stackalloc	32
	.seh_endprologue
	movq	%rcx, 16(%rbp)
	movq	%rdx, 24(%rbp)
	movq	%r8, 32(%rbp)
	.loc 13 475 4
	movq	32(%rbp), %rax
	movq	%rax, %rcx
	call	_ZSt7forwardIRK12ElementosVooEOT_RNSt16remove_referenceIS3_E4typeE
	movq	%rax, %rdx
	movq	24(%rbp), %rax
	movq	%rdx, %r8
	movq	%rax, %rdx
	movq	16(%rbp), %rcx
	call	_ZN9__gnu_cxx13new_allocatorI12ElementosVooE9constructIS1_JRKS1_EEEvPT_DpOT0_
	.loc 13 475 56
	nop
	addq	$32, %rsp
	popq	%rbp
	.cfi_restore 6
	.cfi_def_cfa 7, 8
	ret
	.cfi_endproc
.LFE3016:
	.seh_endproc
	.section	.text$_ZNSt6vectorI12ElementosVooSaIS0_EE3endEv,"x"
	.linkonce discard
	.align 2
	.globl	_ZNSt6vectorI12ElementosVooSaIS0_EE3endEv
	.def	_ZNSt6vectorI12ElementosVooSaIS0_EE3endEv;	.scl	2;	.type	32;	.endef
	.seh_proc	_ZNSt6vectorI12ElementosVooSaIS0_EE3endEv
_ZNSt6vectorI12ElementosVooSaIS0_EE3endEv:
.LFB3018:
	.loc 10 716 7
	.cfi_startproc
	pushq	%rbp
	.seh_pushreg	%rbp
	.cfi_def_cfa_offset 16
	.cfi_offset 6, -16
	movq	%rsp, %rbp
	.seh_setframe	%rbp, 0
	.cfi_def_cfa_register 6
	subq	$48, %rsp
	.seh_stackalloc	48
	.seh_endprologue
	movq	%rcx, 16(%rbp)
	.loc 10 717 39
	movq	16(%rbp), %rax
	leaq	8(%rax), %rdx
	.loc 10 717 48
	leaq	-8(%rbp), %rax
	movq	%rax, %rcx
	call	_ZN9__gnu_cxx17__normal_iteratorIP12ElementosVooSt6vectorIS1_SaIS1_EEEC1ERKS2_
	movq	-8(%rbp), %rax
	.loc 10 717 51
	addq	$48, %rsp
	popq	%rbp
	.cfi_restore 6
	.cfi_def_cfa 7, 8
	ret
	.cfi_endproc
.LFE3018:
	.seh_endproc
	.section .rdata,"dr"
.LC12:
	.ascii "vector::_M_realloc_insert\0"
	.section	.text$_ZNSt6vectorI12ElementosVooSaIS0_EE17_M_realloc_insertIJRKS0_EEEvN9__gnu_cxx17__normal_iteratorIPS0_S2_EEDpOT_,"x"
	.linkonce discard
	.align 2
	.globl	_ZNSt6vectorI12ElementosVooSaIS0_EE17_M_realloc_insertIJRKS0_EEEvN9__gnu_cxx17__normal_iteratorIPS0_S2_EEDpOT_
	.def	_ZNSt6vectorI12ElementosVooSaIS0_EE17_M_realloc_insertIJRKS0_EEEvN9__gnu_cxx17__normal_iteratorIPS0_S2_EEDpOT_;	.scl	2;	.type	32;	.endef
	.seh_proc	_ZNSt6vectorI12ElementosVooSaIS0_EE17_M_realloc_insertIJRKS0_EEEvN9__gnu_cxx17__normal_iteratorIPS0_S2_EEDpOT_
_ZNSt6vectorI12ElementosVooSaIS0_EE17_M_realloc_insertIJRKS0_EEEvN9__gnu_cxx17__normal_iteratorIPS0_S2_EEDpOT_:
.LFB3019:
	.file 14 "C:/Program Files/CodeBlocks/MinGW/lib/gcc/x86_64-w64-mingw32/8.1.0/include/c++/bits/vector.tcc"
	.loc 14 413 7
	.cfi_startproc
	pushq	%rbp
	.seh_pushreg	%rbp
	.cfi_def_cfa_offset 16
	.cfi_offset 6, -16
	pushq	%rbx
	.seh_pushreg	%rbx
	.cfi_def_cfa_offset 24
	.cfi_offset 3, -24
	subq	$104, %rsp
	.seh_stackalloc	104
	.cfi_def_cfa_offset 128
	leaq	128(%rsp), %rbp
	.seh_setframe	%rbp, 128
	.cfi_def_cfa 6, 0
	.seh_endprologue
	movq	%rcx, 0(%rbp)
	movq	%rdx, 8(%rbp)
	movq	%r8, 16(%rbp)
	.loc 14 422 23
	leaq	.LC12(%rip), %r8
	movl	$1, %edx
	movq	0(%rbp), %rcx
.LEHB23:
	call	_ZNKSt6vectorI12ElementosVooSaIS0_EE12_M_check_lenEyPKc
	movq	%rax, -48(%rbp)
	.loc 14 424 15
	movq	0(%rbp), %rax
	movq	(%rax), %rax
	movq	%rax, -56(%rbp)
	.loc 14 425 15
	movq	0(%rbp), %rax
	movq	8(%rax), %rax
	movq	%rax, -64(%rbp)
	.loc 14 426 51
	movq	0(%rbp), %rcx
	call	_ZNSt6vectorI12ElementosVooSaIS0_EE5beginEv
	movq	%rax, -88(%rbp)
	leaq	-88(%rbp), %rdx
	leaq	8(%rbp), %rax
	movq	%rax, %rcx
	call	_ZN9__gnu_cxxmiIP12ElementosVooSt6vectorIS1_SaIS1_EEEENS_17__normal_iteratorIT_T0_E15difference_typeERKS9_SC_
	.loc 14 426 23
	movq	%rax, -72(%rbp)
	.loc 14 427 15
	movq	0(%rbp), %rax
	movq	-48(%rbp), %rdx
	movq	%rax, %rcx
	call	_ZNSt12_Vector_baseI12ElementosVooSaIS0_EE11_M_allocateEy
.LEHE23:
	movq	%rax, -80(%rbp)
	.loc 14 428 15
	movq	-80(%rbp), %rax
	movq	%rax, -40(%rbp)
	.loc 14 436 28
	movq	16(%rbp), %rax
	movq	%rax, %rcx
	call	_ZSt7forwardIRK12ElementosVooEOT_RNSt16remove_referenceIS3_E4typeE
	movq	%rax, %rcx
	.loc 14 437 20
	movq	-72(%rbp), %rdx
	movq	%rdx, %rax
	addq	%rax, %rax
	addq	%rdx, %rax
	salq	$5, %rax
	movq	%rax, %rdx
	.loc 14 436 28
	movq	-80(%rbp), %rax
	addq	%rax, %rdx
	.loc 14 436 35
	movq	0(%rbp), %rax
	.loc 14 436 28
	movq	%rcx, %r8
	movq	%rax, %rcx
	call	_ZNSt16allocator_traitsISaI12ElementosVooEE9constructIS0_JRKS0_EEEvRS1_PT_DpOT0_
	.loc 14 443 4
	movq	$0, -40(%rbp)
	.loc 14 448 39
	movq	0(%rbp), %rax
	movq	%rax, %rcx
	call	_ZNSt12_Vector_baseI12ElementosVooSaIS0_EE19_M_get_Tp_allocatorEv
	movq	%rax, %rbx
	.loc 14 447 6
	leaq	8(%rbp), %rax
	movq	%rax, %rcx
	call	_ZNK9__gnu_cxx17__normal_iteratorIP12ElementosVooSt6vectorIS1_SaIS1_EEE4baseEv
	movq	(%rax), %rdx
	movq	-80(%rbp), %rcx
	movq	-56(%rbp), %rax
	movq	%rbx, %r9
	movq	%rcx, %r8
	movq	%rax, %rcx
.LEHB24:
	call	_ZSt34__uninitialized_move_if_noexcept_aIP12ElementosVooS1_SaIS0_EET0_T_S4_S3_RT1_
	movq	%rax, -40(%rbp)
	.loc 14 450 4
	addq	$96, -40(%rbp)
	.loc 14 455 40
	movq	0(%rbp), %rax
	movq	%rax, %rcx
	call	_ZNSt12_Vector_baseI12ElementosVooSaIS0_EE19_M_get_Tp_allocatorEv
	movq	%rax, %rbx
	.loc 14 454 6
	leaq	8(%rbp), %rax
	movq	%rax, %rcx
	call	_ZNK9__gnu_cxx17__normal_iteratorIP12ElementosVooSt6vectorIS1_SaIS1_EEE4baseEv
	movq	(%rax), %rax
	movq	-40(%rbp), %rcx
	movq	-64(%rbp), %rdx
	movq	%rbx, %r9
	movq	%rcx, %r8
	movq	%rax, %rcx
	call	_ZSt34__uninitialized_move_if_noexcept_aIP12ElementosVooS1_SaIS0_EET0_T_S4_S3_RT1_
.LEHE24:
	.loc 14 454 6 is_stmt 0 discriminator 1
	movq	%rax, -40(%rbp)
	.loc 14 468 67 is_stmt 1 discriminator 1
	movq	0(%rbp), %rax
	movq	%rax, %rcx
	call	_ZNSt12_Vector_baseI12ElementosVooSaIS0_EE19_M_get_Tp_allocatorEv
	movq	%rax, %rcx
	.loc 14 468 20 discriminator 1
	movq	-64(%rbp), %rdx
	movq	-56(%rbp), %rax
	movq	%rcx, %r8
	movq	%rax, %rcx
.LEHB25:
	call	_ZSt8_DestroyIP12ElementosVooS0_EvT_S2_RSaIT0_E
	.loc 14 469 20 discriminator 1
	movq	0(%rbp), %rax
	.loc 14 470 21 discriminator 1
	movq	0(%rbp), %rdx
	movq	16(%rdx), %rdx
	.loc 14 470 39 discriminator 1
	subq	-56(%rbp), %rdx
	movq	%rdx, %rcx
	sarq	$5, %rcx
	movabsq	$-6148914691236517205, %rdx
	imulq	%rcx, %rdx
	.loc 14 469 20 discriminator 1
	movq	%rdx, %rcx
	movq	-56(%rbp), %rdx
	movq	%rcx, %r8
	movq	%rax, %rcx
	call	_ZNSt12_Vector_baseI12ElementosVooSaIS0_EE13_M_deallocateEPS0_y
.LEHE25:
	.loc 14 471 7 discriminator 1
	movq	0(%rbp), %rax
	movq	-80(%rbp), %rdx
	movq	%rdx, (%rax)
	.loc 14 472 7 discriminator 1
	movq	0(%rbp), %rax
	movq	-40(%rbp), %rdx
	movq	%rdx, 8(%rax)
	.loc 14 473 53 discriminator 1
	movq	-48(%rbp), %rdx
	movq	%rdx, %rax
	addq	%rax, %rax
	addq	%rdx, %rax
	salq	$5, %rax
	movq	%rax, %rdx
	movq	-80(%rbp), %rax
	addq	%rax, %rdx
	.loc 14 473 7 discriminator 1
	movq	0(%rbp), %rax
	movq	%rdx, 16(%rax)
	.loc 14 474 5 discriminator 1
	jmp	.L130
.L128:
	.loc 14 457 7
	movq	%rax, %rcx
	call	__cxa_begin_catch
	.loc 14 459 4
	cmpq	$0, -40(%rbp)
	jne	.L125
	.loc 14 461 20
	movq	-72(%rbp), %rdx
	movq	%rdx, %rax
	addq	%rax, %rax
	addq	%rdx, %rax
	salq	$5, %rax
	movq	%rax, %rdx
	.loc 14 460 28
	movq	-80(%rbp), %rax
	addq	%rax, %rdx
	.loc 14 460 35
	movq	0(%rbp), %rax
	.loc 14 460 28
	movq	%rax, %rcx
.LEHB26:
	call	_ZNSt16allocator_traitsISaI12ElementosVooEE7destroyIS0_EEvRS1_PT_
	jmp	.L126
.L125:
	.loc 14 463 66
	movq	0(%rbp), %rax
	movq	%rax, %rcx
	call	_ZNSt12_Vector_baseI12ElementosVooSaIS0_EE19_M_get_Tp_allocatorEv
	movq	%rax, %rcx
	.loc 14 463 19
	movq	-40(%rbp), %rdx
	movq	-80(%rbp), %rax
	movq	%rcx, %r8
	movq	%rax, %rcx
	call	_ZSt8_DestroyIP12ElementosVooS0_EvT_S2_RSaIT0_E
.L126:
	.loc 14 464 17
	movq	0(%rbp), %rax
	movq	-48(%rbp), %rcx
	movq	-80(%rbp), %rdx
	movq	%rcx, %r8
	movq	%rax, %rcx
	call	_ZNSt12_Vector_baseI12ElementosVooSaIS0_EE13_M_deallocateEPS0_y
	.loc 14 465 4
	call	__cxa_rethrow
.LEHE26:
.L129:
	movq	%rax, %rbx
	.loc 14 457 7
	call	__cxa_end_catch
	movq	%rbx, %rax
	movq	%rax, %rcx
.LEHB27:
	call	_Unwind_Resume
	nop
.LEHE27:
.L130:
	.loc 14 474 5
	addq	$104, %rsp
	popq	%rbx
	.cfi_restore 3
	popq	%rbp
	.cfi_restore 6
	.cfi_def_cfa 7, -88
	ret
	.cfi_endproc
.LFE3019:
	.seh_handler	__gxx_personality_seh0, @unwind, @except
	.seh_handlerdata
	.align 4
.LLSDA3019:
	.byte	0xff
	.byte	0x9b
	.uleb128 .LLSDATT3019-.LLSDATTD3019
.LLSDATTD3019:
	.byte	0x1
	.uleb128 .LLSDACSE3019-.LLSDACSB3019
.LLSDACSB3019:
	.uleb128 .LEHB23-.LFB3019
	.uleb128 .LEHE23-.LEHB23
	.uleb128 0
	.uleb128 0
	.uleb128 .LEHB24-.LFB3019
	.uleb128 .LEHE24-.LEHB24
	.uleb128 .L128-.LFB3019
	.uleb128 0x1
	.uleb128 .LEHB25-.LFB3019
	.uleb128 .LEHE25-.LEHB25
	.uleb128 0
	.uleb128 0
	.uleb128 .LEHB26-.LFB3019
	.uleb128 .LEHE26-.LEHB26
	.uleb128 .L129-.LFB3019
	.uleb128 0
	.uleb128 .LEHB27-.LFB3019
	.uleb128 .LEHE27-.LEHB27
	.uleb128 0
	.uleb128 0
.LLSDACSE3019:
	.byte	0x1
	.byte	0
	.align 4
	.long	0

.LLSDATT3019:
	.section	.text$_ZNSt6vectorI12ElementosVooSaIS0_EE17_M_realloc_insertIJRKS0_EEEvN9__gnu_cxx17__normal_iteratorIPS0_S2_EEDpOT_,"x"
	.linkonce discard
	.seh_endproc
	.section	.text$_ZNKSt6vectorI12ElementosVooSaIS0_EE4sizeEv,"x"
	.linkonce discard
	.align 2
	.globl	_ZNKSt6vectorI12ElementosVooSaIS0_EE4sizeEv
	.def	_ZNKSt6vectorI12ElementosVooSaIS0_EE4sizeEv;	.scl	2;	.type	32;	.endef
	.seh_proc	_ZNKSt6vectorI12ElementosVooSaIS0_EE4sizeEv
_ZNKSt6vectorI12ElementosVooSaIS0_EE4sizeEv:
.LFB3020:
	.loc 10 805 7
	.cfi_startproc
	pushq	%rbp
	.seh_pushreg	%rbp
	.cfi_def_cfa_offset 16
	.cfi_offset 6, -16
	movq	%rsp, %rbp
	.seh_setframe	%rbp, 0
	.cfi_def_cfa_register 6
	.seh_endprologue
	movq	%rcx, 16(%rbp)
	.loc 10 806 40
	movq	16(%rbp), %rax
	movq	8(%rax), %rdx
	.loc 10 806 66
	movq	16(%rbp), %rax
	movq	(%rax), %rax
	.loc 10 806 50
	subq	%rax, %rdx
	movq	%rdx, %rax
	sarq	$5, %rax
	movq	%rax, %rdx
	movabsq	$-6148914691236517205, %rax
	imulq	%rdx, %rax
	.loc 10 806 77
	popq	%rbp
	.cfi_restore 6
	.cfi_def_cfa 7, 8
	ret
	.cfi_endproc
.LFE3020:
	.seh_endproc
	.section	.text$_ZN9__gnu_cxx14__alloc_traitsISaI12ElementosVooES1_E17_S_select_on_copyERKS2_,"x"
	.linkonce discard
	.globl	_ZN9__gnu_cxx14__alloc_traitsISaI12ElementosVooES1_E17_S_select_on_copyERKS2_
	.def	_ZN9__gnu_cxx14__alloc_traitsISaI12ElementosVooES1_E17_S_select_on_copyERKS2_;	.scl	2;	.type	32;	.endef
	.seh_proc	_ZN9__gnu_cxx14__alloc_traitsISaI12ElementosVooES1_E17_S_select_on_copyERKS2_
_ZN9__gnu_cxx14__alloc_traitsISaI12ElementosVooES1_E17_S_select_on_copyERKS2_:
.LFB3021:
	.file 15 "C:/Program Files/CodeBlocks/MinGW/lib/gcc/x86_64-w64-mingw32/8.1.0/include/c++/ext/alloc_traits.h"
	.loc 15 94 19
	.cfi_startproc
	pushq	%rbp
	.seh_pushreg	%rbp
	.cfi_def_cfa_offset 16
	.cfi_offset 6, -16
	movq	%rsp, %rbp
	.seh_setframe	%rbp, 0
	.cfi_def_cfa_register 6
	subq	$32, %rsp
	.seh_stackalloc	32
	.seh_endprologue
	movq	%rcx, 16(%rbp)
	movq	%rdx, 24(%rbp)
	.loc 15 95 67
	movq	16(%rbp), %rax
	movq	24(%rbp), %rdx
	movq	%rax, %rcx
	call	_ZNSt16allocator_traitsISaI12ElementosVooEE37select_on_container_copy_constructionERKS1_
	.loc 15 95 70
	movq	16(%rbp), %rax
	addq	$32, %rsp
	popq	%rbp
	.cfi_restore 6
	.cfi_def_cfa 7, 8
	ret
	.cfi_endproc
.LFE3021:
	.seh_endproc
	.section	.text$_ZNKSt12_Vector_baseI12ElementosVooSaIS0_EE19_M_get_Tp_allocatorEv,"x"
	.linkonce discard
	.align 2
	.globl	_ZNKSt12_Vector_baseI12ElementosVooSaIS0_EE19_M_get_Tp_allocatorEv
	.def	_ZNKSt12_Vector_baseI12ElementosVooSaIS0_EE19_M_get_Tp_allocatorEv;	.scl	2;	.type	32;	.endef
	.seh_proc	_ZNKSt12_Vector_baseI12ElementosVooSaIS0_EE19_M_get_Tp_allocatorEv
_ZNKSt12_Vector_baseI12ElementosVooSaIS0_EE19_M_get_Tp_allocatorEv:
.LFB3022:
	.loc 10 241 7
	.cfi_startproc
	pushq	%rbp
	.seh_pushreg	%rbp
	.cfi_def_cfa_offset 16
	.cfi_offset 6, -16
	movq	%rsp, %rbp
	.seh_setframe	%rbp, 0
	.cfi_def_cfa_register 6
	.seh_endprologue
	movq	%rcx, 16(%rbp)
	.loc 10 242 66
	movq	16(%rbp), %rax
	.loc 10 242 69
	popq	%rbp
	.cfi_restore 6
	.cfi_def_cfa 7, 8
	ret
	.cfi_endproc
.LFE3022:
	.seh_endproc
	.section	.text$_ZNSaI12ElementosVooED2Ev,"x"
	.linkonce discard
	.align 2
	.globl	_ZNSaI12ElementosVooED2Ev
	.def	_ZNSaI12ElementosVooED2Ev;	.scl	2;	.type	32;	.endef
	.seh_proc	_ZNSaI12ElementosVooED2Ev
_ZNSaI12ElementosVooED2Ev:
.LFB3024:
	.file 16 "C:/Program Files/CodeBlocks/MinGW/lib/gcc/x86_64-w64-mingw32/8.1.0/include/c++/bits/allocator.h"
	.loc 16 139 7
	.cfi_startproc
	pushq	%rbp
	.seh_pushreg	%rbp
	.cfi_def_cfa_offset 16
	.cfi_offset 6, -16
	movq	%rsp, %rbp
	.seh_setframe	%rbp, 0
	.cfi_def_cfa_register 6
	subq	$32, %rsp
	.seh_stackalloc	32
	.seh_endprologue
	movq	%rcx, 16(%rbp)
.LBB24:
	.loc 16 139 30
	movq	16(%rbp), %rcx
	call	_ZN9__gnu_cxx13new_allocatorI12ElementosVooED2Ev
.LBE24:
	nop
	addq	$32, %rsp
	popq	%rbp
	.cfi_restore 6
	.cfi_def_cfa 7, 8
	ret
	.cfi_endproc
.LFE3024:
	.seh_endproc
	.section	.text$_ZNSaI12ElementosVooED1Ev,"x"
	.linkonce discard
	.align 2
	.globl	_ZNSaI12ElementosVooED1Ev
	.def	_ZNSaI12ElementosVooED1Ev;	.scl	2;	.type	32;	.endef
	.seh_proc	_ZNSaI12ElementosVooED1Ev
_ZNSaI12ElementosVooED1Ev:
.LFB3025:
	.loc 16 139 7
	.cfi_startproc
	pushq	%rbp
	.seh_pushreg	%rbp
	.cfi_def_cfa_offset 16
	.cfi_offset 6, -16
	movq	%rsp, %rbp
	.seh_setframe	%rbp, 0
	.cfi_def_cfa_register 6
	subq	$32, %rsp
	.seh_stackalloc	32
	.seh_endprologue
	movq	%rcx, 16(%rbp)
.LBB25:
	.loc 16 139 30
	movq	16(%rbp), %rcx
	call	_ZN9__gnu_cxx13new_allocatorI12ElementosVooED2Ev
.LBE25:
	nop
	addq	$32, %rsp
	popq	%rbp
	.cfi_restore 6
	.cfi_def_cfa 7, 8
	ret
	.cfi_endproc
.LFE3025:
	.seh_endproc
	.section	.text$_ZNSt12_Vector_baseI12ElementosVooSaIS0_EEC2EyRKS1_,"x"
	.linkonce discard
	.align 2
	.globl	_ZNSt12_Vector_baseI12ElementosVooSaIS0_EEC2EyRKS1_
	.def	_ZNSt12_Vector_baseI12ElementosVooSaIS0_EEC2EyRKS1_;	.scl	2;	.type	32;	.endef
	.seh_proc	_ZNSt12_Vector_baseI12ElementosVooSaIS0_EEC2EyRKS1_
_ZNSt12_Vector_baseI12ElementosVooSaIS0_EEC2EyRKS1_:
.LFB3027:
	.loc 10 258 7
	.cfi_startproc
	pushq	%rbp
	.seh_pushreg	%rbp
	.cfi_def_cfa_offset 16
	.cfi_offset 6, -16
	pushq	%rbx
	.seh_pushreg	%rbx
	.cfi_def_cfa_offset 24
	.cfi_offset 3, -24
	subq	$40, %rsp
	.seh_stackalloc	40
	.cfi_def_cfa_offset 64
	leaq	128(%rsp), %rbp
	.seh_setframe	%rbp, 128
	.cfi_def_cfa 6, -64
	.seh_endprologue
	movq	%rcx, -64(%rbp)
	movq	%rdx, -56(%rbp)
	movq	%r8, -48(%rbp)
.LBB26:
	.loc 10 259 20
	movq	-64(%rbp), %rax
	movq	-48(%rbp), %rdx
	movq	%rax, %rcx
	call	_ZNSt12_Vector_baseI12ElementosVooSaIS0_EE12_Vector_implC1ERKS1_
	.loc 10 260 9
	movq	-56(%rbp), %rax
	movq	%rax, %rdx
	movq	-64(%rbp), %rcx
.LEHB28:
	call	_ZNSt12_Vector_baseI12ElementosVooSaIS0_EE17_M_create_storageEy
.LEHE28:
.LBE26:
	.loc 10 260 33
	jmp	.L142
.L141:
	movq	%rax, %rbx
.LBB27:
	.loc 10 259 20
	movq	-64(%rbp), %rax
	movq	%rax, %rcx
	call	_ZNSt12_Vector_baseI12ElementosVooSaIS0_EE12_Vector_implD1Ev
	movq	%rbx, %rax
	movq	%rax, %rcx
.LEHB29:
	call	_Unwind_Resume
	nop
.LEHE29:
.L142:
.LBE27:
	.loc 10 260 33
	addq	$40, %rsp
	popq	%rbx
	.cfi_restore 3
	popq	%rbp
	.cfi_restore 6
	.cfi_def_cfa 7, -24
	ret
	.cfi_endproc
.LFE3027:
	.seh_handler	__gxx_personality_seh0, @unwind, @except
	.seh_handlerdata
.LLSDA3027:
	.byte	0xff
	.byte	0xff
	.byte	0x1
	.uleb128 .LLSDACSE3027-.LLSDACSB3027
.LLSDACSB3027:
	.uleb128 .LEHB28-.LFB3027
	.uleb128 .LEHE28-.LEHB28
	.uleb128 .L141-.LFB3027
	.uleb128 0
	.uleb128 .LEHB29-.LFB3027
	.uleb128 .LEHE29-.LEHB29
	.uleb128 0
	.uleb128 0
.LLSDACSE3027:
	.section	.text$_ZNSt12_Vector_baseI12ElementosVooSaIS0_EEC2EyRKS1_,"x"
	.linkonce discard
	.seh_endproc
	.section	.text$_ZNKSt6vectorI12ElementosVooSaIS0_EE5beginEv,"x"
	.linkonce discard
	.align 2
	.globl	_ZNKSt6vectorI12ElementosVooSaIS0_EE5beginEv
	.def	_ZNKSt6vectorI12ElementosVooSaIS0_EE5beginEv;	.scl	2;	.type	32;	.endef
	.seh_proc	_ZNKSt6vectorI12ElementosVooSaIS0_EE5beginEv
_ZNKSt6vectorI12ElementosVooSaIS0_EE5beginEv:
.LFB3029:
	.loc 10 707 7
	.cfi_startproc
	pushq	%rbp
	.seh_pushreg	%rbp
	.cfi_def_cfa_offset 16
	.cfi_offset 6, -16
	movq	%rsp, %rbp
	.seh_setframe	%rbp, 0
	.cfi_def_cfa_register 6
	subq	$48, %rsp
	.seh_stackalloc	48
	.seh_endprologue
	movq	%rcx, 16(%rbp)
	.loc 10 708 45
	movq	16(%rbp), %rax
	movq	(%rax), %rax
	movq	%rax, -8(%rbp)
	.loc 10 708 53
	leaq	-8(%rbp), %rdx
	leaq	-16(%rbp), %rax
	movq	%rax, %rcx
	call	_ZN9__gnu_cxx17__normal_iteratorIPK12ElementosVooSt6vectorIS1_SaIS1_EEEC1ERKS3_
	movq	-16(%rbp), %rax
	.loc 10 708 56
	addq	$48, %rsp
	popq	%rbp
	.cfi_restore 6
	.cfi_def_cfa 7, 8
	ret
	.cfi_endproc
.LFE3029:
	.seh_endproc
	.section	.text$_ZNKSt6vectorI12ElementosVooSaIS0_EE3endEv,"x"
	.linkonce discard
	.align 2
	.globl	_ZNKSt6vectorI12ElementosVooSaIS0_EE3endEv
	.def	_ZNKSt6vectorI12ElementosVooSaIS0_EE3endEv;	.scl	2;	.type	32;	.endef
	.seh_proc	_ZNKSt6vectorI12ElementosVooSaIS0_EE3endEv
_ZNKSt6vectorI12ElementosVooSaIS0_EE3endEv:
.LFB3030:
	.loc 10 725 7
	.cfi_startproc
	pushq	%rbp
	.seh_pushreg	%rbp
	.cfi_def_cfa_offset 16
	.cfi_offset 6, -16
	movq	%rsp, %rbp
	.seh_setframe	%rbp, 0
	.cfi_def_cfa_register 6
	subq	$48, %rsp
	.seh_stackalloc	48
	.seh_endprologue
	movq	%rcx, 16(%rbp)
	.loc 10 726 45
	movq	16(%rbp), %rax
	movq	8(%rax), %rax
	movq	%rax, -8(%rbp)
	.loc 10 726 54
	leaq	-8(%rbp), %rdx
	leaq	-16(%rbp), %rax
	movq	%rax, %rcx
	call	_ZN9__gnu_cxx17__normal_iteratorIPK12ElementosVooSt6vectorIS1_SaIS1_EEEC1ERKS3_
	movq	-16(%rbp), %rax
	.loc 10 726 57
	addq	$48, %rsp
	popq	%rbp
	.cfi_restore 6
	.cfi_def_cfa 7, 8
	ret
	.cfi_endproc
.LFE3030:
	.seh_endproc
	.section	.text$_ZSt22__uninitialized_copy_aIN9__gnu_cxx17__normal_iteratorIPK12ElementosVooSt6vectorIS2_SaIS2_EEEEPS2_S2_ET0_T_SB_SA_RSaIT1_E,"x"
	.linkonce discard
	.globl	_ZSt22__uninitialized_copy_aIN9__gnu_cxx17__normal_iteratorIPK12ElementosVooSt6vectorIS2_SaIS2_EEEEPS2_S2_ET0_T_SB_SA_RSaIT1_E
	.def	_ZSt22__uninitialized_copy_aIN9__gnu_cxx17__normal_iteratorIPK12ElementosVooSt6vectorIS2_SaIS2_EEEEPS2_S2_ET0_T_SB_SA_RSaIT1_E;	.scl	2;	.type	32;	.endef
	.seh_proc	_ZSt22__uninitialized_copy_aIN9__gnu_cxx17__normal_iteratorIPK12ElementosVooSt6vectorIS2_SaIS2_EEEEPS2_S2_ET0_T_SB_SA_RSaIT1_E
_ZSt22__uninitialized_copy_aIN9__gnu_cxx17__normal_iteratorIPK12ElementosVooSt6vectorIS2_SaIS2_EEEEPS2_S2_ET0_T_SB_SA_RSaIT1_E:
.LFB3031:
	.file 17 "C:/Program Files/CodeBlocks/MinGW/lib/gcc/x86_64-w64-mingw32/8.1.0/include/c++/bits/stl_uninitialized.h"
	.loc 17 287 5
	.cfi_startproc
	pushq	%rbp
	.seh_pushreg	%rbp
	.cfi_def_cfa_offset 16
	.cfi_offset 6, -16
	movq	%rsp, %rbp
	.seh_setframe	%rbp, 0
	.cfi_def_cfa_register 6
	subq	$32, %rsp
	.seh_stackalloc	32
	.seh_endprologue
	movq	%rcx, 16(%rbp)
	movq	%rdx, 24(%rbp)
	movq	%r8, 32(%rbp)
	movq	%r9, 40(%rbp)
	.loc 17 289 37
	movq	32(%rbp), %rdx
	movq	24(%rbp), %rax
	movq	%rdx, %r8
	movq	%rax, %rdx
	movq	16(%rbp), %rcx
	call	_ZSt18uninitialized_copyIN9__gnu_cxx17__normal_iteratorIPK12ElementosVooSt6vectorIS2_SaIS2_EEEEPS2_ET0_T_SB_SA_
	.loc 17 289 66
	addq	$32, %rsp
	popq	%rbp
	.cfi_restore 6
	.cfi_def_cfa 7, 8
	ret
	.cfi_endproc
.LFE3031:
	.seh_endproc
	.section	.text$_ZNSt12_Vector_baseI12ElementosVooSaIS0_EE13_M_deallocateEPS0_y,"x"
	.linkonce discard
	.align 2
	.globl	_ZNSt12_Vector_baseI12ElementosVooSaIS0_EE13_M_deallocateEPS0_y
	.def	_ZNSt12_Vector_baseI12ElementosVooSaIS0_EE13_M_deallocateEPS0_y;	.scl	2;	.type	32;	.endef
	.seh_proc	_ZNSt12_Vector_baseI12ElementosVooSaIS0_EE13_M_deallocateEPS0_y
_ZNSt12_Vector_baseI12ElementosVooSaIS0_EE13_M_deallocateEPS0_y:
.LFB3095:
	.loc 10 300 7
	.cfi_startproc
	pushq	%rbp
	.seh_pushreg	%rbp
	.cfi_def_cfa_offset 16
	.cfi_offset 6, -16
	movq	%rsp, %rbp
	.seh_setframe	%rbp, 0
	.cfi_def_cfa_register 6
	subq	$32, %rsp
	.seh_stackalloc	32
	.seh_endprologue
	movq	%rcx, 16(%rbp)
	movq	%rdx, 24(%rbp)
	movq	%r8, 32(%rbp)
	.loc 10 303 2
	cmpq	$0, 24(%rbp)
	je	.L151
	.loc 10 304 20
	movq	16(%rbp), %rax
	.loc 10 304 19
	movq	32(%rbp), %rcx
	movq	24(%rbp), %rdx
	movq	%rcx, %r8
	movq	%rax, %rcx
	call	_ZNSt16allocator_traitsISaI12ElementosVooEE10deallocateERS1_PS0_y
.L151:
	.loc 10 305 7
	nop
	addq	$32, %rsp
	popq	%rbp
	.cfi_restore 6
	.cfi_def_cfa 7, 8
	ret
	.cfi_endproc
.LFE3095:
	.seh_endproc
	.section	.text$_ZSt8_DestroyIP12ElementosVooEvT_S2_,"x"
	.linkonce discard
	.globl	_ZSt8_DestroyIP12ElementosVooEvT_S2_
	.def	_ZSt8_DestroyIP12ElementosVooEvT_S2_;	.scl	2;	.type	32;	.endef
	.seh_proc	_ZSt8_DestroyIP12ElementosVooEvT_S2_
_ZSt8_DestroyIP12ElementosVooEvT_S2_:
.LFB3096:
	.loc 11 127 5
	.cfi_startproc
	pushq	%rbp
	.seh_pushreg	%rbp
	.cfi_def_cfa_offset 16
	.cfi_offset 6, -16
	movq	%rsp, %rbp
	.seh_setframe	%rbp, 0
	.cfi_def_cfa_register 6
	subq	$32, %rsp
	.seh_stackalloc	32
	.seh_endprologue
	movq	%rcx, 16(%rbp)
	movq	%rdx, 24(%rbp)
	.loc 11 137 11
	movq	24(%rbp), %rax
	movq	%rax, %rdx
	movq	16(%rbp), %rcx
	call	_ZNSt12_Destroy_auxILb0EE9__destroyIP12ElementosVooEEvT_S4_
	.loc 11 138 5
	nop
	addq	$32, %rsp
	popq	%rbp
	.cfi_restore 6
	.cfi_def_cfa 7, 8
	ret
	.cfi_endproc
.LFE3096:
	.seh_endproc
	.section	.text$_ZN9__gnu_cxx13new_allocatorI12ElementosVooE9constructIS1_JRKS1_EEEvPT_DpOT0_,"x"
	.linkonce discard
	.align 2
	.globl	_ZN9__gnu_cxx13new_allocatorI12ElementosVooE9constructIS1_JRKS1_EEEvPT_DpOT0_
	.def	_ZN9__gnu_cxx13new_allocatorI12ElementosVooE9constructIS1_JRKS1_EEEvPT_DpOT0_;	.scl	2;	.type	32;	.endef
	.seh_proc	_ZN9__gnu_cxx13new_allocatorI12ElementosVooE9constructIS1_JRKS1_EEEvPT_DpOT0_
_ZN9__gnu_cxx13new_allocatorI12ElementosVooE9constructIS1_JRKS1_EEEvPT_DpOT0_:
.LFB3097:
	.file 18 "C:/Program Files/CodeBlocks/MinGW/lib/gcc/x86_64-w64-mingw32/8.1.0/include/c++/ext/new_allocator.h"
	.loc 18 135 2
	.cfi_startproc
	pushq	%rbp
	.seh_pushreg	%rbp
	.cfi_def_cfa_offset 16
	.cfi_offset 6, -16
	pushq	%rbx
	.seh_pushreg	%rbx
	.cfi_def_cfa_offset 24
	.cfi_offset 3, -24
	subq	$40, %rsp
	.seh_stackalloc	40
	.cfi_def_cfa_offset 64
	leaq	128(%rsp), %rbp
	.seh_setframe	%rbp, 128
	.cfi_def_cfa 6, -64
	.seh_endprologue
	movq	%rcx, -64(%rbp)
	movq	%rdx, -56(%rbp)
	movq	%r8, -48(%rbp)
	.loc 18 136 46
	movq	-48(%rbp), %rax
	movq	%rax, %rcx
	call	_ZSt7forwardIRK12ElementosVooEOT_RNSt16remove_referenceIS3_E4typeE
	movq	%rax, %rbx
	.loc 18 136 4
	movq	-56(%rbp), %rax
	movq	%rax, %rdx
	movl	$96, %ecx
	call	_ZnwyPv
	movq	%rbx, %rdx
	movq	%rax, %rcx
	call	_ZN12ElementosVooC1ERKS_
	.loc 18 136 60
	nop
	addq	$40, %rsp
	popq	%rbx
	.cfi_restore 3
	popq	%rbp
	.cfi_restore 6
	.cfi_def_cfa 7, -24
	ret
	.cfi_endproc
.LFE3097:
	.seh_endproc
	.section	.text$_ZN9__gnu_cxx17__normal_iteratorIP12ElementosVooSt6vectorIS1_SaIS1_EEEC1ERKS2_,"x"
	.linkonce discard
	.align 2
	.globl	_ZN9__gnu_cxx17__normal_iteratorIP12ElementosVooSt6vectorIS1_SaIS1_EEEC1ERKS2_
	.def	_ZN9__gnu_cxx17__normal_iteratorIP12ElementosVooSt6vectorIS1_SaIS1_EEEC1ERKS2_;	.scl	2;	.type	32;	.endef
	.seh_proc	_ZN9__gnu_cxx17__normal_iteratorIP12ElementosVooSt6vectorIS1_SaIS1_EEEC1ERKS2_
_ZN9__gnu_cxx17__normal_iteratorIP12ElementosVooSt6vectorIS1_SaIS1_EEEC1ERKS2_:
.LFB3100:
	.file 19 "C:/Program Files/CodeBlocks/MinGW/lib/gcc/x86_64-w64-mingw32/8.1.0/include/c++/bits/stl_iterator.h"
	.loc 19 780 7
	.cfi_startproc
	pushq	%rbp
	.seh_pushreg	%rbp
	.cfi_def_cfa_offset 16
	.cfi_offset 6, -16
	movq	%rsp, %rbp
	.seh_setframe	%rbp, 0
	.cfi_def_cfa_register 6
	.seh_endprologue
	movq	%rcx, 16(%rbp)
	movq	%rdx, 24(%rbp)
.LBB28:
	.loc 19 781 23
	movq	24(%rbp), %rax
	movq	(%rax), %rdx
	movq	16(%rbp), %rax
	movq	%rdx, (%rax)
.LBE28:
	.loc 19 781 27
	nop
	popq	%rbp
	.cfi_restore 6
	.cfi_def_cfa 7, 8
	ret
	.cfi_endproc
.LFE3100:
	.seh_endproc
	.section	.text$_ZNKSt6vectorI12ElementosVooSaIS0_EE12_M_check_lenEyPKc,"x"
	.linkonce discard
	.align 2
	.globl	_ZNKSt6vectorI12ElementosVooSaIS0_EE12_M_check_lenEyPKc
	.def	_ZNKSt6vectorI12ElementosVooSaIS0_EE12_M_check_lenEyPKc;	.scl	2;	.type	32;	.endef
	.seh_proc	_ZNKSt6vectorI12ElementosVooSaIS0_EE12_M_check_lenEyPKc
_ZNKSt6vectorI12ElementosVooSaIS0_EE12_M_check_lenEyPKc:
.LFB3101:
	.loc 10 1635 7
	.cfi_startproc
	pushq	%rbp
	.seh_pushreg	%rbp
	.cfi_def_cfa_offset 16
	.cfi_offset 6, -16
	pushq	%rbx
	.seh_pushreg	%rbx
	.cfi_def_cfa_offset 24
	.cfi_offset 3, -24
	subq	$56, %rsp
	.seh_stackalloc	56
	.cfi_def_cfa_offset 80
	leaq	128(%rsp), %rbp
	.seh_setframe	%rbp, 128
	.cfi_def_cfa 6, -48
	.seh_endprologue
	movq	%rcx, -48(%rbp)
	movq	%rdx, -40(%rbp)
	movq	%r8, -32(%rbp)
	.loc 10 1637 17
	movq	-48(%rbp), %rcx
	call	_ZNKSt6vectorI12ElementosVooSaIS0_EE8max_sizeEv
	movq	%rax, %rbx
	movq	-48(%rbp), %rcx
	call	_ZNKSt6vectorI12ElementosVooSaIS0_EE4sizeEv
	subq	%rax, %rbx
	movq	%rbx, %rdx
	.loc 10 1637 26
	movq	-40(%rbp), %rax
	cmpq	%rax, %rdx
	setb	%al
	.loc 10 1637 2
	testb	%al, %al
	je	.L156
	.loc 10 1638 24
	movq	-32(%rbp), %rax
	movq	%rax, %rcx
	call	_ZSt20__throw_length_errorPKc
.L156:
	.loc 10 1640 33
	movq	-48(%rbp), %rcx
	call	_ZNKSt6vectorI12ElementosVooSaIS0_EE4sizeEv
	movq	%rax, %rbx
	.loc 10 1640 43
	movq	-48(%rbp), %rcx
	call	_ZNKSt6vectorI12ElementosVooSaIS0_EE4sizeEv
	movq	%rax, -96(%rbp)
	leaq	-40(%rbp), %rdx
	leaq	-96(%rbp), %rax
	movq	%rax, %rcx
	call	_ZSt3maxIyERKT_S2_S2_
	.loc 10 1640 33
	movq	(%rax), %rax
	.loc 10 1640 18
	addq	%rbx, %rax
	movq	%rax, -88(%rbp)
	.loc 10 1641 16
	movq	-48(%rbp), %rcx
	call	_ZNKSt6vectorI12ElementosVooSaIS0_EE4sizeEv
	.loc 10 1641 48
	cmpq	%rax, -88(%rbp)
	jb	.L157
	.loc 10 1641 34 discriminator 2
	movq	-48(%rbp), %rcx
	call	_ZNKSt6vectorI12ElementosVooSaIS0_EE8max_sizeEv
	.loc 10 1641 25 discriminator 2
	cmpq	%rax, -88(%rbp)
	jbe	.L158
.L157:
	.loc 10 1641 48 discriminator 3
	movq	-48(%rbp), %rcx
	call	_ZNKSt6vectorI12ElementosVooSaIS0_EE8max_sizeEv
	jmp	.L159
.L158:
	.loc 10 1641 48 is_stmt 0 discriminator 4
	movq	-88(%rbp), %rax
.L159:
	.loc 10 1642 7 is_stmt 1 discriminator 6
	addq	$56, %rsp
	popq	%rbx
	.cfi_restore 3
	popq	%rbp
	.cfi_restore 6
	.cfi_def_cfa 7, -40
	ret
	.cfi_endproc
.LFE3101:
	.seh_endproc
	.section	.text$_ZNSt6vectorI12ElementosVooSaIS0_EE5beginEv,"x"
	.linkonce discard
	.align 2
	.globl	_ZNSt6vectorI12ElementosVooSaIS0_EE5beginEv
	.def	_ZNSt6vectorI12ElementosVooSaIS0_EE5beginEv;	.scl	2;	.type	32;	.endef
	.seh_proc	_ZNSt6vectorI12ElementosVooSaIS0_EE5beginEv
_ZNSt6vectorI12ElementosVooSaIS0_EE5beginEv:
.LFB3102:
	.loc 10 698 7
	.cfi_startproc
	pushq	%rbp
	.seh_pushreg	%rbp
	.cfi_def_cfa_offset 16
	.cfi_offset 6, -16
	movq	%rsp, %rbp
	.seh_setframe	%rbp, 0
	.cfi_def_cfa_register 6
	subq	$48, %rsp
	.seh_stackalloc	48
	.seh_endprologue
	movq	%rcx, 16(%rbp)
	.loc 10 699 39
	movq	16(%rbp), %rdx
	.loc 10 699 47
	leaq	-8(%rbp), %rax
	movq	%rax, %rcx
	call	_ZN9__gnu_cxx17__normal_iteratorIP12ElementosVooSt6vectorIS1_SaIS1_EEEC1ERKS2_
	movq	-8(%rbp), %rax
	.loc 10 699 50
	addq	$48, %rsp
	popq	%rbp
	.cfi_restore 6
	.cfi_def_cfa 7, 8
	ret
	.cfi_endproc
.LFE3102:
	.seh_endproc
	.section	.text$_ZN9__gnu_cxxmiIP12ElementosVooSt6vectorIS1_SaIS1_EEEENS_17__normal_iteratorIT_T0_E15difference_typeERKS9_SC_,"x"
	.linkonce discard
	.globl	_ZN9__gnu_cxxmiIP12ElementosVooSt6vectorIS1_SaIS1_EEEENS_17__normal_iteratorIT_T0_E15difference_typeERKS9_SC_
	.def	_ZN9__gnu_cxxmiIP12ElementosVooSt6vectorIS1_SaIS1_EEEENS_17__normal_iteratorIT_T0_E15difference_typeERKS9_SC_;	.scl	2;	.type	32;	.endef
	.seh_proc	_ZN9__gnu_cxxmiIP12ElementosVooSt6vectorIS1_SaIS1_EEEENS_17__normal_iteratorIT_T0_E15difference_typeERKS9_SC_
_ZN9__gnu_cxxmiIP12ElementosVooSt6vectorIS1_SaIS1_EEEENS_17__normal_iteratorIT_T0_E15difference_typeERKS9_SC_:
.LFB3103:
	.loc 19 963 5
	.cfi_startproc
	pushq	%rbp
	.seh_pushreg	%rbp
	.cfi_def_cfa_offset 16
	.cfi_offset 6, -16
	pushq	%rbx
	.seh_pushreg	%rbx
	.cfi_def_cfa_offset 24
	.cfi_offset 3, -24
	subq	$40, %rsp
	.seh_stackalloc	40
	.cfi_def_cfa_offset 64
	leaq	128(%rsp), %rbp
	.seh_setframe	%rbp, 128
	.cfi_def_cfa 6, -64
	.seh_endprologue
	movq	%rcx, -64(%rbp)
	movq	%rdx, -56(%rbp)
	.loc 19 966 27
	movq	-64(%rbp), %rcx
	call	_ZNK9__gnu_cxx17__normal_iteratorIP12ElementosVooSt6vectorIS1_SaIS1_EEE4baseEv
	movq	(%rax), %rbx
	movq	-56(%rbp), %rax
	movq	%rax, %rcx
	call	_ZNK9__gnu_cxx17__normal_iteratorIP12ElementosVooSt6vectorIS1_SaIS1_EEE4baseEv
	movq	(%rax), %rax
	subq	%rax, %rbx
	movq	%rbx, %rax
	.loc 19 966 40
	sarq	$5, %rax
	movq	%rax, %rdx
	movabsq	$-6148914691236517205, %rax
	imulq	%rdx, %rax
	.loc 19 966 43
	addq	$40, %rsp
	popq	%rbx
	.cfi_restore 3
	popq	%rbp
	.cfi_restore 6
	.cfi_def_cfa 7, -24
	ret
	.cfi_endproc
.LFE3103:
	.seh_endproc
	.section	.text$_ZNSt12_Vector_baseI12ElementosVooSaIS0_EE11_M_allocateEy,"x"
	.linkonce discard
	.align 2
	.globl	_ZNSt12_Vector_baseI12ElementosVooSaIS0_EE11_M_allocateEy
	.def	_ZNSt12_Vector_baseI12ElementosVooSaIS0_EE11_M_allocateEy;	.scl	2;	.type	32;	.endef
	.seh_proc	_ZNSt12_Vector_baseI12ElementosVooSaIS0_EE11_M_allocateEy
_ZNSt12_Vector_baseI12ElementosVooSaIS0_EE11_M_allocateEy:
.LFB3104:
	.loc 10 293 7
	.cfi_startproc
	pushq	%rbp
	.seh_pushreg	%rbp
	.cfi_def_cfa_offset 16
	.cfi_offset 6, -16
	movq	%rsp, %rbp
	.seh_setframe	%rbp, 0
	.cfi_def_cfa_register 6
	subq	$32, %rsp
	.seh_stackalloc	32
	.seh_endprologue
	movq	%rcx, 16(%rbp)
	movq	%rdx, 24(%rbp)
	.loc 10 296 18
	cmpq	$0, 24(%rbp)
	je	.L166
	.loc 10 296 34 discriminator 1
	movq	16(%rbp), %rax
	.loc 10 296 33 discriminator 1
	movq	24(%rbp), %rdx
	movq	%rax, %rcx
	call	_ZNSt16allocator_traitsISaI12ElementosVooEE8allocateERS1_y
	.loc 10 296 58 discriminator 1
	jmp	.L168
.L166:
	.loc 10 296 18 discriminator 2
	movl	$0, %eax
.L168:
	.loc 10 297 7 discriminator 5
	addq	$32, %rsp
	popq	%rbp
	.cfi_restore 6
	.cfi_def_cfa 7, 8
	ret
	.cfi_endproc
.LFE3104:
	.seh_endproc
	.section	.text$_ZNK9__gnu_cxx17__normal_iteratorIP12ElementosVooSt6vectorIS1_SaIS1_EEE4baseEv,"x"
	.linkonce discard
	.align 2
	.globl	_ZNK9__gnu_cxx17__normal_iteratorIP12ElementosVooSt6vectorIS1_SaIS1_EEE4baseEv
	.def	_ZNK9__gnu_cxx17__normal_iteratorIP12ElementosVooSt6vectorIS1_SaIS1_EEE4baseEv;	.scl	2;	.type	32;	.endef
	.seh_proc	_ZNK9__gnu_cxx17__normal_iteratorIP12ElementosVooSt6vectorIS1_SaIS1_EEE4baseEv
_ZNK9__gnu_cxx17__normal_iteratorIP12ElementosVooSt6vectorIS1_SaIS1_EEE4baseEv:
.LFB3105:
	.loc 19 845 7
	.cfi_startproc
	pushq	%rbp
	.seh_pushreg	%rbp
	.cfi_def_cfa_offset 16
	.cfi_offset 6, -16
	movq	%rsp, %rbp
	.seh_setframe	%rbp, 0
	.cfi_def_cfa_register 6
	.seh_endprologue
	movq	%rcx, 16(%rbp)
	.loc 19 846 16
	movq	16(%rbp), %rax
	.loc 19 846 28
	popq	%rbp
	.cfi_restore 6
	.cfi_def_cfa 7, 8
	ret
	.cfi_endproc
.LFE3105:
	.seh_endproc
	.section	.text$_ZSt34__uninitialized_move_if_noexcept_aIP12ElementosVooS1_SaIS0_EET0_T_S4_S3_RT1_,"x"
	.linkonce discard
	.globl	_ZSt34__uninitialized_move_if_noexcept_aIP12ElementosVooS1_SaIS0_EET0_T_S4_S3_RT1_
	.def	_ZSt34__uninitialized_move_if_noexcept_aIP12ElementosVooS1_SaIS0_EET0_T_S4_S3_RT1_;	.scl	2;	.type	32;	.endef
	.seh_proc	_ZSt34__uninitialized_move_if_noexcept_aIP12ElementosVooS1_SaIS0_EET0_T_S4_S3_RT1_
_ZSt34__uninitialized_move_if_noexcept_aIP12ElementosVooS1_SaIS0_EET0_T_S4_S3_RT1_:
.LFB3106:
	.loc 17 305 5
	.cfi_startproc
	pushq	%rbp
	.seh_pushreg	%rbp
	.cfi_def_cfa_offset 16
	.cfi_offset 6, -16
	pushq	%rbx
	.seh_pushreg	%rbx
	.cfi_def_cfa_offset 24
	.cfi_offset 3, -24
	subq	$40, %rsp
	.seh_stackalloc	40
	.cfi_def_cfa_offset 64
	leaq	128(%rsp), %rbp
	.seh_setframe	%rbp, 128
	.cfi_def_cfa 6, -64
	.seh_endprologue
	movq	%rcx, -64(%rbp)
	movq	%rdx, -56(%rbp)
	movq	%r8, -48(%rbp)
	movq	%r9, -40(%rbp)
	.loc 17 311 2
	movq	-56(%rbp), %rax
	movq	%rax, %rcx
	call	_ZSt32__make_move_if_noexcept_iteratorI12ElementosVooSt13move_iteratorIPS0_EET0_PT_
	movq	%rax, %rbx
	movq	-64(%rbp), %rcx
	call	_ZSt32__make_move_if_noexcept_iteratorI12ElementosVooSt13move_iteratorIPS0_EET0_PT_
	movq	%rax, %rcx
	movq	-40(%rbp), %rdx
	movq	-48(%rbp), %rax
	movq	%rdx, %r9
	movq	%rax, %r8
	movq	%rbx, %rdx
	call	_ZSt22__uninitialized_copy_aISt13move_iteratorIP12ElementosVooES2_S1_ET0_T_S5_S4_RSaIT1_E
	.loc 17 313 5
	addq	$40, %rsp
	popq	%rbx
	.cfi_restore 3
	popq	%rbp
	.cfi_restore 6
	.cfi_def_cfa 7, -24
	ret
	.cfi_endproc
.LFE3106:
	.seh_endproc
	.section	.text$_ZNSt16allocator_traitsISaI12ElementosVooEE7destroyIS0_EEvRS1_PT_,"x"
	.linkonce discard
	.globl	_ZNSt16allocator_traitsISaI12ElementosVooEE7destroyIS0_EEvRS1_PT_
	.def	_ZNSt16allocator_traitsISaI12ElementosVooEE7destroyIS0_EEvRS1_PT_;	.scl	2;	.type	32;	.endef
	.seh_proc	_ZNSt16allocator_traitsISaI12ElementosVooEE7destroyIS0_EEvRS1_PT_
_ZNSt16allocator_traitsISaI12ElementosVooEE7destroyIS0_EEvRS1_PT_:
.LFB3107:
	.loc 13 486 2
	.cfi_startproc
	pushq	%rbp
	.seh_pushreg	%rbp
	.cfi_def_cfa_offset 16
	.cfi_offset 6, -16
	movq	%rsp, %rbp
	.seh_setframe	%rbp, 0
	.cfi_def_cfa_register 6
	subq	$32, %rsp
	.seh_stackalloc	32
	.seh_endprologue
	movq	%rcx, 16(%rbp)
	movq	%rdx, 24(%rbp)
	.loc 13 487 4
	movq	24(%rbp), %rax
	movq	%rax, %rdx
	movq	16(%rbp), %rcx
	call	_ZN9__gnu_cxx13new_allocatorI12ElementosVooE7destroyIS1_EEvPT_
	.loc 13 487 22
	nop
	addq	$32, %rsp
	popq	%rbp
	.cfi_restore 6
	.cfi_def_cfa 7, 8
	ret
	.cfi_endproc
.LFE3107:
	.seh_endproc
	.section	.text$_ZNSt16allocator_traitsISaI12ElementosVooEE37select_on_container_copy_constructionERKS1_,"x"
	.linkonce discard
	.globl	_ZNSt16allocator_traitsISaI12ElementosVooEE37select_on_container_copy_constructionERKS1_
	.def	_ZNSt16allocator_traitsISaI12ElementosVooEE37select_on_container_copy_constructionERKS1_;	.scl	2;	.type	32;	.endef
	.seh_proc	_ZNSt16allocator_traitsISaI12ElementosVooEE37select_on_container_copy_constructionERKS1_
_ZNSt16allocator_traitsISaI12ElementosVooEE37select_on_container_copy_constructionERKS1_:
.LFB3108:
	.loc 13 504 7
	.cfi_startproc
	pushq	%rbp
	.seh_pushreg	%rbp
	.cfi_def_cfa_offset 16
	.cfi_offset 6, -16
	movq	%rsp, %rbp
	.seh_setframe	%rbp, 0
	.cfi_def_cfa_register 6
	subq	$32, %rsp
	.seh_stackalloc	32
	.seh_endprologue
	movq	%rcx, 16(%rbp)
	movq	%rdx, 24(%rbp)
	.loc 13 505 16
	movq	24(%rbp), %rax
	movq	%rax, %rdx
	movq	16(%rbp), %rcx
	call	_ZNSaI12ElementosVooEC1ERKS0_
	.loc 13 505 23
	movq	16(%rbp), %rax
	addq	$32, %rsp
	popq	%rbp
	.cfi_restore 6
	.cfi_def_cfa 7, 8
	ret
	.cfi_endproc
.LFE3108:
	.seh_endproc
	.section	.text$_ZNSaI12ElementosVooEC2ERKS0_,"x"
	.linkonce discard
	.align 2
	.globl	_ZNSaI12ElementosVooEC2ERKS0_
	.def	_ZNSaI12ElementosVooEC2ERKS0_;	.scl	2;	.type	32;	.endef
	.seh_proc	_ZNSaI12ElementosVooEC2ERKS0_
_ZNSaI12ElementosVooEC2ERKS0_:
.LFB3110:
	.loc 16 133 7
	.cfi_startproc
	pushq	%rbp
	.seh_pushreg	%rbp
	.cfi_def_cfa_offset 16
	.cfi_offset 6, -16
	movq	%rsp, %rbp
	.seh_setframe	%rbp, 0
	.cfi_def_cfa_register 6
	subq	$32, %rsp
	.seh_stackalloc	32
	.seh_endprologue
	movq	%rcx, 16(%rbp)
	movq	%rdx, 24(%rbp)
.LBB29:
	.loc 16 134 34
	movq	24(%rbp), %rax
	movq	%rax, %rdx
	movq	16(%rbp), %rcx
	call	_ZN9__gnu_cxx13new_allocatorI12ElementosVooEC2ERKS2_
.LBE29:
	.loc 16 134 38
	nop
	addq	$32, %rsp
	popq	%rbp
	.cfi_restore 6
	.cfi_def_cfa 7, 8
	ret
	.cfi_endproc
.LFE3110:
	.seh_endproc
	.section	.text$_ZNSaI12ElementosVooEC1ERKS0_,"x"
	.linkonce discard
	.align 2
	.globl	_ZNSaI12ElementosVooEC1ERKS0_
	.def	_ZNSaI12ElementosVooEC1ERKS0_;	.scl	2;	.type	32;	.endef
	.seh_proc	_ZNSaI12ElementosVooEC1ERKS0_
_ZNSaI12ElementosVooEC1ERKS0_:
.LFB3111:
	.loc 16 133 7
	.cfi_startproc
	pushq	%rbp
	.seh_pushreg	%rbp
	.cfi_def_cfa_offset 16
	.cfi_offset 6, -16
	movq	%rsp, %rbp
	.seh_setframe	%rbp, 0
	.cfi_def_cfa_register 6
	subq	$32, %rsp
	.seh_stackalloc	32
	.seh_endprologue
	movq	%rcx, 16(%rbp)
	movq	%rdx, 24(%rbp)
.LBB30:
	.loc 16 134 34
	movq	24(%rbp), %rax
	movq	%rax, %rdx
	movq	16(%rbp), %rcx
	call	_ZN9__gnu_cxx13new_allocatorI12ElementosVooEC2ERKS2_
.LBE30:
	.loc 16 134 38
	nop
	addq	$32, %rsp
	popq	%rbp
	.cfi_restore 6
	.cfi_def_cfa 7, 8
	ret
	.cfi_endproc
.LFE3111:
	.seh_endproc
	.section	.text$_ZN9__gnu_cxx13new_allocatorI12ElementosVooED2Ev,"x"
	.linkonce discard
	.align 2
	.globl	_ZN9__gnu_cxx13new_allocatorI12ElementosVooED2Ev
	.def	_ZN9__gnu_cxx13new_allocatorI12ElementosVooED2Ev;	.scl	2;	.type	32;	.endef
	.seh_proc	_ZN9__gnu_cxx13new_allocatorI12ElementosVooED2Ev
_ZN9__gnu_cxx13new_allocatorI12ElementosVooED2Ev:
.LFB3113:
	.loc 18 86 7
	.cfi_startproc
	pushq	%rbp
	.seh_pushreg	%rbp
	.cfi_def_cfa_offset 16
	.cfi_offset 6, -16
	movq	%rsp, %rbp
	.seh_setframe	%rbp, 0
	.cfi_def_cfa_register 6
	.seh_endprologue
	movq	%rcx, 16(%rbp)
	.loc 18 86 35
	nop
	popq	%rbp
	.cfi_restore 6
	.cfi_def_cfa 7, 8
	ret
	.cfi_endproc
.LFE3113:
	.seh_endproc
	.section	.text$_ZNSt12_Vector_baseI12ElementosVooSaIS0_EE12_Vector_implC1ERKS1_,"x"
	.linkonce discard
	.align 2
	.globl	_ZNSt12_Vector_baseI12ElementosVooSaIS0_EE12_Vector_implC1ERKS1_
	.def	_ZNSt12_Vector_baseI12ElementosVooSaIS0_EE12_Vector_implC1ERKS1_;	.scl	2;	.type	32;	.endef
	.seh_proc	_ZNSt12_Vector_baseI12ElementosVooSaIS0_EE12_Vector_implC1ERKS1_
_ZNSt12_Vector_baseI12ElementosVooSaIS0_EE12_Vector_implC1ERKS1_:
.LFB3117:
	.loc 10 99 2
	.cfi_startproc
	pushq	%rbp
	.seh_pushreg	%rbp
	.cfi_def_cfa_offset 16
	.cfi_offset 6, -16
	movq	%rsp, %rbp
	.seh_setframe	%rbp, 0
	.cfi_def_cfa_register 6
	subq	$32, %rsp
	.seh_stackalloc	32
	.seh_endprologue
	movq	%rcx, 16(%rbp)
	movq	%rdx, 24(%rbp)
.LBB31:
	.loc 10 100 68
	movq	24(%rbp), %rax
	movq	%rax, %rdx
	movq	16(%rbp), %rcx
	call	_ZNSaI12ElementosVooEC2ERKS0_
	movq	16(%rbp), %rax
	movq	$0, (%rax)
	movq	16(%rbp), %rax
	movq	$0, 8(%rax)
	movq	16(%rbp), %rax
	movq	$0, 16(%rax)
.LBE31:
	.loc 10 101 4
	nop
	addq	$32, %rsp
	popq	%rbp
	.cfi_restore 6
	.cfi_def_cfa 7, 8
	ret
	.cfi_endproc
.LFE3117:
	.seh_endproc
	.section	.text$_ZNSt12_Vector_baseI12ElementosVooSaIS0_EE17_M_create_storageEy,"x"
	.linkonce discard
	.align 2
	.globl	_ZNSt12_Vector_baseI12ElementosVooSaIS0_EE17_M_create_storageEy
	.def	_ZNSt12_Vector_baseI12ElementosVooSaIS0_EE17_M_create_storageEy;	.scl	2;	.type	32;	.endef
	.seh_proc	_ZNSt12_Vector_baseI12ElementosVooSaIS0_EE17_M_create_storageEy
_ZNSt12_Vector_baseI12ElementosVooSaIS0_EE17_M_create_storageEy:
.LFB3118:
	.loc 10 309 7
	.cfi_startproc
	pushq	%rbp
	.seh_pushreg	%rbp
	.cfi_def_cfa_offset 16
	.cfi_offset 6, -16
	movq	%rsp, %rbp
	.seh_setframe	%rbp, 0
	.cfi_def_cfa_register 6
	subq	$32, %rsp
	.seh_stackalloc	32
	.seh_endprologue
	movq	%rcx, 16(%rbp)
	movq	%rdx, 24(%rbp)
	.loc 10 311 25
	movq	24(%rbp), %rax
	movq	%rax, %rdx
	movq	16(%rbp), %rcx
	call	_ZNSt12_Vector_baseI12ElementosVooSaIS0_EE11_M_allocateEy
	movq	%rax, %rdx
	.loc 10 311 2
	movq	16(%rbp), %rax
	movq	%rdx, (%rax)
	.loc 10 312 42
	movq	16(%rbp), %rax
	movq	(%rax), %rdx
	.loc 10 312 2
	movq	16(%rbp), %rax
	movq	%rdx, 8(%rax)
	.loc 10 313 50
	movq	16(%rbp), %rax
	movq	(%rax), %rcx
	.loc 10 313 59
	movq	24(%rbp), %rdx
	movq	%rdx, %rax
	addq	%rax, %rax
	addq	%rdx, %rax
	salq	$5, %rax
	leaq	(%rcx,%rax), %rdx
	.loc 10 313 2
	movq	16(%rbp), %rax
	movq	%rdx, 16(%rax)
	.loc 10 314 7
	nop
	addq	$32, %rsp
	popq	%rbp
	.cfi_restore 6
	.cfi_def_cfa 7, 8
	ret
	.cfi_endproc
.LFE3118:
	.seh_endproc
	.section	.text$_ZN9__gnu_cxx17__normal_iteratorIPK12ElementosVooSt6vectorIS1_SaIS1_EEEC1ERKS3_,"x"
	.linkonce discard
	.align 2
	.globl	_ZN9__gnu_cxx17__normal_iteratorIPK12ElementosVooSt6vectorIS1_SaIS1_EEEC1ERKS3_
	.def	_ZN9__gnu_cxx17__normal_iteratorIPK12ElementosVooSt6vectorIS1_SaIS1_EEEC1ERKS3_;	.scl	2;	.type	32;	.endef
	.seh_proc	_ZN9__gnu_cxx17__normal_iteratorIPK12ElementosVooSt6vectorIS1_SaIS1_EEEC1ERKS3_
_ZN9__gnu_cxx17__normal_iteratorIPK12ElementosVooSt6vectorIS1_SaIS1_EEEC1ERKS3_:
.LFB3121:
	.loc 19 780 7
	.cfi_startproc
	pushq	%rbp
	.seh_pushreg	%rbp
	.cfi_def_cfa_offset 16
	.cfi_offset 6, -16
	movq	%rsp, %rbp
	.seh_setframe	%rbp, 0
	.cfi_def_cfa_register 6
	.seh_endprologue
	movq	%rcx, 16(%rbp)
	movq	%rdx, 24(%rbp)
.LBB32:
	.loc 19 781 23
	movq	24(%rbp), %rax
	movq	(%rax), %rdx
	movq	16(%rbp), %rax
	movq	%rdx, (%rax)
.LBE32:
	.loc 19 781 27
	nop
	popq	%rbp
	.cfi_restore 6
	.cfi_def_cfa 7, 8
	ret
	.cfi_endproc
.LFE3121:
	.seh_endproc
	.section	.text$_ZSt18uninitialized_copyIN9__gnu_cxx17__normal_iteratorIPK12ElementosVooSt6vectorIS2_SaIS2_EEEEPS2_ET0_T_SB_SA_,"x"
	.linkonce discard
	.globl	_ZSt18uninitialized_copyIN9__gnu_cxx17__normal_iteratorIPK12ElementosVooSt6vectorIS2_SaIS2_EEEEPS2_ET0_T_SB_SA_
	.def	_ZSt18uninitialized_copyIN9__gnu_cxx17__normal_iteratorIPK12ElementosVooSt6vectorIS2_SaIS2_EEEEPS2_ET0_T_SB_SA_;	.scl	2;	.type	32;	.endef
	.seh_proc	_ZSt18uninitialized_copyIN9__gnu_cxx17__normal_iteratorIPK12ElementosVooSt6vectorIS2_SaIS2_EEEEPS2_ET0_T_SB_SA_
_ZSt18uninitialized_copyIN9__gnu_cxx17__normal_iteratorIPK12ElementosVooSt6vectorIS2_SaIS2_EEEEPS2_ET0_T_SB_SA_:
.LFB3122:
	.loc 17 115 5
	.cfi_startproc
	pushq	%rbp
	.seh_pushreg	%rbp
	.cfi_def_cfa_offset 16
	.cfi_offset 6, -16
	movq	%rsp, %rbp
	.seh_setframe	%rbp, 0
	.cfi_def_cfa_register 6
	subq	$48, %rsp
	.seh_stackalloc	48
	.seh_endprologue
	movq	%rcx, 16(%rbp)
	movq	%rdx, 24(%rbp)
	movq	%r8, 32(%rbp)
	.loc 17 128 18
	movb	$1, -1(%rbp)
	.loc 17 134 15
	movq	32(%rbp), %rdx
	movq	24(%rbp), %rax
	movq	%rdx, %r8
	movq	%rax, %rdx
	movq	16(%rbp), %rcx
	call	_ZNSt20__uninitialized_copyILb0EE13__uninit_copyIN9__gnu_cxx17__normal_iteratorIPK12ElementosVooSt6vectorIS4_SaIS4_EEEEPS4_EET0_T_SD_SC_
	.loc 17 135 5
	addq	$48, %rsp
	popq	%rbp
	.cfi_restore 6
	.cfi_def_cfa 7, 8
	ret
	.cfi_endproc
.LFE3122:
	.seh_endproc
	.section	.text$_ZNSt16allocator_traitsISaI12ElementosVooEE10deallocateERS1_PS0_y,"x"
	.linkonce discard
	.globl	_ZNSt16allocator_traitsISaI12ElementosVooEE10deallocateERS1_PS0_y
	.def	_ZNSt16allocator_traitsISaI12ElementosVooEE10deallocateERS1_PS0_y;	.scl	2;	.type	32;	.endef
	.seh_proc	_ZNSt16allocator_traitsISaI12ElementosVooEE10deallocateERS1_PS0_y
_ZNSt16allocator_traitsISaI12ElementosVooEE10deallocateERS1_PS0_y:
.LFB3161:
	.loc 13 461 7
	.cfi_startproc
	pushq	%rbp
	.seh_pushreg	%rbp
	.cfi_def_cfa_offset 16
	.cfi_offset 6, -16
	movq	%rsp, %rbp
	.seh_setframe	%rbp, 0
	.cfi_def_cfa_register 6
	subq	$32, %rsp
	.seh_stackalloc	32
	.seh_endprologue
	movq	%rcx, 16(%rbp)
	movq	%rdx, 24(%rbp)
	movq	%r8, 32(%rbp)
	.loc 13 462 9
	movq	32(%rbp), %rdx
	movq	24(%rbp), %rax
	movq	%rdx, %r8
	movq	%rax, %rdx
	movq	16(%rbp), %rcx
	call	_ZN9__gnu_cxx13new_allocatorI12ElementosVooE10deallocateEPS1_y
	.loc 13 462 35
	nop
	addq	$32, %rsp
	popq	%rbp
	.cfi_restore 6
	.cfi_def_cfa 7, 8
	ret
	.cfi_endproc
.LFE3161:
	.seh_endproc
	.section	.text$_ZSt11__addressofI12ElementosVooEPT_RS1_,"x"
	.linkonce discard
	.globl	_ZSt11__addressofI12ElementosVooEPT_RS1_
	.def	_ZSt11__addressofI12ElementosVooEPT_RS1_;	.scl	2;	.type	32;	.endef
	.seh_proc	_ZSt11__addressofI12ElementosVooEPT_RS1_
_ZSt11__addressofI12ElementosVooEPT_RS1_:
.LFB3163:
	.loc 12 47 5
	.cfi_startproc
	pushq	%rbp
	.seh_pushreg	%rbp
	.cfi_def_cfa_offset 16
	.cfi_offset 6, -16
	movq	%rsp, %rbp
	.seh_setframe	%rbp, 0
	.cfi_def_cfa_register 6
	.seh_endprologue
	movq	%rcx, 16(%rbp)
	.loc 12 48 37
	movq	16(%rbp), %rax
	.loc 12 48 40
	popq	%rbp
	.cfi_restore 6
	.cfi_def_cfa 7, 8
	ret
	.cfi_endproc
.LFE3163:
	.seh_endproc
	.section	.text$_ZNSt12_Destroy_auxILb0EE9__destroyIP12ElementosVooEEvT_S4_,"x"
	.linkonce discard
	.globl	_ZNSt12_Destroy_auxILb0EE9__destroyIP12ElementosVooEEvT_S4_
	.def	_ZNSt12_Destroy_auxILb0EE9__destroyIP12ElementosVooEEvT_S4_;	.scl	2;	.type	32;	.endef
	.seh_proc	_ZNSt12_Destroy_auxILb0EE9__destroyIP12ElementosVooEEvT_S4_
_ZNSt12_Destroy_auxILb0EE9__destroyIP12ElementosVooEEvT_S4_:
.LFB3162:
	.loc 11 105 9
	.cfi_startproc
	pushq	%rbp
	.seh_pushreg	%rbp
	.cfi_def_cfa_offset 16
	.cfi_offset 6, -16
	movq	%rsp, %rbp
	.seh_setframe	%rbp, 0
	.cfi_def_cfa_register 6
	subq	$32, %rsp
	.seh_stackalloc	32
	.seh_endprologue
	movq	%rcx, 16(%rbp)
	movq	%rdx, 24(%rbp)
.L189:
	.loc 11 107 19 discriminator 2
	movq	16(%rbp), %rax
	cmpq	24(%rbp), %rax
	je	.L190
	.loc 11 108 19 discriminator 1
	movq	16(%rbp), %rcx
	call	_ZSt11__addressofI12ElementosVooEPT_RS1_
	movq	%rax, %rcx
	call	_ZSt8_DestroyI12ElementosVooEvPT_
	.loc 11 107 4 discriminator 1
	addq	$96, 16(%rbp)
	jmp	.L189
.L190:
	.loc 11 109 2
	nop
	addq	$32, %rsp
	popq	%rbp
	.cfi_restore 6
	.cfi_def_cfa 7, 8
	ret
	.cfi_endproc
.LFE3162:
	.seh_endproc
	.section	.text$_ZNKSt6vectorI12ElementosVooSaIS0_EE8max_sizeEv,"x"
	.linkonce discard
	.align 2
	.globl	_ZNKSt6vectorI12ElementosVooSaIS0_EE8max_sizeEv
	.def	_ZNKSt6vectorI12ElementosVooSaIS0_EE8max_sizeEv;	.scl	2;	.type	32;	.endef
	.seh_proc	_ZNKSt6vectorI12ElementosVooSaIS0_EE8max_sizeEv
_ZNKSt6vectorI12ElementosVooSaIS0_EE8max_sizeEv:
.LFB3164:
	.loc 10 810 7
	.cfi_startproc
	pushq	%rbp
	.seh_pushreg	%rbp
	.cfi_def_cfa_offset 16
	.cfi_offset 6, -16
	movq	%rsp, %rbp
	.seh_setframe	%rbp, 0
	.cfi_def_cfa_register 6
	subq	$32, %rsp
	.seh_stackalloc	32
	.seh_endprologue
	movq	%rcx, 16(%rbp)
	.loc 10 811 59
	movq	16(%rbp), %rax
	movq	%rax, %rcx
	call	_ZNKSt12_Vector_baseI12ElementosVooSaIS0_EE19_M_get_Tp_allocatorEv
	.loc 10 811 39
	movq	%rax, %rcx
	call	_ZNSt16allocator_traitsISaI12ElementosVooEE8max_sizeERKS1_
	.loc 10 811 64
	addq	$32, %rsp
	popq	%rbp
	.cfi_restore 6
	.cfi_def_cfa 7, 8
	ret
	.cfi_endproc
.LFE3164:
	.seh_endproc
	.section	.text$_ZSt3maxIyERKT_S2_S2_,"x"
	.linkonce discard
	.globl	_ZSt3maxIyERKT_S2_S2_
	.def	_ZSt3maxIyERKT_S2_S2_;	.scl	2;	.type	32;	.endef
	.seh_proc	_ZSt3maxIyERKT_S2_S2_
_ZSt3maxIyERKT_S2_S2_:
.LFB3165:
	.file 20 "C:/Program Files/CodeBlocks/MinGW/lib/gcc/x86_64-w64-mingw32/8.1.0/include/c++/bits/stl_algobase.h"
	.loc 20 219 5
	.cfi_startproc
	pushq	%rbp
	.seh_pushreg	%rbp
	.cfi_def_cfa_offset 16
	.cfi_offset 6, -16
	movq	%rsp, %rbp
	.seh_setframe	%rbp, 0
	.cfi_def_cfa_register 6
	.seh_endprologue
	movq	%rcx, 16(%rbp)
	movq	%rdx, 24(%rbp)
	.loc 20 224 15
	movq	16(%rbp), %rax
	movq	(%rax), %rdx
	movq	24(%rbp), %rax
	movq	(%rax), %rax
	.loc 20 224 7
	cmpq	%rax, %rdx
	jnb	.L194
	.loc 20 225 9
	movq	24(%rbp), %rax
	jmp	.L195
.L194:
	.loc 20 226 14
	movq	16(%rbp), %rax
.L195:
	.loc 20 227 5
	popq	%rbp
	.cfi_restore 6
	.cfi_def_cfa 7, 8
	ret
	.cfi_endproc
.LFE3165:
	.seh_endproc
	.section	.text$_ZNSt16allocator_traitsISaI12ElementosVooEE8allocateERS1_y,"x"
	.linkonce discard
	.globl	_ZNSt16allocator_traitsISaI12ElementosVooEE8allocateERS1_y
	.def	_ZNSt16allocator_traitsISaI12ElementosVooEE8allocateERS1_y;	.scl	2;	.type	32;	.endef
	.seh_proc	_ZNSt16allocator_traitsISaI12ElementosVooEE8allocateERS1_y
_ZNSt16allocator_traitsISaI12ElementosVooEE8allocateERS1_y:
.LFB3166:
	.loc 13 435 7
	.cfi_startproc
	pushq	%rbp
	.seh_pushreg	%rbp
	.cfi_def_cfa_offset 16
	.cfi_offset 6, -16
	movq	%rsp, %rbp
	.seh_setframe	%rbp, 0
	.cfi_def_cfa_register 6
	subq	$32, %rsp
	.seh_stackalloc	32
	.seh_endprologue
	movq	%rcx, 16(%rbp)
	movq	%rdx, 24(%rbp)
	.loc 13 436 32
	movq	24(%rbp), %rax
	movl	$0, %r8d
	movq	%rax, %rdx
	movq	16(%rbp), %rcx
	call	_ZN9__gnu_cxx13new_allocatorI12ElementosVooE8allocateEyPKv
	.loc 13 436 35
	addq	$32, %rsp
	popq	%rbp
	.cfi_restore 6
	.cfi_def_cfa 7, 8
	ret
	.cfi_endproc
.LFE3166:
	.seh_endproc
	.section	.text$_ZSt32__make_move_if_noexcept_iteratorI12ElementosVooSt13move_iteratorIPS0_EET0_PT_,"x"
	.linkonce discard
	.globl	_ZSt32__make_move_if_noexcept_iteratorI12ElementosVooSt13move_iteratorIPS0_EET0_PT_
	.def	_ZSt32__make_move_if_noexcept_iteratorI12ElementosVooSt13move_iteratorIPS0_EET0_PT_;	.scl	2;	.type	32;	.endef
	.seh_proc	_ZSt32__make_move_if_noexcept_iteratorI12ElementosVooSt13move_iteratorIPS0_EET0_PT_
_ZSt32__make_move_if_noexcept_iteratorI12ElementosVooSt13move_iteratorIPS0_EET0_PT_:
.LFB3167:
	.loc 19 1215 5
	.cfi_startproc
	pushq	%rbp
	.seh_pushreg	%rbp
	.cfi_def_cfa_offset 16
	.cfi_offset 6, -16
	movq	%rsp, %rbp
	.seh_setframe	%rbp, 0
	.cfi_def_cfa_register 6
	subq	$48, %rsp
	.seh_stackalloc	48
	.seh_endprologue
	movq	%rcx, 16(%rbp)
	.loc 19 1216 29
	leaq	-8(%rbp), %rax
	movq	16(%rbp), %rdx
	movq	%rax, %rcx
	call	_ZNSt13move_iteratorIP12ElementosVooEC1ES1_
	movq	-8(%rbp), %rax
	.loc 19 1216 32
	addq	$48, %rsp
	popq	%rbp
	.cfi_restore 6
	.cfi_def_cfa 7, 8
	ret
	.cfi_endproc
.LFE3167:
	.seh_endproc
	.section	.text$_ZSt22__uninitialized_copy_aISt13move_iteratorIP12ElementosVooES2_S1_ET0_T_S5_S4_RSaIT1_E,"x"
	.linkonce discard
	.globl	_ZSt22__uninitialized_copy_aISt13move_iteratorIP12ElementosVooES2_S1_ET0_T_S5_S4_RSaIT1_E
	.def	_ZSt22__uninitialized_copy_aISt13move_iteratorIP12ElementosVooES2_S1_ET0_T_S5_S4_RSaIT1_E;	.scl	2;	.type	32;	.endef
	.seh_proc	_ZSt22__uninitialized_copy_aISt13move_iteratorIP12ElementosVooES2_S1_ET0_T_S5_S4_RSaIT1_E
_ZSt22__uninitialized_copy_aISt13move_iteratorIP12ElementosVooES2_S1_ET0_T_S5_S4_RSaIT1_E:
.LFB3168:
	.loc 17 287 5
	.cfi_startproc
	pushq	%rbp
	.seh_pushreg	%rbp
	.cfi_def_cfa_offset 16
	.cfi_offset 6, -16
	movq	%rsp, %rbp
	.seh_setframe	%rbp, 0
	.cfi_def_cfa_register 6
	subq	$32, %rsp
	.seh_stackalloc	32
	.seh_endprologue
	movq	%rcx, 16(%rbp)
	movq	%rdx, 24(%rbp)
	movq	%r8, 32(%rbp)
	movq	%r9, 40(%rbp)
	.loc 17 289 37
	movq	32(%rbp), %rdx
	movq	24(%rbp), %rax
	movq	%rdx, %r8
	movq	%rax, %rdx
	movq	16(%rbp), %rcx
	call	_ZSt18uninitialized_copyISt13move_iteratorIP12ElementosVooES2_ET0_T_S5_S4_
	.loc 17 289 66
	addq	$32, %rsp
	popq	%rbp
	.cfi_restore 6
	.cfi_def_cfa 7, 8
	ret
	.cfi_endproc
.LFE3168:
	.seh_endproc
	.section	.text$_ZN9__gnu_cxx13new_allocatorI12ElementosVooE7destroyIS1_EEvPT_,"x"
	.linkonce discard
	.align 2
	.globl	_ZN9__gnu_cxx13new_allocatorI12ElementosVooE7destroyIS1_EEvPT_
	.def	_ZN9__gnu_cxx13new_allocatorI12ElementosVooE7destroyIS1_EEvPT_;	.scl	2;	.type	32;	.endef
	.seh_proc	_ZN9__gnu_cxx13new_allocatorI12ElementosVooE7destroyIS1_EEvPT_
_ZN9__gnu_cxx13new_allocatorI12ElementosVooE7destroyIS1_EEvPT_:
.LFB3169:
	.loc 18 140 2
	.cfi_startproc
	pushq	%rbp
	.seh_pushreg	%rbp
	.cfi_def_cfa_offset 16
	.cfi_offset 6, -16
	movq	%rsp, %rbp
	.seh_setframe	%rbp, 0
	.cfi_def_cfa_register 6
	subq	$32, %rsp
	.seh_stackalloc	32
	.seh_endprologue
	movq	%rcx, 16(%rbp)
	movq	%rdx, 24(%rbp)
	.loc 18 140 22
	movq	24(%rbp), %rax
	movq	(%rax), %rax
	movq	(%rax), %rax
	movq	24(%rbp), %rdx
	movq	%rdx, %rcx
	call	*%rax
.LVL15:
	.loc 18 140 35
	nop
	addq	$32, %rsp
	popq	%rbp
	.cfi_restore 6
	.cfi_def_cfa 7, 8
	ret
	.cfi_endproc
.LFE3169:
	.seh_endproc
	.section	.text$_ZN9__gnu_cxx13new_allocatorI12ElementosVooEC2ERKS2_,"x"
	.linkonce discard
	.align 2
	.globl	_ZN9__gnu_cxx13new_allocatorI12ElementosVooEC2ERKS2_
	.def	_ZN9__gnu_cxx13new_allocatorI12ElementosVooEC2ERKS2_;	.scl	2;	.type	32;	.endef
	.seh_proc	_ZN9__gnu_cxx13new_allocatorI12ElementosVooEC2ERKS2_
_ZN9__gnu_cxx13new_allocatorI12ElementosVooEC2ERKS2_:
.LFB3171:
	.loc 18 81 7
	.cfi_startproc
	pushq	%rbp
	.seh_pushreg	%rbp
	.cfi_def_cfa_offset 16
	.cfi_offset 6, -16
	movq	%rsp, %rbp
	.seh_setframe	%rbp, 0
	.cfi_def_cfa_register 6
	.seh_endprologue
	movq	%rcx, 16(%rbp)
	movq	%rdx, 24(%rbp)
	.loc 18 81 54
	nop
	popq	%rbp
	.cfi_restore 6
	.cfi_def_cfa 7, 8
	ret
	.cfi_endproc
.LFE3171:
	.seh_endproc
	.section	.text$_ZNSt20__uninitialized_copyILb0EE13__uninit_copyIN9__gnu_cxx17__normal_iteratorIPK12ElementosVooSt6vectorIS4_SaIS4_EEEEPS4_EET0_T_SD_SC_,"x"
	.linkonce discard
	.globl	_ZNSt20__uninitialized_copyILb0EE13__uninit_copyIN9__gnu_cxx17__normal_iteratorIPK12ElementosVooSt6vectorIS4_SaIS4_EEEEPS4_EET0_T_SD_SC_
	.def	_ZNSt20__uninitialized_copyILb0EE13__uninit_copyIN9__gnu_cxx17__normal_iteratorIPK12ElementosVooSt6vectorIS4_SaIS4_EEEEPS4_EET0_T_SD_SC_;	.scl	2;	.type	32;	.endef
	.seh_proc	_ZNSt20__uninitialized_copyILb0EE13__uninit_copyIN9__gnu_cxx17__normal_iteratorIPK12ElementosVooSt6vectorIS4_SaIS4_EEEEPS4_EET0_T_SD_SC_
_ZNSt20__uninitialized_copyILb0EE13__uninit_copyIN9__gnu_cxx17__normal_iteratorIPK12ElementosVooSt6vectorIS4_SaIS4_EEEEPS4_EET0_T_SD_SC_:
.LFB3173:
	.loc 17 76 9
	.cfi_startproc
	pushq	%rbp
	.seh_pushreg	%rbp
	.cfi_def_cfa_offset 16
	.cfi_offset 6, -16
	pushq	%rbx
	.seh_pushreg	%rbx
	.cfi_def_cfa_offset 24
	.cfi_offset 3, -24
	subq	$56, %rsp
	.seh_stackalloc	56
	.cfi_def_cfa_offset 80
	leaq	128(%rsp), %rbp
	.seh_setframe	%rbp, 128
	.cfi_def_cfa 6, -48
	.seh_endprologue
	movq	%rcx, -48(%rbp)
	movq	%rdx, -40(%rbp)
	movq	%r8, -32(%rbp)
	.loc 17 79 21
	movq	-32(%rbp), %rax
	movq	%rax, -88(%rbp)
.L206:
	.loc 17 82 23 discriminator 2
	leaq	-40(%rbp), %rax
	movq	%rax, %rdx
	leaq	-48(%rbp), %rcx
	call	_ZN9__gnu_cxxneIPK12ElementosVooSt6vectorIS1_SaIS1_EEEEbRKNS_17__normal_iteratorIT_T0_EESC_
	testb	%al, %al
	je	.L205
	.loc 17 83 45 discriminator 1
	leaq	-48(%rbp), %rcx
	call	_ZNK9__gnu_cxx17__normal_iteratorIPK12ElementosVooSt6vectorIS1_SaIS1_EEEdeEv
	movq	%rax, %rbx
	.loc 17 83 18 discriminator 1
	movq	-88(%rbp), %rax
	movq	%rax, %rcx
	call	_ZSt11__addressofI12ElementosVooEPT_RS1_
	movq	%rbx, %rdx
	movq	%rax, %rcx
	call	_ZSt10_ConstructI12ElementosVooJRKS0_EEvPT_DpOT0_
	.loc 17 82 34 discriminator 1
	leaq	-48(%rbp), %rcx
	call	_ZN9__gnu_cxx17__normal_iteratorIPK12ElementosVooSt6vectorIS1_SaIS1_EEEppEv
	.loc 17 82 8 discriminator 1
	addq	$96, -88(%rbp)
	jmp	.L206
.L205:
	.loc 17 84 15
	movq	-88(%rbp), %rax
	.loc 17 91 2
	addq	$56, %rsp
	popq	%rbx
	.cfi_restore 3
	popq	%rbp
	.cfi_restore 6
	.cfi_def_cfa 7, -40
	ret
	.cfi_endproc
.LFE3173:
	.seh_endproc
	.section	.text$_ZN9__gnu_cxx13new_allocatorI12ElementosVooE10deallocateEPS1_y,"x"
	.linkonce discard
	.align 2
	.globl	_ZN9__gnu_cxx13new_allocatorI12ElementosVooE10deallocateEPS1_y
	.def	_ZN9__gnu_cxx13new_allocatorI12ElementosVooE10deallocateEPS1_y;	.scl	2;	.type	32;	.endef
	.seh_proc	_ZN9__gnu_cxx13new_allocatorI12ElementosVooE10deallocateEPS1_y
_ZN9__gnu_cxx13new_allocatorI12ElementosVooE10deallocateEPS1_y:
.LFB3200:
	.loc 18 116 7
	.cfi_startproc
	pushq	%rbp
	.seh_pushreg	%rbp
	.cfi_def_cfa_offset 16
	.cfi_offset 6, -16
	movq	%rsp, %rbp
	.seh_setframe	%rbp, 0
	.cfi_def_cfa_register 6
	subq	$32, %rsp
	.seh_stackalloc	32
	.seh_endprologue
	movq	%rcx, 16(%rbp)
	movq	%rdx, 24(%rbp)
	movq	%r8, 32(%rbp)
	.loc 18 125 19
	movq	24(%rbp), %rax
	movq	%rax, %rcx
	call	_ZdlPv
	.loc 18 126 7
	nop
	addq	$32, %rsp
	popq	%rbp
	.cfi_restore 6
	.cfi_def_cfa 7, 8
	ret
	.cfi_endproc
.LFE3200:
	.seh_endproc
	.section	.text$_ZSt8_DestroyI12ElementosVooEvPT_,"x"
	.linkonce discard
	.globl	_ZSt8_DestroyI12ElementosVooEvPT_
	.def	_ZSt8_DestroyI12ElementosVooEvPT_;	.scl	2;	.type	32;	.endef
	.seh_proc	_ZSt8_DestroyI12ElementosVooEvPT_
_ZSt8_DestroyI12ElementosVooEvPT_:
.LFB3201:
	.loc 11 97 5
	.cfi_startproc
	pushq	%rbp
	.seh_pushreg	%rbp
	.cfi_def_cfa_offset 16
	.cfi_offset 6, -16
	movq	%rsp, %rbp
	.seh_setframe	%rbp, 0
	.cfi_def_cfa_register 6
	subq	$32, %rsp
	.seh_stackalloc	32
	.seh_endprologue
	movq	%rcx, 16(%rbp)
	.loc 11 98 7
	movq	16(%rbp), %rax
	movq	(%rax), %rax
	movq	(%rax), %rax
	movq	16(%rbp), %rcx
	call	*%rax
.LVL16:
	.loc 11 98 26
	nop
	addq	$32, %rsp
	popq	%rbp
	.cfi_restore 6
	.cfi_def_cfa 7, 8
	ret
	.cfi_endproc
.LFE3201:
	.seh_endproc
	.section	.text$_ZNSt16allocator_traitsISaI12ElementosVooEE8max_sizeERKS1_,"x"
	.linkonce discard
	.globl	_ZNSt16allocator_traitsISaI12ElementosVooEE8max_sizeERKS1_
	.def	_ZNSt16allocator_traitsISaI12ElementosVooEE8max_sizeERKS1_;	.scl	2;	.type	32;	.endef
	.seh_proc	_ZNSt16allocator_traitsISaI12ElementosVooEE8max_sizeERKS1_
_ZNSt16allocator_traitsISaI12ElementosVooEE8max_sizeERKS1_:
.LFB3202:
	.loc 13 495 7
	.cfi_startproc
	pushq	%rbp
	.seh_pushreg	%rbp
	.cfi_def_cfa_offset 16
	.cfi_offset 6, -16
	movq	%rsp, %rbp
	.seh_setframe	%rbp, 0
	.cfi_def_cfa_register 6
	subq	$32, %rsp
	.seh_stackalloc	32
	.seh_endprologue
	movq	%rcx, 16(%rbp)
	.loc 13 496 29
	movq	16(%rbp), %rcx
	call	_ZNK9__gnu_cxx13new_allocatorI12ElementosVooE8max_sizeEv
	.loc 13 496 32
	addq	$32, %rsp
	popq	%rbp
	.cfi_restore 6
	.cfi_def_cfa 7, 8
	ret
	.cfi_endproc
.LFE3202:
	.seh_endproc
	.section	.text$_ZN9__gnu_cxx13new_allocatorI12ElementosVooE8allocateEyPKv,"x"
	.linkonce discard
	.align 2
	.globl	_ZN9__gnu_cxx13new_allocatorI12ElementosVooE8allocateEyPKv
	.def	_ZN9__gnu_cxx13new_allocatorI12ElementosVooE8allocateEyPKv;	.scl	2;	.type	32;	.endef
	.seh_proc	_ZN9__gnu_cxx13new_allocatorI12ElementosVooE8allocateEyPKv
_ZN9__gnu_cxx13new_allocatorI12ElementosVooE8allocateEyPKv:
.LFB3203:
	.loc 18 99 7
	.cfi_startproc
	pushq	%rbp
	.seh_pushreg	%rbp
	.cfi_def_cfa_offset 16
	.cfi_offset 6, -16
	movq	%rsp, %rbp
	.seh_setframe	%rbp, 0
	.cfi_def_cfa_register 6
	subq	$32, %rsp
	.seh_stackalloc	32
	.seh_endprologue
	movq	%rcx, 16(%rbp)
	movq	%rdx, 24(%rbp)
	movq	%r8, 32(%rbp)
	.loc 18 101 10
	movq	16(%rbp), %rcx
	call	_ZNK9__gnu_cxx13new_allocatorI12ElementosVooE8max_sizeEv
	cmpq	%rax, 24(%rbp)
	seta	%al
	.loc 18 101 2
	testb	%al, %al
	je	.L213
	.loc 18 102 26
	call	_ZSt17__throw_bad_allocv
.L213:
	.loc 18 111 41
	movq	24(%rbp), %rdx
	movq	%rdx, %rax
	addq	%rax, %rax
	addq	%rdx, %rax
	salq	$5, %rax
	movq	%rax, %rcx
	call	_Znwy
	.loc 18 112 7
	addq	$32, %rsp
	popq	%rbp
	.cfi_restore 6
	.cfi_def_cfa 7, 8
	ret
	.cfi_endproc
.LFE3203:
	.seh_endproc
	.section	.text$_ZNSt13move_iteratorIP12ElementosVooEC1ES1_,"x"
	.linkonce discard
	.align 2
	.globl	_ZNSt13move_iteratorIP12ElementosVooEC1ES1_
	.def	_ZNSt13move_iteratorIP12ElementosVooEC1ES1_;	.scl	2;	.type	32;	.endef
	.seh_proc	_ZNSt13move_iteratorIP12ElementosVooEC1ES1_
_ZNSt13move_iteratorIP12ElementosVooEC1ES1_:
.LFB3206:
	.loc 19 1030 7
	.cfi_startproc
	pushq	%rbp
	.seh_pushreg	%rbp
	.cfi_def_cfa_offset 16
	.cfi_offset 6, -16
	movq	%rsp, %rbp
	.seh_setframe	%rbp, 0
	.cfi_def_cfa_register 6
	.seh_endprologue
	movq	%rcx, 16(%rbp)
	movq	%rdx, 24(%rbp)
.LBB33:
	.loc 19 1031 23
	movq	16(%rbp), %rax
	movq	24(%rbp), %rdx
	movq	%rdx, (%rax)
.LBE33:
	.loc 19 1031 27
	nop
	popq	%rbp
	.cfi_restore 6
	.cfi_def_cfa 7, 8
	ret
	.cfi_endproc
.LFE3206:
	.seh_endproc
	.section	.text$_ZSt18uninitialized_copyISt13move_iteratorIP12ElementosVooES2_ET0_T_S5_S4_,"x"
	.linkonce discard
	.globl	_ZSt18uninitialized_copyISt13move_iteratorIP12ElementosVooES2_ET0_T_S5_S4_
	.def	_ZSt18uninitialized_copyISt13move_iteratorIP12ElementosVooES2_ET0_T_S5_S4_;	.scl	2;	.type	32;	.endef
	.seh_proc	_ZSt18uninitialized_copyISt13move_iteratorIP12ElementosVooES2_ET0_T_S5_S4_
_ZSt18uninitialized_copyISt13move_iteratorIP12ElementosVooES2_ET0_T_S5_S4_:
.LFB3207:
	.loc 17 115 5
	.cfi_startproc
	pushq	%rbp
	.seh_pushreg	%rbp
	.cfi_def_cfa_offset 16
	.cfi_offset 6, -16
	movq	%rsp, %rbp
	.seh_setframe	%rbp, 0
	.cfi_def_cfa_register 6
	subq	$48, %rsp
	.seh_stackalloc	48
	.seh_endprologue
	movq	%rcx, 16(%rbp)
	movq	%rdx, 24(%rbp)
	movq	%r8, 32(%rbp)
	.loc 17 128 18
	movb	$1, -1(%rbp)
	.loc 17 134 15
	movq	32(%rbp), %rdx
	movq	24(%rbp), %rax
	movq	%rdx, %r8
	movq	%rax, %rdx
	movq	16(%rbp), %rcx
	call	_ZNSt20__uninitialized_copyILb0EE13__uninit_copyISt13move_iteratorIP12ElementosVooES4_EET0_T_S7_S6_
	.loc 17 135 5
	addq	$48, %rsp
	popq	%rbp
	.cfi_restore 6
	.cfi_def_cfa 7, 8
	ret
	.cfi_endproc
.LFE3207:
	.seh_endproc
	.section	.text$_ZN9__gnu_cxxneIPK12ElementosVooSt6vectorIS1_SaIS1_EEEEbRKNS_17__normal_iteratorIT_T0_EESC_,"x"
	.linkonce discard
	.globl	_ZN9__gnu_cxxneIPK12ElementosVooSt6vectorIS1_SaIS1_EEEEbRKNS_17__normal_iteratorIT_T0_EESC_
	.def	_ZN9__gnu_cxxneIPK12ElementosVooSt6vectorIS1_SaIS1_EEEEbRKNS_17__normal_iteratorIT_T0_EESC_;	.scl	2;	.type	32;	.endef
	.seh_proc	_ZN9__gnu_cxxneIPK12ElementosVooSt6vectorIS1_SaIS1_EEEEbRKNS_17__normal_iteratorIT_T0_EESC_
_ZN9__gnu_cxxneIPK12ElementosVooSt6vectorIS1_SaIS1_EEEEbRKNS_17__normal_iteratorIT_T0_EESC_:
.LFB3208:
	.loc 19 881 5
	.cfi_startproc
	pushq	%rbp
	.seh_pushreg	%rbp
	.cfi_def_cfa_offset 16
	.cfi_offset 6, -16
	pushq	%rbx
	.seh_pushreg	%rbx
	.cfi_def_cfa_offset 24
	.cfi_offset 3, -24
	subq	$40, %rsp
	.seh_stackalloc	40
	.cfi_def_cfa_offset 64
	leaq	128(%rsp), %rbp
	.seh_setframe	%rbp, 128
	.cfi_def_cfa 6, -64
	.seh_endprologue
	movq	%rcx, -64(%rbp)
	movq	%rdx, -56(%rbp)
	.loc 19 884 27
	movq	-64(%rbp), %rcx
	call	_ZNK9__gnu_cxx17__normal_iteratorIPK12ElementosVooSt6vectorIS1_SaIS1_EEE4baseEv
	movq	(%rax), %rbx
	movq	-56(%rbp), %rax
	movq	%rax, %rcx
	call	_ZNK9__gnu_cxx17__normal_iteratorIPK12ElementosVooSt6vectorIS1_SaIS1_EEE4baseEv
	movq	(%rax), %rax
	.loc 19 884 41
	cmpq	%rax, %rbx
	setne	%al
	.loc 19 884 44
	addq	$40, %rsp
	popq	%rbx
	.cfi_restore 3
	popq	%rbp
	.cfi_restore 6
	.cfi_def_cfa 7, -24
	ret
	.cfi_endproc
.LFE3208:
	.seh_endproc
	.section	.text$_ZN9__gnu_cxx17__normal_iteratorIPK12ElementosVooSt6vectorIS1_SaIS1_EEEppEv,"x"
	.linkonce discard
	.align 2
	.globl	_ZN9__gnu_cxx17__normal_iteratorIPK12ElementosVooSt6vectorIS1_SaIS1_EEEppEv
	.def	_ZN9__gnu_cxx17__normal_iteratorIPK12ElementosVooSt6vectorIS1_SaIS1_EEEppEv;	.scl	2;	.type	32;	.endef
	.seh_proc	_ZN9__gnu_cxx17__normal_iteratorIPK12ElementosVooSt6vectorIS1_SaIS1_EEEppEv
_ZN9__gnu_cxx17__normal_iteratorIPK12ElementosVooSt6vectorIS1_SaIS1_EEEppEv:
.LFB3209:
	.loc 19 801 7
	.cfi_startproc
	pushq	%rbp
	.seh_pushreg	%rbp
	.cfi_def_cfa_offset 16
	.cfi_offset 6, -16
	movq	%rsp, %rbp
	.seh_setframe	%rbp, 0
	.cfi_def_cfa_register 6
	.seh_endprologue
	movq	%rcx, 16(%rbp)
	.loc 19 803 4
	movq	16(%rbp), %rax
	movq	(%rax), %rax
	.loc 19 803 2
	leaq	96(%rax), %rdx
	movq	16(%rbp), %rax
	movq	%rdx, (%rax)
	.loc 19 804 10
	movq	16(%rbp), %rax
	.loc 19 805 7
	popq	%rbp
	.cfi_restore 6
	.cfi_def_cfa 7, 8
	ret
	.cfi_endproc
.LFE3209:
	.seh_endproc
	.section	.text$_ZNK9__gnu_cxx17__normal_iteratorIPK12ElementosVooSt6vectorIS1_SaIS1_EEEdeEv,"x"
	.linkonce discard
	.align 2
	.globl	_ZNK9__gnu_cxx17__normal_iteratorIPK12ElementosVooSt6vectorIS1_SaIS1_EEEdeEv
	.def	_ZNK9__gnu_cxx17__normal_iteratorIPK12ElementosVooSt6vectorIS1_SaIS1_EEEdeEv;	.scl	2;	.type	32;	.endef
	.seh_proc	_ZNK9__gnu_cxx17__normal_iteratorIPK12ElementosVooSt6vectorIS1_SaIS1_EEEdeEv
_ZNK9__gnu_cxx17__normal_iteratorIPK12ElementosVooSt6vectorIS1_SaIS1_EEEdeEv:
.LFB3210:
	.loc 19 793 7
	.cfi_startproc
	pushq	%rbp
	.seh_pushreg	%rbp
	.cfi_def_cfa_offset 16
	.cfi_offset 6, -16
	movq	%rsp, %rbp
	.seh_setframe	%rbp, 0
	.cfi_def_cfa_register 6
	.seh_endprologue
	movq	%rcx, 16(%rbp)
	.loc 19 794 17
	movq	16(%rbp), %rax
	movq	(%rax), %rax
	.loc 19 794 29
	popq	%rbp
	.cfi_restore 6
	.cfi_def_cfa 7, 8
	ret
	.cfi_endproc
.LFE3210:
	.seh_endproc
	.section	.text$_ZSt10_ConstructI12ElementosVooJRKS0_EEvPT_DpOT0_,"x"
	.linkonce discard
	.globl	_ZSt10_ConstructI12ElementosVooJRKS0_EEvPT_DpOT0_
	.def	_ZSt10_ConstructI12ElementosVooJRKS0_EEvPT_DpOT0_;	.scl	2;	.type	32;	.endef
	.seh_proc	_ZSt10_ConstructI12ElementosVooJRKS0_EEvPT_DpOT0_
_ZSt10_ConstructI12ElementosVooJRKS0_EEvPT_DpOT0_:
.LFB3211:
	.loc 11 74 5
	.cfi_startproc
	pushq	%rbp
	.seh_pushreg	%rbp
	.cfi_def_cfa_offset 16
	.cfi_offset 6, -16
	pushq	%rbx
	.seh_pushreg	%rbx
	.cfi_def_cfa_offset 24
	.cfi_offset 3, -24
	subq	$40, %rsp
	.seh_stackalloc	40
	.cfi_def_cfa_offset 64
	leaq	128(%rsp), %rbp
	.seh_setframe	%rbp, 128
	.cfi_def_cfa 6, -64
	.seh_endprologue
	movq	%rcx, -64(%rbp)
	movq	%rdx, -56(%rbp)
	.loc 11 75 61
	movq	-56(%rbp), %rax
	movq	%rax, %rcx
	call	_ZSt7forwardIRK12ElementosVooEOT_RNSt16remove_referenceIS3_E4typeE
	movq	%rax, %rbx
	.loc 11 75 7
	movq	-64(%rbp), %rax
	movq	%rax, %rdx
	movl	$96, %ecx
	call	_ZnwyPv
	movq	%rbx, %rdx
	movq	%rax, %rcx
	call	_ZN12ElementosVooC1ERKS_
	.loc 11 75 75
	nop
	addq	$40, %rsp
	popq	%rbx
	.cfi_restore 3
	popq	%rbp
	.cfi_restore 6
	.cfi_def_cfa 7, -24
	ret
	.cfi_endproc
.LFE3211:
	.seh_endproc
	.section	.text$_ZNK9__gnu_cxx13new_allocatorI12ElementosVooE8max_sizeEv,"x"
	.linkonce discard
	.align 2
	.globl	_ZNK9__gnu_cxx13new_allocatorI12ElementosVooE8max_sizeEv
	.def	_ZNK9__gnu_cxx13new_allocatorI12ElementosVooE8max_sizeEv;	.scl	2;	.type	32;	.endef
	.seh_proc	_ZNK9__gnu_cxx13new_allocatorI12ElementosVooE8max_sizeEv
_ZNK9__gnu_cxx13new_allocatorI12ElementosVooE8max_sizeEv:
.LFB3225:
	.loc 18 129 7
	.cfi_startproc
	pushq	%rbp
	.seh_pushreg	%rbp
	.cfi_def_cfa_offset 16
	.cfi_offset 6, -16
	movq	%rsp, %rbp
	.seh_setframe	%rbp, 0
	.cfi_def_cfa_register 6
	.seh_endprologue
	movq	%rcx, 16(%rbp)
	.loc 18 130 39
	movabsq	$192153584101141162, %rax
	.loc 18 130 42
	popq	%rbp
	.cfi_restore 6
	.cfi_def_cfa 7, 8
	ret
	.cfi_endproc
.LFE3225:
	.seh_endproc
	.section	.text$_ZNSt20__uninitialized_copyILb0EE13__uninit_copyISt13move_iteratorIP12ElementosVooES4_EET0_T_S7_S6_,"x"
	.linkonce discard
	.globl	_ZNSt20__uninitialized_copyILb0EE13__uninit_copyISt13move_iteratorIP12ElementosVooES4_EET0_T_S7_S6_
	.def	_ZNSt20__uninitialized_copyILb0EE13__uninit_copyISt13move_iteratorIP12ElementosVooES4_EET0_T_S7_S6_;	.scl	2;	.type	32;	.endef
	.seh_proc	_ZNSt20__uninitialized_copyILb0EE13__uninit_copyISt13move_iteratorIP12ElementosVooES4_EET0_T_S7_S6_
_ZNSt20__uninitialized_copyILb0EE13__uninit_copyISt13move_iteratorIP12ElementosVooES4_EET0_T_S7_S6_:
.LFB3226:
	.loc 17 76 9
	.cfi_startproc
	pushq	%rbp
	.seh_pushreg	%rbp
	.cfi_def_cfa_offset 16
	.cfi_offset 6, -16
	pushq	%rbx
	.seh_pushreg	%rbx
	.cfi_def_cfa_offset 24
	.cfi_offset 3, -24
	subq	$56, %rsp
	.seh_stackalloc	56
	.cfi_def_cfa_offset 80
	leaq	128(%rsp), %rbp
	.seh_setframe	%rbp, 128
	.cfi_def_cfa 6, -48
	.seh_endprologue
	movq	%rcx, -48(%rbp)
	movq	%rdx, -40(%rbp)
	movq	%r8, -32(%rbp)
	.loc 17 79 21
	movq	-32(%rbp), %rax
	movq	%rax, -88(%rbp)
.L229:
	.loc 17 82 23 discriminator 3
	leaq	-40(%rbp), %rax
	movq	%rax, %rdx
	leaq	-48(%rbp), %rcx
.LEHB30:
	call	_ZStneIP12ElementosVooEbRKSt13move_iteratorIT_ES6_
.LEHE30:
	testb	%al, %al
	je	.L228
	.loc 17 83 45 discriminator 2
	leaq	-48(%rbp), %rcx
	call	_ZNKSt13move_iteratorIP12ElementosVooEdeEv
	movq	%rax, %rbx
	.loc 17 83 18 discriminator 2
	movq	-88(%rbp), %rax
	movq	%rax, %rcx
	call	_ZSt11__addressofI12ElementosVooEPT_RS1_
	movq	%rbx, %rdx
	movq	%rax, %rcx
	call	_ZSt10_ConstructI12ElementosVooJS0_EEvPT_DpOT0_
	.loc 17 82 34 discriminator 2
	leaq	-48(%rbp), %rcx
	call	_ZNSt13move_iteratorIP12ElementosVooEppEv
	.loc 17 82 8 discriminator 2
	addq	$96, -88(%rbp)
	jmp	.L229
.L228:
	.loc 17 84 15
	movq	-88(%rbp), %rax
	jmp	.L235
.L233:
	.loc 17 86 4
	movq	%rax, %rcx
	call	__cxa_begin_catch
	.loc 17 88 21
	movq	-88(%rbp), %rdx
	movq	-32(%rbp), %rax
	movq	%rax, %rcx
.LEHB31:
	call	_ZSt8_DestroyIP12ElementosVooEvT_S2_
	.loc 17 89 8
	call	__cxa_rethrow
.LEHE31:
.L234:
	movq	%rax, %rbx
	.loc 17 86 4
	call	__cxa_end_catch
	movq	%rbx, %rax
	movq	%rax, %rcx
.LEHB32:
	call	_Unwind_Resume
.LEHE32:
.L235:
	.loc 17 91 2
	addq	$56, %rsp
	popq	%rbx
	.cfi_restore 3
	popq	%rbp
	.cfi_restore 6
	.cfi_def_cfa 7, -40
	ret
	.cfi_endproc
.LFE3226:
	.seh_handler	__gxx_personality_seh0, @unwind, @except
	.seh_handlerdata
	.align 4
.LLSDA3226:
	.byte	0xff
	.byte	0x9b
	.uleb128 .LLSDATT3226-.LLSDATTD3226
.LLSDATTD3226:
	.byte	0x1
	.uleb128 .LLSDACSE3226-.LLSDACSB3226
.LLSDACSB3226:
	.uleb128 .LEHB30-.LFB3226
	.uleb128 .LEHE30-.LEHB30
	.uleb128 .L233-.LFB3226
	.uleb128 0x1
	.uleb128 .LEHB31-.LFB3226
	.uleb128 .LEHE31-.LEHB31
	.uleb128 .L234-.LFB3226
	.uleb128 0
	.uleb128 .LEHB32-.LFB3226
	.uleb128 .LEHE32-.LEHB32
	.uleb128 0
	.uleb128 0
.LLSDACSE3226:
	.byte	0x1
	.byte	0
	.align 4
	.long	0

.LLSDATT3226:
	.section	.text$_ZNSt20__uninitialized_copyILb0EE13__uninit_copyISt13move_iteratorIP12ElementosVooES4_EET0_T_S7_S6_,"x"
	.linkonce discard
	.seh_endproc
	.section	.text$_ZNK9__gnu_cxx17__normal_iteratorIPK12ElementosVooSt6vectorIS1_SaIS1_EEE4baseEv,"x"
	.linkonce discard
	.align 2
	.globl	_ZNK9__gnu_cxx17__normal_iteratorIPK12ElementosVooSt6vectorIS1_SaIS1_EEE4baseEv
	.def	_ZNK9__gnu_cxx17__normal_iteratorIPK12ElementosVooSt6vectorIS1_SaIS1_EEE4baseEv;	.scl	2;	.type	32;	.endef
	.seh_proc	_ZNK9__gnu_cxx17__normal_iteratorIPK12ElementosVooSt6vectorIS1_SaIS1_EEE4baseEv
_ZNK9__gnu_cxx17__normal_iteratorIPK12ElementosVooSt6vectorIS1_SaIS1_EEE4baseEv:
.LFB3227:
	.loc 19 845 7
	.cfi_startproc
	pushq	%rbp
	.seh_pushreg	%rbp
	.cfi_def_cfa_offset 16
	.cfi_offset 6, -16
	movq	%rsp, %rbp
	.seh_setframe	%rbp, 0
	.cfi_def_cfa_register 6
	.seh_endprologue
	movq	%rcx, 16(%rbp)
	.loc 19 846 16
	movq	16(%rbp), %rax
	.loc 19 846 28
	popq	%rbp
	.cfi_restore 6
	.cfi_def_cfa 7, 8
	ret
	.cfi_endproc
.LFE3227:
	.seh_endproc
	.section	.text$_ZStneIP12ElementosVooEbRKSt13move_iteratorIT_ES6_,"x"
	.linkonce discard
	.globl	_ZStneIP12ElementosVooEbRKSt13move_iteratorIT_ES6_
	.def	_ZStneIP12ElementosVooEbRKSt13move_iteratorIT_ES6_;	.scl	2;	.type	32;	.endef
	.seh_proc	_ZStneIP12ElementosVooEbRKSt13move_iteratorIT_ES6_
_ZStneIP12ElementosVooEbRKSt13move_iteratorIT_ES6_:
.LFB3235:
	.loc 19 1130 5
	.cfi_startproc
	pushq	%rbp
	.seh_pushreg	%rbp
	.cfi_def_cfa_offset 16
	.cfi_offset 6, -16
	movq	%rsp, %rbp
	.seh_setframe	%rbp, 0
	.cfi_def_cfa_register 6
	subq	$32, %rsp
	.seh_stackalloc	32
	.seh_endprologue
	movq	%rcx, 16(%rbp)
	movq	%rdx, 24(%rbp)
	.loc 19 1132 20
	movq	24(%rbp), %rax
	movq	%rax, %rdx
	movq	16(%rbp), %rcx
	call	_ZSteqIP12ElementosVooEbRKSt13move_iteratorIT_ES6_
	.loc 19 1132 26
	xorl	$1, %eax
	.loc 19 1132 29
	addq	$32, %rsp
	popq	%rbp
	.cfi_restore 6
	.cfi_def_cfa 7, 8
	ret
	.cfi_endproc
.LFE3235:
	.seh_endproc
	.section	.text$_ZNSt13move_iteratorIP12ElementosVooEppEv,"x"
	.linkonce discard
	.align 2
	.globl	_ZNSt13move_iteratorIP12ElementosVooEppEv
	.def	_ZNSt13move_iteratorIP12ElementosVooEppEv;	.scl	2;	.type	32;	.endef
	.seh_proc	_ZNSt13move_iteratorIP12ElementosVooEppEv
_ZNSt13move_iteratorIP12ElementosVooEppEv:
.LFB3236:
	.loc 19 1051 7
	.cfi_startproc
	pushq	%rbp
	.seh_pushreg	%rbp
	.cfi_def_cfa_offset 16
	.cfi_offset 6, -16
	movq	%rsp, %rbp
	.seh_setframe	%rbp, 0
	.cfi_def_cfa_register 6
	.seh_endprologue
	movq	%rcx, 16(%rbp)
	.loc 19 1053 4
	movq	16(%rbp), %rax
	movq	(%rax), %rax
	.loc 19 1053 2
	leaq	96(%rax), %rdx
	movq	16(%rbp), %rax
	movq	%rdx, (%rax)
	.loc 19 1054 10
	movq	16(%rbp), %rax
	.loc 19 1055 7
	popq	%rbp
	.cfi_restore 6
	.cfi_def_cfa 7, 8
	ret
	.cfi_endproc
.LFE3236:
	.seh_endproc
	.section	.text$_ZNKSt13move_iteratorIP12ElementosVooEdeEv,"x"
	.linkonce discard
	.align 2
	.globl	_ZNKSt13move_iteratorIP12ElementosVooEdeEv
	.def	_ZNKSt13move_iteratorIP12ElementosVooEdeEv;	.scl	2;	.type	32;	.endef
	.seh_proc	_ZNKSt13move_iteratorIP12ElementosVooEdeEv
_ZNKSt13move_iteratorIP12ElementosVooEdeEv:
.LFB3237:
	.loc 19 1043 7
	.cfi_startproc
	pushq	%rbp
	.seh_pushreg	%rbp
	.cfi_def_cfa_offset 16
	.cfi_offset 6, -16
	movq	%rsp, %rbp
	.seh_setframe	%rbp, 0
	.cfi_def_cfa_register 6
	.seh_endprologue
	movq	%rcx, 16(%rbp)
	.loc 19 1044 50
	movq	16(%rbp), %rax
	movq	(%rax), %rax
	.loc 19 1044 53
	popq	%rbp
	.cfi_restore 6
	.cfi_def_cfa 7, 8
	ret
	.cfi_endproc
.LFE3237:
	.seh_endproc
	.section	.text$_ZSt7forwardI12ElementosVooEOT_RNSt16remove_referenceIS1_E4typeE,"x"
	.linkonce discard
	.globl	_ZSt7forwardI12ElementosVooEOT_RNSt16remove_referenceIS1_E4typeE
	.def	_ZSt7forwardI12ElementosVooEOT_RNSt16remove_referenceIS1_E4typeE;	.scl	2;	.type	32;	.endef
	.seh_proc	_ZSt7forwardI12ElementosVooEOT_RNSt16remove_referenceIS1_E4typeE
_ZSt7forwardI12ElementosVooEOT_RNSt16remove_referenceIS1_E4typeE:
.LFB3239:
	.loc 12 74 5
	.cfi_startproc
	pushq	%rbp
	.seh_pushreg	%rbp
	.cfi_def_cfa_offset 16
	.cfi_offset 6, -16
	movq	%rsp, %rbp
	.seh_setframe	%rbp, 0
	.cfi_def_cfa_register 6
	.seh_endprologue
	movq	%rcx, 16(%rbp)
	.loc 12 75 36
	movq	16(%rbp), %rax
	.loc 12 75 39
	popq	%rbp
	.cfi_restore 6
	.cfi_def_cfa 7, 8
	ret
	.cfi_endproc
.LFE3239:
	.seh_endproc
	.section	.text$_ZN12ElementosVooC1EOS_,"x"
	.linkonce discard
	.align 2
	.globl	_ZN12ElementosVooC1EOS_
	.def	_ZN12ElementosVooC1EOS_;	.scl	2;	.type	32;	.endef
	.seh_proc	_ZN12ElementosVooC1EOS_
_ZN12ElementosVooC1EOS_:
.LFB3242:
	.loc 4 7 7
	.cfi_startproc
	pushq	%rbp
	.seh_pushreg	%rbp
	.cfi_def_cfa_offset 16
	.cfi_offset 6, -16
	movq	%rsp, %rbp
	.seh_setframe	%rbp, 0
	.cfi_def_cfa_register 6
	subq	$32, %rsp
	.seh_stackalloc	32
	.seh_endprologue
	movq	%rcx, 16(%rbp)
	movq	%rdx, 24(%rbp)
.LBB34:
	.loc 4 7 7
	movq	16(%rbp), %rax
	movq	24(%rbp), %rdx
	movq	%rax, %rcx
	call	_ZN10BaseObjectC2ERKS_
	leaq	16+_ZTV12ElementosVoo(%rip), %rdx
	movq	16(%rbp), %rax
	movq	%rdx, (%rax)
	movq	24(%rbp), %rax
	movsd	8(%rax), %xmm0
	movq	16(%rbp), %rax
	movsd	%xmm0, 8(%rax)
	movq	24(%rbp), %rax
	movsd	16(%rax), %xmm0
	movq	16(%rbp), %rax
	movsd	%xmm0, 16(%rax)
	movq	24(%rbp), %rax
	movsd	24(%rax), %xmm0
	movq	16(%rbp), %rax
	movsd	%xmm0, 24(%rax)
	movq	24(%rbp), %rax
	movsd	32(%rax), %xmm0
	movq	16(%rbp), %rax
	movsd	%xmm0, 32(%rax)
	movq	24(%rbp), %rax
	movsd	40(%rax), %xmm0
	movq	16(%rbp), %rax
	movsd	%xmm0, 40(%rax)
	movq	24(%rbp), %rax
	movsd	48(%rax), %xmm0
	movq	16(%rbp), %rax
	movsd	%xmm0, 48(%rax)
	movq	24(%rbp), %rax
	movsd	56(%rax), %xmm0
	movq	16(%rbp), %rax
	movsd	%xmm0, 56(%rax)
	movq	24(%rbp), %rax
	movsd	64(%rax), %xmm0
	movq	16(%rbp), %rax
	movsd	%xmm0, 64(%rax)
	movq	24(%rbp), %rax
	movsd	72(%rax), %xmm0
	movq	16(%rbp), %rax
	movsd	%xmm0, 72(%rax)
	movq	24(%rbp), %rax
	movsd	80(%rax), %xmm0
	movq	16(%rbp), %rax
	movsd	%xmm0, 80(%rax)
	movq	24(%rbp), %rax
	movsd	88(%rax), %xmm0
	movq	16(%rbp), %rax
	movsd	%xmm0, 88(%rax)
.LBE34:
	nop
	addq	$32, %rsp
	popq	%rbp
	.cfi_restore 6
	.cfi_def_cfa 7, 8
	ret
	.cfi_endproc
.LFE3242:
	.seh_endproc
	.section	.text$_ZSt10_ConstructI12ElementosVooJS0_EEvPT_DpOT0_,"x"
	.linkonce discard
	.globl	_ZSt10_ConstructI12ElementosVooJS0_EEvPT_DpOT0_
	.def	_ZSt10_ConstructI12ElementosVooJS0_EEvPT_DpOT0_;	.scl	2;	.type	32;	.endef
	.seh_proc	_ZSt10_ConstructI12ElementosVooJS0_EEvPT_DpOT0_
_ZSt10_ConstructI12ElementosVooJS0_EEvPT_DpOT0_:
.LFB3238:
	.loc 11 74 5
	.cfi_startproc
	pushq	%rbp
	.seh_pushreg	%rbp
	.cfi_def_cfa_offset 16
	.cfi_offset 6, -16
	pushq	%rbx
	.seh_pushreg	%rbx
	.cfi_def_cfa_offset 24
	.cfi_offset 3, -24
	subq	$40, %rsp
	.seh_stackalloc	40
	.cfi_def_cfa_offset 64
	leaq	128(%rsp), %rbp
	.seh_setframe	%rbp, 128
	.cfi_def_cfa 6, -64
	.seh_endprologue
	movq	%rcx, -64(%rbp)
	movq	%rdx, -56(%rbp)
	.loc 11 75 61
	movq	-56(%rbp), %rax
	movq	%rax, %rcx
	call	_ZSt7forwardI12ElementosVooEOT_RNSt16remove_referenceIS1_E4typeE
	movq	%rax, %rbx
	.loc 11 75 7
	movq	-64(%rbp), %rax
	movq	%rax, %rdx
	movl	$96, %ecx
	call	_ZnwyPv
	movq	%rbx, %rdx
	movq	%rax, %rcx
	call	_ZN12ElementosVooC1EOS_
	.loc 11 75 75
	nop
	addq	$40, %rsp
	popq	%rbx
	.cfi_restore 3
	popq	%rbp
	.cfi_restore 6
	.cfi_def_cfa 7, -24
	ret
	.cfi_endproc
.LFE3238:
	.seh_endproc
	.section	.text$_ZSteqIP12ElementosVooEbRKSt13move_iteratorIT_ES6_,"x"
	.linkonce discard
	.globl	_ZSteqIP12ElementosVooEbRKSt13move_iteratorIT_ES6_
	.def	_ZSteqIP12ElementosVooEbRKSt13move_iteratorIT_ES6_;	.scl	2;	.type	32;	.endef
	.seh_proc	_ZSteqIP12ElementosVooEbRKSt13move_iteratorIT_ES6_
_ZSteqIP12ElementosVooEbRKSt13move_iteratorIT_ES6_:
.LFB3245:
	.loc 19 1118 5
	.cfi_startproc
	pushq	%rbp
	.seh_pushreg	%rbp
	.cfi_def_cfa_offset 16
	.cfi_offset 6, -16
	pushq	%rbx
	.seh_pushreg	%rbx
	.cfi_def_cfa_offset 24
	.cfi_offset 3, -24
	subq	$40, %rsp
	.seh_stackalloc	40
	.cfi_def_cfa_offset 64
	leaq	128(%rsp), %rbp
	.seh_setframe	%rbp, 128
	.cfi_def_cfa 6, -64
	.seh_endprologue
	movq	%rcx, -64(%rbp)
	movq	%rdx, -56(%rbp)
	.loc 19 1120 25
	movq	-64(%rbp), %rcx
	call	_ZNKSt13move_iteratorIP12ElementosVooE4baseEv
	movq	%rax, %rbx
	movq	-56(%rbp), %rax
	movq	%rax, %rcx
	call	_ZNKSt13move_iteratorIP12ElementosVooE4baseEv
	.loc 19 1120 37
	cmpq	%rax, %rbx
	sete	%al
	.loc 19 1120 40
	addq	$40, %rsp
	popq	%rbx
	.cfi_restore 3
	popq	%rbp
	.cfi_restore 6
	.cfi_def_cfa 7, -24
	ret
	.cfi_endproc
.LFE3245:
	.seh_endproc
	.section	.text$_ZNKSt13move_iteratorIP12ElementosVooE4baseEv,"x"
	.linkonce discard
	.align 2
	.globl	_ZNKSt13move_iteratorIP12ElementosVooE4baseEv
	.def	_ZNKSt13move_iteratorIP12ElementosVooE4baseEv;	.scl	2;	.type	32;	.endef
	.seh_proc	_ZNKSt13move_iteratorIP12ElementosVooE4baseEv
_ZNKSt13move_iteratorIP12ElementosVooE4baseEv:
.LFB3246:
	.loc 19 1039 7
	.cfi_startproc
	pushq	%rbp
	.seh_pushreg	%rbp
	.cfi_def_cfa_offset 16
	.cfi_offset 6, -16
	movq	%rsp, %rbp
	.seh_setframe	%rbp, 0
	.cfi_def_cfa_register 6
	.seh_endprologue
	movq	%rcx, 16(%rbp)
	.loc 19 1040 16
	movq	16(%rbp), %rax
	movq	(%rax), %rax
	.loc 19 1040 28
	popq	%rbp
	.cfi_restore 6
	.cfi_def_cfa 7, 8
	ret
	.cfi_endproc
.LFE3246:
	.seh_endproc
	.globl	_ZTV30CalculadorPontoMassaModificado
	.section	.rdata$_ZTV30CalculadorPontoMassaModificado,"dr"
	.linkonce same_size
	.align 8
_ZTV30CalculadorPontoMassaModificado:
	.quad	0
	.quad	_ZTI30CalculadorPontoMassaModificado
	.quad	_ZN30CalculadorPontoMassaModificado13solucaoDiretaEddddb4RAMO
	.quad	_ZN30CalculadorPontoMassaModificado14solucaoReversaEddd15TIPO_TRAJETORIAddd4RAMO
	.globl	_ZTV28CoeficienteSpinDampingMoment
	.section	.rdata$_ZTV28CoeficienteSpinDampingMoment,"dr"
	.linkonce same_size
	.align 8
_ZTV28CoeficienteSpinDampingMoment:
	.quad	0
	.quad	_ZTI28CoeficienteSpinDampingMoment
	.quad	_ZN28CoeficienteSpinDampingMomentD1Ev
	.quad	_ZN28CoeficienteSpinDampingMomentD0Ev
	.globl	_ZTV28CoeficienteOverturningMoment
	.section	.rdata$_ZTV28CoeficienteOverturningMoment,"dr"
	.linkonce same_size
	.align 8
_ZTV28CoeficienteOverturningMoment:
	.quad	0
	.quad	_ZTI28CoeficienteOverturningMoment
	.quad	_ZN28CoeficienteOverturningMomentD1Ev
	.quad	_ZN28CoeficienteOverturningMomentD0Ev
	.globl	_ZTV15CoeficienteLift
	.section	.rdata$_ZTV15CoeficienteLift,"dr"
	.linkonce same_size
	.align 8
_ZTV15CoeficienteLift:
	.quad	0
	.quad	_ZTI15CoeficienteLift
	.quad	_ZN15CoeficienteLiftD1Ev
	.quad	_ZN15CoeficienteLiftD0Ev
	.globl	_ZTV22CoeficienteMagnusForce
	.section	.rdata$_ZTV22CoeficienteMagnusForce,"dr"
	.linkonce same_size
	.align 8
_ZTV22CoeficienteMagnusForce:
	.quad	0
	.quad	_ZTI22CoeficienteMagnusForce
	.quad	_ZN22CoeficienteMagnusForceD1Ev
	.quad	_ZN22CoeficienteMagnusForceD0Ev
	.globl	_ZTV16CoeficienteDrag2
	.section	.rdata$_ZTV16CoeficienteDrag2,"dr"
	.linkonce same_size
	.align 8
_ZTV16CoeficienteDrag2:
	.quad	0
	.quad	_ZTI16CoeficienteDrag2
	.quad	_ZN16CoeficienteDrag2D1Ev
	.quad	_ZN16CoeficienteDrag2D0Ev
	.globl	_ZTV15CoeficienteDrag
	.section	.rdata$_ZTV15CoeficienteDrag,"dr"
	.linkonce same_size
	.align 8
_ZTV15CoeficienteDrag:
	.quad	0
	.quad	_ZTI15CoeficienteDrag
	.quad	_ZN15CoeficienteDragD1Ev
	.quad	_ZN15CoeficienteDragD0Ev
	.globl	_ZTV8Projetil
	.section	.rdata$_ZTV8Projetil,"dr"
	.linkonce same_size
	.align 8
_ZTV8Projetil:
	.quad	0
	.quad	_ZTI8Projetil
	.quad	_ZN8ProjetilD1Ev
	.quad	_ZN8ProjetilD0Ev
	.section	.text$_ZN8ProjetilD1Ev,"x"
	.linkonce discard
	.align 2
	.globl	_ZN8ProjetilD1Ev
	.def	_ZN8ProjetilD1Ev;	.scl	2;	.type	32;	.endef
	.seh_proc	_ZN8ProjetilD1Ev
_ZN8ProjetilD1Ev:
.LFB3253:
	.loc 5 8 7
	.cfi_startproc
	pushq	%rbp
	.seh_pushreg	%rbp
	.cfi_def_cfa_offset 16
	.cfi_offset 6, -16
	movq	%rsp, %rbp
	.seh_setframe	%rbp, 0
	.cfi_def_cfa_register 6
	subq	$32, %rsp
	.seh_stackalloc	32
	.seh_endprologue
	movq	%rcx, 16(%rbp)
.LBB35:
	.loc 5 8 7
	leaq	16+_ZTV8Projetil(%rip), %rdx
	movq	16(%rbp), %rax
	movq	%rdx, (%rax)
	movq	16(%rbp), %rax
	addq	$48, %rax
	movq	%rax, %rcx
	call	_ZNSt7__cxx1112basic_stringIcSt11char_traitsIcESaIcEED1Ev
	movq	16(%rbp), %rax
	addq	$16, %rax
	movq	%rax, %rcx
	call	_ZNSt7__cxx1112basic_stringIcSt11char_traitsIcESaIcEED1Ev
	movq	16(%rbp), %rax
	movq	%rax, %rcx
	call	_ZN10BaseObjectD2Ev
.LBE35:
	nop
	addq	$32, %rsp
	popq	%rbp
	.cfi_restore 6
	.cfi_def_cfa 7, 8
	ret
	.cfi_endproc
.LFE3253:
	.seh_endproc
	.section	.text$_ZN8ProjetilD0Ev,"x"
	.linkonce discard
	.align 2
	.globl	_ZN8ProjetilD0Ev
	.def	_ZN8ProjetilD0Ev;	.scl	2;	.type	32;	.endef
	.seh_proc	_ZN8ProjetilD0Ev
_ZN8ProjetilD0Ev:
.LFB3254:
	.loc 5 8 7
	.cfi_startproc
	pushq	%rbp
	.seh_pushreg	%rbp
	.cfi_def_cfa_offset 16
	.cfi_offset 6, -16
	movq	%rsp, %rbp
	.seh_setframe	%rbp, 0
	.cfi_def_cfa_register 6
	subq	$32, %rsp
	.seh_stackalloc	32
	.seh_endprologue
	movq	%rcx, 16(%rbp)
	.loc 5 8 7
	movq	16(%rbp), %rcx
	call	_ZN8ProjetilD1Ev
	movq	16(%rbp), %rcx
	call	_ZdlPv
	nop
	addq	$32, %rsp
	popq	%rbp
	.cfi_restore 6
	.cfi_def_cfa 7, 8
	ret
	.cfi_endproc
.LFE3254:
	.seh_endproc
	.globl	_ZTV12ElementosVoo
	.section	.rdata$_ZTV12ElementosVoo,"dr"
	.linkonce same_size
	.align 8
_ZTV12ElementosVoo:
	.quad	0
	.quad	_ZTI12ElementosVoo
	.quad	_ZN12ElementosVooD1Ev
	.quad	_ZN12ElementosVooD0Ev
	.section	.text$_ZN12ElementosVooD1Ev,"x"
	.linkonce discard
	.align 2
	.globl	_ZN12ElementosVooD1Ev
	.def	_ZN12ElementosVooD1Ev;	.scl	2;	.type	32;	.endef
	.seh_proc	_ZN12ElementosVooD1Ev
_ZN12ElementosVooD1Ev:
.LFB3257:
	.loc 4 7 7
	.cfi_startproc
	pushq	%rbp
	.seh_pushreg	%rbp
	.cfi_def_cfa_offset 16
	.cfi_offset 6, -16
	movq	%rsp, %rbp
	.seh_setframe	%rbp, 0
	.cfi_def_cfa_register 6
	subq	$32, %rsp
	.seh_stackalloc	32
	.seh_endprologue
	movq	%rcx, 16(%rbp)
.LBB36:
	.loc 4 7 7
	leaq	16+_ZTV12ElementosVoo(%rip), %rdx
	movq	16(%rbp), %rax
	movq	%rdx, (%rax)
	movq	16(%rbp), %rax
	movq	%rax, %rcx
	call	_ZN10BaseObjectD2Ev
.LBE36:
	nop
	addq	$32, %rsp
	popq	%rbp
	.cfi_restore 6
	.cfi_def_cfa 7, 8
	ret
	.cfi_endproc
.LFE3257:
	.seh_endproc
	.section	.text$_ZN12ElementosVooD0Ev,"x"
	.linkonce discard
	.align 2
	.globl	_ZN12ElementosVooD0Ev
	.def	_ZN12ElementosVooD0Ev;	.scl	2;	.type	32;	.endef
	.seh_proc	_ZN12ElementosVooD0Ev
_ZN12ElementosVooD0Ev:
.LFB3258:
	.loc 4 7 7
	.cfi_startproc
	pushq	%rbp
	.seh_pushreg	%rbp
	.cfi_def_cfa_offset 16
	.cfi_offset 6, -16
	movq	%rsp, %rbp
	.seh_setframe	%rbp, 0
	.cfi_def_cfa_register 6
	subq	$32, %rsp
	.seh_stackalloc	32
	.seh_endprologue
	movq	%rcx, 16(%rbp)
	.loc 4 7 7
	movq	16(%rbp), %rcx
	call	_ZN12ElementosVooD1Ev
	movq	16(%rbp), %rcx
	call	_ZdlPv
	nop
	addq	$32, %rsp
	popq	%rbp
	.cfi_restore 6
	.cfi_def_cfa 7, 8
	ret
	.cfi_endproc
.LFE3258:
	.seh_endproc
	.globl	_ZTV10BaseObject
	.section	.rdata$_ZTV10BaseObject,"dr"
	.linkonce same_size
	.align 8
_ZTV10BaseObject:
	.quad	0
	.quad	_ZTI10BaseObject
	.quad	_ZN10BaseObjectD1Ev
	.quad	_ZN10BaseObjectD0Ev
	.globl	_ZTI30CalculadorPontoMassaModificado
	.section	.rdata$_ZTI30CalculadorPontoMassaModificado,"dr"
	.linkonce same_size
	.align 8
_ZTI30CalculadorPontoMassaModificado:
	.quad	_ZTVN10__cxxabiv120__si_class_type_infoE+16
	.quad	_ZTS30CalculadorPontoMassaModificado
	.quad	_ZTI20CalculadorPontoMassa
	.globl	_ZTS30CalculadorPontoMassaModificado
	.section	.rdata$_ZTS30CalculadorPontoMassaModificado,"dr"
	.linkonce same_size
	.align 32
_ZTS30CalculadorPontoMassaModificado:
	.ascii "30CalculadorPontoMassaModificado\0"
	.globl	_ZTI28CoeficienteSpinDampingMoment
	.section	.rdata$_ZTI28CoeficienteSpinDampingMoment,"dr"
	.linkonce same_size
	.align 8
_ZTI28CoeficienteSpinDampingMoment:
	.quad	_ZTVN10__cxxabiv120__si_class_type_infoE+16
	.quad	_ZTS28CoeficienteSpinDampingMoment
	.quad	_ZTI23CoeficienteAerodinamico
	.globl	_ZTI28CoeficienteOverturningMoment
	.section	.rdata$_ZTI28CoeficienteOverturningMoment,"dr"
	.linkonce same_size
	.align 8
_ZTI28CoeficienteOverturningMoment:
	.quad	_ZTVN10__cxxabiv120__si_class_type_infoE+16
	.quad	_ZTS28CoeficienteOverturningMoment
	.quad	_ZTI23CoeficienteAerodinamico
	.globl	_ZTI15CoeficienteLift
	.section	.rdata$_ZTI15CoeficienteLift,"dr"
	.linkonce same_size
	.align 8
_ZTI15CoeficienteLift:
	.quad	_ZTVN10__cxxabiv120__si_class_type_infoE+16
	.quad	_ZTS15CoeficienteLift
	.quad	_ZTI23CoeficienteAerodinamico
	.globl	_ZTI22CoeficienteMagnusForce
	.section	.rdata$_ZTI22CoeficienteMagnusForce,"dr"
	.linkonce same_size
	.align 8
_ZTI22CoeficienteMagnusForce:
	.quad	_ZTVN10__cxxabiv120__si_class_type_infoE+16
	.quad	_ZTS22CoeficienteMagnusForce
	.quad	_ZTI23CoeficienteAerodinamico
	.globl	_ZTI16CoeficienteDrag2
	.section	.rdata$_ZTI16CoeficienteDrag2,"dr"
	.linkonce same_size
	.align 8
_ZTI16CoeficienteDrag2:
	.quad	_ZTVN10__cxxabiv120__si_class_type_infoE+16
	.quad	_ZTS16CoeficienteDrag2
	.quad	_ZTI23CoeficienteAerodinamico
	.globl	_ZTI20CalculadorPontoMassa
	.section	.rdata$_ZTI20CalculadorPontoMassa,"dr"
	.linkonce same_size
	.align 8
_ZTI20CalculadorPontoMassa:
	.quad	_ZTVN10__cxxabiv120__si_class_type_infoE+16
	.quad	_ZTS20CalculadorPontoMassa
	.quad	_ZTI21CalculadorAtmosferico
	.globl	_ZTS20CalculadorPontoMassa
	.section	.rdata$_ZTS20CalculadorPontoMassa,"dr"
	.linkonce same_size
	.align 16
_ZTS20CalculadorPontoMassa:
	.ascii "20CalculadorPontoMassa\0"
	.globl	_ZTI15CoeficienteDrag
	.section	.rdata$_ZTI15CoeficienteDrag,"dr"
	.linkonce same_size
	.align 8
_ZTI15CoeficienteDrag:
	.quad	_ZTVN10__cxxabiv120__si_class_type_infoE+16
	.quad	_ZTS15CoeficienteDrag
	.quad	_ZTI23CoeficienteAerodinamico
	.globl	_ZTI23CoeficienteAerodinamico
	.section	.rdata$_ZTI23CoeficienteAerodinamico,"dr"
	.linkonce same_size
	.align 8
_ZTI23CoeficienteAerodinamico:
	.quad	_ZTVN10__cxxabiv120__si_class_type_infoE+16
	.quad	_ZTS23CoeficienteAerodinamico
	.quad	_ZTI10BaseObject
	.globl	_ZTI21CalculadorAtmosferico
	.section	.rdata$_ZTI21CalculadorAtmosferico,"dr"
	.linkonce same_size
	.align 8
_ZTI21CalculadorAtmosferico:
	.quad	_ZTVN10__cxxabiv120__si_class_type_infoE+16
	.quad	_ZTS21CalculadorAtmosferico
	.quad	_ZTI10Calculador
	.globl	_ZTS21CalculadorAtmosferico
	.section	.rdata$_ZTS21CalculadorAtmosferico,"dr"
	.linkonce same_size
	.align 16
_ZTS21CalculadorAtmosferico:
	.ascii "21CalculadorAtmosferico\0"
	.globl	_ZTI8Projetil
	.section	.rdata$_ZTI8Projetil,"dr"
	.linkonce same_size
	.align 8
_ZTI8Projetil:
	.quad	_ZTVN10__cxxabiv120__si_class_type_infoE+16
	.quad	_ZTS8Projetil
	.quad	_ZTI10BaseObject
	.globl	_ZTS8Projetil
	.section	.rdata$_ZTS8Projetil,"dr"
	.linkonce same_size
	.align 8
_ZTS8Projetil:
	.ascii "8Projetil\0"
	.globl	_ZTI10Calculador
	.section	.rdata$_ZTI10Calculador,"dr"
	.linkonce same_size
	.align 8
_ZTI10Calculador:
	.quad	_ZTVN10__cxxabiv117__class_type_infoE+16
	.quad	_ZTS10Calculador
	.globl	_ZTS10Calculador
	.section	.rdata$_ZTS10Calculador,"dr"
	.linkonce same_size
	.align 8
_ZTS10Calculador:
	.ascii "10Calculador\0"
	.globl	_ZTI12ElementosVoo
	.section	.rdata$_ZTI12ElementosVoo,"dr"
	.linkonce same_size
	.align 8
_ZTI12ElementosVoo:
	.quad	_ZTVN10__cxxabiv120__si_class_type_infoE+16
	.quad	_ZTS12ElementosVoo
	.quad	_ZTI10BaseObject
	.globl	_ZTS12ElementosVoo
	.section	.rdata$_ZTS12ElementosVoo,"dr"
	.linkonce same_size
	.align 8
_ZTS12ElementosVoo:
	.ascii "12ElementosVoo\0"
	.globl	_ZTI10BaseObject
	.section	.rdata$_ZTI10BaseObject,"dr"
	.linkonce same_size
	.align 8
_ZTI10BaseObject:
	.quad	_ZTVN10__cxxabiv117__class_type_infoE+16
	.quad	_ZTS10BaseObject
	.globl	_ZTS10BaseObject
	.section	.rdata$_ZTS10BaseObject,"dr"
	.linkonce same_size
	.align 8
_ZTS10BaseObject:
	.ascii "10BaseObject\0"
	.section	.text$_ZN15CoeficienteDragD1Ev,"x"
	.linkonce discard
	.align 2
	.globl	_ZN15CoeficienteDragD1Ev
	.def	_ZN15CoeficienteDragD1Ev;	.scl	2;	.type	32;	.endef
	.seh_proc	_ZN15CoeficienteDragD1Ev
_ZN15CoeficienteDragD1Ev:
.LFB3265:
	.file 21 "C:/PFC 2021/ballisticKernelCpp/CalculadorNumerico/coeficientes/CoeficienteDrag.h"
	.loc 21 7 7
	.cfi_startproc
	pushq	%rbp
	.seh_pushreg	%rbp
	.cfi_def_cfa_offset 16
	.cfi_offset 6, -16
	movq	%rsp, %rbp
	.seh_setframe	%rbp, 0
	.cfi_def_cfa_register 6
	subq	$32, %rsp
	.seh_stackalloc	32
	.seh_endprologue
	movq	%rcx, 16(%rbp)
.LBB37:
	.loc 21 7 7
	leaq	16+_ZTV15CoeficienteDrag(%rip), %rdx
	movq	16(%rbp), %rax
	movq	%rdx, (%rax)
	movq	16(%rbp), %rax
	movq	%rax, %rcx
	call	_ZN23CoeficienteAerodinamicoD2Ev
.LBE37:
	nop
	addq	$32, %rsp
	popq	%rbp
	.cfi_restore 6
	.cfi_def_cfa 7, 8
	ret
	.cfi_endproc
.LFE3265:
	.seh_endproc
	.section	.text$_ZN15CoeficienteDragD0Ev,"x"
	.linkonce discard
	.align 2
	.globl	_ZN15CoeficienteDragD0Ev
	.def	_ZN15CoeficienteDragD0Ev;	.scl	2;	.type	32;	.endef
	.seh_proc	_ZN15CoeficienteDragD0Ev
_ZN15CoeficienteDragD0Ev:
.LFB3266:
	.loc 21 7 7
	.cfi_startproc
	pushq	%rbp
	.seh_pushreg	%rbp
	.cfi_def_cfa_offset 16
	.cfi_offset 6, -16
	movq	%rsp, %rbp
	.seh_setframe	%rbp, 0
	.cfi_def_cfa_register 6
	subq	$32, %rsp
	.seh_stackalloc	32
	.seh_endprologue
	movq	%rcx, 16(%rbp)
	.loc 21 7 7
	movq	16(%rbp), %rcx
	call	_ZN15CoeficienteDragD1Ev
	movq	16(%rbp), %rcx
	call	_ZdlPv
	nop
	addq	$32, %rsp
	popq	%rbp
	.cfi_restore 6
	.cfi_def_cfa 7, 8
	ret
	.cfi_endproc
.LFE3266:
	.seh_endproc
	.section	.text$_ZN16CoeficienteDrag2D1Ev,"x"
	.linkonce discard
	.align 2
	.globl	_ZN16CoeficienteDrag2D1Ev
	.def	_ZN16CoeficienteDrag2D1Ev;	.scl	2;	.type	32;	.endef
	.seh_proc	_ZN16CoeficienteDrag2D1Ev
_ZN16CoeficienteDrag2D1Ev:
.LFB3269:
	.file 22 "C:/PFC 2021/ballisticKernelCpp/CalculadorNumerico/coeficientes/coeficienteDrag2.h"
	.loc 22 5 7
	.cfi_startproc
	pushq	%rbp
	.seh_pushreg	%rbp
	.cfi_def_cfa_offset 16
	.cfi_offset 6, -16
	movq	%rsp, %rbp
	.seh_setframe	%rbp, 0
	.cfi_def_cfa_register 6
	subq	$32, %rsp
	.seh_stackalloc	32
	.seh_endprologue
	movq	%rcx, 16(%rbp)
.LBB38:
	.loc 22 5 7
	leaq	16+_ZTV16CoeficienteDrag2(%rip), %rdx
	movq	16(%rbp), %rax
	movq	%rdx, (%rax)
	movq	16(%rbp), %rax
	movq	%rax, %rcx
	call	_ZN23CoeficienteAerodinamicoD2Ev
.LBE38:
	nop
	addq	$32, %rsp
	popq	%rbp
	.cfi_restore 6
	.cfi_def_cfa 7, 8
	ret
	.cfi_endproc
.LFE3269:
	.seh_endproc
	.section	.text$_ZN16CoeficienteDrag2D0Ev,"x"
	.linkonce discard
	.align 2
	.globl	_ZN16CoeficienteDrag2D0Ev
	.def	_ZN16CoeficienteDrag2D0Ev;	.scl	2;	.type	32;	.endef
	.seh_proc	_ZN16CoeficienteDrag2D0Ev
_ZN16CoeficienteDrag2D0Ev:
.LFB3270:
	.loc 22 5 7
	.cfi_startproc
	pushq	%rbp
	.seh_pushreg	%rbp
	.cfi_def_cfa_offset 16
	.cfi_offset 6, -16
	movq	%rsp, %rbp
	.seh_setframe	%rbp, 0
	.cfi_def_cfa_register 6
	subq	$32, %rsp
	.seh_stackalloc	32
	.seh_endprologue
	movq	%rcx, 16(%rbp)
	.loc 22 5 7
	movq	16(%rbp), %rcx
	call	_ZN16CoeficienteDrag2D1Ev
	movq	16(%rbp), %rcx
	call	_ZdlPv
	nop
	addq	$32, %rsp
	popq	%rbp
	.cfi_restore 6
	.cfi_def_cfa 7, 8
	ret
	.cfi_endproc
.LFE3270:
	.seh_endproc
	.section	.text$_ZN22CoeficienteMagnusForceD1Ev,"x"
	.linkonce discard
	.align 2
	.globl	_ZN22CoeficienteMagnusForceD1Ev
	.def	_ZN22CoeficienteMagnusForceD1Ev;	.scl	2;	.type	32;	.endef
	.seh_proc	_ZN22CoeficienteMagnusForceD1Ev
_ZN22CoeficienteMagnusForceD1Ev:
.LFB3273:
	.file 23 "C:/PFC 2021/ballisticKernelCpp/CalculadorNumerico/coeficientes/coeficienteMagnusForce.h"
	.loc 23 6 7
	.cfi_startproc
	pushq	%rbp
	.seh_pushreg	%rbp
	.cfi_def_cfa_offset 16
	.cfi_offset 6, -16
	movq	%rsp, %rbp
	.seh_setframe	%rbp, 0
	.cfi_def_cfa_register 6
	subq	$32, %rsp
	.seh_stackalloc	32
	.seh_endprologue
	movq	%rcx, 16(%rbp)
.LBB39:
	.loc 23 6 7
	leaq	16+_ZTV22CoeficienteMagnusForce(%rip), %rdx
	movq	16(%rbp), %rax
	movq	%rdx, (%rax)
	movq	16(%rbp), %rax
	movq	%rax, %rcx
	call	_ZN23CoeficienteAerodinamicoD2Ev
.LBE39:
	nop
	addq	$32, %rsp
	popq	%rbp
	.cfi_restore 6
	.cfi_def_cfa 7, 8
	ret
	.cfi_endproc
.LFE3273:
	.seh_endproc
	.section	.text$_ZN22CoeficienteMagnusForceD0Ev,"x"
	.linkonce discard
	.align 2
	.globl	_ZN22CoeficienteMagnusForceD0Ev
	.def	_ZN22CoeficienteMagnusForceD0Ev;	.scl	2;	.type	32;	.endef
	.seh_proc	_ZN22CoeficienteMagnusForceD0Ev
_ZN22CoeficienteMagnusForceD0Ev:
.LFB3274:
	.loc 23 6 7
	.cfi_startproc
	pushq	%rbp
	.seh_pushreg	%rbp
	.cfi_def_cfa_offset 16
	.cfi_offset 6, -16
	movq	%rsp, %rbp
	.seh_setframe	%rbp, 0
	.cfi_def_cfa_register 6
	subq	$32, %rsp
	.seh_stackalloc	32
	.seh_endprologue
	movq	%rcx, 16(%rbp)
	.loc 23 6 7
	movq	16(%rbp), %rcx
	call	_ZN22CoeficienteMagnusForceD1Ev
	movq	16(%rbp), %rcx
	call	_ZdlPv
	nop
	addq	$32, %rsp
	popq	%rbp
	.cfi_restore 6
	.cfi_def_cfa 7, 8
	ret
	.cfi_endproc
.LFE3274:
	.seh_endproc
	.section	.text$_ZN15CoeficienteLiftD1Ev,"x"
	.linkonce discard
	.align 2
	.globl	_ZN15CoeficienteLiftD1Ev
	.def	_ZN15CoeficienteLiftD1Ev;	.scl	2;	.type	32;	.endef
	.seh_proc	_ZN15CoeficienteLiftD1Ev
_ZN15CoeficienteLiftD1Ev:
.LFB3277:
	.file 24 "C:/PFC 2021/ballisticKernelCpp/CalculadorNumerico/coeficientes/coeficienteNormal.h"
	.loc 24 5 7
	.cfi_startproc
	pushq	%rbp
	.seh_pushreg	%rbp
	.cfi_def_cfa_offset 16
	.cfi_offset 6, -16
	movq	%rsp, %rbp
	.seh_setframe	%rbp, 0
	.cfi_def_cfa_register 6
	subq	$32, %rsp
	.seh_stackalloc	32
	.seh_endprologue
	movq	%rcx, 16(%rbp)
.LBB40:
	.loc 24 5 7
	leaq	16+_ZTV15CoeficienteLift(%rip), %rdx
	movq	16(%rbp), %rax
	movq	%rdx, (%rax)
	movq	16(%rbp), %rax
	movq	%rax, %rcx
	call	_ZN23CoeficienteAerodinamicoD2Ev
.LBE40:
	nop
	addq	$32, %rsp
	popq	%rbp
	.cfi_restore 6
	.cfi_def_cfa 7, 8
	ret
	.cfi_endproc
.LFE3277:
	.seh_endproc
	.section	.text$_ZN15CoeficienteLiftD0Ev,"x"
	.linkonce discard
	.align 2
	.globl	_ZN15CoeficienteLiftD0Ev
	.def	_ZN15CoeficienteLiftD0Ev;	.scl	2;	.type	32;	.endef
	.seh_proc	_ZN15CoeficienteLiftD0Ev
_ZN15CoeficienteLiftD0Ev:
.LFB3278:
	.loc 24 5 7
	.cfi_startproc
	pushq	%rbp
	.seh_pushreg	%rbp
	.cfi_def_cfa_offset 16
	.cfi_offset 6, -16
	movq	%rsp, %rbp
	.seh_setframe	%rbp, 0
	.cfi_def_cfa_register 6
	subq	$32, %rsp
	.seh_stackalloc	32
	.seh_endprologue
	movq	%rcx, 16(%rbp)
	.loc 24 5 7
	movq	16(%rbp), %rcx
	call	_ZN15CoeficienteLiftD1Ev
	movq	16(%rbp), %rcx
	call	_ZdlPv
	nop
	addq	$32, %rsp
	popq	%rbp
	.cfi_restore 6
	.cfi_def_cfa 7, 8
	ret
	.cfi_endproc
.LFE3278:
	.seh_endproc
	.section	.text$_ZN28CoeficienteOverturningMomentD1Ev,"x"
	.linkonce discard
	.align 2
	.globl	_ZN28CoeficienteOverturningMomentD1Ev
	.def	_ZN28CoeficienteOverturningMomentD1Ev;	.scl	2;	.type	32;	.endef
	.seh_proc	_ZN28CoeficienteOverturningMomentD1Ev
_ZN28CoeficienteOverturningMomentD1Ev:
.LFB3281:
	.file 25 "C:/PFC 2021/ballisticKernelCpp/CalculadorNumerico/coeficientes/coeficienteOverturningMoment.h"
	.loc 25 5 7
	.cfi_startproc
	pushq	%rbp
	.seh_pushreg	%rbp
	.cfi_def_cfa_offset 16
	.cfi_offset 6, -16
	movq	%rsp, %rbp
	.seh_setframe	%rbp, 0
	.cfi_def_cfa_register 6
	subq	$32, %rsp
	.seh_stackalloc	32
	.seh_endprologue
	movq	%rcx, 16(%rbp)
.LBB41:
	.loc 25 5 7
	leaq	16+_ZTV28CoeficienteOverturningMoment(%rip), %rdx
	movq	16(%rbp), %rax
	movq	%rdx, (%rax)
	movq	16(%rbp), %rax
	movq	%rax, %rcx
	call	_ZN23CoeficienteAerodinamicoD2Ev
.LBE41:
	nop
	addq	$32, %rsp
	popq	%rbp
	.cfi_restore 6
	.cfi_def_cfa 7, 8
	ret
	.cfi_endproc
.LFE3281:
	.seh_endproc
	.section	.text$_ZN28CoeficienteOverturningMomentD0Ev,"x"
	.linkonce discard
	.align 2
	.globl	_ZN28CoeficienteOverturningMomentD0Ev
	.def	_ZN28CoeficienteOverturningMomentD0Ev;	.scl	2;	.type	32;	.endef
	.seh_proc	_ZN28CoeficienteOverturningMomentD0Ev
_ZN28CoeficienteOverturningMomentD0Ev:
.LFB3282:
	.loc 25 5 7
	.cfi_startproc
	pushq	%rbp
	.seh_pushreg	%rbp
	.cfi_def_cfa_offset 16
	.cfi_offset 6, -16
	movq	%rsp, %rbp
	.seh_setframe	%rbp, 0
	.cfi_def_cfa_register 6
	subq	$32, %rsp
	.seh_stackalloc	32
	.seh_endprologue
	movq	%rcx, 16(%rbp)
	.loc 25 5 7
	movq	16(%rbp), %rcx
	call	_ZN28CoeficienteOverturningMomentD1Ev
	movq	16(%rbp), %rcx
	call	_ZdlPv
	nop
	addq	$32, %rsp
	popq	%rbp
	.cfi_restore 6
	.cfi_def_cfa 7, 8
	ret
	.cfi_endproc
.LFE3282:
	.seh_endproc
	.section	.text$_ZN28CoeficienteSpinDampingMomentD1Ev,"x"
	.linkonce discard
	.align 2
	.globl	_ZN28CoeficienteSpinDampingMomentD1Ev
	.def	_ZN28CoeficienteSpinDampingMomentD1Ev;	.scl	2;	.type	32;	.endef
	.seh_proc	_ZN28CoeficienteSpinDampingMomentD1Ev
_ZN28CoeficienteSpinDampingMomentD1Ev:
.LFB3285:
	.file 26 "C:/PFC 2021/ballisticKernelCpp/CalculadorNumerico/coeficientes/coeficienteSpinDampingMoment.h"
	.loc 26 5 7
	.cfi_startproc
	pushq	%rbp
	.seh_pushreg	%rbp
	.cfi_def_cfa_offset 16
	.cfi_offset 6, -16
	movq	%rsp, %rbp
	.seh_setframe	%rbp, 0
	.cfi_def_cfa_register 6
	subq	$32, %rsp
	.seh_stackalloc	32
	.seh_endprologue
	movq	%rcx, 16(%rbp)
.LBB42:
	.loc 26 5 7
	leaq	16+_ZTV28CoeficienteSpinDampingMoment(%rip), %rdx
	movq	16(%rbp), %rax
	movq	%rdx, (%rax)
	movq	16(%rbp), %rax
	movq	%rax, %rcx
	call	_ZN23CoeficienteAerodinamicoD2Ev
.LBE42:
	nop
	addq	$32, %rsp
	popq	%rbp
	.cfi_restore 6
	.cfi_def_cfa 7, 8
	ret
	.cfi_endproc
.LFE3285:
	.seh_endproc
	.section	.text$_ZN28CoeficienteSpinDampingMomentD0Ev,"x"
	.linkonce discard
	.align 2
	.globl	_ZN28CoeficienteSpinDampingMomentD0Ev
	.def	_ZN28CoeficienteSpinDampingMomentD0Ev;	.scl	2;	.type	32;	.endef
	.seh_proc	_ZN28CoeficienteSpinDampingMomentD0Ev
_ZN28CoeficienteSpinDampingMomentD0Ev:
.LFB3286:
	.loc 26 5 7
	.cfi_startproc
	pushq	%rbp
	.seh_pushreg	%rbp
	.cfi_def_cfa_offset 16
	.cfi_offset 6, -16
	movq	%rsp, %rbp
	.seh_setframe	%rbp, 0
	.cfi_def_cfa_register 6
	subq	$32, %rsp
	.seh_stackalloc	32
	.seh_endprologue
	movq	%rcx, 16(%rbp)
	.loc 26 5 7
	movq	16(%rbp), %rcx
	call	_ZN28CoeficienteSpinDampingMomentD1Ev
	movq	16(%rbp), %rcx
	call	_ZdlPv
	nop
	addq	$32, %rsp
	popq	%rbp
	.cfi_restore 6
	.cfi_def_cfa 7, 8
	ret
	.cfi_endproc
.LFE3286:
	.seh_endproc
	.globl	_ZTS28CoeficienteOverturningMoment
	.section	.rdata$_ZTS28CoeficienteOverturningMoment,"dr"
	.linkonce same_size
	.align 16
_ZTS28CoeficienteOverturningMoment:
	.ascii "28CoeficienteOverturningMoment\0"
	.globl	_ZTS15CoeficienteLift
	.section	.rdata$_ZTS15CoeficienteLift,"dr"
	.linkonce same_size
	.align 16
_ZTS15CoeficienteLift:
	.ascii "15CoeficienteLift\0"
	.globl	_ZTS22CoeficienteMagnusForce
	.section	.rdata$_ZTS22CoeficienteMagnusForce,"dr"
	.linkonce same_size
	.align 16
_ZTS22CoeficienteMagnusForce:
	.ascii "22CoeficienteMagnusForce\0"
	.globl	_ZTS16CoeficienteDrag2
	.section	.rdata$_ZTS16CoeficienteDrag2,"dr"
	.linkonce same_size
	.align 16
_ZTS16CoeficienteDrag2:
	.ascii "16CoeficienteDrag2\0"
	.globl	_ZTS28CoeficienteSpinDampingMoment
	.section	.rdata$_ZTS28CoeficienteSpinDampingMoment,"dr"
	.linkonce same_size
	.align 16
_ZTS28CoeficienteSpinDampingMoment:
	.ascii "28CoeficienteSpinDampingMoment\0"
	.globl	_ZTS15CoeficienteDrag
	.section	.rdata$_ZTS15CoeficienteDrag,"dr"
	.linkonce same_size
	.align 16
_ZTS15CoeficienteDrag:
	.ascii "15CoeficienteDrag\0"
	.globl	_ZTS23CoeficienteAerodinamico
	.section	.rdata$_ZTS23CoeficienteAerodinamico,"dr"
	.linkonce same_size
	.align 16
_ZTS23CoeficienteAerodinamico:
	.ascii "23CoeficienteAerodinamico\0"
	.section .rdata,"dr"
	.align 16
.LC1:
	.long	0
	.long	-2147483648
	.long	0
	.long	0
	.align 8
.LC2:
	.long	0
	.long	1071644672
	.align 8
.LC3:
	.long	0
	.long	1072693248
	.align 8
.LC5:
	.long	1413754136
	.long	1074340347
	.align 8
.LC6:
	.long	0
	.long	1084817408
	.align 8
.LC7:
	.long	1413754136
	.long	1075388923
	.align 8
.LC8:
	.long	0
	.long	1075314688
	.align 8
.LC9:
	.long	0
	.long	1073741824
	.align 8
.LC10:
	.long	-2147483648
	.long	1097351111
	.text
.Letext0:
	.file 27 "C:/Program Files/CodeBlocks/MinGW/lib/gcc/x86_64-w64-mingw32/8.1.0/include/c++/bits/basic_string.h"
	.file 28 "C:/Program Files/CodeBlocks/MinGW/lib/gcc/x86_64-w64-mingw32/8.1.0/include/c++/bits/basic_string.tcc"
	.file 29 "C:/Program Files/CodeBlocks/MinGW/lib/gcc/x86_64-w64-mingw32/8.1.0/include/c++/bits/stringfwd.h"
	.file 30 "C:/Program Files/CodeBlocks/MinGW/lib/gcc/x86_64-w64-mingw32/8.1.0/include/c++/bits/stl_list.h"
	.file 31 "C:/Program Files/CodeBlocks/MinGW/lib/gcc/x86_64-w64-mingw32/8.1.0/include/c++/bits/list.tcc"
	.file 32 "C:/Program Files/CodeBlocks/MinGW/lib/gcc/x86_64-w64-mingw32/8.1.0/include/c++/bits/std_abs.h"
	.file 33 "C:/Program Files/CodeBlocks/MinGW/lib/gcc/x86_64-w64-mingw32/8.1.0/include/c++/type_traits"
	.file 34 "C:/Program Files/CodeBlocks/MinGW/lib/gcc/x86_64-w64-mingw32/8.1.0/include/c++/bits/stl_pair.h"
	.file 35 "C:/Program Files/CodeBlocks/MinGW/lib/gcc/x86_64-w64-mingw32/8.1.0/include/c++/bits/cpp_type_traits.h"
	.file 36 "C:/Program Files/CodeBlocks/MinGW/lib/gcc/x86_64-w64-mingw32/8.1.0/include/c++/bits/stl_iterator_base_types.h"
	.file 37 "C:/Program Files/CodeBlocks/MinGW/lib/gcc/x86_64-w64-mingw32/8.1.0/include/c++/debug/debug.h"
	.file 38 "C:/Program Files/CodeBlocks/MinGW/lib/gcc/x86_64-w64-mingw32/8.1.0/include/c++/cwchar"
	.file 39 "C:/Program Files/CodeBlocks/MinGW/lib/gcc/x86_64-w64-mingw32/8.1.0/include/c++/bits/char_traits.h"
	.file 40 "C:/Program Files/CodeBlocks/MinGW/lib/gcc/x86_64-w64-mingw32/8.1.0/include/c++/x86_64-w64-mingw32/bits/c++config.h"
	.file 41 "C:/Program Files/CodeBlocks/MinGW/lib/gcc/x86_64-w64-mingw32/8.1.0/include/c++/cstdint"
	.file 42 "C:/Program Files/CodeBlocks/MinGW/lib/gcc/x86_64-w64-mingw32/8.1.0/include/c++/bits/exception_ptr.h"
	.file 43 "C:/Program Files/CodeBlocks/MinGW/lib/gcc/x86_64-w64-mingw32/8.1.0/include/c++/clocale"
	.file 44 "C:/Program Files/CodeBlocks/MinGW/lib/gcc/x86_64-w64-mingw32/8.1.0/include/c++/cstdlib"
	.file 45 "C:/Program Files/CodeBlocks/MinGW/lib/gcc/x86_64-w64-mingw32/8.1.0/include/c++/cstdio"
	.file 46 "C:/Program Files/CodeBlocks/MinGW/lib/gcc/x86_64-w64-mingw32/8.1.0/include/c++/initializer_list"
	.file 47 "C:/Program Files/CodeBlocks/MinGW/lib/gcc/x86_64-w64-mingw32/8.1.0/include/c++/system_error"
	.file 48 "C:/Program Files/CodeBlocks/MinGW/lib/gcc/x86_64-w64-mingw32/8.1.0/include/c++/cwctype"
	.file 49 "C:/Program Files/CodeBlocks/MinGW/lib/gcc/x86_64-w64-mingw32/8.1.0/include/c++/bits/uses_allocator.h"
	.file 50 "C:/Program Files/CodeBlocks/MinGW/lib/gcc/x86_64-w64-mingw32/8.1.0/include/c++/tuple"
	.file 51 "C:/Program Files/CodeBlocks/MinGW/lib/gcc/x86_64-w64-mingw32/8.1.0/include/c++/bits/stl_iterator_base_funcs.h"
	.file 52 "C:/Program Files/CodeBlocks/MinGW/lib/gcc/x86_64-w64-mingw32/8.1.0/include/c++/bits/predefined_ops.h"
	.file 53 "C:/Program Files/CodeBlocks/MinGW/lib/gcc/x86_64-w64-mingw32/8.1.0/include/c++/ext/numeric_traits.h"
	.file 54 "C:/Program Files/CodeBlocks/MinGW/lib/gcc/x86_64-w64-mingw32/8.1.0/include/c++/ext/type_traits.h"
	.file 55 "C:/Program Files/CodeBlocks/MinGW/lib/gcc/x86_64-w64-mingw32/8.1.0/include/c++/ext/aligned_buffer.h"
	.file 56 "C:/Program Files/CodeBlocks/MinGW/x86_64-w64-mingw32/include/crtdefs.h"
	.file 57 "C:/Program Files/CodeBlocks/MinGW/x86_64-w64-mingw32/include/locale.h"
	.file 58 "C:/Program Files/CodeBlocks/MinGW/x86_64-w64-mingw32/include/math.h"
	.file 59 "C:/Program Files/CodeBlocks/MinGW/x86_64-w64-mingw32/include/stdlib.h"
	.file 60 "C:/Program Files/CodeBlocks/MinGW/x86_64-w64-mingw32/include/malloc.h"
	.file 61 "C:/Program Files/CodeBlocks/MinGW/lib/gcc/x86_64-w64-mingw32/8.1.0/include/c++/math.h"
	.file 62 "C:/Program Files/CodeBlocks/MinGW/x86_64-w64-mingw32/include/wchar.h"
	.file 63 "C:/Program Files/CodeBlocks/MinGW/x86_64-w64-mingw32/include/swprintf.inl"
	.file 64 "C:/Program Files/CodeBlocks/MinGW/x86_64-w64-mingw32/include/stdint.h"
	.file 65 "C:/Program Files/CodeBlocks/MinGW/x86_64-w64-mingw32/include/ctype.h"
	.file 66 "C:/Program Files/CodeBlocks/MinGW/x86_64-w64-mingw32/include/process.h"
	.file 67 "C:/Program Files/CodeBlocks/MinGW/x86_64-w64-mingw32/include/pthread.h"
	.file 68 "C:/Program Files/CodeBlocks/MinGW/x86_64-w64-mingw32/include/wctype.h"
	.file 69 "C:/PFC 2021/ballisticKernelCpp/CalculadorNumerico/padroes/observable.h"
	.file 70 "C:/PFC 2021/ballisticKernelCpp/CalculadorNumerico/calculador/calculador.h"
	.file 71 "C:/PFC 2021/ballisticKernelCpp/CalculadorNumerico/coeficientes/coeficienteAerodinamico.h"
	.file 72 "C:/PFC 2021/ballisticKernelCpp/CalculadorNumerico/sql/sqlite3.h"
	.file 73 "C:/PFC 2021/ballisticKernelCpp/CalculadorNumerico/coeficientes/coeficientesdao.h"
	.file 74 "C:/PFC 2021/ballisticKernelCpp/CalculadorNumerico/calculador/calculadorPontoMassaModificado.h"
	.file 75 "C:/PFC 2021/ballisticKernelCpp/CalculadorNumerico/calculador/elementosdisparo.h"
	.file 76 "<built-in>"
	.section	.rdata$.refptr._ZTV20CalculadorPontoMassa, "dr"
	.globl	.refptr._ZTV20CalculadorPontoMassa
	.linkonce	discard
.refptr._ZTV20CalculadorPontoMassa:
	.quad	_ZTV20CalculadorPontoMassa
	.section	.rdata$.refptr._ZTV21CalculadorAtmosferico, "dr"
	.globl	.refptr._ZTV21CalculadorAtmosferico
	.linkonce	discard
.refptr._ZTV21CalculadorAtmosferico:
	.quad	_ZTV21CalculadorAtmosferico
