	.file	"calculadorPontoMassa.cpp"
	.text
.Ltext0:
	.cfi_sections	.debug_frame
	.section .rdata,"dr"
_ZStL19piecewise_construct:
	.space 1
	.section	.text$_ZnwyPv,"x"
	.linkonce discard
	.globl	_ZnwyPv
	.def	_ZnwyPv;	.scl	2;	.type	32;	.endef
	.seh_proc	_ZnwyPv
_ZnwyPv:
.LFB697:
	.file 1 "C:/Program Files/CodeBlocks/MinGW/lib/gcc/x86_64-w64-mingw32/8.1.0/include/c++/new"
	.loc 1 169 1
	.cfi_startproc
	pushq	%rbp
	.seh_pushreg	%rbp
	.cfi_def_cfa_offset 16
	.cfi_offset 6, -16
	movq	%rsp, %rbp
	.seh_setframe	%rbp, 0
	.cfi_def_cfa_register 6
	.seh_endprologue
	movq	%rcx, 16(%rbp)
	movq	%rdx, 24(%rbp)
	.loc 1 169 10
	movq	24(%rbp), %rax
	.loc 1 169 15
	popq	%rbp
	.cfi_restore 6
	.cfi_def_cfa 7, 8
	ret
	.cfi_endproc
.LFE697:
	.seh_endproc
	.section .rdata,"dr"
_ZStL13allocator_arg:
	.space 1
_ZStL6ignore:
	.space 1
	.section	.text$_ZN10BaseObjectD2Ev,"x"
	.linkonce discard
	.align 2
	.globl	_ZN10BaseObjectD2Ev
	.def	_ZN10BaseObjectD2Ev;	.scl	2;	.type	32;	.endef
	.seh_proc	_ZN10BaseObjectD2Ev
_ZN10BaseObjectD2Ev:
.LFB2363:
	.file 2 "C:/PFC 2021/ballisticKernelCpp/CalculadorNumerico/padroes/baseobject.h"
	.loc 2 8 17
	.cfi_startproc
	pushq	%rbp
	.seh_pushreg	%rbp
	.cfi_def_cfa_offset 16
	.cfi_offset 6, -16
	movq	%rsp, %rbp
	.seh_setframe	%rbp, 0
	.cfi_def_cfa_register 6
	.seh_endprologue
	movq	%rcx, 16(%rbp)
.LBB2:
	.loc 2 8 31
	leaq	16+_ZTV10BaseObject(%rip), %rdx
	movq	16(%rbp), %rax
	movq	%rdx, (%rax)
.LBE2:
	.loc 2 8 32
	nop
	popq	%rbp
	.cfi_restore 6
	.cfi_def_cfa 7, 8
	ret
	.cfi_endproc
.LFE2363:
	.seh_endproc
	.section	.text$_ZN10BaseObjectD1Ev,"x"
	.linkonce discard
	.align 2
	.globl	_ZN10BaseObjectD1Ev
	.def	_ZN10BaseObjectD1Ev;	.scl	2;	.type	32;	.endef
	.seh_proc	_ZN10BaseObjectD1Ev
_ZN10BaseObjectD1Ev:
.LFB2364:
	.loc 2 8 17
	.cfi_startproc
	pushq	%rbp
	.seh_pushreg	%rbp
	.cfi_def_cfa_offset 16
	.cfi_offset 6, -16
	movq	%rsp, %rbp
	.seh_setframe	%rbp, 0
	.cfi_def_cfa_register 6
	.seh_endprologue
	movq	%rcx, 16(%rbp)
.LBB3:
	.loc 2 8 31
	leaq	16+_ZTV10BaseObject(%rip), %rdx
	movq	16(%rbp), %rax
	movq	%rdx, (%rax)
.LBE3:
	.loc 2 8 32
	nop
	popq	%rbp
	.cfi_restore 6
	.cfi_def_cfa 7, 8
	ret
	.cfi_endproc
.LFE2364:
	.seh_endproc
	.section	.text$_ZN10BaseObjectD0Ev,"x"
	.linkonce discard
	.align 2
	.globl	_ZN10BaseObjectD0Ev
	.def	_ZN10BaseObjectD0Ev;	.scl	2;	.type	32;	.endef
	.seh_proc	_ZN10BaseObjectD0Ev
_ZN10BaseObjectD0Ev:
.LFB2365:
	.loc 2 8 17
	.cfi_startproc
	pushq	%rbp
	.seh_pushreg	%rbp
	.cfi_def_cfa_offset 16
	.cfi_offset 6, -16
	movq	%rsp, %rbp
	.seh_setframe	%rbp, 0
	.cfi_def_cfa_register 6
	subq	$32, %rsp
	.seh_stackalloc	32
	.seh_endprologue
	movq	%rcx, 16(%rbp)
	.loc 2 8 32
	movq	16(%rbp), %rcx
	call	_ZN10BaseObjectD1Ev
	movq	16(%rbp), %rcx
	call	_ZdlPv
	nop
	addq	$32, %rsp
	popq	%rbp
	.cfi_restore 6
	.cfi_def_cfa 7, 8
	ret
	.cfi_endproc
.LFE2365:
	.seh_endproc
	.section	.text$_ZN12ElementosVoo12setAlturaMaxEd,"x"
	.linkonce discard
	.align 2
	.globl	_ZN12ElementosVoo12setAlturaMaxEd
	.def	_ZN12ElementosVoo12setAlturaMaxEd;	.scl	2;	.type	32;	.endef
	.seh_proc	_ZN12ElementosVoo12setAlturaMaxEd
_ZN12ElementosVoo12setAlturaMaxEd:
.LFB2562:
	.file 3 "C:/PFC 2021/ballisticKernelCpp/CalculadorNumerico/calculador/elementosvoo.h"
	.loc 3 12 10
	.cfi_startproc
	pushq	%rbp
	.seh_pushreg	%rbp
	.cfi_def_cfa_offset 16
	.cfi_offset 6, -16
	movq	%rsp, %rbp
	.seh_setframe	%rbp, 0
	.cfi_def_cfa_register 6
	.seh_endprologue
	movq	%rcx, 16(%rbp)
	movsd	%xmm1, 24(%rbp)
	.loc 3 12 59
	movq	16(%rbp), %rax
	movsd	24(%rbp), %xmm0
	movsd	%xmm0, 64(%rax)
	.loc 3 12 72
	nop
	popq	%rbp
	.cfi_restore 6
	.cfi_def_cfa 7, 8
	ret
	.cfi_endproc
.LFE2562:
	.seh_endproc
	.section	.text$_ZN8Projetil7getTipoEv,"x"
	.linkonce discard
	.align 2
	.globl	_ZN8Projetil7getTipoEv
	.def	_ZN8Projetil7getTipoEv;	.scl	2;	.type	32;	.endef
	.seh_proc	_ZN8Projetil7getTipoEv
_ZN8Projetil7getTipoEv:
.LFB2586:
	.file 4 "C:/PFC 2021/ballisticKernelCpp/CalculadorNumerico/projetil/projetil.h"
	.loc 4 24 23
	.cfi_startproc
	pushq	%rbp
	.seh_pushreg	%rbp
	.cfi_def_cfa_offset 16
	.cfi_offset 6, -16
	movq	%rsp, %rbp
	.seh_setframe	%rbp, 0
	.cfi_def_cfa_register 6
	.seh_endprologue
	movq	%rcx, 16(%rbp)
	.loc 4 24 40
	movq	16(%rbp), %rax
	movl	8(%rax), %eax
	.loc 4 24 45
	popq	%rbp
	.cfi_restore 6
	.cfi_def_cfa 7, 8
	ret
	.cfi_endproc
.LFE2586:
	.seh_endproc
	.section	.text$_ZN10BaseObjectC2ERKS_,"x"
	.linkonce discard
	.align 2
	.globl	_ZN10BaseObjectC2ERKS_
	.def	_ZN10BaseObjectC2ERKS_;	.scl	2;	.type	32;	.endef
	.seh_proc	_ZN10BaseObjectC2ERKS_
_ZN10BaseObjectC2ERKS_:
.LFB2633:
	.loc 2 5 7
	.cfi_startproc
	pushq	%rbp
	.seh_pushreg	%rbp
	.cfi_def_cfa_offset 16
	.cfi_offset 6, -16
	movq	%rsp, %rbp
	.seh_setframe	%rbp, 0
	.cfi_def_cfa_register 6
	.seh_endprologue
	movq	%rcx, 16(%rbp)
	movq	%rdx, 24(%rbp)
.LBB4:
	.loc 2 5 7
	leaq	16+_ZTV10BaseObject(%rip), %rdx
	movq	16(%rbp), %rax
	movq	%rdx, (%rax)
.LBE4:
	nop
	popq	%rbp
	.cfi_restore 6
	.cfi_def_cfa 7, 8
	ret
	.cfi_endproc
.LFE2633:
	.seh_endproc
	.section	.text$_ZN8ProjetilC1ERKS_,"x"
	.linkonce discard
	.align 2
	.globl	_ZN8ProjetilC1ERKS_
	.def	_ZN8ProjetilC1ERKS_;	.scl	2;	.type	32;	.endef
	.seh_proc	_ZN8ProjetilC1ERKS_
_ZN8ProjetilC1ERKS_:
.LFB2636:
	.loc 4 8 7
	.cfi_startproc
	pushq	%rbp
	.seh_pushreg	%rbp
	.cfi_def_cfa_offset 16
	.cfi_offset 6, -16
	pushq	%rbx
	.seh_pushreg	%rbx
	.cfi_def_cfa_offset 24
	.cfi_offset 3, -24
	subq	$40, %rsp
	.seh_stackalloc	40
	.cfi_def_cfa_offset 64
	leaq	128(%rsp), %rbp
	.seh_setframe	%rbp, 128
	.cfi_def_cfa 6, -64
	.seh_endprologue
	movq	%rcx, -64(%rbp)
	movq	%rdx, -56(%rbp)
.LBB5:
	.loc 4 8 7
	movq	-64(%rbp), %rax
	movq	-56(%rbp), %rdx
	movq	%rax, %rcx
	call	_ZN10BaseObjectC2ERKS_
	leaq	16+_ZTV8Projetil(%rip), %rdx
	movq	-64(%rbp), %rax
	movq	%rdx, (%rax)
	movq	-56(%rbp), %rax
	movl	8(%rax), %edx
	movq	-64(%rbp), %rax
	movl	%edx, 8(%rax)
	movq	-56(%rbp), %rax
	movl	12(%rax), %edx
	movq	-64(%rbp), %rax
	movl	%edx, 12(%rax)
	movq	-64(%rbp), %rax
	addq	$16, %rax
	movq	-56(%rbp), %rdx
	addq	$16, %rdx
	movq	%rax, %rcx
.LEHB0:
	call	_ZNSt7__cxx1112basic_stringIcSt11char_traitsIcESaIcEEC1ERKS4_
.LEHE0:
	.loc 4 8 7 is_stmt 0 discriminator 2
	movq	-64(%rbp), %rax
	addq	$48, %rax
	movq	-56(%rbp), %rdx
	addq	$48, %rdx
	movq	%rax, %rcx
.LEHB1:
	call	_ZNSt7__cxx1112basic_stringIcSt11char_traitsIcESaIcEEC1ERKS4_
.LEHE1:
	.loc 4 8 7 discriminator 4
	movq	-56(%rbp), %rax
	movsd	80(%rax), %xmm0
	movq	-64(%rbp), %rax
	movsd	%xmm0, 80(%rax)
	movq	-56(%rbp), %rax
	movsd	88(%rax), %xmm0
	movq	-64(%rbp), %rax
	movsd	%xmm0, 88(%rax)
	movq	-56(%rbp), %rax
	movsd	96(%rax), %xmm0
	movq	-64(%rbp), %rax
	movsd	%xmm0, 96(%rax)
	movq	-56(%rbp), %rax
	movsd	104(%rax), %xmm0
	movq	-64(%rbp), %rax
	movsd	%xmm0, 104(%rax)
	movq	-56(%rbp), %rax
	movsd	112(%rax), %xmm0
	movq	-64(%rbp), %rax
	movsd	%xmm0, 112(%rax)
	movq	-56(%rbp), %rax
	movsd	120(%rax), %xmm0
	movq	-64(%rbp), %rax
	movsd	%xmm0, 120(%rax)
.LBE5:
	jmp	.L15
.L14:
	movq	%rax, %rbx
.LBB6:
	.loc 4 8 7
	movq	-64(%rbp), %rax
	addq	$16, %rax
	movq	%rax, %rcx
	call	_ZNSt7__cxx1112basic_stringIcSt11char_traitsIcESaIcEED1Ev
	jmp	.L12
.L13:
	movq	%rax, %rbx
.L12:
	.loc 4 8 7 discriminator 1
	movq	-64(%rbp), %rax
	movq	%rax, %rcx
	call	_ZN10BaseObjectD2Ev
	movq	%rbx, %rax
	movq	%rax, %rcx
.LEHB2:
	call	_Unwind_Resume
	nop
.LEHE2:
.L15:
.LBE6:
	.loc 4 8 7
	addq	$40, %rsp
	popq	%rbx
	.cfi_restore 3
	popq	%rbp
	.cfi_restore 6
	.cfi_def_cfa 7, -24
	ret
	.cfi_endproc
.LFE2636:
	.def	__gxx_personality_seh0;	.scl	2;	.type	32;	.endef
	.seh_handler	__gxx_personality_seh0, @unwind, @except
	.seh_handlerdata
.LLSDA2636:
	.byte	0xff
	.byte	0xff
	.byte	0x1
	.uleb128 .LLSDACSE2636-.LLSDACSB2636
.LLSDACSB2636:
	.uleb128 .LEHB0-.LFB2636
	.uleb128 .LEHE0-.LEHB0
	.uleb128 .L13-.LFB2636
	.uleb128 0
	.uleb128 .LEHB1-.LFB2636
	.uleb128 .LEHE1-.LEHB1
	.uleb128 .L14-.LFB2636
	.uleb128 0
	.uleb128 .LEHB2-.LFB2636
	.uleb128 .LEHE2-.LEHB2
	.uleb128 0
	.uleb128 0
.LLSDACSE2636:
	.section	.text$_ZN8ProjetilC1ERKS_,"x"
	.linkonce discard
	.seh_endproc
	.section	.text$_ZN12ElementosVooC1ERKS_,"x"
	.linkonce discard
	.align 2
	.globl	_ZN12ElementosVooC1ERKS_
	.def	_ZN12ElementosVooC1ERKS_;	.scl	2;	.type	32;	.endef
	.seh_proc	_ZN12ElementosVooC1ERKS_
_ZN12ElementosVooC1ERKS_:
.LFB2646:
	.loc 3 7 7 is_stmt 1
	.cfi_startproc
	pushq	%rbp
	.seh_pushreg	%rbp
	.cfi_def_cfa_offset 16
	.cfi_offset 6, -16
	movq	%rsp, %rbp
	.seh_setframe	%rbp, 0
	.cfi_def_cfa_register 6
	subq	$32, %rsp
	.seh_stackalloc	32
	.seh_endprologue
	movq	%rcx, 16(%rbp)
	movq	%rdx, 24(%rbp)
.LBB7:
	.loc 3 7 7
	movq	16(%rbp), %rax
	movq	24(%rbp), %rdx
	movq	%rax, %rcx
	call	_ZN10BaseObjectC2ERKS_
	leaq	16+_ZTV12ElementosVoo(%rip), %rdx
	movq	16(%rbp), %rax
	movq	%rdx, (%rax)
	movq	24(%rbp), %rax
	movsd	8(%rax), %xmm0
	movq	16(%rbp), %rax
	movsd	%xmm0, 8(%rax)
	movq	24(%rbp), %rax
	movsd	16(%rax), %xmm0
	movq	16(%rbp), %rax
	movsd	%xmm0, 16(%rax)
	movq	24(%rbp), %rax
	movsd	24(%rax), %xmm0
	movq	16(%rbp), %rax
	movsd	%xmm0, 24(%rax)
	movq	24(%rbp), %rax
	movsd	32(%rax), %xmm0
	movq	16(%rbp), %rax
	movsd	%xmm0, 32(%rax)
	movq	24(%rbp), %rax
	movsd	40(%rax), %xmm0
	movq	16(%rbp), %rax
	movsd	%xmm0, 40(%rax)
	movq	24(%rbp), %rax
	movsd	48(%rax), %xmm0
	movq	16(%rbp), %rax
	movsd	%xmm0, 48(%rax)
	movq	24(%rbp), %rax
	movsd	56(%rax), %xmm0
	movq	16(%rbp), %rax
	movsd	%xmm0, 56(%rax)
	movq	24(%rbp), %rax
	movsd	64(%rax), %xmm0
	movq	16(%rbp), %rax
	movsd	%xmm0, 64(%rax)
	movq	24(%rbp), %rax
	movsd	72(%rax), %xmm0
	movq	16(%rbp), %rax
	movsd	%xmm0, 72(%rax)
	movq	24(%rbp), %rax
	movsd	80(%rax), %xmm0
	movq	16(%rbp), %rax
	movsd	%xmm0, 80(%rax)
	movq	24(%rbp), %rax
	movsd	88(%rax), %xmm0
	movq	16(%rbp), %rax
	movsd	%xmm0, 88(%rax)
.LBE7:
	nop
	addq	$32, %rsp
	popq	%rbp
	.cfi_restore 6
	.cfi_def_cfa 7, 8
	ret
	.cfi_endproc
.LFE2646:
	.seh_endproc
	.section	.text$_ZN21CalculadorAtmosfericoD2Ev,"x"
	.linkonce discard
	.align 2
	.globl	_ZN21CalculadorAtmosfericoD2Ev
	.def	_ZN21CalculadorAtmosfericoD2Ev;	.scl	2;	.type	32;	.endef
	.seh_proc	_ZN21CalculadorAtmosfericoD2Ev
_ZN21CalculadorAtmosfericoD2Ev:
.LFB2649:
	.file 5 "C:/PFC 2021/ballisticKernelCpp/CalculadorNumerico/calculador/calculadorAtmosferico.h"
	.loc 5 23 7
	.cfi_startproc
	pushq	%rbp
	.seh_pushreg	%rbp
	.cfi_def_cfa_offset 16
	.cfi_offset 6, -16
	movq	%rsp, %rbp
	.seh_setframe	%rbp, 0
	.cfi_def_cfa_register 6
	subq	$32, %rsp
	.seh_stackalloc	32
	.seh_endprologue
	movq	%rcx, 16(%rbp)
.LBB8:
	.loc 5 23 7
	movq	.refptr._ZTV21CalculadorAtmosferico(%rip), %rax
	leaq	16(%rax), %rdx
	movq	16(%rbp), %rax
	movq	%rdx, (%rax)
	movq	16(%rbp), %rax
	addq	$304, %rax
	movq	%rax, %rcx
	call	_ZNSt6vectorI12ElementosVooSaIS0_EED1Ev
	movq	16(%rbp), %rax
	addq	$96, %rax
	movq	%rax, %rcx
	call	_ZN8ProjetilD1Ev
	movq	16(%rbp), %rax
	movq	%rax, %rcx
	call	_ZN10CalculadorD2Ev
.LBE8:
	nop
	addq	$32, %rsp
	popq	%rbp
	.cfi_restore 6
	.cfi_def_cfa 7, 8
	ret
	.cfi_endproc
.LFE2649:
	.seh_endproc
	.section .rdata,"dr"
.LC0:
	.ascii "3-DoF\0"
	.text
	.align 2
	.globl	_ZN20CalculadorPontoMassaC2Ev
	.def	_ZN20CalculadorPontoMassaC2Ev;	.scl	2;	.type	32;	.endef
	.seh_proc	_ZN20CalculadorPontoMassaC2Ev
_ZN20CalculadorPontoMassaC2Ev:
.LFB2651:
	.file 6 "C:/PFC 2021/ballisticKernelCpp/CalculadorNumerico/calculador/calculadorPontoMassa.cpp"
	.loc 6 14 1
	.cfi_startproc
	pushq	%rbp
	.seh_pushreg	%rbp
	.cfi_def_cfa_offset 16
	.cfi_offset 6, -16
	pushq	%rbx
	.seh_pushreg	%rbx
	.cfi_def_cfa_offset 24
	.cfi_offset 3, -24
	subq	$40, %rsp
	.seh_stackalloc	40
	.cfi_def_cfa_offset 64
	leaq	128(%rsp), %rbp
	.seh_setframe	%rbp, 128
	.cfi_def_cfa 6, -64
	.seh_endprologue
	movq	%rcx, -64(%rbp)
.LBB9:
	.loc 6 14 44
	movq	-64(%rbp), %rax
	movq	%rax, %rcx
.LEHB3:
	call	_ZN21CalculadorAtmosfericoC2Ev
.LEHE3:
	leaq	16+_ZTV20CalculadorPontoMassa(%rip), %rdx
	movq	-64(%rbp), %rax
	movq	%rdx, (%rax)
	movq	-64(%rbp), %rax
	addq	$424, %rax
	movq	%rax, %rcx
.LEHB4:
	call	_ZN15CoeficienteDragC1Ev
.LEHE4:
	.loc 6 17 12
	movq	-64(%rbp), %rax
	addq	$16, %rax
	leaq	.LC0(%rip), %rdx
	movq	%rax, %rcx
.LEHB5:
	call	_ZNSt7__cxx1112basic_stringIcSt11char_traitsIcESaIcEEaSEPKc
.LEHE5:
.LBE9:
	.loc 6 19 1
	jmp	.L23
.L22:
	movq	%rax, %rbx
.LBB10:
	.loc 6 14 44
	movq	-64(%rbp), %rax
	addq	$424, %rax
	movq	%rax, %rcx
	call	_ZN15CoeficienteDragD1Ev
	jmp	.L20
.L21:
	movq	%rax, %rbx
.L20:
	.loc 6 14 44 is_stmt 0 discriminator 1
	movq	-64(%rbp), %rax
	movq	%rax, %rcx
	call	_ZN21CalculadorAtmosfericoD2Ev
	movq	%rbx, %rax
	movq	%rax, %rcx
.LEHB6:
	call	_Unwind_Resume
	nop
.LEHE6:
.L23:
.LBE10:
	.loc 6 19 1 is_stmt 1
	addq	$40, %rsp
	popq	%rbx
	.cfi_restore 3
	popq	%rbp
	.cfi_restore 6
	.cfi_def_cfa 7, -24
	ret
	.cfi_endproc
.LFE2651:
	.seh_handler	__gxx_personality_seh0, @unwind, @except
	.seh_handlerdata
.LLSDA2651:
	.byte	0xff
	.byte	0xff
	.byte	0x1
	.uleb128 .LLSDACSE2651-.LLSDACSB2651
.LLSDACSB2651:
	.uleb128 .LEHB3-.LFB2651
	.uleb128 .LEHE3-.LEHB3
	.uleb128 0
	.uleb128 0
	.uleb128 .LEHB4-.LFB2651
	.uleb128 .LEHE4-.LEHB4
	.uleb128 .L21-.LFB2651
	.uleb128 0
	.uleb128 .LEHB5-.LFB2651
	.uleb128 .LEHE5-.LEHB5
	.uleb128 .L22-.LFB2651
	.uleb128 0
	.uleb128 .LEHB6-.LFB2651
	.uleb128 .LEHE6-.LEHB6
	.uleb128 0
	.uleb128 0
.LLSDACSE2651:
	.text
	.seh_endproc
	.globl	_ZN20CalculadorPontoMassaC1Ev
	.def	_ZN20CalculadorPontoMassaC1Ev;	.scl	2;	.type	32;	.endef
	.set	_ZN20CalculadorPontoMassaC1Ev,_ZN20CalculadorPontoMassaC2Ev
	.align 2
	.globl	_ZN20CalculadorPontoMassa3acxEddddd
	.def	_ZN20CalculadorPontoMassa3acxEddddd;	.scl	2;	.type	32;	.endef
	.seh_proc	_ZN20CalculadorPontoMassa3acxEddddd
_ZN20CalculadorPontoMassa3acxEddddd:
.LFB2653:
	.loc 6 32 1
	.cfi_startproc
	pushq	%rbp
	.seh_pushreg	%rbp
	.cfi_def_cfa_offset 16
	.cfi_offset 6, -16
	pushq	%rbx
	.seh_pushreg	%rbx
	.cfi_def_cfa_offset 24
	.cfi_offset 3, -24
	subq	$104, %rsp
	.seh_stackalloc	104
	.cfi_def_cfa_offset 128
	leaq	128(%rsp), %rbp
	.seh_setframe	%rbp, 128
	.cfi_def_cfa 6, 0
	movaps	%xmm6, -48(%rbp)
	.seh_savexmm	%xmm6, 80
	.cfi_offset 23, -48
	.seh_endprologue
	movq	%rcx, 0(%rbp)
	movsd	%xmm1, 8(%rbp)
	movsd	%xmm2, 16(%rbp)
	movsd	%xmm3, 24(%rbp)
	.loc 6 34 24
	movq	0(%rbp), %rbx
	.loc 6 34 90
	movq	0(%rbp), %rax
	movsd	32(%rbp), %xmm0
	movapd	%xmm0, %xmm1
	movq	%rax, %rcx
	call	_ZN21CalculadorAtmosferico19getVentoTransversalEd
	movapd	%xmm0, %xmm1
	.loc 6 34 24
	movsd	24(%rbp), %xmm0
	movapd	%xmm0, %xmm6
	subsd	%xmm1, %xmm6
	.loc 6 34 50
	movq	0(%rbp), %rax
	movsd	32(%rbp), %xmm0
	movapd	%xmm0, %xmm1
	movq	%rax, %rcx
	call	_ZN21CalculadorAtmosferico20getVentoLongitudinalEd
	movapd	%xmm0, %xmm1
	.loc 6 34 24
	movsd	8(%rbp), %xmm0
	subsd	%xmm1, %xmm0
	movsd	16(%rbp), %xmm1
	movapd	%xmm6, %xmm3
	movapd	%xmm1, %xmm2
	movapd	%xmm0, %xmm1
	movq	%rbx, %rcx
	call	_ZN10Calculador1vEddd
	movq	%xmm0, %rax
	movq	%rax, -56(%rbp)
	.loc 6 35 26
	movq	0(%rbp), %rax
	movsd	24(%rbp), %xmm2
	movsd	16(%rbp), %xmm1
	movsd	8(%rbp), %xmm0
	movapd	%xmm2, %xmm3
	movapd	%xmm1, %xmm2
	movapd	%xmm0, %xmm1
	movq	%rax, %rcx
	call	_ZN10Calculador1vEddd
	movq	%xmm0, %rax
	movq	%rax, -64(%rbp)
	.loc 6 36 28
	movq	0(%rbp), %rax
	movsd	32(%rbp), %xmm1
	movsd	-64(%rbp), %xmm0
	movapd	%xmm1, %xmm2
	movapd	%xmm0, %xmm1
	movq	%rax, %rcx
	call	_ZN21CalculadorAtmosferico8vel_machEdd
	movq	%xmm0, %rax
	movq	%rax, -72(%rbp)
	.loc 6 38 23
	movq	0(%rbp), %rax
	movq	232(%rax), %rdx
	movq	0(%rbp), %rax
	movq	232(%rax), %rax
	.loc 6 38 48
	movq	(%rax), %rax
	addq	$32, %rax
	movq	(%rax), %rax
	.loc 6 38 39
	movsd	32(%rbp), %xmm0
	movapd	%xmm0, %xmm1
	movq	%rdx, %rcx
	call	*%rax
.LVL0:
	movapd	%xmm0, %xmm1
	.loc 6 38 22
	movq	.LC1(%rip), %xmm0
	xorpd	%xmm0, %xmm1
	.loc 6 38 49
	movsd	.LC2(%rip), %xmm0
	mulsd	%xmm0, %xmm1
	.loc 6 38 54
	movq	0(%rbp), %rax
	movsd	240(%rax), %xmm0
	.loc 6 38 53
	mulsd	%xmm0, %xmm1
	.loc 6 38 56
	movq	0(%rbp), %rax
	movsd	256(%rax), %xmm0
	.loc 6 38 55
	movapd	%xmm1, %xmm6
	mulsd	%xmm0, %xmm6
	.loc 6 38 75
	movq	0(%rbp), %rax
	addq	$424, %rax
	movsd	-72(%rbp), %xmm0
	movapd	%xmm0, %xmm1
	movq	%rax, %rcx
	call	_ZN23CoeficienteAerodinamico8getValorEd
	.loc 6 38 57
	mulsd	%xmm0, %xmm6
	.loc 6 38 109
	movq	0(%rbp), %rax
	movsd	32(%rbp), %xmm0
	movapd	%xmm0, %xmm1
	movq	%rax, %rcx
	call	_ZN21CalculadorAtmosferico20getVentoLongitudinalEd
	movapd	%xmm0, %xmm1
	.loc 6 38 87
	movsd	8(%rbp), %xmm0
	subsd	%xmm1, %xmm0
	.loc 6 38 82
	mulsd	%xmm6, %xmm0
	.loc 6 38 120
	movapd	%xmm0, %xmm6
	mulsd	-56(%rbp), %xmm6
	.loc 6 39 30
	movq	0(%rbp), %rax
	movsd	40(%rbp), %xmm0
	movapd	%xmm0, %xmm1
	movq	%rax, %rcx
	call	_ZN10Calculador5gravxEd
	.loc 6 39 23
	addsd	%xmm0, %xmm6
	.loc 6 39 55
	movq	0(%rbp), %rax
	movq	0(%rbp), %rdx
	movsd	280(%rdx), %xmm2
	movq	0(%rbp), %rdx
	movsd	80(%rdx), %xmm1
	movsd	16(%rbp), %xmm3
	movsd	24(%rbp), %xmm0
	movsd	%xmm0, 32(%rsp)
	movq	%rax, %rcx
	call	_ZN21CalculadorAtmosferico11acCoriolisxEdddd
	.loc 6 39 84
	addsd	%xmm6, %xmm0
	movsd	%xmm0, -80(%rbp)
	.loc 6 40 12
	movsd	-80(%rbp), %xmm0
	movq	%xmm0, %rax
	.loc 6 41 1
	movq	%rax, %xmm0
	movaps	-48(%rbp), %xmm6
	addq	$104, %rsp
	.cfi_restore 23
	popq	%rbx
	.cfi_restore 3
	popq	%rbp
	.cfi_restore 6
	.cfi_def_cfa 7, -88
	ret
	.cfi_endproc
.LFE2653:
	.seh_endproc
	.align 2
	.globl	_ZN20CalculadorPontoMassa3acyEdddd
	.def	_ZN20CalculadorPontoMassa3acyEdddd;	.scl	2;	.type	32;	.endef
	.seh_proc	_ZN20CalculadorPontoMassa3acyEdddd
_ZN20CalculadorPontoMassa3acyEdddd:
.LFB2654:
	.loc 6 53 1
	.cfi_startproc
	pushq	%rbp
	.seh_pushreg	%rbp
	.cfi_def_cfa_offset 16
	.cfi_offset 6, -16
	pushq	%rbx
	.seh_pushreg	%rbx
	.cfi_def_cfa_offset 24
	.cfi_offset 3, -24
	subq	$104, %rsp
	.seh_stackalloc	104
	.cfi_def_cfa_offset 128
	leaq	128(%rsp), %rbp
	.seh_setframe	%rbp, 128
	.cfi_def_cfa 6, 0
	movaps	%xmm6, -48(%rbp)
	.seh_savexmm	%xmm6, 80
	.cfi_offset 23, -48
	.seh_endprologue
	movq	%rcx, 0(%rbp)
	movsd	%xmm1, 8(%rbp)
	movsd	%xmm2, 16(%rbp)
	movsd	%xmm3, 24(%rbp)
	.loc 6 54 24
	movq	0(%rbp), %rbx
	.loc 6 54 90
	movq	0(%rbp), %rax
	movsd	32(%rbp), %xmm0
	movapd	%xmm0, %xmm1
	movq	%rax, %rcx
	call	_ZN21CalculadorAtmosferico19getVentoTransversalEd
	movapd	%xmm0, %xmm1
	.loc 6 54 24
	movsd	24(%rbp), %xmm0
	movapd	%xmm0, %xmm6
	subsd	%xmm1, %xmm6
	.loc 6 54 50
	movq	0(%rbp), %rax
	movsd	32(%rbp), %xmm0
	movapd	%xmm0, %xmm1
	movq	%rax, %rcx
	call	_ZN21CalculadorAtmosferico20getVentoLongitudinalEd
	movapd	%xmm0, %xmm1
	.loc 6 54 24
	movsd	8(%rbp), %xmm0
	subsd	%xmm1, %xmm0
	movsd	16(%rbp), %xmm1
	movapd	%xmm6, %xmm3
	movapd	%xmm1, %xmm2
	movapd	%xmm0, %xmm1
	movq	%rbx, %rcx
	call	_ZN10Calculador1vEddd
	movq	%xmm0, %rax
	movq	%rax, -56(%rbp)
	.loc 6 55 26
	movq	0(%rbp), %rax
	movsd	24(%rbp), %xmm2
	movsd	16(%rbp), %xmm1
	movsd	8(%rbp), %xmm0
	movapd	%xmm2, %xmm3
	movapd	%xmm1, %xmm2
	movapd	%xmm0, %xmm1
	movq	%rax, %rcx
	call	_ZN10Calculador1vEddd
	movq	%xmm0, %rax
	movq	%rax, -64(%rbp)
	.loc 6 56 28
	movq	0(%rbp), %rax
	movsd	32(%rbp), %xmm1
	movsd	-64(%rbp), %xmm0
	movapd	%xmm1, %xmm2
	movapd	%xmm0, %xmm1
	movq	%rax, %rcx
	call	_ZN21CalculadorAtmosferico8vel_machEdd
	movq	%xmm0, %rax
	movq	%rax, -72(%rbp)
	.loc 6 57 23
	movq	0(%rbp), %rax
	movq	232(%rax), %rdx
	movq	0(%rbp), %rax
	movq	232(%rax), %rax
	.loc 6 57 48
	movq	(%rax), %rax
	addq	$32, %rax
	movq	(%rax), %rax
	.loc 6 57 39
	movsd	32(%rbp), %xmm0
	movapd	%xmm0, %xmm1
	movq	%rdx, %rcx
	call	*%rax
.LVL1:
	movapd	%xmm0, %xmm1
	.loc 6 57 22
	movq	.LC1(%rip), %xmm0
	xorpd	%xmm0, %xmm1
	.loc 6 57 49
	movsd	.LC2(%rip), %xmm0
	mulsd	%xmm0, %xmm1
	.loc 6 57 54
	movq	0(%rbp), %rax
	movsd	256(%rax), %xmm0
	.loc 6 57 53
	mulsd	%xmm0, %xmm1
	.loc 6 57 56
	movq	0(%rbp), %rax
	movsd	240(%rax), %xmm0
	.loc 6 57 55
	movapd	%xmm1, %xmm6
	mulsd	%xmm0, %xmm6
	.loc 6 57 75
	movq	0(%rbp), %rax
	addq	$424, %rax
	movsd	-72(%rbp), %xmm0
	movapd	%xmm0, %xmm1
	movq	%rax, %rcx
	call	_ZN23CoeficienteAerodinamico8getValorEd
	.loc 6 57 57
	mulsd	%xmm6, %xmm0
	.loc 6 57 82
	mulsd	16(%rbp), %xmm0
	.loc 6 57 87
	movapd	%xmm0, %xmm6
	mulsd	-56(%rbp), %xmm6
	.loc 6 58 30
	movq	0(%rbp), %rax
	movsd	32(%rbp), %xmm0
	movapd	%xmm0, %xmm1
	movq	%rax, %rcx
	call	_ZN10Calculador5gravyEd
	.loc 6 58 23
	addsd	%xmm0, %xmm6
	.loc 6 58 54
	movq	0(%rbp), %rax
	movq	0(%rbp), %rdx
	movsd	280(%rdx), %xmm2
	movq	0(%rbp), %rdx
	movsd	80(%rdx), %xmm1
	movsd	8(%rbp), %xmm3
	movsd	24(%rbp), %xmm0
	movsd	%xmm0, 32(%rsp)
	movq	%rax, %rcx
	call	_ZN21CalculadorAtmosferico11acCoriolisyEdddd
	.loc 6 58 83
	addsd	%xmm6, %xmm0
	movsd	%xmm0, -80(%rbp)
	.loc 6 59 12
	movsd	-80(%rbp), %xmm0
	movq	%xmm0, %rax
	.loc 6 60 1
	movq	%rax, %xmm0
	movaps	-48(%rbp), %xmm6
	addq	$104, %rsp
	.cfi_restore 23
	popq	%rbx
	.cfi_restore 3
	popq	%rbp
	.cfi_restore 6
	.cfi_def_cfa 7, -88
	ret
	.cfi_endproc
.LFE2654:
	.seh_endproc
	.align 2
	.globl	_ZN20CalculadorPontoMassa3aczEddddd
	.def	_ZN20CalculadorPontoMassa3aczEddddd;	.scl	2;	.type	32;	.endef
	.seh_proc	_ZN20CalculadorPontoMassa3aczEddddd
_ZN20CalculadorPontoMassa3aczEddddd:
.LFB2655:
	.loc 6 71 1
	.cfi_startproc
	pushq	%rbp
	.seh_pushreg	%rbp
	.cfi_def_cfa_offset 16
	.cfi_offset 6, -16
	pushq	%rbx
	.seh_pushreg	%rbx
	.cfi_def_cfa_offset 24
	.cfi_offset 3, -24
	subq	$104, %rsp
	.seh_stackalloc	104
	.cfi_def_cfa_offset 128
	leaq	128(%rsp), %rbp
	.seh_setframe	%rbp, 128
	.cfi_def_cfa 6, 0
	movaps	%xmm6, -48(%rbp)
	.seh_savexmm	%xmm6, 80
	.cfi_offset 23, -48
	.seh_endprologue
	movq	%rcx, 0(%rbp)
	movsd	%xmm1, 8(%rbp)
	movsd	%xmm2, 16(%rbp)
	movsd	%xmm3, 24(%rbp)
	.loc 6 72 24
	movq	0(%rbp), %rbx
	.loc 6 72 90
	movq	0(%rbp), %rax
	movsd	32(%rbp), %xmm0
	movapd	%xmm0, %xmm1
	movq	%rax, %rcx
	call	_ZN21CalculadorAtmosferico19getVentoTransversalEd
	movapd	%xmm0, %xmm1
	.loc 6 72 24
	movsd	24(%rbp), %xmm0
	movapd	%xmm0, %xmm6
	subsd	%xmm1, %xmm6
	.loc 6 72 50
	movq	0(%rbp), %rax
	movsd	32(%rbp), %xmm0
	movapd	%xmm0, %xmm1
	movq	%rax, %rcx
	call	_ZN21CalculadorAtmosferico20getVentoLongitudinalEd
	movapd	%xmm0, %xmm1
	.loc 6 72 24
	movsd	8(%rbp), %xmm0
	subsd	%xmm1, %xmm0
	movsd	16(%rbp), %xmm1
	movapd	%xmm6, %xmm3
	movapd	%xmm1, %xmm2
	movapd	%xmm0, %xmm1
	movq	%rbx, %rcx
	call	_ZN10Calculador1vEddd
	movq	%xmm0, %rax
	movq	%rax, -56(%rbp)
	.loc 6 73 26
	movq	0(%rbp), %rax
	movsd	24(%rbp), %xmm2
	movsd	16(%rbp), %xmm1
	movsd	8(%rbp), %xmm0
	movapd	%xmm2, %xmm3
	movapd	%xmm1, %xmm2
	movapd	%xmm0, %xmm1
	movq	%rax, %rcx
	call	_ZN10Calculador1vEddd
	movq	%xmm0, %rax
	movq	%rax, -64(%rbp)
	.loc 6 74 28
	movq	0(%rbp), %rax
	movsd	32(%rbp), %xmm1
	movsd	-64(%rbp), %xmm0
	movapd	%xmm1, %xmm2
	movapd	%xmm0, %xmm1
	movq	%rax, %rcx
	call	_ZN21CalculadorAtmosferico8vel_machEdd
	movq	%xmm0, %rax
	movq	%rax, -72(%rbp)
	.loc 6 76 23
	movq	0(%rbp), %rax
	movq	232(%rax), %rdx
	movq	0(%rbp), %rax
	movq	232(%rax), %rax
	.loc 6 76 48
	movq	(%rax), %rax
	addq	$32, %rax
	movq	(%rax), %rax
	.loc 6 76 39
	movsd	32(%rbp), %xmm0
	movapd	%xmm0, %xmm1
	movq	%rdx, %rcx
	call	*%rax
.LVL2:
	movapd	%xmm0, %xmm1
	.loc 6 76 22
	movq	.LC1(%rip), %xmm0
	xorpd	%xmm0, %xmm1
	.loc 6 76 49
	movsd	.LC2(%rip), %xmm0
	mulsd	%xmm0, %xmm1
	.loc 6 76 54
	movq	0(%rbp), %rax
	movsd	240(%rax), %xmm0
	.loc 6 76 53
	mulsd	%xmm0, %xmm1
	.loc 6 76 56
	movq	0(%rbp), %rax
	movsd	256(%rax), %xmm0
	.loc 6 76 55
	movapd	%xmm1, %xmm6
	mulsd	%xmm0, %xmm6
	.loc 6 76 75
	movq	0(%rbp), %rax
	addq	$424, %rax
	movsd	-72(%rbp), %xmm0
	movapd	%xmm0, %xmm1
	movq	%rax, %rcx
	call	_ZN23CoeficienteAerodinamico8getValorEd
	.loc 6 76 57
	mulsd	%xmm0, %xmm6
	.loc 6 76 108
	movq	0(%rbp), %rax
	movsd	32(%rbp), %xmm0
	movapd	%xmm0, %xmm1
	movq	%rax, %rcx
	call	_ZN21CalculadorAtmosferico19getVentoTransversalEd
	movapd	%xmm0, %xmm1
	.loc 6 76 87
	movsd	24(%rbp), %xmm0
	subsd	%xmm1, %xmm0
	.loc 6 76 82
	mulsd	%xmm6, %xmm0
	.loc 6 76 119
	movapd	%xmm0, %xmm6
	mulsd	-56(%rbp), %xmm6
	.loc 6 77 30
	movq	0(%rbp), %rax
	movsd	40(%rbp), %xmm0
	movapd	%xmm0, %xmm1
	movq	%rax, %rcx
	call	_ZN10Calculador5gravzEd
	.loc 6 77 23
	addsd	%xmm0, %xmm6
	.loc 6 77 55
	movq	0(%rbp), %rax
	movq	0(%rbp), %rdx
	movsd	280(%rdx), %xmm2
	movq	0(%rbp), %rdx
	movsd	80(%rdx), %xmm1
	movsd	8(%rbp), %xmm3
	movsd	16(%rbp), %xmm0
	movsd	%xmm0, 32(%rsp)
	movq	%rax, %rcx
	call	_ZN21CalculadorAtmosferico11acCorioliszEdddd
	.loc 6 77 84
	addsd	%xmm6, %xmm0
	movsd	%xmm0, -80(%rbp)
	.loc 6 78 12
	movsd	-80(%rbp), %xmm0
	movq	%xmm0, %rax
	.loc 6 79 1
	movq	%rax, %xmm0
	movaps	-48(%rbp), %xmm6
	addq	$104, %rsp
	.cfi_restore 23
	popq	%rbx
	.cfi_restore 3
	popq	%rbp
	.cfi_restore 6
	.cfi_def_cfa 7, -88
	ret
	.cfi_endproc
.LFE2655:
	.seh_endproc
	.align 2
	.globl	_ZN20CalculadorPontoMassa11setProjetilE8Projetil
	.def	_ZN20CalculadorPontoMassa11setProjetilE8Projetil;	.scl	2;	.type	32;	.endef
	.seh_proc	_ZN20CalculadorPontoMassa11setProjetilE8Projetil
_ZN20CalculadorPontoMassa11setProjetilE8Projetil:
.LFB2656:
	.loc 6 82 1
	.cfi_startproc
	pushq	%rbp
	.seh_pushreg	%rbp
	.cfi_def_cfa_offset 16
	.cfi_offset 6, -16
	pushq	%rbx
	.seh_pushreg	%rbx
	.cfi_def_cfa_offset 24
	.cfi_offset 3, -24
	subq	$248, %rsp
	.seh_stackalloc	248
	.cfi_def_cfa_offset 272
	leaq	128(%rsp), %rbp
	.seh_setframe	%rbp, 128
	.cfi_def_cfa 6, 144
	.seh_endprologue
	movq	%rcx, 144(%rbp)
	movq	%rdx, 152(%rbp)
	.loc 6 84 39
	movq	144(%rbp), %rbx
	movq	152(%rbp), %rdx
	leaq	-96(%rbp), %rax
	movq	%rax, %rcx
.LEHB7:
	call	_ZN8ProjetilC1ERKS_
.LEHE7:
	leaq	-96(%rbp), %rax
	movq	%rax, %rdx
	movq	%rbx, %rcx
.LEHB8:
	call	_ZN21CalculadorAtmosferico11setProjetilE8Projetil
.LEHE8:
	.loc 6 84 39 is_stmt 0 discriminator 2
	leaq	-96(%rbp), %rax
	movq	%rax, %rcx
	call	_ZN8ProjetilD1Ev
.LEHB9:
	.loc 6 85 60 is_stmt 1 discriminator 2
	call	_ZN15CoeficientesDAO11getInstanceEv
	movq	%rax, 104(%rbp)
	.loc 6 86 25 discriminator 2
	movq	152(%rbp), %rax
	movq	%rax, %rcx
	call	_ZN8Projetil7getTipoEv
	movl	%eax, %edx
	movq	104(%rbp), %rax
	movq	%rax, %rcx
	call	_ZN15CoeficientesDAO11setProjetilE13TIPO_PROJETIL
	.loc 6 87 29 discriminator 2
	movq	144(%rbp), %rax
	leaq	424(%rax), %rcx
	leaq	32(%rbp), %rax
	movq	104(%rbp), %rdx
	movq	%rcx, %r8
	movq	%rax, %rcx
	call	_ZN15CoeficientesDAO15geraCoeficienteER23CoeficienteAerodinamico
	leaq	32(%rbp), %rax
	movq	%rax, %rcx
	call	_ZN23CoeficienteAerodinamicoD1Ev
	.loc 6 88 1 discriminator 2
	jmp	.L33
.L32:
	movq	%rax, %rbx
	.loc 6 84 39
	leaq	-96(%rbp), %rax
	movq	%rax, %rcx
	call	_ZN8ProjetilD1Ev
	movq	%rbx, %rax
	movq	%rax, %rcx
	call	_Unwind_Resume
	nop
.LEHE9:
.L33:
	.loc 6 88 1
	addq	$248, %rsp
	popq	%rbx
	.cfi_restore 3
	popq	%rbp
	.cfi_restore 6
	.cfi_def_cfa 7, -232
	ret
	.cfi_endproc
.LFE2656:
	.seh_handler	__gxx_personality_seh0, @unwind, @except
	.seh_handlerdata
.LLSDA2656:
	.byte	0xff
	.byte	0xff
	.byte	0x1
	.uleb128 .LLSDACSE2656-.LLSDACSB2656
.LLSDACSB2656:
	.uleb128 .LEHB7-.LFB2656
	.uleb128 .LEHE7-.LEHB7
	.uleb128 0
	.uleb128 0
	.uleb128 .LEHB8-.LFB2656
	.uleb128 .LEHE8-.LEHB8
	.uleb128 .L32-.LFB2656
	.uleb128 0
	.uleb128 .LEHB9-.LFB2656
	.uleb128 .LEHE9-.LEHB9
	.uleb128 0
	.uleb128 0
.LLSDACSE2656:
	.text
	.seh_endproc
	.align 2
	.globl	_ZN20CalculadorPontoMassa13solucaoDiretaEddddb4RAMO
	.def	_ZN20CalculadorPontoMassa13solucaoDiretaEddddb4RAMO;	.scl	2;	.type	32;	.endef
	.seh_proc	_ZN20CalculadorPontoMassa13solucaoDiretaEddddb4RAMO
_ZN20CalculadorPontoMassa13solucaoDiretaEddddb4RAMO:
.LFB2657:
	.loc 6 90 1
	.cfi_startproc
	pushq	%rbp
	.seh_pushreg	%rbp
	.cfi_def_cfa_offset 16
	.cfi_offset 6, -16
	pushq	%rbx
	.seh_pushreg	%rbx
	.cfi_def_cfa_offset 24
	.cfi_offset 3, -24
	subq	$568, %rsp
	.seh_stackalloc	568
	.cfi_def_cfa_offset 592
	leaq	128(%rsp), %rbp
	.seh_setframe	%rbp, 128
	.cfi_def_cfa 6, 464
	movaps	%xmm6, 400(%rbp)
	.seh_savexmm	%xmm6, 528
	movaps	%xmm7, 416(%rbp)
	.seh_savexmm	%xmm7, 544
	.cfi_offset 23, -64
	.cfi_offset 24, -48
	.seh_endprologue
	movq	%rcx, 464(%rbp)
	movq	%rdx, 472(%rbp)
	movsd	%xmm2, 480(%rbp)
	movsd	%xmm3, 488(%rbp)
	movl	512(%rbp), %eax
	movb	%al, -36(%rbp)
	.loc 6 91 29
	movq	472(%rbp), %rax
	addq	$304, %rax
	movq	%rax, %rcx
	call	_ZNSt6vectorI12ElementosVooSaIS0_EE5clearEv
	.loc 6 92 8
	movq	472(%rbp), %rax
	pxor	%xmm0, %xmm0
	movsd	%xmm0, 328(%rax)
	.loc 6 92 17
	movq	472(%rbp), %rax
	pxor	%xmm0, %xmm0
	movsd	%xmm0, 336(%rax)
	.loc 6 92 27
	movq	472(%rbp), %rax
	pxor	%xmm0, %xmm0
	movsd	%xmm0, 344(%rax)
	.loc 6 93 23
	movsd	480(%rbp), %xmm1
	movsd	.LC4(%rip), %xmm0
	mulsd	%xmm1, %xmm0
	.loc 6 93 16
	movsd	.LC5(%rip), %xmm1
	divsd	%xmm1, %xmm0
	call	cos
	.loc 6 93 12
	mulsd	488(%rbp), %xmm0
	.loc 6 93 8
	movq	472(%rbp), %rax
	movsd	%xmm0, 352(%rax)
	.loc 6 93 73
	movsd	480(%rbp), %xmm1
	movsd	.LC4(%rip), %xmm0
	mulsd	%xmm1, %xmm0
	.loc 6 93 66
	movsd	.LC5(%rip), %xmm1
	divsd	%xmm1, %xmm0
	call	sin
	.loc 6 93 62
	mulsd	488(%rbp), %xmm0
	.loc 6 93 58
	movq	472(%rbp), %rax
	movsd	%xmm0, 360(%rax)
	.loc 6 93 108
	movq	472(%rbp), %rax
	pxor	%xmm0, %xmm0
	movsd	%xmm0, 368(%rax)
	.loc 6 94 25
	movq	472(%rbp), %rax
	movq	232(%rax), %rdx
	movq	472(%rbp), %rax
	movq	232(%rax), %rax
	.loc 6 94 47
	movq	(%rax), %rax
	addq	$24, %rax
	movq	(%rax), %rax
	.loc 6 94 45
	pxor	%xmm1, %xmm1
	movq	%rdx, %rcx
.LEHB10:
	call	*%rax
.LVL3:
	movq	%xmm0, %rdx
	.loc 6 94 23
	movq	472(%rbp), %rax
	movq	%rdx, 272(%rax)
	.loc 6 96 13
	movq	472(%rbp), %rax
	movb	$0, 392(%rax)
	.loc 6 97 20
	movq	472(%rbp), %rax
	movb	$0, 393(%rax)
	.loc 6 98 15
	movq	472(%rbp), %rax
	movb	$0, 394(%rax)
	.loc 6 100 16
	movq	472(%rbp), %rax
	pxor	%xmm0, %xmm0
	movsd	%xmm0, 400(%rax)
	.loc 6 101 16
	movq	472(%rbp), %rax
	pxor	%xmm0, %xmm0
	movsd	%xmm0, 408(%rax)
	.loc 6 102 43
	movq	472(%rbp), %rax
	movq	472(%rbp), %rdx
	movsd	80(%rdx), %xmm0
	movapd	%xmm0, %xmm1
	movq	%rax, %rcx
	call	_ZN10Calculador21calculaGravidadeLocalEd
	movq	%xmm0, %rdx
	.loc 6 102 20
	movq	472(%rbp), %rax
	movq	%rdx, 48(%rax)
	.loc 6 103 13
	movq	472(%rbp), %rax
	movb	$0, 392(%rax)
	.loc 6 104 11
	movq	472(%rbp), %rax
	pxor	%xmm0, %xmm0
	movsd	%xmm0, 376(%rax)
	.loc 6 105 47
	movq	472(%rbp), %rax
	movsd	504(%rbp), %xmm0
	movapd	%xmm0, %xmm1
	movq	%rax, %rcx
	call	_ZN10Calculador22intervaloEntreAmostrasEd
	movl	%eax, %edx
	.loc 6 105 23
	movq	472(%rbp), %rax
	movl	%edx, 72(%rax)
	.loc 6 107 23
	movl	$0, 396(%rbp)
	.loc 6 108 12
	movsd	504(%rbp), %xmm0
	movsd	%xmm0, 168(%rbp)
	.loc 6 112 18
	leaq	64(%rbp), %rax
	movq	%rax, %rcx
	call	_ZN12ElementosVooC1Ev
.LEHE10:
	.loc 6 113 21
	movq	472(%rbp), %rax
	movsd	376(%rax), %xmm4
	movq	472(%rbp), %rax
	movsd	368(%rax), %xmm3
	movq	472(%rbp), %rax
	movsd	360(%rax), %xmm2
	movq	472(%rbp), %rax
	movsd	352(%rax), %xmm1
	movq	472(%rbp), %rax
	movsd	344(%rax), %xmm0
	movq	472(%rbp), %rax
	movsd	336(%rax), %xmm7
	movq	472(%rbp), %rax
	movsd	328(%rax), %xmm6
	movsd	480(%rbp), %xmm5
	leaq	64(%rbp), %rax
	movsd	%xmm4, 72(%rsp)
	pxor	%xmm4, %xmm4
	movsd	%xmm4, 64(%rsp)
	movsd	%xmm3, 56(%rsp)
	movsd	%xmm2, 48(%rsp)
	movsd	%xmm1, 40(%rsp)
	movsd	%xmm0, 32(%rsp)
	movapd	%xmm7, %xmm3
	movapd	%xmm6, %xmm2
	movapd	%xmm5, %xmm1
	movq	%rax, %rcx
.LEHB11:
	call	_ZN12ElementosVoo3setEddddddddd
	.loc 6 114 33
	movq	472(%rbp), %rax
	leaq	304(%rax), %rcx
	leaq	64(%rbp), %rax
	movq	%rax, %rdx
	call	_ZNSt6vectorI12ElementosVooSaIS0_EE9push_backERKS0_
.L45:
.LBB11:
	.loc 6 118 18
	movq	472(%rbp), %rax
	movsd	328(%rax), %xmm1
	movq	472(%rbp), %rax
	movsd	336(%rax), %xmm0
	movq	472(%rbp), %rax
	movsd	368(%rax), %xmm3
	movq	472(%rbp), %rax
	movsd	360(%rax), %xmm2
	movq	472(%rbp), %rax
	movsd	352(%rax), %xmm4
	movq	472(%rbp), %rax
	movsd	%xmm1, 40(%rsp)
	movsd	%xmm0, 32(%rsp)
	movapd	%xmm4, %xmm1
	movq	%rax, %rcx
	call	_ZN20CalculadorPontoMassa3acxEddddd
	movq	%xmm0, %rax
	movq	%rax, 384(%rbp)
	.loc 6 119 18
	movq	472(%rbp), %rax
	movsd	336(%rax), %xmm0
	movq	472(%rbp), %rax
	movsd	368(%rax), %xmm3
	movq	472(%rbp), %rax
	movsd	360(%rax), %xmm2
	movq	472(%rbp), %rax
	movsd	352(%rax), %xmm1
	movq	472(%rbp), %rax
	movsd	%xmm0, 32(%rsp)
	movq	%rax, %rcx
	call	_ZN20CalculadorPontoMassa3acyEdddd
	.loc 6 119 18 is_stmt 0 discriminator 1
	movq	%xmm0, %rax
	movq	%rax, 376(%rbp)
	.loc 6 120 18 is_stmt 1 discriminator 1
	movq	472(%rbp), %rax
	movsd	344(%rax), %xmm1
	movq	472(%rbp), %rax
	movsd	336(%rax), %xmm0
	movq	472(%rbp), %rax
	movsd	368(%rax), %xmm3
	movq	472(%rbp), %rax
	movsd	360(%rax), %xmm2
	movq	472(%rbp), %rax
	movsd	352(%rax), %xmm4
	movq	472(%rbp), %rax
	movsd	%xmm1, 40(%rsp)
	movsd	%xmm0, 32(%rsp)
	movapd	%xmm4, %xmm1
	movq	%rax, %rcx
	call	_ZN20CalculadorPontoMassa3aczEddddd
	movq	%xmm0, %rax
	movq	%rax, 368(%rbp)
	.loc 6 122 18 discriminator 1
	movq	472(%rbp), %rax
	movsd	328(%rax), %xmm1
	movq	472(%rbp), %rax
	movsd	336(%rax), %xmm0
	.loc 6 122 47 discriminator 1
	movq	472(%rbp), %rax
	movsd	368(%rax), %xmm3
	.loc 6 122 53 discriminator 1
	movsd	168(%rbp), %xmm4
	movsd	.LC2(%rip), %xmm2
	mulsd	%xmm4, %xmm2
	.loc 6 122 57 discriminator 1
	mulsd	368(%rbp), %xmm2
	.loc 6 122 18 discriminator 1
	movapd	%xmm3, %xmm6
	addsd	%xmm2, %xmm6
	.loc 6 122 33 discriminator 1
	movq	472(%rbp), %rax
	movsd	360(%rax), %xmm3
	.loc 6 122 38 discriminator 1
	movsd	168(%rbp), %xmm4
	movsd	.LC2(%rip), %xmm2
	mulsd	%xmm4, %xmm2
	.loc 6 122 42 discriminator 1
	mulsd	376(%rbp), %xmm2
	.loc 6 122 18 discriminator 1
	movapd	%xmm3, %xmm5
	addsd	%xmm2, %xmm5
	.loc 6 122 19 discriminator 1
	movq	472(%rbp), %rax
	movsd	352(%rax), %xmm3
	.loc 6 122 24 discriminator 1
	movsd	168(%rbp), %xmm4
	movsd	.LC2(%rip), %xmm2
	mulsd	%xmm4, %xmm2
	.loc 6 122 28 discriminator 1
	mulsd	384(%rbp), %xmm2
	.loc 6 122 18 discriminator 1
	movapd	%xmm3, %xmm4
	addsd	%xmm2, %xmm4
	movq	472(%rbp), %rax
	movsd	%xmm1, 40(%rsp)
	movsd	%xmm0, 32(%rsp)
	movapd	%xmm6, %xmm3
	movapd	%xmm5, %xmm2
	movapd	%xmm4, %xmm1
	movq	%rax, %rcx
	call	_ZN20CalculadorPontoMassa3acxEddddd
	movq	%xmm0, %rax
	movq	%rax, 360(%rbp)
	.loc 6 123 18 discriminator 1
	movq	472(%rbp), %rax
	movsd	336(%rax), %xmm0
	.loc 6 123 47 discriminator 1
	movq	472(%rbp), %rax
	movsd	368(%rax), %xmm2
	.loc 6 123 53 discriminator 1
	movsd	168(%rbp), %xmm3
	movsd	.LC2(%rip), %xmm1
	mulsd	%xmm3, %xmm1
	.loc 6 123 57 discriminator 1
	mulsd	368(%rbp), %xmm1
	.loc 6 123 18 discriminator 1
	movapd	%xmm2, %xmm5
	addsd	%xmm1, %xmm5
	.loc 6 123 33 discriminator 1
	movq	472(%rbp), %rax
	movsd	360(%rax), %xmm2
	.loc 6 123 38 discriminator 1
	movsd	168(%rbp), %xmm3
	movsd	.LC2(%rip), %xmm1
	mulsd	%xmm3, %xmm1
	.loc 6 123 42 discriminator 1
	mulsd	376(%rbp), %xmm1
	.loc 6 123 18 discriminator 1
	movapd	%xmm2, %xmm4
	addsd	%xmm1, %xmm4
	.loc 6 123 19 discriminator 1
	movq	472(%rbp), %rax
	movsd	352(%rax), %xmm2
	.loc 6 123 24 discriminator 1
	movsd	168(%rbp), %xmm3
	movsd	.LC2(%rip), %xmm1
	mulsd	%xmm3, %xmm1
	.loc 6 123 28 discriminator 1
	mulsd	384(%rbp), %xmm1
	.loc 6 123 18 discriminator 1
	addsd	%xmm2, %xmm1
	movq	472(%rbp), %rax
	movsd	%xmm0, 32(%rsp)
	movapd	%xmm5, %xmm3
	movapd	%xmm4, %xmm2
	movq	%rax, %rcx
	call	_ZN20CalculadorPontoMassa3acyEdddd
	movq	%xmm0, %rax
	movq	%rax, 352(%rbp)
	.loc 6 124 18 discriminator 1
	movq	472(%rbp), %rax
	movsd	344(%rax), %xmm1
	movq	472(%rbp), %rax
	movsd	336(%rax), %xmm0
	.loc 6 124 47 discriminator 1
	movq	472(%rbp), %rax
	movsd	368(%rax), %xmm3
	.loc 6 124 53 discriminator 1
	movsd	168(%rbp), %xmm4
	movsd	.LC2(%rip), %xmm2
	mulsd	%xmm4, %xmm2
	.loc 6 124 57 discriminator 1
	mulsd	368(%rbp), %xmm2
	.loc 6 124 18 discriminator 1
	movapd	%xmm3, %xmm6
	addsd	%xmm2, %xmm6
	.loc 6 124 33 discriminator 1
	movq	472(%rbp), %rax
	movsd	360(%rax), %xmm3
	.loc 6 124 38 discriminator 1
	movsd	168(%rbp), %xmm4
	movsd	.LC2(%rip), %xmm2
	mulsd	%xmm4, %xmm2
	.loc 6 124 42 discriminator 1
	mulsd	376(%rbp), %xmm2
	.loc 6 124 18 discriminator 1
	movapd	%xmm3, %xmm5
	addsd	%xmm2, %xmm5
	.loc 6 124 19 discriminator 1
	movq	472(%rbp), %rax
	movsd	352(%rax), %xmm3
	.loc 6 124 24 discriminator 1
	movsd	168(%rbp), %xmm4
	movsd	.LC2(%rip), %xmm2
	mulsd	%xmm4, %xmm2
	.loc 6 124 28 discriminator 1
	mulsd	384(%rbp), %xmm2
	.loc 6 124 18 discriminator 1
	movapd	%xmm3, %xmm4
	addsd	%xmm2, %xmm4
	movq	472(%rbp), %rax
	movsd	%xmm1, 40(%rsp)
	movsd	%xmm0, 32(%rsp)
	movapd	%xmm6, %xmm3
	movapd	%xmm5, %xmm2
	movapd	%xmm4, %xmm1
	movq	%rax, %rcx
	call	_ZN20CalculadorPontoMassa3aczEddddd
	movq	%xmm0, %rax
	movq	%rax, 344(%rbp)
	.loc 6 126 18 discriminator 1
	movq	472(%rbp), %rax
	movsd	328(%rax), %xmm1
	movq	472(%rbp), %rax
	movsd	336(%rax), %xmm0
	.loc 6 126 47 discriminator 1
	movq	472(%rbp), %rax
	movsd	368(%rax), %xmm3
	.loc 6 126 53 discriminator 1
	movsd	168(%rbp), %xmm4
	movsd	.LC2(%rip), %xmm2
	mulsd	%xmm4, %xmm2
	.loc 6 126 57 discriminator 1
	mulsd	344(%rbp), %xmm2
	.loc 6 126 18 discriminator 1
	movapd	%xmm3, %xmm6
	addsd	%xmm2, %xmm6
	.loc 6 126 33 discriminator 1
	movq	472(%rbp), %rax
	movsd	360(%rax), %xmm3
	.loc 6 126 38 discriminator 1
	movsd	168(%rbp), %xmm4
	movsd	.LC2(%rip), %xmm2
	mulsd	%xmm4, %xmm2
	.loc 6 126 42 discriminator 1
	mulsd	352(%rbp), %xmm2
	.loc 6 126 18 discriminator 1
	movapd	%xmm3, %xmm5
	addsd	%xmm2, %xmm5
	.loc 6 126 19 discriminator 1
	movq	472(%rbp), %rax
	movsd	352(%rax), %xmm3
	.loc 6 126 24 discriminator 1
	movsd	168(%rbp), %xmm4
	movsd	.LC2(%rip), %xmm2
	mulsd	%xmm4, %xmm2
	.loc 6 126 28 discriminator 1
	mulsd	360(%rbp), %xmm2
	.loc 6 126 18 discriminator 1
	movapd	%xmm3, %xmm4
	addsd	%xmm2, %xmm4
	movq	472(%rbp), %rax
	movsd	%xmm1, 40(%rsp)
	movsd	%xmm0, 32(%rsp)
	movapd	%xmm6, %xmm3
	movapd	%xmm5, %xmm2
	movapd	%xmm4, %xmm1
	movq	%rax, %rcx
	call	_ZN20CalculadorPontoMassa3acxEddddd
	movq	%xmm0, %rax
	movq	%rax, 336(%rbp)
	.loc 6 127 18 discriminator 1
	movq	472(%rbp), %rax
	movsd	336(%rax), %xmm0
	.loc 6 127 47 discriminator 1
	movq	472(%rbp), %rax
	movsd	368(%rax), %xmm2
	.loc 6 127 53 discriminator 1
	movsd	168(%rbp), %xmm3
	movsd	.LC2(%rip), %xmm1
	mulsd	%xmm3, %xmm1
	.loc 6 127 57 discriminator 1
	mulsd	344(%rbp), %xmm1
	.loc 6 127 18 discriminator 1
	movapd	%xmm2, %xmm5
	addsd	%xmm1, %xmm5
	.loc 6 127 33 discriminator 1
	movq	472(%rbp), %rax
	movsd	360(%rax), %xmm2
	.loc 6 127 38 discriminator 1
	movsd	168(%rbp), %xmm3
	movsd	.LC2(%rip), %xmm1
	mulsd	%xmm3, %xmm1
	.loc 6 127 42 discriminator 1
	mulsd	352(%rbp), %xmm1
	.loc 6 127 18 discriminator 1
	movapd	%xmm2, %xmm4
	addsd	%xmm1, %xmm4
	.loc 6 127 19 discriminator 1
	movq	472(%rbp), %rax
	movsd	352(%rax), %xmm2
	.loc 6 127 24 discriminator 1
	movsd	168(%rbp), %xmm3
	movsd	.LC2(%rip), %xmm1
	mulsd	%xmm3, %xmm1
	.loc 6 127 28 discriminator 1
	mulsd	360(%rbp), %xmm1
	.loc 6 127 18 discriminator 1
	addsd	%xmm2, %xmm1
	movq	472(%rbp), %rax
	movsd	%xmm0, 32(%rsp)
	movapd	%xmm5, %xmm3
	movapd	%xmm4, %xmm2
	movq	%rax, %rcx
	call	_ZN20CalculadorPontoMassa3acyEdddd
	movq	%xmm0, %rax
	movq	%rax, 328(%rbp)
	.loc 6 128 18 discriminator 1
	movq	472(%rbp), %rax
	movsd	344(%rax), %xmm1
	movq	472(%rbp), %rax
	movsd	336(%rax), %xmm0
	.loc 6 128 47 discriminator 1
	movq	472(%rbp), %rax
	movsd	368(%rax), %xmm3
	.loc 6 128 53 discriminator 1
	movsd	168(%rbp), %xmm4
	movsd	.LC2(%rip), %xmm2
	mulsd	%xmm4, %xmm2
	.loc 6 128 57 discriminator 1
	mulsd	344(%rbp), %xmm2
	.loc 6 128 18 discriminator 1
	movapd	%xmm3, %xmm6
	addsd	%xmm2, %xmm6
	.loc 6 128 33 discriminator 1
	movq	472(%rbp), %rax
	movsd	360(%rax), %xmm3
	.loc 6 128 38 discriminator 1
	movsd	168(%rbp), %xmm4
	movsd	.LC2(%rip), %xmm2
	mulsd	%xmm4, %xmm2
	.loc 6 128 42 discriminator 1
	mulsd	352(%rbp), %xmm2
	.loc 6 128 18 discriminator 1
	movapd	%xmm3, %xmm5
	addsd	%xmm2, %xmm5
	.loc 6 128 19 discriminator 1
	movq	472(%rbp), %rax
	movsd	352(%rax), %xmm3
	.loc 6 128 24 discriminator 1
	movsd	168(%rbp), %xmm4
	movsd	.LC2(%rip), %xmm2
	mulsd	%xmm4, %xmm2
	.loc 6 128 28 discriminator 1
	mulsd	360(%rbp), %xmm2
	.loc 6 128 18 discriminator 1
	movapd	%xmm3, %xmm4
	addsd	%xmm2, %xmm4
	movq	472(%rbp), %rax
	movsd	%xmm1, 40(%rsp)
	movsd	%xmm0, 32(%rsp)
	movapd	%xmm6, %xmm3
	movapd	%xmm5, %xmm2
	movapd	%xmm4, %xmm1
	movq	%rax, %rcx
	call	_ZN20CalculadorPontoMassa3aczEddddd
	movq	%xmm0, %rax
	movq	%rax, 320(%rbp)
	.loc 6 130 18 discriminator 1
	movq	472(%rbp), %rax
	movsd	328(%rax), %xmm1
	movq	472(%rbp), %rax
	movsd	336(%rax), %xmm0
	.loc 6 130 39 discriminator 1
	movq	472(%rbp), %rax
	movsd	368(%rax), %xmm3
	.loc 6 130 45 discriminator 1
	movsd	168(%rbp), %xmm2
	mulsd	320(%rbp), %xmm2
	.loc 6 130 18 discriminator 1
	movapd	%xmm3, %xmm6
	addsd	%xmm2, %xmm6
	.loc 6 130 29 discriminator 1
	movq	472(%rbp), %rax
	movsd	360(%rax), %xmm3
	.loc 6 130 34 discriminator 1
	movsd	168(%rbp), %xmm2
	mulsd	328(%rbp), %xmm2
	.loc 6 130 18 discriminator 1
	movapd	%xmm3, %xmm5
	addsd	%xmm2, %xmm5
	.loc 6 130 19 discriminator 1
	movq	472(%rbp), %rax
	movsd	352(%rax), %xmm3
	.loc 6 130 24 discriminator 1
	movsd	168(%rbp), %xmm2
	mulsd	336(%rbp), %xmm2
	.loc 6 130 18 discriminator 1
	movapd	%xmm3, %xmm4
	addsd	%xmm2, %xmm4
	movq	472(%rbp), %rax
	movsd	%xmm1, 40(%rsp)
	movsd	%xmm0, 32(%rsp)
	movapd	%xmm6, %xmm3
	movapd	%xmm5, %xmm2
	movapd	%xmm4, %xmm1
	movq	%rax, %rcx
	call	_ZN20CalculadorPontoMassa3acxEddddd
	movq	%xmm0, %rax
	movq	%rax, 312(%rbp)
	.loc 6 131 18 discriminator 1
	movq	472(%rbp), %rax
	movsd	336(%rax), %xmm0
	.loc 6 131 39 discriminator 1
	movq	472(%rbp), %rax
	movsd	368(%rax), %xmm2
	.loc 6 131 45 discriminator 1
	movsd	168(%rbp), %xmm1
	mulsd	320(%rbp), %xmm1
	.loc 6 131 18 discriminator 1
	movapd	%xmm2, %xmm3
	addsd	%xmm1, %xmm3
	.loc 6 131 29 discriminator 1
	movq	472(%rbp), %rax
	movsd	360(%rax), %xmm2
	.loc 6 131 34 discriminator 1
	movsd	168(%rbp), %xmm1
	mulsd	328(%rbp), %xmm1
	.loc 6 131 18 discriminator 1
	movapd	%xmm2, %xmm4
	addsd	%xmm1, %xmm4
	.loc 6 131 19 discriminator 1
	movq	472(%rbp), %rax
	movsd	352(%rax), %xmm2
	.loc 6 131 24 discriminator 1
	movsd	168(%rbp), %xmm1
	mulsd	336(%rbp), %xmm1
	.loc 6 131 18 discriminator 1
	addsd	%xmm2, %xmm1
	movq	472(%rbp), %rax
	movsd	%xmm0, 32(%rsp)
	movapd	%xmm4, %xmm2
	movq	%rax, %rcx
	call	_ZN20CalculadorPontoMassa3acyEdddd
	movq	%xmm0, %rax
	movq	%rax, 304(%rbp)
	.loc 6 132 18 discriminator 1
	movq	472(%rbp), %rax
	movsd	344(%rax), %xmm1
	movq	472(%rbp), %rax
	movsd	336(%rax), %xmm0
	.loc 6 132 39 discriminator 1
	movq	472(%rbp), %rax
	movsd	368(%rax), %xmm3
	.loc 6 132 45 discriminator 1
	movsd	168(%rbp), %xmm2
	mulsd	320(%rbp), %xmm2
	.loc 6 132 18 discriminator 1
	movapd	%xmm3, %xmm6
	addsd	%xmm2, %xmm6
	.loc 6 132 29 discriminator 1
	movq	472(%rbp), %rax
	movsd	360(%rax), %xmm3
	.loc 6 132 34 discriminator 1
	movsd	168(%rbp), %xmm2
	mulsd	328(%rbp), %xmm2
	.loc 6 132 18 discriminator 1
	movapd	%xmm3, %xmm5
	addsd	%xmm2, %xmm5
	.loc 6 132 19 discriminator 1
	movq	472(%rbp), %rax
	movsd	352(%rax), %xmm3
	.loc 6 132 24 discriminator 1
	movsd	168(%rbp), %xmm2
	mulsd	336(%rbp), %xmm2
	.loc 6 132 18 discriminator 1
	movapd	%xmm3, %xmm4
	addsd	%xmm2, %xmm4
	movq	472(%rbp), %rax
	movsd	%xmm1, 40(%rsp)
	movsd	%xmm0, 32(%rsp)
	movapd	%xmm6, %xmm3
	movapd	%xmm5, %xmm2
	movapd	%xmm4, %xmm1
	movq	%rax, %rcx
	call	_ZN20CalculadorPontoMassa3aczEddddd
	movq	%xmm0, %rax
	movq	%rax, 296(%rbp)
	.loc 6 134 23 discriminator 1
	movsd	168(%rbp), %xmm0
	movsd	.LC6(%rip), %xmm1
	divsd	%xmm1, %xmm0
	movapd	%xmm0, %xmm1
	.loc 6 134 32 discriminator 1
	movsd	360(%rbp), %xmm0
	addsd	%xmm0, %xmm0
	.loc 6 134 30 discriminator 1
	movapd	%xmm0, %xmm2
	addsd	384(%rbp), %xmm2
	.loc 6 134 38 discriminator 1
	movsd	336(%rbp), %xmm0
	addsd	%xmm0, %xmm0
	.loc 6 134 36 discriminator 1
	addsd	%xmm2, %xmm0
	.loc 6 134 42 discriminator 1
	addsd	312(%rbp), %xmm0
	.loc 6 134 17 discriminator 1
	mulsd	%xmm1, %xmm0
	movsd	%xmm0, 288(%rbp)
	.loc 6 135 23 discriminator 1
	movsd	168(%rbp), %xmm0
	movsd	.LC6(%rip), %xmm1
	divsd	%xmm1, %xmm0
	movapd	%xmm0, %xmm1
	.loc 6 135 32 discriminator 1
	movsd	352(%rbp), %xmm0
	addsd	%xmm0, %xmm0
	.loc 6 135 30 discriminator 1
	movapd	%xmm0, %xmm2
	addsd	376(%rbp), %xmm2
	.loc 6 135 38 discriminator 1
	movsd	328(%rbp), %xmm0
	addsd	%xmm0, %xmm0
	.loc 6 135 36 discriminator 1
	addsd	%xmm2, %xmm0
	.loc 6 135 42 discriminator 1
	addsd	304(%rbp), %xmm0
	.loc 6 135 17 discriminator 1
	mulsd	%xmm1, %xmm0
	movsd	%xmm0, 280(%rbp)
	.loc 6 136 23 discriminator 1
	movsd	168(%rbp), %xmm0
	movsd	.LC6(%rip), %xmm1
	divsd	%xmm1, %xmm0
	movapd	%xmm0, %xmm1
	.loc 6 136 32 discriminator 1
	movsd	344(%rbp), %xmm0
	addsd	%xmm0, %xmm0
	.loc 6 136 30 discriminator 1
	movapd	%xmm0, %xmm2
	addsd	368(%rbp), %xmm2
	.loc 6 136 38 discriminator 1
	movsd	320(%rbp), %xmm0
	addsd	%xmm0, %xmm0
	.loc 6 136 36 discriminator 1
	addsd	%xmm2, %xmm0
	.loc 6 136 42 discriminator 1
	addsd	296(%rbp), %xmm0
	.loc 6 136 17 discriminator 1
	mulsd	%xmm1, %xmm0
	movsd	%xmm0, 272(%rbp)
	.loc 6 140 15 discriminator 1
	movq	472(%rbp), %rax
	movsd	352(%rax), %xmm0
	movsd	%xmm0, 264(%rbp)
	.loc 6 141 17 discriminator 1
	movq	472(%rbp), %rax
	movsd	352(%rax), %xmm1
	.loc 6 141 24 discriminator 1
	movsd	168(%rbp), %xmm0
	mulsd	384(%rbp), %xmm0
	.loc 6 141 26 discriminator 1
	movsd	.LC7(%rip), %xmm2
	divsd	%xmm2, %xmm0
	.loc 6 141 15 discriminator 1
	addsd	%xmm1, %xmm0
	movsd	%xmm0, 256(%rbp)
	.loc 6 142 17 discriminator 1
	movq	472(%rbp), %rax
	movsd	352(%rax), %xmm1
	.loc 6 142 24 discriminator 1
	movsd	168(%rbp), %xmm0
	mulsd	360(%rbp), %xmm0
	.loc 6 142 26 discriminator 1
	movsd	.LC7(%rip), %xmm2
	divsd	%xmm2, %xmm0
	.loc 6 142 15 discriminator 1
	addsd	%xmm1, %xmm0
	movsd	%xmm0, 248(%rbp)
	.loc 6 143 17 discriminator 1
	movq	472(%rbp), %rax
	movsd	352(%rax), %xmm1
	.loc 6 143 24 discriminator 1
	movsd	168(%rbp), %xmm0
	mulsd	336(%rbp), %xmm0
	.loc 6 143 15 discriminator 1
	addsd	%xmm1, %xmm0
	movsd	%xmm0, 240(%rbp)
	.loc 6 144 13 discriminator 1
	movq	472(%rbp), %rax
	movsd	328(%rax), %xmm1
	.loc 6 144 25 discriminator 1
	movsd	256(%rbp), %xmm0
	addsd	%xmm0, %xmm0
	.loc 6 144 22 discriminator 1
	movapd	%xmm0, %xmm2
	addsd	264(%rbp), %xmm2
	.loc 6 144 34 discriminator 1
	movsd	248(%rbp), %xmm0
	addsd	%xmm0, %xmm0
	.loc 6 144 31 discriminator 1
	addsd	%xmm2, %xmm0
	.loc 6 144 40 discriminator 1
	movapd	%xmm0, %xmm2
	addsd	240(%rbp), %xmm2
	.loc 6 144 50 discriminator 1
	movsd	168(%rbp), %xmm0
	movsd	.LC6(%rip), %xmm3
	divsd	%xmm3, %xmm0
	.loc 6 144 47 discriminator 1
	mulsd	%xmm2, %xmm0
	.loc 6 144 13 discriminator 1
	addsd	%xmm1, %xmm0
	movq	472(%rbp), %rax
	movsd	%xmm0, 328(%rax)
	.loc 6 147 15 discriminator 1
	movq	472(%rbp), %rax
	movsd	360(%rax), %xmm0
	movsd	%xmm0, 232(%rbp)
	.loc 6 148 17 discriminator 1
	movq	472(%rbp), %rax
	movsd	360(%rax), %xmm1
	.loc 6 148 24 discriminator 1
	movsd	168(%rbp), %xmm0
	mulsd	376(%rbp), %xmm0
	.loc 6 148 26 discriminator 1
	movsd	.LC7(%rip), %xmm2
	divsd	%xmm2, %xmm0
	.loc 6 148 15 discriminator 1
	addsd	%xmm1, %xmm0
	movsd	%xmm0, 224(%rbp)
	.loc 6 149 17 discriminator 1
	movq	472(%rbp), %rax
	movsd	360(%rax), %xmm1
	.loc 6 149 24 discriminator 1
	movsd	168(%rbp), %xmm0
	mulsd	352(%rbp), %xmm0
	.loc 6 149 26 discriminator 1
	movsd	.LC7(%rip), %xmm2
	divsd	%xmm2, %xmm0
	.loc 6 149 15 discriminator 1
	addsd	%xmm1, %xmm0
	movsd	%xmm0, 216(%rbp)
	.loc 6 150 17 discriminator 1
	movq	472(%rbp), %rax
	movsd	360(%rax), %xmm1
	.loc 6 150 24 discriminator 1
	movsd	168(%rbp), %xmm0
	mulsd	328(%rbp), %xmm0
	.loc 6 150 15 discriminator 1
	addsd	%xmm1, %xmm0
	movsd	%xmm0, 208(%rbp)
	.loc 6 151 13 discriminator 1
	movq	472(%rbp), %rax
	movsd	336(%rax), %xmm1
	.loc 6 151 25 discriminator 1
	movsd	224(%rbp), %xmm0
	addsd	%xmm0, %xmm0
	.loc 6 151 22 discriminator 1
	movapd	%xmm0, %xmm2
	addsd	232(%rbp), %xmm2
	.loc 6 151 34 discriminator 1
	movsd	216(%rbp), %xmm0
	addsd	%xmm0, %xmm0
	.loc 6 151 31 discriminator 1
	addsd	%xmm2, %xmm0
	.loc 6 151 40 discriminator 1
	movapd	%xmm0, %xmm2
	addsd	208(%rbp), %xmm2
	.loc 6 151 50 discriminator 1
	movsd	168(%rbp), %xmm0
	movsd	.LC6(%rip), %xmm3
	divsd	%xmm3, %xmm0
	.loc 6 151 47 discriminator 1
	mulsd	%xmm2, %xmm0
	.loc 6 151 13 discriminator 1
	addsd	%xmm1, %xmm0
	movq	472(%rbp), %rax
	movsd	%xmm0, 336(%rax)
	.loc 6 154 15 discriminator 1
	movq	472(%rbp), %rax
	movsd	368(%rax), %xmm0
	movsd	%xmm0, 200(%rbp)
	.loc 6 155 17 discriminator 1
	movq	472(%rbp), %rax
	movsd	368(%rax), %xmm1
	.loc 6 155 24 discriminator 1
	movsd	168(%rbp), %xmm0
	mulsd	368(%rbp), %xmm0
	.loc 6 155 26 discriminator 1
	movsd	.LC7(%rip), %xmm2
	divsd	%xmm2, %xmm0
	.loc 6 155 15 discriminator 1
	addsd	%xmm1, %xmm0
	movsd	%xmm0, 192(%rbp)
	.loc 6 156 17 discriminator 1
	movq	472(%rbp), %rax
	movsd	368(%rax), %xmm1
	.loc 6 156 24 discriminator 1
	movsd	168(%rbp), %xmm0
	mulsd	344(%rbp), %xmm0
	.loc 6 156 26 discriminator 1
	movsd	.LC7(%rip), %xmm2
	divsd	%xmm2, %xmm0
	.loc 6 156 15 discriminator 1
	addsd	%xmm1, %xmm0
	movsd	%xmm0, 184(%rbp)
	.loc 6 157 17 discriminator 1
	movq	472(%rbp), %rax
	movsd	368(%rax), %xmm1
	.loc 6 157 24 discriminator 1
	movsd	168(%rbp), %xmm0
	mulsd	320(%rbp), %xmm0
	.loc 6 157 15 discriminator 1
	addsd	%xmm1, %xmm0
	movsd	%xmm0, 176(%rbp)
	.loc 6 158 13 discriminator 1
	movq	472(%rbp), %rax
	movsd	344(%rax), %xmm1
	.loc 6 158 25 discriminator 1
	movsd	192(%rbp), %xmm0
	addsd	%xmm0, %xmm0
	.loc 6 158 22 discriminator 1
	movapd	%xmm0, %xmm2
	addsd	200(%rbp), %xmm2
	.loc 6 158 34 discriminator 1
	movsd	184(%rbp), %xmm0
	addsd	%xmm0, %xmm0
	.loc 6 158 31 discriminator 1
	addsd	%xmm2, %xmm0
	.loc 6 158 40 discriminator 1
	movapd	%xmm0, %xmm2
	addsd	176(%rbp), %xmm2
	.loc 6 158 50 discriminator 1
	movsd	168(%rbp), %xmm0
	movsd	.LC6(%rip), %xmm3
	divsd	%xmm3, %xmm0
	.loc 6 158 47 discriminator 1
	mulsd	%xmm2, %xmm0
	.loc 6 158 13 discriminator 1
	addsd	%xmm1, %xmm0
	movq	472(%rbp), %rax
	movsd	%xmm0, 344(%rax)
	.loc 6 162 23 discriminator 1
	movq	472(%rbp), %rax
	movsd	336(%rax), %xmm1
	.loc 6 162 29 discriminator 1
	movq	472(%rbp), %rax
	movsd	328(%rax), %xmm2
	.loc 6 162 32 discriminator 1
	movq	472(%rbp), %rax
	movsd	328(%rax), %xmm0
	.loc 6 162 31 discriminator 1
	mulsd	%xmm0, %xmm2
	.loc 6 162 37 discriminator 1
	movq	472(%rbp), %rax
	movsd	344(%rax), %xmm3
	.loc 6 162 40 discriminator 1
	movq	472(%rbp), %rax
	movsd	344(%rax), %xmm0
	.loc 6 162 39 discriminator 1
	mulsd	%xmm3, %xmm0
	.loc 6 162 35 discriminator 1
	addsd	%xmm2, %xmm0
	.loc 6 162 43 discriminator 1
	movsd	.LC8(%rip), %xmm2
	divsd	%xmm2, %xmm0
	.loc 6 162 26 discriminator 1
	addsd	%xmm1, %xmm0
	.loc 6 162 21 discriminator 1
	movq	472(%rbp), %rax
	movsd	%xmm0, 400(%rax)
	.loc 6 165 13 discriminator 1
	movq	472(%rbp), %rax
	movsd	352(%rax), %xmm0
	addsd	288(%rbp), %xmm0
	movq	472(%rbp), %rax
	movsd	%xmm0, 352(%rax)
	.loc 6 166 13 discriminator 1
	movq	472(%rbp), %rax
	movsd	360(%rax), %xmm0
	addsd	280(%rbp), %xmm0
	movq	472(%rbp), %rax
	movsd	%xmm0, 360(%rax)
	.loc 6 167 13 discriminator 1
	movq	472(%rbp), %rax
	movsd	368(%rax), %xmm0
	addsd	272(%rbp), %xmm0
	movq	472(%rbp), %rax
	movsd	%xmm0, 368(%rax)
	.loc 6 169 16 discriminator 1
	movq	472(%rbp), %rax
	movsd	376(%rax), %xmm1
	movsd	168(%rbp), %xmm0
	addsd	%xmm1, %xmm0
	movq	472(%rbp), %rax
	movsd	%xmm0, 376(%rax)
	.loc 6 170 13 discriminator 1
	movq	472(%rbp), %rax
	movsd	360(%rax), %xmm1
	.loc 6 170 10 discriminator 1
	pxor	%xmm0, %xmm0
	comisd	%xmm1, %xmm0
	jbe	.L35
	.loc 6 170 24 discriminator 1
	movq	472(%rbp), %rax
	movzbl	392(%rax), %eax
	.loc 6 170 23 discriminator 1
	xorl	$1, %eax
	.loc 6 170 20 discriminator 1
	testb	%al, %al
	je	.L35
	.loc 6 171 20
	movq	472(%rbp), %rax
	movb	$1, 392(%rax)
.L35:
	.loc 6 173 12
	movq	472(%rbp), %rax
	movsd	400(%rax), %xmm0
	.loc 6 173 25
	movq	472(%rbp), %rax
	movsd	408(%rax), %xmm1
	.loc 6 173 9
	comisd	%xmm1, %xmm0
	jbe	.L37
	.loc 6 173 50 discriminator 1
	movq	472(%rbp), %rax
	movsd	400(%rax), %xmm0
	.loc 6 173 48 discriminator 1
	movq	472(%rbp), %rax
	movsd	%xmm0, 408(%rax)
.L37:
.LBB12:
	.loc 6 177 9
	cmpb	$0, -36(%rbp)
	jne	.L39
	.loc 6 177 48 discriminator 1
	movq	472(%rbp), %rax
	movzbl	393(%rax), %eax
	.loc 6 177 45 discriminator 1
	testb	%al, %al
	je	.L40
.L39:
.LBB13:
	.loc 6 179 26
	leaq	-32(%rbp), %rax
	movq	%rax, %rcx
	call	_ZN12ElementosVooC1Ev
.LEHE11:
	.loc 6 180 25
	movq	472(%rbp), %rax
	movl	72(%rax), %eax
	movl	%eax, %ecx
	.loc 6 180 24
	movl	396(%rbp), %eax
	movl	$0, %edx
	divl	%ecx
	movl	%edx, %eax
	.loc 6 180 13
	testl	%eax, %eax
	je	.L41
	.loc 6 180 51 discriminator 1
	movq	472(%rbp), %rax
	movzbl	393(%rax), %eax
	.loc 6 180 48 discriminator 1
	testb	%al, %al
	je	.L42
.L41:
	.loc 6 182 33
	movq	472(%rbp), %rax
	movsd	376(%rax), %xmm4
	movq	472(%rbp), %rax
	movsd	368(%rax), %xmm3
	movq	472(%rbp), %rax
	movsd	360(%rax), %xmm2
	movq	472(%rbp), %rax
	movsd	352(%rax), %xmm1
	movq	472(%rbp), %rax
	movsd	344(%rax), %xmm0
	movq	472(%rbp), %rax
	movsd	400(%rax), %xmm7
	movq	472(%rbp), %rax
	movsd	328(%rax), %xmm6
	movsd	480(%rbp), %xmm5
	leaq	-32(%rbp), %rax
	movsd	%xmm4, 72(%rsp)
	pxor	%xmm4, %xmm4
	movsd	%xmm4, 64(%rsp)
	movsd	%xmm3, 56(%rsp)
	movsd	%xmm2, 48(%rsp)
	movsd	%xmm1, 40(%rsp)
	movsd	%xmm0, 32(%rsp)
	movapd	%xmm7, %xmm3
	movapd	%xmm6, %xmm2
	movapd	%xmm5, %xmm1
	movq	%rax, %rcx
.LEHB12:
	call	_ZN12ElementosVoo3setEddddddddd
	.loc 6 183 20
	movq	472(%rbp), %rax
	movzbl	393(%rax), %eax
	.loc 6 183 17
	testb	%al, %al
	je	.L43
	.loc 6 185 31
	movq	472(%rbp), %rax
	movb	$1, 394(%rax)
	.loc 6 186 46
	movq	472(%rbp), %rax
	movsd	408(%rax), %xmm0
	leaq	-32(%rbp), %rax
	movapd	%xmm0, %xmm1
	movq	%rax, %rcx
	call	_ZN12ElementosVoo12setAlturaMaxEd
.L43:
	.loc 6 188 45
	movq	472(%rbp), %rax
	leaq	304(%rax), %rcx
	leaq	-32(%rbp), %rax
	movq	%rax, %rdx
	call	_ZNSt6vectorI12ElementosVooSaIS0_EE9push_backERKS0_
.LEHE12:
.L42:
	.loc 6 190 21
	addl	$1, 396(%rbp)
	.loc 6 179 26
	leaq	-32(%rbp), %rax
	movq	%rax, %rcx
	call	_ZN12ElementosVooD1Ev
.L40:
.LBE13:
.LBE12:
	.loc 6 193 30
	movq	472(%rbp), %rdx
	movzbl	-36(%rbp), %ecx
	movsd	496(%rbp), %xmm1
	movsd	480(%rbp), %xmm0
	movl	520(%rbp), %eax
	movl	%eax, 40(%rsp)
	leaq	168(%rbp), %rax
	movq	%rax, 32(%rsp)
	movl	%ecx, %r9d
	movapd	%xmm1, %xmm2
	movapd	%xmm0, %xmm1
	movq	%rdx, %rcx
.LEHB13:
	call	_ZN21CalculadorAtmosferico21checaCondicaoDeParadaEddbRd4RAMO
.LBE11:
	.loc 6 197 14
	movq	472(%rbp), %rax
	movzbl	394(%rax), %eax
	.loc 6 197 13
	testb	%al, %al
	jne	.L44
	.loc 6 116 5
	jmp	.L45
.L44:
	.loc 6 199 12
	movq	472(%rbp), %rax
	addq	$304, %rax
	movq	%rax, %rdx
	movq	464(%rbp), %rcx
	call	_ZNSt6vectorI12ElementosVooSaIS0_EEC1ERKS2_
.LEHE13:
	nop
	.loc 6 112 18
	leaq	64(%rbp), %rax
	movq	%rax, %rcx
	call	_ZN12ElementosVooD1Ev
	.loc 6 199 12
	jmp	.L53
.L50:
	movq	%rax, %rbx
.LBB16:
.LBB15:
.LBB14:
	.loc 6 179 26
	leaq	-32(%rbp), %rax
	movq	%rax, %rcx
	call	_ZN12ElementosVooD1Ev
	jmp	.L48
.L49:
	movq	%rax, %rbx
.L48:
.LBE14:
.LBE15:
.LBE16:
	.loc 6 112 18
	leaq	64(%rbp), %rax
	movq	%rax, %rcx
	call	_ZN12ElementosVooD1Ev
	movq	%rbx, %rax
	movq	%rax, %rcx
.LEHB14:
	call	_Unwind_Resume
.LEHE14:
.L53:
	.loc 6 200 1
	movq	464(%rbp), %rax
	movaps	400(%rbp), %xmm6
	movaps	416(%rbp), %xmm7
	addq	$568, %rsp
	.cfi_restore 24
	.cfi_restore 23
	popq	%rbx
	.cfi_restore 3
	popq	%rbp
	.cfi_restore 6
	.cfi_def_cfa 7, -552
	ret
	.cfi_endproc
.LFE2657:
	.seh_handler	__gxx_personality_seh0, @unwind, @except
	.seh_handlerdata
.LLSDA2657:
	.byte	0xff
	.byte	0xff
	.byte	0x1
	.uleb128 .LLSDACSE2657-.LLSDACSB2657
.LLSDACSB2657:
	.uleb128 .LEHB10-.LFB2657
	.uleb128 .LEHE10-.LEHB10
	.uleb128 0
	.uleb128 0
	.uleb128 .LEHB11-.LFB2657
	.uleb128 .LEHE11-.LEHB11
	.uleb128 .L49-.LFB2657
	.uleb128 0
	.uleb128 .LEHB12-.LFB2657
	.uleb128 .LEHE12-.LEHB12
	.uleb128 .L50-.LFB2657
	.uleb128 0
	.uleb128 .LEHB13-.LFB2657
	.uleb128 .LEHE13-.LEHB13
	.uleb128 .L49-.LFB2657
	.uleb128 0
	.uleb128 .LEHB14-.LFB2657
	.uleb128 .LEHE14-.LEHB14
	.uleb128 0
	.uleb128 0
.LLSDACSE2657:
	.text
	.seh_endproc
	.section	.text$_ZNSt6vectorI12ElementosVooSaIS0_EED1Ev,"x"
	.linkonce discard
	.align 2
	.globl	_ZNSt6vectorI12ElementosVooSaIS0_EED1Ev
	.def	_ZNSt6vectorI12ElementosVooSaIS0_EED1Ev;	.scl	2;	.type	32;	.endef
	.seh_proc	_ZNSt6vectorI12ElementosVooSaIS0_EED1Ev
_ZNSt6vectorI12ElementosVooSaIS0_EED1Ev:
.LFB2880:
	.file 7 "C:/Program Files/CodeBlocks/MinGW/lib/gcc/x86_64-w64-mingw32/8.1.0/include/c++/bits/stl_vector.h"
	.loc 7 565 7
	.cfi_startproc
	pushq	%rbp
	.seh_pushreg	%rbp
	.cfi_def_cfa_offset 16
	.cfi_offset 6, -16
	movq	%rsp, %rbp
	.seh_setframe	%rbp, 0
	.cfi_def_cfa_register 6
	subq	$32, %rsp
	.seh_stackalloc	32
	.seh_endprologue
	movq	%rcx, 16(%rbp)
.LBB17:
	.loc 7 568 28
	movq	16(%rbp), %rax
	movq	%rax, %rcx
	call	_ZNSt12_Vector_baseI12ElementosVooSaIS0_EE19_M_get_Tp_allocatorEv
	movq	%rax, %rcx
	.loc 7 567 15
	movq	16(%rbp), %rax
	movq	8(%rax), %rdx
	movq	16(%rbp), %rax
	movq	(%rax), %rax
	movq	%rcx, %r8
	movq	%rax, %rcx
	call	_ZSt8_DestroyIP12ElementosVooS0_EvT_S2_RSaIT0_E
	.loc 7 570 7
	movq	16(%rbp), %rax
	movq	%rax, %rcx
	call	_ZNSt12_Vector_baseI12ElementosVooSaIS0_EED2Ev
.LBE17:
	nop
	addq	$32, %rsp
	popq	%rbp
	.cfi_restore 6
	.cfi_def_cfa 7, 8
	ret
	.cfi_endproc
.LFE2880:
	.seh_handler	__gxx_personality_seh0, @unwind, @except
	.seh_handlerdata
.LLSDA2880:
	.byte	0xff
	.byte	0xff
	.byte	0x1
	.uleb128 .LLSDACSE2880-.LLSDACSB2880
.LLSDACSB2880:
.LLSDACSE2880:
	.section	.text$_ZNSt6vectorI12ElementosVooSaIS0_EED1Ev,"x"
	.linkonce discard
	.seh_endproc
	.section	.text$_ZNSt6vectorI12ElementosVooSaIS0_EE5clearEv,"x"
	.linkonce discard
	.align 2
	.globl	_ZNSt6vectorI12ElementosVooSaIS0_EE5clearEv
	.def	_ZNSt6vectorI12ElementosVooSaIS0_EE5clearEv;	.scl	2;	.type	32;	.endef
	.seh_proc	_ZNSt6vectorI12ElementosVooSaIS0_EE5clearEv
_ZNSt6vectorI12ElementosVooSaIS0_EE5clearEv:
.LFB2881:
	.loc 7 1385 7
	.cfi_startproc
	pushq	%rbp
	.seh_pushreg	%rbp
	.cfi_def_cfa_offset 16
	.cfi_offset 6, -16
	movq	%rsp, %rbp
	.seh_setframe	%rbp, 0
	.cfi_def_cfa_register 6
	subq	$32, %rsp
	.seh_stackalloc	32
	.seh_endprologue
	movq	%rcx, 16(%rbp)
	.loc 7 1386 9
	movq	16(%rbp), %rax
	movq	(%rax), %rax
	movq	%rax, %rdx
	movq	16(%rbp), %rcx
	call	_ZNSt6vectorI12ElementosVooSaIS0_EE15_M_erase_at_endEPS0_
	.loc 7 1386 50
	nop
	addq	$32, %rsp
	popq	%rbp
	.cfi_restore 6
	.cfi_def_cfa 7, 8
	ret
	.cfi_endproc
.LFE2881:
	.seh_endproc
	.section	.text$_ZNSt6vectorI12ElementosVooSaIS0_EE9push_backERKS0_,"x"
	.linkonce discard
	.align 2
	.globl	_ZNSt6vectorI12ElementosVooSaIS0_EE9push_backERKS0_
	.def	_ZNSt6vectorI12ElementosVooSaIS0_EE9push_backERKS0_;	.scl	2;	.type	32;	.endef
	.seh_proc	_ZNSt6vectorI12ElementosVooSaIS0_EE9push_backERKS0_
_ZNSt6vectorI12ElementosVooSaIS0_EE9push_backERKS0_:
.LFB2882:
	.loc 7 1074 7
	.cfi_startproc
	pushq	%rbp
	.seh_pushreg	%rbp
	.cfi_def_cfa_offset 16
	.cfi_offset 6, -16
	movq	%rsp, %rbp
	.seh_setframe	%rbp, 0
	.cfi_def_cfa_register 6
	subq	$32, %rsp
	.seh_stackalloc	32
	.seh_endprologue
	movq	%rcx, 16(%rbp)
	movq	%rdx, 24(%rbp)
	.loc 7 1076 20
	movq	16(%rbp), %rax
	movq	8(%rax), %rdx
	.loc 7 1076 47
	movq	16(%rbp), %rax
	movq	16(%rax), %rax
	.loc 7 1076 2
	cmpq	%rax, %rdx
	je	.L57
	.loc 7 1079 30
	movq	16(%rbp), %rax
	movq	8(%rax), %rdx
	.loc 7 1079 37
	movq	16(%rbp), %rax
	.loc 7 1079 30
	movq	24(%rbp), %rcx
	movq	%rcx, %r8
	movq	%rax, %rcx
	call	_ZNSt16allocator_traitsISaI12ElementosVooEE9constructIS0_JRKS0_EEEvRS1_PT_DpOT0_
	.loc 7 1081 22
	movq	16(%rbp), %rax
	movq	8(%rax), %rax
	.loc 7 1081 6
	leaq	96(%rax), %rdx
	movq	16(%rbp), %rax
	movq	%rdx, 8(%rax)
	.loc 7 1086 7
	jmp	.L59
.L57:
	.loc 7 1085 4
	movq	16(%rbp), %rcx
	call	_ZNSt6vectorI12ElementosVooSaIS0_EE3endEv
	movq	%rax, %rdx
	movq	24(%rbp), %rax
	movq	%rax, %r8
	movq	16(%rbp), %rcx
	call	_ZNSt6vectorI12ElementosVooSaIS0_EE17_M_realloc_insertIJRKS0_EEEvN9__gnu_cxx17__normal_iteratorIPS0_S2_EEDpOT_
.L59:
	.loc 7 1086 7
	nop
	addq	$32, %rsp
	popq	%rbp
	.cfi_restore 6
	.cfi_def_cfa 7, 8
	ret
	.cfi_endproc
.LFE2882:
	.seh_endproc
	.section	.text$_ZNSt6vectorI12ElementosVooSaIS0_EEC1ERKS2_,"x"
	.linkonce discard
	.align 2
	.globl	_ZNSt6vectorI12ElementosVooSaIS0_EEC1ERKS2_
	.def	_ZNSt6vectorI12ElementosVooSaIS0_EEC1ERKS2_;	.scl	2;	.type	32;	.endef
	.seh_proc	_ZNSt6vectorI12ElementosVooSaIS0_EEC1ERKS2_
_ZNSt6vectorI12ElementosVooSaIS0_EEC1ERKS2_:
.LFB2885:
	.loc 7 458 7
	.cfi_startproc
	pushq	%rbp
	.seh_pushreg	%rbp
	.cfi_def_cfa_offset 16
	.cfi_offset 6, -16
	pushq	%rdi
	.seh_pushreg	%rdi
	.cfi_def_cfa_offset 24
	.cfi_offset 5, -24
	pushq	%rsi
	.seh_pushreg	%rsi
	.cfi_def_cfa_offset 32
	.cfi_offset 4, -32
	pushq	%rbx
	.seh_pushreg	%rbx
	.cfi_def_cfa_offset 40
	.cfi_offset 3, -40
	subq	$56, %rsp
	.seh_stackalloc	56
	.cfi_def_cfa_offset 96
	leaq	128(%rsp), %rbp
	.seh_setframe	%rbp, 128
	.cfi_def_cfa 6, -32
	.seh_endprologue
	movq	%rcx, -32(%rbp)
	movq	%rdx, -24(%rbp)
.LBB18:
	.loc 7 460 61
	movq	-32(%rbp), %rbx
	.loc 7 460 34
	movq	-24(%rbp), %rax
	movq	%rax, %rcx
	call	_ZNKSt12_Vector_baseI12ElementosVooSaIS0_EE19_M_get_Tp_allocatorEv
	movq	%rax, %rdx
	.loc 7 460 61
	leaq	-81(%rbp), %rax
	movq	%rax, %rcx
.LEHB15:
	call	_ZN9__gnu_cxx14__alloc_traitsISaI12ElementosVooES1_E17_S_select_on_copyERKS2_
.LEHE15:
	movq	-24(%rbp), %rax
	movq	%rax, %rcx
	call	_ZNKSt6vectorI12ElementosVooSaIS0_EE4sizeEv
	movq	%rax, %rdx
	leaq	-81(%rbp), %rax
	movq	%rax, %r8
	movq	%rbx, %rcx
.LEHB16:
	call	_ZNSt12_Vector_baseI12ElementosVooSaIS0_EEC2EyRKS1_
.LEHE16:
	.loc 7 460 61 is_stmt 0 discriminator 2
	leaq	-81(%rbp), %rax
	movq	%rax, %rcx
	call	_ZNSaI12ElementosVooED1Ev
	.loc 7 465 30 is_stmt 1 discriminator 2
	movq	-32(%rbp), %rax
	movq	%rax, %rcx
	call	_ZNSt12_Vector_baseI12ElementosVooSaIS0_EE19_M_get_Tp_allocatorEv
	movq	%rax, %rdi
	.loc 7 463 31 discriminator 2
	movq	-32(%rbp), %rax
	movq	(%rax), %rbx
	movq	-24(%rbp), %rax
	movq	%rax, %rcx
	call	_ZNKSt6vectorI12ElementosVooSaIS0_EE3endEv
	movq	%rax, %rsi
	movq	-24(%rbp), %rax
	movq	%rax, %rcx
	call	_ZNKSt6vectorI12ElementosVooSaIS0_EE5beginEv
	movq	%rdi, %r9
	movq	%rbx, %r8
	movq	%rsi, %rdx
	movq	%rax, %rcx
.LEHB17:
	call	_ZSt22__uninitialized_copy_aIN9__gnu_cxx17__normal_iteratorIPK12ElementosVooSt6vectorIS2_SaIS2_EEEEPS2_S2_ET0_T_SB_SA_RSaIT1_E
.LEHE17:
	movq	%rax, %rdx
	.loc 7 462 2 discriminator 2
	movq	-32(%rbp), %rax
	movq	%rdx, 8(%rax)
.LBE18:
	.loc 7 466 7 discriminator 2
	jmp	.L65
.L63:
	movq	%rax, %rbx
.LBB19:
	.loc 7 460 61
	leaq	-81(%rbp), %rax
	movq	%rax, %rcx
	call	_ZNSaI12ElementosVooED1Ev
	movq	%rbx, %rax
	movq	%rax, %rcx
.LEHB18:
	call	_Unwind_Resume
.L64:
	movq	%rax, %rbx
	movq	-32(%rbp), %rax
	movq	%rax, %rcx
	call	_ZNSt12_Vector_baseI12ElementosVooSaIS0_EED2Ev
	movq	%rbx, %rax
	movq	%rax, %rcx
	call	_Unwind_Resume
	nop
.LEHE18:
.L65:
.LBE19:
	.loc 7 466 7
	addq	$56, %rsp
	popq	%rbx
	.cfi_restore 3
	popq	%rsi
	.cfi_restore 4
	popq	%rdi
	.cfi_restore 5
	popq	%rbp
	.cfi_restore 6
	.cfi_def_cfa 7, -24
	ret
	.cfi_endproc
.LFE2885:
	.seh_handler	__gxx_personality_seh0, @unwind, @except
	.seh_handlerdata
.LLSDA2885:
	.byte	0xff
	.byte	0xff
	.byte	0x1
	.uleb128 .LLSDACSE2885-.LLSDACSB2885
.LLSDACSB2885:
	.uleb128 .LEHB15-.LFB2885
	.uleb128 .LEHE15-.LEHB15
	.uleb128 0
	.uleb128 0
	.uleb128 .LEHB16-.LFB2885
	.uleb128 .LEHE16-.LEHB16
	.uleb128 .L63-.LFB2885
	.uleb128 0
	.uleb128 .LEHB17-.LFB2885
	.uleb128 .LEHE17-.LEHB17
	.uleb128 .L64-.LFB2885
	.uleb128 0
	.uleb128 .LEHB18-.LFB2885
	.uleb128 .LEHE18-.LEHB18
	.uleb128 0
	.uleb128 0
.LLSDACSE2885:
	.section	.text$_ZNSt6vectorI12ElementosVooSaIS0_EEC1ERKS2_,"x"
	.linkonce discard
	.seh_endproc
	.section	.text$_ZNSt12_Vector_baseI12ElementosVooSaIS0_EE12_Vector_implD1Ev,"x"
	.linkonce discard
	.align 2
	.globl	_ZNSt12_Vector_baseI12ElementosVooSaIS0_EE12_Vector_implD1Ev
	.def	_ZNSt12_Vector_baseI12ElementosVooSaIS0_EE12_Vector_implD1Ev;	.scl	2;	.type	32;	.endef
	.seh_proc	_ZNSt12_Vector_baseI12ElementosVooSaIS0_EE12_Vector_implD1Ev
_ZNSt12_Vector_baseI12ElementosVooSaIS0_EE12_Vector_implD1Ev:
.LFB2997:
	.loc 7 88 14
	.cfi_startproc
	pushq	%rbp
	.seh_pushreg	%rbp
	.cfi_def_cfa_offset 16
	.cfi_offset 6, -16
	movq	%rsp, %rbp
	.seh_setframe	%rbp, 0
	.cfi_def_cfa_register 6
	subq	$32, %rsp
	.seh_stackalloc	32
	.seh_endprologue
	movq	%rcx, 16(%rbp)
.LBB20:
	.loc 7 88 14
	movq	16(%rbp), %rcx
	call	_ZNSaI12ElementosVooED2Ev
.LBE20:
	nop
	addq	$32, %rsp
	popq	%rbp
	.cfi_restore 6
	.cfi_def_cfa 7, 8
	ret
	.cfi_endproc
.LFE2997:
	.seh_endproc
	.section	.text$_ZNSt12_Vector_baseI12ElementosVooSaIS0_EED2Ev,"x"
	.linkonce discard
	.align 2
	.globl	_ZNSt12_Vector_baseI12ElementosVooSaIS0_EED2Ev
	.def	_ZNSt12_Vector_baseI12ElementosVooSaIS0_EED2Ev;	.scl	2;	.type	32;	.endef
	.seh_proc	_ZNSt12_Vector_baseI12ElementosVooSaIS0_EED2Ev
_ZNSt12_Vector_baseI12ElementosVooSaIS0_EED2Ev:
.LFB2998:
	.loc 7 283 7
	.cfi_startproc
	pushq	%rbp
	.seh_pushreg	%rbp
	.cfi_def_cfa_offset 16
	.cfi_offset 6, -16
	movq	%rsp, %rbp
	.seh_setframe	%rbp, 0
	.cfi_def_cfa_register 6
	subq	$32, %rsp
	.seh_stackalloc	32
	.seh_endprologue
	movq	%rcx, 16(%rbp)
.LBB21:
	.loc 7 286 17
	movq	16(%rbp), %rax
	movq	16(%rax), %rdx
	.loc 7 286 45
	movq	16(%rbp), %rax
	movq	(%rax), %rax
	.loc 7 286 35
	subq	%rax, %rdx
	movq	%rdx, %rax
	sarq	$5, %rax
	movq	%rax, %rdx
	movabsq	$-6148914691236517205, %rax
	imulq	%rdx, %rax
	.loc 7 285 2
	movq	%rax, %rdx
	movq	16(%rbp), %rax
	movq	(%rax), %rax
	movq	%rdx, %r8
	movq	%rax, %rdx
	movq	16(%rbp), %rcx
	call	_ZNSt12_Vector_baseI12ElementosVooSaIS0_EE13_M_deallocateEPS0_y
	.loc 7 287 7
	movq	16(%rbp), %rax
	movq	%rax, %rcx
	call	_ZNSt12_Vector_baseI12ElementosVooSaIS0_EE12_Vector_implD1Ev
.LBE21:
	nop
	addq	$32, %rsp
	popq	%rbp
	.cfi_restore 6
	.cfi_def_cfa 7, 8
	ret
	.cfi_endproc
.LFE2998:
	.seh_handler	__gxx_personality_seh0, @unwind, @except
	.seh_handlerdata
.LLSDA2998:
	.byte	0xff
	.byte	0xff
	.byte	0x1
	.uleb128 .LLSDACSE2998-.LLSDACSB2998
.LLSDACSB2998:
.LLSDACSE2998:
	.section	.text$_ZNSt12_Vector_baseI12ElementosVooSaIS0_EED2Ev,"x"
	.linkonce discard
	.seh_endproc
	.section	.text$_ZNSt12_Vector_baseI12ElementosVooSaIS0_EE19_M_get_Tp_allocatorEv,"x"
	.linkonce discard
	.align 2
	.globl	_ZNSt12_Vector_baseI12ElementosVooSaIS0_EE19_M_get_Tp_allocatorEv
	.def	_ZNSt12_Vector_baseI12ElementosVooSaIS0_EE19_M_get_Tp_allocatorEv;	.scl	2;	.type	32;	.endef
	.seh_proc	_ZNSt12_Vector_baseI12ElementosVooSaIS0_EE19_M_get_Tp_allocatorEv
_ZNSt12_Vector_baseI12ElementosVooSaIS0_EE19_M_get_Tp_allocatorEv:
.LFB3000:
	.loc 7 237 7
	.cfi_startproc
	pushq	%rbp
	.seh_pushreg	%rbp
	.cfi_def_cfa_offset 16
	.cfi_offset 6, -16
	movq	%rsp, %rbp
	.seh_setframe	%rbp, 0
	.cfi_def_cfa_register 6
	.seh_endprologue
	movq	%rcx, 16(%rbp)
	.loc 7 238 60
	movq	16(%rbp), %rax
	.loc 7 238 63
	popq	%rbp
	.cfi_restore 6
	.cfi_def_cfa 7, 8
	ret
	.cfi_endproc
.LFE3000:
	.seh_endproc
	.section	.text$_ZSt8_DestroyIP12ElementosVooS0_EvT_S2_RSaIT0_E,"x"
	.linkonce discard
	.globl	_ZSt8_DestroyIP12ElementosVooS0_EvT_S2_RSaIT0_E
	.def	_ZSt8_DestroyIP12ElementosVooS0_EvT_S2_RSaIT0_E;	.scl	2;	.type	32;	.endef
	.seh_proc	_ZSt8_DestroyIP12ElementosVooS0_EvT_S2_RSaIT0_E
_ZSt8_DestroyIP12ElementosVooS0_EvT_S2_RSaIT0_E:
.LFB3001:
	.file 8 "C:/Program Files/CodeBlocks/MinGW/lib/gcc/x86_64-w64-mingw32/8.1.0/include/c++/bits/stl_construct.h"
	.loc 8 203 5
	.cfi_startproc
	pushq	%rbp
	.seh_pushreg	%rbp
	.cfi_def_cfa_offset 16
	.cfi_offset 6, -16
	movq	%rsp, %rbp
	.seh_setframe	%rbp, 0
	.cfi_def_cfa_register 6
	subq	$32, %rsp
	.seh_stackalloc	32
	.seh_endprologue
	movq	%rcx, 16(%rbp)
	movq	%rdx, 24(%rbp)
	movq	%r8, 32(%rbp)
	.loc 8 206 15
	movq	24(%rbp), %rax
	movq	%rax, %rdx
	movq	16(%rbp), %rcx
	call	_ZSt8_DestroyIP12ElementosVooEvT_S2_
	.loc 8 207 5
	nop
	addq	$32, %rsp
	popq	%rbp
	.cfi_restore 6
	.cfi_def_cfa 7, 8
	ret
	.cfi_endproc
.LFE3001:
	.seh_endproc
	.section	.text$_ZNSt6vectorI12ElementosVooSaIS0_EE15_M_erase_at_endEPS0_,"x"
	.linkonce discard
	.align 2
	.globl	_ZNSt6vectorI12ElementosVooSaIS0_EE15_M_erase_at_endEPS0_
	.def	_ZNSt6vectorI12ElementosVooSaIS0_EE15_M_erase_at_endEPS0_;	.scl	2;	.type	32;	.endef
	.seh_proc	_ZNSt6vectorI12ElementosVooSaIS0_EE15_M_erase_at_endEPS0_
_ZNSt6vectorI12ElementosVooSaIS0_EE15_M_erase_at_endEPS0_:
.LFB3002:
	.loc 7 1649 7
	.cfi_startproc
	pushq	%rbp
	.seh_pushreg	%rbp
	.cfi_def_cfa_offset 16
	.cfi_offset 6, -16
	movq	%rsp, %rbp
	.seh_setframe	%rbp, 0
	.cfi_def_cfa_register 6
	subq	$48, %rsp
	.seh_stackalloc	48
	.seh_endprologue
	movq	%rcx, 16(%rbp)
	movq	%rdx, 24(%rbp)
.LBB22:
	.loc 7 1651 36
	movq	16(%rbp), %rax
	movq	8(%rax), %rax
	.loc 7 1651 46
	subq	24(%rbp), %rax
	sarq	$5, %rax
	movq	%rax, %rdx
	movabsq	$-6148914691236517205, %rax
	imulq	%rdx, %rax
	.loc 7 1651 16
	movq	%rax, -8(%rbp)
	.loc 7 1651 2
	cmpq	$0, -8(%rbp)
	je	.L73
	.loc 7 1654 25
	movq	16(%rbp), %rax
	movq	%rax, %rcx
	call	_ZNSt12_Vector_baseI12ElementosVooSaIS0_EE19_M_get_Tp_allocatorEv
	movq	%rax, %rcx
	.loc 7 1653 19
	movq	16(%rbp), %rax
	movq	8(%rax), %rdx
	movq	24(%rbp), %rax
	movq	%rcx, %r8
	movq	%rax, %rcx
	call	_ZSt8_DestroyIP12ElementosVooS0_EvT_S2_RSaIT0_E
	.loc 7 1655 6
	movq	16(%rbp), %rax
	movq	24(%rbp), %rdx
	movq	%rdx, 8(%rax)
.L73:
.LBE22:
	.loc 7 1658 7
	nop
	addq	$48, %rsp
	popq	%rbp
	.cfi_restore 6
	.cfi_def_cfa 7, 8
	ret
	.cfi_endproc
.LFE3002:
	.seh_handler	__gxx_personality_seh0, @unwind, @except
	.seh_handlerdata
.LLSDA3002:
	.byte	0xff
	.byte	0xff
	.byte	0x1
	.uleb128 .LLSDACSE3002-.LLSDACSB3002
.LLSDACSB3002:
.LLSDACSE3002:
	.section	.text$_ZNSt6vectorI12ElementosVooSaIS0_EE15_M_erase_at_endEPS0_,"x"
	.linkonce discard
	.seh_endproc
	.section	.text$_ZSt7forwardIRK12ElementosVooEOT_RNSt16remove_referenceIS3_E4typeE,"x"
	.linkonce discard
	.globl	_ZSt7forwardIRK12ElementosVooEOT_RNSt16remove_referenceIS3_E4typeE
	.def	_ZSt7forwardIRK12ElementosVooEOT_RNSt16remove_referenceIS3_E4typeE;	.scl	2;	.type	32;	.endef
	.seh_proc	_ZSt7forwardIRK12ElementosVooEOT_RNSt16remove_referenceIS3_E4typeE
_ZSt7forwardIRK12ElementosVooEOT_RNSt16remove_referenceIS3_E4typeE:
.LFB3004:
	.file 9 "C:/Program Files/CodeBlocks/MinGW/lib/gcc/x86_64-w64-mingw32/8.1.0/include/c++/bits/move.h"
	.loc 9 74 5
	.cfi_startproc
	pushq	%rbp
	.seh_pushreg	%rbp
	.cfi_def_cfa_offset 16
	.cfi_offset 6, -16
	movq	%rsp, %rbp
	.seh_setframe	%rbp, 0
	.cfi_def_cfa_register 6
	.seh_endprologue
	movq	%rcx, 16(%rbp)
	.loc 9 75 36
	movq	16(%rbp), %rax
	.loc 9 75 39
	popq	%rbp
	.cfi_restore 6
	.cfi_def_cfa 7, 8
	ret
	.cfi_endproc
.LFE3004:
	.seh_endproc
	.section	.text$_ZNSt16allocator_traitsISaI12ElementosVooEE9constructIS0_JRKS0_EEEvRS1_PT_DpOT0_,"x"
	.linkonce discard
	.globl	_ZNSt16allocator_traitsISaI12ElementosVooEE9constructIS0_JRKS0_EEEvRS1_PT_DpOT0_
	.def	_ZNSt16allocator_traitsISaI12ElementosVooEE9constructIS0_JRKS0_EEEvRS1_PT_DpOT0_;	.scl	2;	.type	32;	.endef
	.seh_proc	_ZNSt16allocator_traitsISaI12ElementosVooEE9constructIS0_JRKS0_EEEvRS1_PT_DpOT0_
_ZNSt16allocator_traitsISaI12ElementosVooEE9constructIS0_JRKS0_EEEvRS1_PT_DpOT0_:
.LFB3003:
	.file 10 "C:/Program Files/CodeBlocks/MinGW/lib/gcc/x86_64-w64-mingw32/8.1.0/include/c++/bits/alloc_traits.h"
	.loc 10 474 2
	.cfi_startproc
	pushq	%rbp
	.seh_pushreg	%rbp
	.cfi_def_cfa_offset 16
	.cfi_offset 6, -16
	movq	%rsp, %rbp
	.seh_setframe	%rbp, 0
	.cfi_def_cfa_register 6
	subq	$32, %rsp
	.seh_stackalloc	32
	.seh_endprologue
	movq	%rcx, 16(%rbp)
	movq	%rdx, 24(%rbp)
	movq	%r8, 32(%rbp)
	.loc 10 475 4
	movq	32(%rbp), %rax
	movq	%rax, %rcx
	call	_ZSt7forwardIRK12ElementosVooEOT_RNSt16remove_referenceIS3_E4typeE
	movq	%rax, %rdx
	movq	24(%rbp), %rax
	movq	%rdx, %r8
	movq	%rax, %rdx
	movq	16(%rbp), %rcx
	call	_ZN9__gnu_cxx13new_allocatorI12ElementosVooE9constructIS1_JRKS1_EEEvPT_DpOT0_
	.loc 10 475 56
	nop
	addq	$32, %rsp
	popq	%rbp
	.cfi_restore 6
	.cfi_def_cfa 7, 8
	ret
	.cfi_endproc
.LFE3003:
	.seh_endproc
	.section	.text$_ZNSt6vectorI12ElementosVooSaIS0_EE3endEv,"x"
	.linkonce discard
	.align 2
	.globl	_ZNSt6vectorI12ElementosVooSaIS0_EE3endEv
	.def	_ZNSt6vectorI12ElementosVooSaIS0_EE3endEv;	.scl	2;	.type	32;	.endef
	.seh_proc	_ZNSt6vectorI12ElementosVooSaIS0_EE3endEv
_ZNSt6vectorI12ElementosVooSaIS0_EE3endEv:
.LFB3005:
	.loc 7 716 7
	.cfi_startproc
	pushq	%rbp
	.seh_pushreg	%rbp
	.cfi_def_cfa_offset 16
	.cfi_offset 6, -16
	movq	%rsp, %rbp
	.seh_setframe	%rbp, 0
	.cfi_def_cfa_register 6
	subq	$48, %rsp
	.seh_stackalloc	48
	.seh_endprologue
	movq	%rcx, 16(%rbp)
	.loc 7 717 39
	movq	16(%rbp), %rax
	leaq	8(%rax), %rdx
	.loc 7 717 48
	leaq	-8(%rbp), %rax
	movq	%rax, %rcx
	call	_ZN9__gnu_cxx17__normal_iteratorIP12ElementosVooSt6vectorIS1_SaIS1_EEEC1ERKS2_
	movq	-8(%rbp), %rax
	.loc 7 717 51
	addq	$48, %rsp
	popq	%rbp
	.cfi_restore 6
	.cfi_def_cfa 7, 8
	ret
	.cfi_endproc
.LFE3005:
	.seh_endproc
	.section .rdata,"dr"
.LC9:
	.ascii "vector::_M_realloc_insert\0"
	.section	.text$_ZNSt6vectorI12ElementosVooSaIS0_EE17_M_realloc_insertIJRKS0_EEEvN9__gnu_cxx17__normal_iteratorIPS0_S2_EEDpOT_,"x"
	.linkonce discard
	.align 2
	.globl	_ZNSt6vectorI12ElementosVooSaIS0_EE17_M_realloc_insertIJRKS0_EEEvN9__gnu_cxx17__normal_iteratorIPS0_S2_EEDpOT_
	.def	_ZNSt6vectorI12ElementosVooSaIS0_EE17_M_realloc_insertIJRKS0_EEEvN9__gnu_cxx17__normal_iteratorIPS0_S2_EEDpOT_;	.scl	2;	.type	32;	.endef
	.seh_proc	_ZNSt6vectorI12ElementosVooSaIS0_EE17_M_realloc_insertIJRKS0_EEEvN9__gnu_cxx17__normal_iteratorIPS0_S2_EEDpOT_
_ZNSt6vectorI12ElementosVooSaIS0_EE17_M_realloc_insertIJRKS0_EEEvN9__gnu_cxx17__normal_iteratorIPS0_S2_EEDpOT_:
.LFB3006:
	.file 11 "C:/Program Files/CodeBlocks/MinGW/lib/gcc/x86_64-w64-mingw32/8.1.0/include/c++/bits/vector.tcc"
	.loc 11 413 7
	.cfi_startproc
	pushq	%rbp
	.seh_pushreg	%rbp
	.cfi_def_cfa_offset 16
	.cfi_offset 6, -16
	pushq	%rbx
	.seh_pushreg	%rbx
	.cfi_def_cfa_offset 24
	.cfi_offset 3, -24
	subq	$104, %rsp
	.seh_stackalloc	104
	.cfi_def_cfa_offset 128
	leaq	128(%rsp), %rbp
	.seh_setframe	%rbp, 128
	.cfi_def_cfa 6, 0
	.seh_endprologue
	movq	%rcx, 0(%rbp)
	movq	%rdx, 8(%rbp)
	movq	%r8, 16(%rbp)
	.loc 11 422 23
	leaq	.LC9(%rip), %r8
	movl	$1, %edx
	movq	0(%rbp), %rcx
.LEHB19:
	call	_ZNKSt6vectorI12ElementosVooSaIS0_EE12_M_check_lenEyPKc
	movq	%rax, -48(%rbp)
	.loc 11 424 15
	movq	0(%rbp), %rax
	movq	(%rax), %rax
	movq	%rax, -56(%rbp)
	.loc 11 425 15
	movq	0(%rbp), %rax
	movq	8(%rax), %rax
	movq	%rax, -64(%rbp)
	.loc 11 426 51
	movq	0(%rbp), %rcx
	call	_ZNSt6vectorI12ElementosVooSaIS0_EE5beginEv
	movq	%rax, -88(%rbp)
	leaq	-88(%rbp), %rdx
	leaq	8(%rbp), %rax
	movq	%rax, %rcx
	call	_ZN9__gnu_cxxmiIP12ElementosVooSt6vectorIS1_SaIS1_EEEENS_17__normal_iteratorIT_T0_E15difference_typeERKS9_SC_
	.loc 11 426 23
	movq	%rax, -72(%rbp)
	.loc 11 427 15
	movq	0(%rbp), %rax
	movq	-48(%rbp), %rdx
	movq	%rax, %rcx
	call	_ZNSt12_Vector_baseI12ElementosVooSaIS0_EE11_M_allocateEy
.LEHE19:
	movq	%rax, -80(%rbp)
	.loc 11 428 15
	movq	-80(%rbp), %rax
	movq	%rax, -40(%rbp)
	.loc 11 436 28
	movq	16(%rbp), %rax
	movq	%rax, %rcx
	call	_ZSt7forwardIRK12ElementosVooEOT_RNSt16remove_referenceIS3_E4typeE
	movq	%rax, %rcx
	.loc 11 437 20
	movq	-72(%rbp), %rdx
	movq	%rdx, %rax
	addq	%rax, %rax
	addq	%rdx, %rax
	salq	$5, %rax
	movq	%rax, %rdx
	.loc 11 436 28
	movq	-80(%rbp), %rax
	addq	%rax, %rdx
	.loc 11 436 35
	movq	0(%rbp), %rax
	.loc 11 436 28
	movq	%rcx, %r8
	movq	%rax, %rcx
	call	_ZNSt16allocator_traitsISaI12ElementosVooEE9constructIS0_JRKS0_EEEvRS1_PT_DpOT0_
	.loc 11 443 4
	movq	$0, -40(%rbp)
	.loc 11 448 39
	movq	0(%rbp), %rax
	movq	%rax, %rcx
	call	_ZNSt12_Vector_baseI12ElementosVooSaIS0_EE19_M_get_Tp_allocatorEv
	movq	%rax, %rbx
	.loc 11 447 6
	leaq	8(%rbp), %rax
	movq	%rax, %rcx
	call	_ZNK9__gnu_cxx17__normal_iteratorIP12ElementosVooSt6vectorIS1_SaIS1_EEE4baseEv
	movq	(%rax), %rdx
	movq	-80(%rbp), %rcx
	movq	-56(%rbp), %rax
	movq	%rbx, %r9
	movq	%rcx, %r8
	movq	%rax, %rcx
.LEHB20:
	call	_ZSt34__uninitialized_move_if_noexcept_aIP12ElementosVooS1_SaIS0_EET0_T_S4_S3_RT1_
	movq	%rax, -40(%rbp)
	.loc 11 450 4
	addq	$96, -40(%rbp)
	.loc 11 455 40
	movq	0(%rbp), %rax
	movq	%rax, %rcx
	call	_ZNSt12_Vector_baseI12ElementosVooSaIS0_EE19_M_get_Tp_allocatorEv
	movq	%rax, %rbx
	.loc 11 454 6
	leaq	8(%rbp), %rax
	movq	%rax, %rcx
	call	_ZNK9__gnu_cxx17__normal_iteratorIP12ElementosVooSt6vectorIS1_SaIS1_EEE4baseEv
	movq	(%rax), %rax
	movq	-40(%rbp), %rcx
	movq	-64(%rbp), %rdx
	movq	%rbx, %r9
	movq	%rcx, %r8
	movq	%rax, %rcx
	call	_ZSt34__uninitialized_move_if_noexcept_aIP12ElementosVooS1_SaIS0_EET0_T_S4_S3_RT1_
.LEHE20:
	.loc 11 454 6 is_stmt 0 discriminator 1
	movq	%rax, -40(%rbp)
	.loc 11 468 67 is_stmt 1 discriminator 1
	movq	0(%rbp), %rax
	movq	%rax, %rcx
	call	_ZNSt12_Vector_baseI12ElementosVooSaIS0_EE19_M_get_Tp_allocatorEv
	movq	%rax, %rcx
	.loc 11 468 20 discriminator 1
	movq	-64(%rbp), %rdx
	movq	-56(%rbp), %rax
	movq	%rcx, %r8
	movq	%rax, %rcx
.LEHB21:
	call	_ZSt8_DestroyIP12ElementosVooS0_EvT_S2_RSaIT0_E
	.loc 11 469 20 discriminator 1
	movq	0(%rbp), %rax
	.loc 11 470 21 discriminator 1
	movq	0(%rbp), %rdx
	movq	16(%rdx), %rdx
	.loc 11 470 39 discriminator 1
	subq	-56(%rbp), %rdx
	movq	%rdx, %rcx
	sarq	$5, %rcx
	movabsq	$-6148914691236517205, %rdx
	imulq	%rcx, %rdx
	.loc 11 469 20 discriminator 1
	movq	%rdx, %rcx
	movq	-56(%rbp), %rdx
	movq	%rcx, %r8
	movq	%rax, %rcx
	call	_ZNSt12_Vector_baseI12ElementosVooSaIS0_EE13_M_deallocateEPS0_y
.LEHE21:
	.loc 11 471 7 discriminator 1
	movq	0(%rbp), %rax
	movq	-80(%rbp), %rdx
	movq	%rdx, (%rax)
	.loc 11 472 7 discriminator 1
	movq	0(%rbp), %rax
	movq	-40(%rbp), %rdx
	movq	%rdx, 8(%rax)
	.loc 11 473 53 discriminator 1
	movq	-48(%rbp), %rdx
	movq	%rdx, %rax
	addq	%rax, %rax
	addq	%rdx, %rax
	salq	$5, %rax
	movq	%rax, %rdx
	movq	-80(%rbp), %rax
	addq	%rax, %rdx
	.loc 11 473 7 discriminator 1
	movq	0(%rbp), %rax
	movq	%rdx, 16(%rax)
	.loc 11 474 5 discriminator 1
	jmp	.L86
.L84:
	.loc 11 457 7
	movq	%rax, %rcx
	call	__cxa_begin_catch
	.loc 11 459 4
	cmpq	$0, -40(%rbp)
	jne	.L81
	.loc 11 461 20
	movq	-72(%rbp), %rdx
	movq	%rdx, %rax
	addq	%rax, %rax
	addq	%rdx, %rax
	salq	$5, %rax
	movq	%rax, %rdx
	.loc 11 460 28
	movq	-80(%rbp), %rax
	addq	%rax, %rdx
	.loc 11 460 35
	movq	0(%rbp), %rax
	.loc 11 460 28
	movq	%rax, %rcx
.LEHB22:
	call	_ZNSt16allocator_traitsISaI12ElementosVooEE7destroyIS0_EEvRS1_PT_
	jmp	.L82
.L81:
	.loc 11 463 66
	movq	0(%rbp), %rax
	movq	%rax, %rcx
	call	_ZNSt12_Vector_baseI12ElementosVooSaIS0_EE19_M_get_Tp_allocatorEv
	movq	%rax, %rcx
	.loc 11 463 19
	movq	-40(%rbp), %rdx
	movq	-80(%rbp), %rax
	movq	%rcx, %r8
	movq	%rax, %rcx
	call	_ZSt8_DestroyIP12ElementosVooS0_EvT_S2_RSaIT0_E
.L82:
	.loc 11 464 17
	movq	0(%rbp), %rax
	movq	-48(%rbp), %rcx
	movq	-80(%rbp), %rdx
	movq	%rcx, %r8
	movq	%rax, %rcx
	call	_ZNSt12_Vector_baseI12ElementosVooSaIS0_EE13_M_deallocateEPS0_y
	.loc 11 465 4
	call	__cxa_rethrow
.LEHE22:
.L85:
	movq	%rax, %rbx
	.loc 11 457 7
	call	__cxa_end_catch
	movq	%rbx, %rax
	movq	%rax, %rcx
.LEHB23:
	call	_Unwind_Resume
	nop
.LEHE23:
.L86:
	.loc 11 474 5
	addq	$104, %rsp
	popq	%rbx
	.cfi_restore 3
	popq	%rbp
	.cfi_restore 6
	.cfi_def_cfa 7, -88
	ret
	.cfi_endproc
.LFE3006:
	.seh_handler	__gxx_personality_seh0, @unwind, @except
	.seh_handlerdata
	.align 4
.LLSDA3006:
	.byte	0xff
	.byte	0x9b
	.uleb128 .LLSDATT3006-.LLSDATTD3006
.LLSDATTD3006:
	.byte	0x1
	.uleb128 .LLSDACSE3006-.LLSDACSB3006
.LLSDACSB3006:
	.uleb128 .LEHB19-.LFB3006
	.uleb128 .LEHE19-.LEHB19
	.uleb128 0
	.uleb128 0
	.uleb128 .LEHB20-.LFB3006
	.uleb128 .LEHE20-.LEHB20
	.uleb128 .L84-.LFB3006
	.uleb128 0x1
	.uleb128 .LEHB21-.LFB3006
	.uleb128 .LEHE21-.LEHB21
	.uleb128 0
	.uleb128 0
	.uleb128 .LEHB22-.LFB3006
	.uleb128 .LEHE22-.LEHB22
	.uleb128 .L85-.LFB3006
	.uleb128 0
	.uleb128 .LEHB23-.LFB3006
	.uleb128 .LEHE23-.LEHB23
	.uleb128 0
	.uleb128 0
.LLSDACSE3006:
	.byte	0x1
	.byte	0
	.align 4
	.long	0

.LLSDATT3006:
	.section	.text$_ZNSt6vectorI12ElementosVooSaIS0_EE17_M_realloc_insertIJRKS0_EEEvN9__gnu_cxx17__normal_iteratorIPS0_S2_EEDpOT_,"x"
	.linkonce discard
	.seh_endproc
	.section	.text$_ZNKSt6vectorI12ElementosVooSaIS0_EE4sizeEv,"x"
	.linkonce discard
	.align 2
	.globl	_ZNKSt6vectorI12ElementosVooSaIS0_EE4sizeEv
	.def	_ZNKSt6vectorI12ElementosVooSaIS0_EE4sizeEv;	.scl	2;	.type	32;	.endef
	.seh_proc	_ZNKSt6vectorI12ElementosVooSaIS0_EE4sizeEv
_ZNKSt6vectorI12ElementosVooSaIS0_EE4sizeEv:
.LFB3007:
	.loc 7 805 7
	.cfi_startproc
	pushq	%rbp
	.seh_pushreg	%rbp
	.cfi_def_cfa_offset 16
	.cfi_offset 6, -16
	movq	%rsp, %rbp
	.seh_setframe	%rbp, 0
	.cfi_def_cfa_register 6
	.seh_endprologue
	movq	%rcx, 16(%rbp)
	.loc 7 806 40
	movq	16(%rbp), %rax
	movq	8(%rax), %rdx
	.loc 7 806 66
	movq	16(%rbp), %rax
	movq	(%rax), %rax
	.loc 7 806 50
	subq	%rax, %rdx
	movq	%rdx, %rax
	sarq	$5, %rax
	movq	%rax, %rdx
	movabsq	$-6148914691236517205, %rax
	imulq	%rdx, %rax
	.loc 7 806 77
	popq	%rbp
	.cfi_restore 6
	.cfi_def_cfa 7, 8
	ret
	.cfi_endproc
.LFE3007:
	.seh_endproc
	.section	.text$_ZN9__gnu_cxx14__alloc_traitsISaI12ElementosVooES1_E17_S_select_on_copyERKS2_,"x"
	.linkonce discard
	.globl	_ZN9__gnu_cxx14__alloc_traitsISaI12ElementosVooES1_E17_S_select_on_copyERKS2_
	.def	_ZN9__gnu_cxx14__alloc_traitsISaI12ElementosVooES1_E17_S_select_on_copyERKS2_;	.scl	2;	.type	32;	.endef
	.seh_proc	_ZN9__gnu_cxx14__alloc_traitsISaI12ElementosVooES1_E17_S_select_on_copyERKS2_
_ZN9__gnu_cxx14__alloc_traitsISaI12ElementosVooES1_E17_S_select_on_copyERKS2_:
.LFB3008:
	.file 12 "C:/Program Files/CodeBlocks/MinGW/lib/gcc/x86_64-w64-mingw32/8.1.0/include/c++/ext/alloc_traits.h"
	.loc 12 94 19
	.cfi_startproc
	pushq	%rbp
	.seh_pushreg	%rbp
	.cfi_def_cfa_offset 16
	.cfi_offset 6, -16
	movq	%rsp, %rbp
	.seh_setframe	%rbp, 0
	.cfi_def_cfa_register 6
	subq	$32, %rsp
	.seh_stackalloc	32
	.seh_endprologue
	movq	%rcx, 16(%rbp)
	movq	%rdx, 24(%rbp)
	.loc 12 95 67
	movq	16(%rbp), %rax
	movq	24(%rbp), %rdx
	movq	%rax, %rcx
	call	_ZNSt16allocator_traitsISaI12ElementosVooEE37select_on_container_copy_constructionERKS1_
	.loc 12 95 70
	movq	16(%rbp), %rax
	addq	$32, %rsp
	popq	%rbp
	.cfi_restore 6
	.cfi_def_cfa 7, 8
	ret
	.cfi_endproc
.LFE3008:
	.seh_endproc
	.section	.text$_ZNKSt12_Vector_baseI12ElementosVooSaIS0_EE19_M_get_Tp_allocatorEv,"x"
	.linkonce discard
	.align 2
	.globl	_ZNKSt12_Vector_baseI12ElementosVooSaIS0_EE19_M_get_Tp_allocatorEv
	.def	_ZNKSt12_Vector_baseI12ElementosVooSaIS0_EE19_M_get_Tp_allocatorEv;	.scl	2;	.type	32;	.endef
	.seh_proc	_ZNKSt12_Vector_baseI12ElementosVooSaIS0_EE19_M_get_Tp_allocatorEv
_ZNKSt12_Vector_baseI12ElementosVooSaIS0_EE19_M_get_Tp_allocatorEv:
.LFB3009:
	.loc 7 241 7
	.cfi_startproc
	pushq	%rbp
	.seh_pushreg	%rbp
	.cfi_def_cfa_offset 16
	.cfi_offset 6, -16
	movq	%rsp, %rbp
	.seh_setframe	%rbp, 0
	.cfi_def_cfa_register 6
	.seh_endprologue
	movq	%rcx, 16(%rbp)
	.loc 7 242 66
	movq	16(%rbp), %rax
	.loc 7 242 69
	popq	%rbp
	.cfi_restore 6
	.cfi_def_cfa 7, 8
	ret
	.cfi_endproc
.LFE3009:
	.seh_endproc
	.section	.text$_ZNSaI12ElementosVooED2Ev,"x"
	.linkonce discard
	.align 2
	.globl	_ZNSaI12ElementosVooED2Ev
	.def	_ZNSaI12ElementosVooED2Ev;	.scl	2;	.type	32;	.endef
	.seh_proc	_ZNSaI12ElementosVooED2Ev
_ZNSaI12ElementosVooED2Ev:
.LFB3011:
	.file 13 "C:/Program Files/CodeBlocks/MinGW/lib/gcc/x86_64-w64-mingw32/8.1.0/include/c++/bits/allocator.h"
	.loc 13 139 7
	.cfi_startproc
	pushq	%rbp
	.seh_pushreg	%rbp
	.cfi_def_cfa_offset 16
	.cfi_offset 6, -16
	movq	%rsp, %rbp
	.seh_setframe	%rbp, 0
	.cfi_def_cfa_register 6
	subq	$32, %rsp
	.seh_stackalloc	32
	.seh_endprologue
	movq	%rcx, 16(%rbp)
.LBB23:
	.loc 13 139 30
	movq	16(%rbp), %rcx
	call	_ZN9__gnu_cxx13new_allocatorI12ElementosVooED2Ev
.LBE23:
	nop
	addq	$32, %rsp
	popq	%rbp
	.cfi_restore 6
	.cfi_def_cfa 7, 8
	ret
	.cfi_endproc
.LFE3011:
	.seh_endproc
	.section	.text$_ZNSaI12ElementosVooED1Ev,"x"
	.linkonce discard
	.align 2
	.globl	_ZNSaI12ElementosVooED1Ev
	.def	_ZNSaI12ElementosVooED1Ev;	.scl	2;	.type	32;	.endef
	.seh_proc	_ZNSaI12ElementosVooED1Ev
_ZNSaI12ElementosVooED1Ev:
.LFB3012:
	.loc 13 139 7
	.cfi_startproc
	pushq	%rbp
	.seh_pushreg	%rbp
	.cfi_def_cfa_offset 16
	.cfi_offset 6, -16
	movq	%rsp, %rbp
	.seh_setframe	%rbp, 0
	.cfi_def_cfa_register 6
	subq	$32, %rsp
	.seh_stackalloc	32
	.seh_endprologue
	movq	%rcx, 16(%rbp)
.LBB24:
	.loc 13 139 30
	movq	16(%rbp), %rcx
	call	_ZN9__gnu_cxx13new_allocatorI12ElementosVooED2Ev
.LBE24:
	nop
	addq	$32, %rsp
	popq	%rbp
	.cfi_restore 6
	.cfi_def_cfa 7, 8
	ret
	.cfi_endproc
.LFE3012:
	.seh_endproc
	.section	.text$_ZNSt12_Vector_baseI12ElementosVooSaIS0_EEC2EyRKS1_,"x"
	.linkonce discard
	.align 2
	.globl	_ZNSt12_Vector_baseI12ElementosVooSaIS0_EEC2EyRKS1_
	.def	_ZNSt12_Vector_baseI12ElementosVooSaIS0_EEC2EyRKS1_;	.scl	2;	.type	32;	.endef
	.seh_proc	_ZNSt12_Vector_baseI12ElementosVooSaIS0_EEC2EyRKS1_
_ZNSt12_Vector_baseI12ElementosVooSaIS0_EEC2EyRKS1_:
.LFB3014:
	.loc 7 258 7
	.cfi_startproc
	pushq	%rbp
	.seh_pushreg	%rbp
	.cfi_def_cfa_offset 16
	.cfi_offset 6, -16
	pushq	%rbx
	.seh_pushreg	%rbx
	.cfi_def_cfa_offset 24
	.cfi_offset 3, -24
	subq	$40, %rsp
	.seh_stackalloc	40
	.cfi_def_cfa_offset 64
	leaq	128(%rsp), %rbp
	.seh_setframe	%rbp, 128
	.cfi_def_cfa 6, -64
	.seh_endprologue
	movq	%rcx, -64(%rbp)
	movq	%rdx, -56(%rbp)
	movq	%r8, -48(%rbp)
.LBB25:
	.loc 7 259 20
	movq	-64(%rbp), %rax
	movq	-48(%rbp), %rdx
	movq	%rax, %rcx
	call	_ZNSt12_Vector_baseI12ElementosVooSaIS0_EE12_Vector_implC1ERKS1_
	.loc 7 260 9
	movq	-56(%rbp), %rax
	movq	%rax, %rdx
	movq	-64(%rbp), %rcx
.LEHB24:
	call	_ZNSt12_Vector_baseI12ElementosVooSaIS0_EE17_M_create_storageEy
.LEHE24:
.LBE25:
	.loc 7 260 33
	jmp	.L98
.L97:
	movq	%rax, %rbx
.LBB26:
	.loc 7 259 20
	movq	-64(%rbp), %rax
	movq	%rax, %rcx
	call	_ZNSt12_Vector_baseI12ElementosVooSaIS0_EE12_Vector_implD1Ev
	movq	%rbx, %rax
	movq	%rax, %rcx
.LEHB25:
	call	_Unwind_Resume
	nop
.LEHE25:
.L98:
.LBE26:
	.loc 7 260 33
	addq	$40, %rsp
	popq	%rbx
	.cfi_restore 3
	popq	%rbp
	.cfi_restore 6
	.cfi_def_cfa 7, -24
	ret
	.cfi_endproc
.LFE3014:
	.seh_handler	__gxx_personality_seh0, @unwind, @except
	.seh_handlerdata
.LLSDA3014:
	.byte	0xff
	.byte	0xff
	.byte	0x1
	.uleb128 .LLSDACSE3014-.LLSDACSB3014
.LLSDACSB3014:
	.uleb128 .LEHB24-.LFB3014
	.uleb128 .LEHE24-.LEHB24
	.uleb128 .L97-.LFB3014
	.uleb128 0
	.uleb128 .LEHB25-.LFB3014
	.uleb128 .LEHE25-.LEHB25
	.uleb128 0
	.uleb128 0
.LLSDACSE3014:
	.section	.text$_ZNSt12_Vector_baseI12ElementosVooSaIS0_EEC2EyRKS1_,"x"
	.linkonce discard
	.seh_endproc
	.section	.text$_ZNKSt6vectorI12ElementosVooSaIS0_EE5beginEv,"x"
	.linkonce discard
	.align 2
	.globl	_ZNKSt6vectorI12ElementosVooSaIS0_EE5beginEv
	.def	_ZNKSt6vectorI12ElementosVooSaIS0_EE5beginEv;	.scl	2;	.type	32;	.endef
	.seh_proc	_ZNKSt6vectorI12ElementosVooSaIS0_EE5beginEv
_ZNKSt6vectorI12ElementosVooSaIS0_EE5beginEv:
.LFB3016:
	.loc 7 707 7
	.cfi_startproc
	pushq	%rbp
	.seh_pushreg	%rbp
	.cfi_def_cfa_offset 16
	.cfi_offset 6, -16
	movq	%rsp, %rbp
	.seh_setframe	%rbp, 0
	.cfi_def_cfa_register 6
	subq	$48, %rsp
	.seh_stackalloc	48
	.seh_endprologue
	movq	%rcx, 16(%rbp)
	.loc 7 708 45
	movq	16(%rbp), %rax
	movq	(%rax), %rax
	movq	%rax, -8(%rbp)
	.loc 7 708 53
	leaq	-8(%rbp), %rdx
	leaq	-16(%rbp), %rax
	movq	%rax, %rcx
	call	_ZN9__gnu_cxx17__normal_iteratorIPK12ElementosVooSt6vectorIS1_SaIS1_EEEC1ERKS3_
	movq	-16(%rbp), %rax
	.loc 7 708 56
	addq	$48, %rsp
	popq	%rbp
	.cfi_restore 6
	.cfi_def_cfa 7, 8
	ret
	.cfi_endproc
.LFE3016:
	.seh_endproc
	.section	.text$_ZNKSt6vectorI12ElementosVooSaIS0_EE3endEv,"x"
	.linkonce discard
	.align 2
	.globl	_ZNKSt6vectorI12ElementosVooSaIS0_EE3endEv
	.def	_ZNKSt6vectorI12ElementosVooSaIS0_EE3endEv;	.scl	2;	.type	32;	.endef
	.seh_proc	_ZNKSt6vectorI12ElementosVooSaIS0_EE3endEv
_ZNKSt6vectorI12ElementosVooSaIS0_EE3endEv:
.LFB3017:
	.loc 7 725 7
	.cfi_startproc
	pushq	%rbp
	.seh_pushreg	%rbp
	.cfi_def_cfa_offset 16
	.cfi_offset 6, -16
	movq	%rsp, %rbp
	.seh_setframe	%rbp, 0
	.cfi_def_cfa_register 6
	subq	$48, %rsp
	.seh_stackalloc	48
	.seh_endprologue
	movq	%rcx, 16(%rbp)
	.loc 7 726 45
	movq	16(%rbp), %rax
	movq	8(%rax), %rax
	movq	%rax, -8(%rbp)
	.loc 7 726 54
	leaq	-8(%rbp), %rdx
	leaq	-16(%rbp), %rax
	movq	%rax, %rcx
	call	_ZN9__gnu_cxx17__normal_iteratorIPK12ElementosVooSt6vectorIS1_SaIS1_EEEC1ERKS3_
	movq	-16(%rbp), %rax
	.loc 7 726 57
	addq	$48, %rsp
	popq	%rbp
	.cfi_restore 6
	.cfi_def_cfa 7, 8
	ret
	.cfi_endproc
.LFE3017:
	.seh_endproc
	.section	.text$_ZSt22__uninitialized_copy_aIN9__gnu_cxx17__normal_iteratorIPK12ElementosVooSt6vectorIS2_SaIS2_EEEEPS2_S2_ET0_T_SB_SA_RSaIT1_E,"x"
	.linkonce discard
	.globl	_ZSt22__uninitialized_copy_aIN9__gnu_cxx17__normal_iteratorIPK12ElementosVooSt6vectorIS2_SaIS2_EEEEPS2_S2_ET0_T_SB_SA_RSaIT1_E
	.def	_ZSt22__uninitialized_copy_aIN9__gnu_cxx17__normal_iteratorIPK12ElementosVooSt6vectorIS2_SaIS2_EEEEPS2_S2_ET0_T_SB_SA_RSaIT1_E;	.scl	2;	.type	32;	.endef
	.seh_proc	_ZSt22__uninitialized_copy_aIN9__gnu_cxx17__normal_iteratorIPK12ElementosVooSt6vectorIS2_SaIS2_EEEEPS2_S2_ET0_T_SB_SA_RSaIT1_E
_ZSt22__uninitialized_copy_aIN9__gnu_cxx17__normal_iteratorIPK12ElementosVooSt6vectorIS2_SaIS2_EEEEPS2_S2_ET0_T_SB_SA_RSaIT1_E:
.LFB3018:
	.file 14 "C:/Program Files/CodeBlocks/MinGW/lib/gcc/x86_64-w64-mingw32/8.1.0/include/c++/bits/stl_uninitialized.h"
	.loc 14 287 5
	.cfi_startproc
	pushq	%rbp
	.seh_pushreg	%rbp
	.cfi_def_cfa_offset 16
	.cfi_offset 6, -16
	movq	%rsp, %rbp
	.seh_setframe	%rbp, 0
	.cfi_def_cfa_register 6
	subq	$32, %rsp
	.seh_stackalloc	32
	.seh_endprologue
	movq	%rcx, 16(%rbp)
	movq	%rdx, 24(%rbp)
	movq	%r8, 32(%rbp)
	movq	%r9, 40(%rbp)
	.loc 14 289 37
	movq	32(%rbp), %rdx
	movq	24(%rbp), %rax
	movq	%rdx, %r8
	movq	%rax, %rdx
	movq	16(%rbp), %rcx
	call	_ZSt18uninitialized_copyIN9__gnu_cxx17__normal_iteratorIPK12ElementosVooSt6vectorIS2_SaIS2_EEEEPS2_ET0_T_SB_SA_
	.loc 14 289 66
	addq	$32, %rsp
	popq	%rbp
	.cfi_restore 6
	.cfi_def_cfa 7, 8
	ret
	.cfi_endproc
.LFE3018:
	.seh_endproc
	.section	.text$_ZNSt12_Vector_baseI12ElementosVooSaIS0_EE13_M_deallocateEPS0_y,"x"
	.linkonce discard
	.align 2
	.globl	_ZNSt12_Vector_baseI12ElementosVooSaIS0_EE13_M_deallocateEPS0_y
	.def	_ZNSt12_Vector_baseI12ElementosVooSaIS0_EE13_M_deallocateEPS0_y;	.scl	2;	.type	32;	.endef
	.seh_proc	_ZNSt12_Vector_baseI12ElementosVooSaIS0_EE13_M_deallocateEPS0_y
_ZNSt12_Vector_baseI12ElementosVooSaIS0_EE13_M_deallocateEPS0_y:
.LFB3082:
	.loc 7 300 7
	.cfi_startproc
	pushq	%rbp
	.seh_pushreg	%rbp
	.cfi_def_cfa_offset 16
	.cfi_offset 6, -16
	movq	%rsp, %rbp
	.seh_setframe	%rbp, 0
	.cfi_def_cfa_register 6
	subq	$32, %rsp
	.seh_stackalloc	32
	.seh_endprologue
	movq	%rcx, 16(%rbp)
	movq	%rdx, 24(%rbp)
	movq	%r8, 32(%rbp)
	.loc 7 303 2
	cmpq	$0, 24(%rbp)
	je	.L107
	.loc 7 304 20
	movq	16(%rbp), %rax
	.loc 7 304 19
	movq	32(%rbp), %rcx
	movq	24(%rbp), %rdx
	movq	%rcx, %r8
	movq	%rax, %rcx
	call	_ZNSt16allocator_traitsISaI12ElementosVooEE10deallocateERS1_PS0_y
.L107:
	.loc 7 305 7
	nop
	addq	$32, %rsp
	popq	%rbp
	.cfi_restore 6
	.cfi_def_cfa 7, 8
	ret
	.cfi_endproc
.LFE3082:
	.seh_endproc
	.section	.text$_ZSt8_DestroyIP12ElementosVooEvT_S2_,"x"
	.linkonce discard
	.globl	_ZSt8_DestroyIP12ElementosVooEvT_S2_
	.def	_ZSt8_DestroyIP12ElementosVooEvT_S2_;	.scl	2;	.type	32;	.endef
	.seh_proc	_ZSt8_DestroyIP12ElementosVooEvT_S2_
_ZSt8_DestroyIP12ElementosVooEvT_S2_:
.LFB3083:
	.loc 8 127 5
	.cfi_startproc
	pushq	%rbp
	.seh_pushreg	%rbp
	.cfi_def_cfa_offset 16
	.cfi_offset 6, -16
	movq	%rsp, %rbp
	.seh_setframe	%rbp, 0
	.cfi_def_cfa_register 6
	subq	$32, %rsp
	.seh_stackalloc	32
	.seh_endprologue
	movq	%rcx, 16(%rbp)
	movq	%rdx, 24(%rbp)
	.loc 8 137 11
	movq	24(%rbp), %rax
	movq	%rax, %rdx
	movq	16(%rbp), %rcx
	call	_ZNSt12_Destroy_auxILb0EE9__destroyIP12ElementosVooEEvT_S4_
	.loc 8 138 5
	nop
	addq	$32, %rsp
	popq	%rbp
	.cfi_restore 6
	.cfi_def_cfa 7, 8
	ret
	.cfi_endproc
.LFE3083:
	.seh_endproc
	.section	.text$_ZN9__gnu_cxx13new_allocatorI12ElementosVooE9constructIS1_JRKS1_EEEvPT_DpOT0_,"x"
	.linkonce discard
	.align 2
	.globl	_ZN9__gnu_cxx13new_allocatorI12ElementosVooE9constructIS1_JRKS1_EEEvPT_DpOT0_
	.def	_ZN9__gnu_cxx13new_allocatorI12ElementosVooE9constructIS1_JRKS1_EEEvPT_DpOT0_;	.scl	2;	.type	32;	.endef
	.seh_proc	_ZN9__gnu_cxx13new_allocatorI12ElementosVooE9constructIS1_JRKS1_EEEvPT_DpOT0_
_ZN9__gnu_cxx13new_allocatorI12ElementosVooE9constructIS1_JRKS1_EEEvPT_DpOT0_:
.LFB3084:
	.file 15 "C:/Program Files/CodeBlocks/MinGW/lib/gcc/x86_64-w64-mingw32/8.1.0/include/c++/ext/new_allocator.h"
	.loc 15 135 2
	.cfi_startproc
	pushq	%rbp
	.seh_pushreg	%rbp
	.cfi_def_cfa_offset 16
	.cfi_offset 6, -16
	pushq	%rbx
	.seh_pushreg	%rbx
	.cfi_def_cfa_offset 24
	.cfi_offset 3, -24
	subq	$40, %rsp
	.seh_stackalloc	40
	.cfi_def_cfa_offset 64
	leaq	128(%rsp), %rbp
	.seh_setframe	%rbp, 128
	.cfi_def_cfa 6, -64
	.seh_endprologue
	movq	%rcx, -64(%rbp)
	movq	%rdx, -56(%rbp)
	movq	%r8, -48(%rbp)
	.loc 15 136 46
	movq	-48(%rbp), %rax
	movq	%rax, %rcx
	call	_ZSt7forwardIRK12ElementosVooEOT_RNSt16remove_referenceIS3_E4typeE
	movq	%rax, %rbx
	.loc 15 136 4
	movq	-56(%rbp), %rax
	movq	%rax, %rdx
	movl	$96, %ecx
	call	_ZnwyPv
	movq	%rbx, %rdx
	movq	%rax, %rcx
	call	_ZN12ElementosVooC1ERKS_
	.loc 15 136 60
	nop
	addq	$40, %rsp
	popq	%rbx
	.cfi_restore 3
	popq	%rbp
	.cfi_restore 6
	.cfi_def_cfa 7, -24
	ret
	.cfi_endproc
.LFE3084:
	.seh_endproc
	.section	.text$_ZN9__gnu_cxx17__normal_iteratorIP12ElementosVooSt6vectorIS1_SaIS1_EEEC1ERKS2_,"x"
	.linkonce discard
	.align 2
	.globl	_ZN9__gnu_cxx17__normal_iteratorIP12ElementosVooSt6vectorIS1_SaIS1_EEEC1ERKS2_
	.def	_ZN9__gnu_cxx17__normal_iteratorIP12ElementosVooSt6vectorIS1_SaIS1_EEEC1ERKS2_;	.scl	2;	.type	32;	.endef
	.seh_proc	_ZN9__gnu_cxx17__normal_iteratorIP12ElementosVooSt6vectorIS1_SaIS1_EEEC1ERKS2_
_ZN9__gnu_cxx17__normal_iteratorIP12ElementosVooSt6vectorIS1_SaIS1_EEEC1ERKS2_:
.LFB3087:
	.file 16 "C:/Program Files/CodeBlocks/MinGW/lib/gcc/x86_64-w64-mingw32/8.1.0/include/c++/bits/stl_iterator.h"
	.loc 16 780 7
	.cfi_startproc
	pushq	%rbp
	.seh_pushreg	%rbp
	.cfi_def_cfa_offset 16
	.cfi_offset 6, -16
	movq	%rsp, %rbp
	.seh_setframe	%rbp, 0
	.cfi_def_cfa_register 6
	.seh_endprologue
	movq	%rcx, 16(%rbp)
	movq	%rdx, 24(%rbp)
.LBB27:
	.loc 16 781 23
	movq	24(%rbp), %rax
	movq	(%rax), %rdx
	movq	16(%rbp), %rax
	movq	%rdx, (%rax)
.LBE27:
	.loc 16 781 27
	nop
	popq	%rbp
	.cfi_restore 6
	.cfi_def_cfa 7, 8
	ret
	.cfi_endproc
.LFE3087:
	.seh_endproc
	.section	.text$_ZNKSt6vectorI12ElementosVooSaIS0_EE12_M_check_lenEyPKc,"x"
	.linkonce discard
	.align 2
	.globl	_ZNKSt6vectorI12ElementosVooSaIS0_EE12_M_check_lenEyPKc
	.def	_ZNKSt6vectorI12ElementosVooSaIS0_EE12_M_check_lenEyPKc;	.scl	2;	.type	32;	.endef
	.seh_proc	_ZNKSt6vectorI12ElementosVooSaIS0_EE12_M_check_lenEyPKc
_ZNKSt6vectorI12ElementosVooSaIS0_EE12_M_check_lenEyPKc:
.LFB3088:
	.loc 7 1635 7
	.cfi_startproc
	pushq	%rbp
	.seh_pushreg	%rbp
	.cfi_def_cfa_offset 16
	.cfi_offset 6, -16
	pushq	%rbx
	.seh_pushreg	%rbx
	.cfi_def_cfa_offset 24
	.cfi_offset 3, -24
	subq	$56, %rsp
	.seh_stackalloc	56
	.cfi_def_cfa_offset 80
	leaq	128(%rsp), %rbp
	.seh_setframe	%rbp, 128
	.cfi_def_cfa 6, -48
	.seh_endprologue
	movq	%rcx, -48(%rbp)
	movq	%rdx, -40(%rbp)
	movq	%r8, -32(%rbp)
	.loc 7 1637 17
	movq	-48(%rbp), %rcx
	call	_ZNKSt6vectorI12ElementosVooSaIS0_EE8max_sizeEv
	movq	%rax, %rbx
	movq	-48(%rbp), %rcx
	call	_ZNKSt6vectorI12ElementosVooSaIS0_EE4sizeEv
	subq	%rax, %rbx
	movq	%rbx, %rdx
	.loc 7 1637 26
	movq	-40(%rbp), %rax
	cmpq	%rax, %rdx
	setb	%al
	.loc 7 1637 2
	testb	%al, %al
	je	.L112
	.loc 7 1638 24
	movq	-32(%rbp), %rax
	movq	%rax, %rcx
	call	_ZSt20__throw_length_errorPKc
.L112:
	.loc 7 1640 33
	movq	-48(%rbp), %rcx
	call	_ZNKSt6vectorI12ElementosVooSaIS0_EE4sizeEv
	movq	%rax, %rbx
	.loc 7 1640 43
	movq	-48(%rbp), %rcx
	call	_ZNKSt6vectorI12ElementosVooSaIS0_EE4sizeEv
	movq	%rax, -96(%rbp)
	leaq	-40(%rbp), %rdx
	leaq	-96(%rbp), %rax
	movq	%rax, %rcx
	call	_ZSt3maxIyERKT_S2_S2_
	.loc 7 1640 33
	movq	(%rax), %rax
	.loc 7 1640 18
	addq	%rbx, %rax
	movq	%rax, -88(%rbp)
	.loc 7 1641 16
	movq	-48(%rbp), %rcx
	call	_ZNKSt6vectorI12ElementosVooSaIS0_EE4sizeEv
	.loc 7 1641 48
	cmpq	%rax, -88(%rbp)
	jb	.L113
	.loc 7 1641 34 discriminator 2
	movq	-48(%rbp), %rcx
	call	_ZNKSt6vectorI12ElementosVooSaIS0_EE8max_sizeEv
	.loc 7 1641 25 discriminator 2
	cmpq	%rax, -88(%rbp)
	jbe	.L114
.L113:
	.loc 7 1641 48 discriminator 3
	movq	-48(%rbp), %rcx
	call	_ZNKSt6vectorI12ElementosVooSaIS0_EE8max_sizeEv
	jmp	.L115
.L114:
	.loc 7 1641 48 is_stmt 0 discriminator 4
	movq	-88(%rbp), %rax
.L115:
	.loc 7 1642 7 is_stmt 1 discriminator 6
	addq	$56, %rsp
	popq	%rbx
	.cfi_restore 3
	popq	%rbp
	.cfi_restore 6
	.cfi_def_cfa 7, -40
	ret
	.cfi_endproc
.LFE3088:
	.seh_endproc
	.section	.text$_ZNSt6vectorI12ElementosVooSaIS0_EE5beginEv,"x"
	.linkonce discard
	.align 2
	.globl	_ZNSt6vectorI12ElementosVooSaIS0_EE5beginEv
	.def	_ZNSt6vectorI12ElementosVooSaIS0_EE5beginEv;	.scl	2;	.type	32;	.endef
	.seh_proc	_ZNSt6vectorI12ElementosVooSaIS0_EE5beginEv
_ZNSt6vectorI12ElementosVooSaIS0_EE5beginEv:
.LFB3089:
	.loc 7 698 7
	.cfi_startproc
	pushq	%rbp
	.seh_pushreg	%rbp
	.cfi_def_cfa_offset 16
	.cfi_offset 6, -16
	movq	%rsp, %rbp
	.seh_setframe	%rbp, 0
	.cfi_def_cfa_register 6
	subq	$48, %rsp
	.seh_stackalloc	48
	.seh_endprologue
	movq	%rcx, 16(%rbp)
	.loc 7 699 39
	movq	16(%rbp), %rdx
	.loc 7 699 47
	leaq	-8(%rbp), %rax
	movq	%rax, %rcx
	call	_ZN9__gnu_cxx17__normal_iteratorIP12ElementosVooSt6vectorIS1_SaIS1_EEEC1ERKS2_
	movq	-8(%rbp), %rax
	.loc 7 699 50
	addq	$48, %rsp
	popq	%rbp
	.cfi_restore 6
	.cfi_def_cfa 7, 8
	ret
	.cfi_endproc
.LFE3089:
	.seh_endproc
	.section	.text$_ZN9__gnu_cxxmiIP12ElementosVooSt6vectorIS1_SaIS1_EEEENS_17__normal_iteratorIT_T0_E15difference_typeERKS9_SC_,"x"
	.linkonce discard
	.globl	_ZN9__gnu_cxxmiIP12ElementosVooSt6vectorIS1_SaIS1_EEEENS_17__normal_iteratorIT_T0_E15difference_typeERKS9_SC_
	.def	_ZN9__gnu_cxxmiIP12ElementosVooSt6vectorIS1_SaIS1_EEEENS_17__normal_iteratorIT_T0_E15difference_typeERKS9_SC_;	.scl	2;	.type	32;	.endef
	.seh_proc	_ZN9__gnu_cxxmiIP12ElementosVooSt6vectorIS1_SaIS1_EEEENS_17__normal_iteratorIT_T0_E15difference_typeERKS9_SC_
_ZN9__gnu_cxxmiIP12ElementosVooSt6vectorIS1_SaIS1_EEEENS_17__normal_iteratorIT_T0_E15difference_typeERKS9_SC_:
.LFB3090:
	.loc 16 963 5
	.cfi_startproc
	pushq	%rbp
	.seh_pushreg	%rbp
	.cfi_def_cfa_offset 16
	.cfi_offset 6, -16
	pushq	%rbx
	.seh_pushreg	%rbx
	.cfi_def_cfa_offset 24
	.cfi_offset 3, -24
	subq	$40, %rsp
	.seh_stackalloc	40
	.cfi_def_cfa_offset 64
	leaq	128(%rsp), %rbp
	.seh_setframe	%rbp, 128
	.cfi_def_cfa 6, -64
	.seh_endprologue
	movq	%rcx, -64(%rbp)
	movq	%rdx, -56(%rbp)
	.loc 16 966 27
	movq	-64(%rbp), %rcx
	call	_ZNK9__gnu_cxx17__normal_iteratorIP12ElementosVooSt6vectorIS1_SaIS1_EEE4baseEv
	movq	(%rax), %rbx
	movq	-56(%rbp), %rax
	movq	%rax, %rcx
	call	_ZNK9__gnu_cxx17__normal_iteratorIP12ElementosVooSt6vectorIS1_SaIS1_EEE4baseEv
	movq	(%rax), %rax
	subq	%rax, %rbx
	movq	%rbx, %rax
	.loc 16 966 40
	sarq	$5, %rax
	movq	%rax, %rdx
	movabsq	$-6148914691236517205, %rax
	imulq	%rdx, %rax
	.loc 16 966 43
	addq	$40, %rsp
	popq	%rbx
	.cfi_restore 3
	popq	%rbp
	.cfi_restore 6
	.cfi_def_cfa 7, -24
	ret
	.cfi_endproc
.LFE3090:
	.seh_endproc
	.section	.text$_ZNSt12_Vector_baseI12ElementosVooSaIS0_EE11_M_allocateEy,"x"
	.linkonce discard
	.align 2
	.globl	_ZNSt12_Vector_baseI12ElementosVooSaIS0_EE11_M_allocateEy
	.def	_ZNSt12_Vector_baseI12ElementosVooSaIS0_EE11_M_allocateEy;	.scl	2;	.type	32;	.endef
	.seh_proc	_ZNSt12_Vector_baseI12ElementosVooSaIS0_EE11_M_allocateEy
_ZNSt12_Vector_baseI12ElementosVooSaIS0_EE11_M_allocateEy:
.LFB3091:
	.loc 7 293 7
	.cfi_startproc
	pushq	%rbp
	.seh_pushreg	%rbp
	.cfi_def_cfa_offset 16
	.cfi_offset 6, -16
	movq	%rsp, %rbp
	.seh_setframe	%rbp, 0
	.cfi_def_cfa_register 6
	subq	$32, %rsp
	.seh_stackalloc	32
	.seh_endprologue
	movq	%rcx, 16(%rbp)
	movq	%rdx, 24(%rbp)
	.loc 7 296 18
	cmpq	$0, 24(%rbp)
	je	.L122
	.loc 7 296 34 discriminator 1
	movq	16(%rbp), %rax
	.loc 7 296 33 discriminator 1
	movq	24(%rbp), %rdx
	movq	%rax, %rcx
	call	_ZNSt16allocator_traitsISaI12ElementosVooEE8allocateERS1_y
	.loc 7 296 58 discriminator 1
	jmp	.L124
.L122:
	.loc 7 296 18 discriminator 2
	movl	$0, %eax
.L124:
	.loc 7 297 7 discriminator 5
	addq	$32, %rsp
	popq	%rbp
	.cfi_restore 6
	.cfi_def_cfa 7, 8
	ret
	.cfi_endproc
.LFE3091:
	.seh_endproc
	.section	.text$_ZNK9__gnu_cxx17__normal_iteratorIP12ElementosVooSt6vectorIS1_SaIS1_EEE4baseEv,"x"
	.linkonce discard
	.align 2
	.globl	_ZNK9__gnu_cxx17__normal_iteratorIP12ElementosVooSt6vectorIS1_SaIS1_EEE4baseEv
	.def	_ZNK9__gnu_cxx17__normal_iteratorIP12ElementosVooSt6vectorIS1_SaIS1_EEE4baseEv;	.scl	2;	.type	32;	.endef
	.seh_proc	_ZNK9__gnu_cxx17__normal_iteratorIP12ElementosVooSt6vectorIS1_SaIS1_EEE4baseEv
_ZNK9__gnu_cxx17__normal_iteratorIP12ElementosVooSt6vectorIS1_SaIS1_EEE4baseEv:
.LFB3092:
	.loc 16 845 7
	.cfi_startproc
	pushq	%rbp
	.seh_pushreg	%rbp
	.cfi_def_cfa_offset 16
	.cfi_offset 6, -16
	movq	%rsp, %rbp
	.seh_setframe	%rbp, 0
	.cfi_def_cfa_register 6
	.seh_endprologue
	movq	%rcx, 16(%rbp)
	.loc 16 846 16
	movq	16(%rbp), %rax
	.loc 16 846 28
	popq	%rbp
	.cfi_restore 6
	.cfi_def_cfa 7, 8
	ret
	.cfi_endproc
.LFE3092:
	.seh_endproc
	.section	.text$_ZSt34__uninitialized_move_if_noexcept_aIP12ElementosVooS1_SaIS0_EET0_T_S4_S3_RT1_,"x"
	.linkonce discard
	.globl	_ZSt34__uninitialized_move_if_noexcept_aIP12ElementosVooS1_SaIS0_EET0_T_S4_S3_RT1_
	.def	_ZSt34__uninitialized_move_if_noexcept_aIP12ElementosVooS1_SaIS0_EET0_T_S4_S3_RT1_;	.scl	2;	.type	32;	.endef
	.seh_proc	_ZSt34__uninitialized_move_if_noexcept_aIP12ElementosVooS1_SaIS0_EET0_T_S4_S3_RT1_
_ZSt34__uninitialized_move_if_noexcept_aIP12ElementosVooS1_SaIS0_EET0_T_S4_S3_RT1_:
.LFB3093:
	.loc 14 305 5
	.cfi_startproc
	pushq	%rbp
	.seh_pushreg	%rbp
	.cfi_def_cfa_offset 16
	.cfi_offset 6, -16
	pushq	%rbx
	.seh_pushreg	%rbx
	.cfi_def_cfa_offset 24
	.cfi_offset 3, -24
	subq	$40, %rsp
	.seh_stackalloc	40
	.cfi_def_cfa_offset 64
	leaq	128(%rsp), %rbp
	.seh_setframe	%rbp, 128
	.cfi_def_cfa 6, -64
	.seh_endprologue
	movq	%rcx, -64(%rbp)
	movq	%rdx, -56(%rbp)
	movq	%r8, -48(%rbp)
	movq	%r9, -40(%rbp)
	.loc 14 311 2
	movq	-56(%rbp), %rax
	movq	%rax, %rcx
	call	_ZSt32__make_move_if_noexcept_iteratorI12ElementosVooSt13move_iteratorIPS0_EET0_PT_
	movq	%rax, %rbx
	movq	-64(%rbp), %rcx
	call	_ZSt32__make_move_if_noexcept_iteratorI12ElementosVooSt13move_iteratorIPS0_EET0_PT_
	movq	%rax, %rcx
	movq	-40(%rbp), %rdx
	movq	-48(%rbp), %rax
	movq	%rdx, %r9
	movq	%rax, %r8
	movq	%rbx, %rdx
	call	_ZSt22__uninitialized_copy_aISt13move_iteratorIP12ElementosVooES2_S1_ET0_T_S5_S4_RSaIT1_E
	.loc 14 313 5
	addq	$40, %rsp
	popq	%rbx
	.cfi_restore 3
	popq	%rbp
	.cfi_restore 6
	.cfi_def_cfa 7, -24
	ret
	.cfi_endproc
.LFE3093:
	.seh_endproc
	.section	.text$_ZNSt16allocator_traitsISaI12ElementosVooEE7destroyIS0_EEvRS1_PT_,"x"
	.linkonce discard
	.globl	_ZNSt16allocator_traitsISaI12ElementosVooEE7destroyIS0_EEvRS1_PT_
	.def	_ZNSt16allocator_traitsISaI12ElementosVooEE7destroyIS0_EEvRS1_PT_;	.scl	2;	.type	32;	.endef
	.seh_proc	_ZNSt16allocator_traitsISaI12ElementosVooEE7destroyIS0_EEvRS1_PT_
_ZNSt16allocator_traitsISaI12ElementosVooEE7destroyIS0_EEvRS1_PT_:
.LFB3094:
	.loc 10 486 2
	.cfi_startproc
	pushq	%rbp
	.seh_pushreg	%rbp
	.cfi_def_cfa_offset 16
	.cfi_offset 6, -16
	movq	%rsp, %rbp
	.seh_setframe	%rbp, 0
	.cfi_def_cfa_register 6
	subq	$32, %rsp
	.seh_stackalloc	32
	.seh_endprologue
	movq	%rcx, 16(%rbp)
	movq	%rdx, 24(%rbp)
	.loc 10 487 4
	movq	24(%rbp), %rax
	movq	%rax, %rdx
	movq	16(%rbp), %rcx
	call	_ZN9__gnu_cxx13new_allocatorI12ElementosVooE7destroyIS1_EEvPT_
	.loc 10 487 22
	nop
	addq	$32, %rsp
	popq	%rbp
	.cfi_restore 6
	.cfi_def_cfa 7, 8
	ret
	.cfi_endproc
.LFE3094:
	.seh_endproc
	.section	.text$_ZNSt16allocator_traitsISaI12ElementosVooEE37select_on_container_copy_constructionERKS1_,"x"
	.linkonce discard
	.globl	_ZNSt16allocator_traitsISaI12ElementosVooEE37select_on_container_copy_constructionERKS1_
	.def	_ZNSt16allocator_traitsISaI12ElementosVooEE37select_on_container_copy_constructionERKS1_;	.scl	2;	.type	32;	.endef
	.seh_proc	_ZNSt16allocator_traitsISaI12ElementosVooEE37select_on_container_copy_constructionERKS1_
_ZNSt16allocator_traitsISaI12ElementosVooEE37select_on_container_copy_constructionERKS1_:
.LFB3095:
	.loc 10 504 7
	.cfi_startproc
	pushq	%rbp
	.seh_pushreg	%rbp
	.cfi_def_cfa_offset 16
	.cfi_offset 6, -16
	movq	%rsp, %rbp
	.seh_setframe	%rbp, 0
	.cfi_def_cfa_register 6
	subq	$32, %rsp
	.seh_stackalloc	32
	.seh_endprologue
	movq	%rcx, 16(%rbp)
	movq	%rdx, 24(%rbp)
	.loc 10 505 16
	movq	24(%rbp), %rax
	movq	%rax, %rdx
	movq	16(%rbp), %rcx
	call	_ZNSaI12ElementosVooEC1ERKS0_
	.loc 10 505 23
	movq	16(%rbp), %rax
	addq	$32, %rsp
	popq	%rbp
	.cfi_restore 6
	.cfi_def_cfa 7, 8
	ret
	.cfi_endproc
.LFE3095:
	.seh_endproc
	.section	.text$_ZNSaI12ElementosVooEC2ERKS0_,"x"
	.linkonce discard
	.align 2
	.globl	_ZNSaI12ElementosVooEC2ERKS0_
	.def	_ZNSaI12ElementosVooEC2ERKS0_;	.scl	2;	.type	32;	.endef
	.seh_proc	_ZNSaI12ElementosVooEC2ERKS0_
_ZNSaI12ElementosVooEC2ERKS0_:
.LFB3097:
	.loc 13 133 7
	.cfi_startproc
	pushq	%rbp
	.seh_pushreg	%rbp
	.cfi_def_cfa_offset 16
	.cfi_offset 6, -16
	movq	%rsp, %rbp
	.seh_setframe	%rbp, 0
	.cfi_def_cfa_register 6
	subq	$32, %rsp
	.seh_stackalloc	32
	.seh_endprologue
	movq	%rcx, 16(%rbp)
	movq	%rdx, 24(%rbp)
.LBB28:
	.loc 13 134 34
	movq	24(%rbp), %rax
	movq	%rax, %rdx
	movq	16(%rbp), %rcx
	call	_ZN9__gnu_cxx13new_allocatorI12ElementosVooEC2ERKS2_
.LBE28:
	.loc 13 134 38
	nop
	addq	$32, %rsp
	popq	%rbp
	.cfi_restore 6
	.cfi_def_cfa 7, 8
	ret
	.cfi_endproc
.LFE3097:
	.seh_endproc
	.section	.text$_ZNSaI12ElementosVooEC1ERKS0_,"x"
	.linkonce discard
	.align 2
	.globl	_ZNSaI12ElementosVooEC1ERKS0_
	.def	_ZNSaI12ElementosVooEC1ERKS0_;	.scl	2;	.type	32;	.endef
	.seh_proc	_ZNSaI12ElementosVooEC1ERKS0_
_ZNSaI12ElementosVooEC1ERKS0_:
.LFB3098:
	.loc 13 133 7
	.cfi_startproc
	pushq	%rbp
	.seh_pushreg	%rbp
	.cfi_def_cfa_offset 16
	.cfi_offset 6, -16
	movq	%rsp, %rbp
	.seh_setframe	%rbp, 0
	.cfi_def_cfa_register 6
	subq	$32, %rsp
	.seh_stackalloc	32
	.seh_endprologue
	movq	%rcx, 16(%rbp)
	movq	%rdx, 24(%rbp)
.LBB29:
	.loc 13 134 34
	movq	24(%rbp), %rax
	movq	%rax, %rdx
	movq	16(%rbp), %rcx
	call	_ZN9__gnu_cxx13new_allocatorI12ElementosVooEC2ERKS2_
.LBE29:
	.loc 13 134 38
	nop
	addq	$32, %rsp
	popq	%rbp
	.cfi_restore 6
	.cfi_def_cfa 7, 8
	ret
	.cfi_endproc
.LFE3098:
	.seh_endproc
	.section	.text$_ZN9__gnu_cxx13new_allocatorI12ElementosVooED2Ev,"x"
	.linkonce discard
	.align 2
	.globl	_ZN9__gnu_cxx13new_allocatorI12ElementosVooED2Ev
	.def	_ZN9__gnu_cxx13new_allocatorI12ElementosVooED2Ev;	.scl	2;	.type	32;	.endef
	.seh_proc	_ZN9__gnu_cxx13new_allocatorI12ElementosVooED2Ev
_ZN9__gnu_cxx13new_allocatorI12ElementosVooED2Ev:
.LFB3100:
	.loc 15 86 7
	.cfi_startproc
	pushq	%rbp
	.seh_pushreg	%rbp
	.cfi_def_cfa_offset 16
	.cfi_offset 6, -16
	movq	%rsp, %rbp
	.seh_setframe	%rbp, 0
	.cfi_def_cfa_register 6
	.seh_endprologue
	movq	%rcx, 16(%rbp)
	.loc 15 86 35
	nop
	popq	%rbp
	.cfi_restore 6
	.cfi_def_cfa 7, 8
	ret
	.cfi_endproc
.LFE3100:
	.seh_endproc
	.section	.text$_ZNSt12_Vector_baseI12ElementosVooSaIS0_EE12_Vector_implC1ERKS1_,"x"
	.linkonce discard
	.align 2
	.globl	_ZNSt12_Vector_baseI12ElementosVooSaIS0_EE12_Vector_implC1ERKS1_
	.def	_ZNSt12_Vector_baseI12ElementosVooSaIS0_EE12_Vector_implC1ERKS1_;	.scl	2;	.type	32;	.endef
	.seh_proc	_ZNSt12_Vector_baseI12ElementosVooSaIS0_EE12_Vector_implC1ERKS1_
_ZNSt12_Vector_baseI12ElementosVooSaIS0_EE12_Vector_implC1ERKS1_:
.LFB3104:
	.loc 7 99 2
	.cfi_startproc
	pushq	%rbp
	.seh_pushreg	%rbp
	.cfi_def_cfa_offset 16
	.cfi_offset 6, -16
	movq	%rsp, %rbp
	.seh_setframe	%rbp, 0
	.cfi_def_cfa_register 6
	subq	$32, %rsp
	.seh_stackalloc	32
	.seh_endprologue
	movq	%rcx, 16(%rbp)
	movq	%rdx, 24(%rbp)
.LBB30:
	.loc 7 100 68
	movq	24(%rbp), %rax
	movq	%rax, %rdx
	movq	16(%rbp), %rcx
	call	_ZNSaI12ElementosVooEC2ERKS0_
	movq	16(%rbp), %rax
	movq	$0, (%rax)
	movq	16(%rbp), %rax
	movq	$0, 8(%rax)
	movq	16(%rbp), %rax
	movq	$0, 16(%rax)
.LBE30:
	.loc 7 101 4
	nop
	addq	$32, %rsp
	popq	%rbp
	.cfi_restore 6
	.cfi_def_cfa 7, 8
	ret
	.cfi_endproc
.LFE3104:
	.seh_endproc
	.section	.text$_ZNSt12_Vector_baseI12ElementosVooSaIS0_EE17_M_create_storageEy,"x"
	.linkonce discard
	.align 2
	.globl	_ZNSt12_Vector_baseI12ElementosVooSaIS0_EE17_M_create_storageEy
	.def	_ZNSt12_Vector_baseI12ElementosVooSaIS0_EE17_M_create_storageEy;	.scl	2;	.type	32;	.endef
	.seh_proc	_ZNSt12_Vector_baseI12ElementosVooSaIS0_EE17_M_create_storageEy
_ZNSt12_Vector_baseI12ElementosVooSaIS0_EE17_M_create_storageEy:
.LFB3105:
	.loc 7 309 7
	.cfi_startproc
	pushq	%rbp
	.seh_pushreg	%rbp
	.cfi_def_cfa_offset 16
	.cfi_offset 6, -16
	movq	%rsp, %rbp
	.seh_setframe	%rbp, 0
	.cfi_def_cfa_register 6
	subq	$32, %rsp
	.seh_stackalloc	32
	.seh_endprologue
	movq	%rcx, 16(%rbp)
	movq	%rdx, 24(%rbp)
	.loc 7 311 25
	movq	24(%rbp), %rax
	movq	%rax, %rdx
	movq	16(%rbp), %rcx
	call	_ZNSt12_Vector_baseI12ElementosVooSaIS0_EE11_M_allocateEy
	movq	%rax, %rdx
	.loc 7 311 2
	movq	16(%rbp), %rax
	movq	%rdx, (%rax)
	.loc 7 312 42
	movq	16(%rbp), %rax
	movq	(%rax), %rdx
	.loc 7 312 2
	movq	16(%rbp), %rax
	movq	%rdx, 8(%rax)
	.loc 7 313 50
	movq	16(%rbp), %rax
	movq	(%rax), %rcx
	.loc 7 313 59
	movq	24(%rbp), %rdx
	movq	%rdx, %rax
	addq	%rax, %rax
	addq	%rdx, %rax
	salq	$5, %rax
	leaq	(%rcx,%rax), %rdx
	.loc 7 313 2
	movq	16(%rbp), %rax
	movq	%rdx, 16(%rax)
	.loc 7 314 7
	nop
	addq	$32, %rsp
	popq	%rbp
	.cfi_restore 6
	.cfi_def_cfa 7, 8
	ret
	.cfi_endproc
.LFE3105:
	.seh_endproc
	.section	.text$_ZN9__gnu_cxx17__normal_iteratorIPK12ElementosVooSt6vectorIS1_SaIS1_EEEC1ERKS3_,"x"
	.linkonce discard
	.align 2
	.globl	_ZN9__gnu_cxx17__normal_iteratorIPK12ElementosVooSt6vectorIS1_SaIS1_EEEC1ERKS3_
	.def	_ZN9__gnu_cxx17__normal_iteratorIPK12ElementosVooSt6vectorIS1_SaIS1_EEEC1ERKS3_;	.scl	2;	.type	32;	.endef
	.seh_proc	_ZN9__gnu_cxx17__normal_iteratorIPK12ElementosVooSt6vectorIS1_SaIS1_EEEC1ERKS3_
_ZN9__gnu_cxx17__normal_iteratorIPK12ElementosVooSt6vectorIS1_SaIS1_EEEC1ERKS3_:
.LFB3108:
	.loc 16 780 7
	.cfi_startproc
	pushq	%rbp
	.seh_pushreg	%rbp
	.cfi_def_cfa_offset 16
	.cfi_offset 6, -16
	movq	%rsp, %rbp
	.seh_setframe	%rbp, 0
	.cfi_def_cfa_register 6
	.seh_endprologue
	movq	%rcx, 16(%rbp)
	movq	%rdx, 24(%rbp)
.LBB31:
	.loc 16 781 23
	movq	24(%rbp), %rax
	movq	(%rax), %rdx
	movq	16(%rbp), %rax
	movq	%rdx, (%rax)
.LBE31:
	.loc 16 781 27
	nop
	popq	%rbp
	.cfi_restore 6
	.cfi_def_cfa 7, 8
	ret
	.cfi_endproc
.LFE3108:
	.seh_endproc
	.section	.text$_ZSt18uninitialized_copyIN9__gnu_cxx17__normal_iteratorIPK12ElementosVooSt6vectorIS2_SaIS2_EEEEPS2_ET0_T_SB_SA_,"x"
	.linkonce discard
	.globl	_ZSt18uninitialized_copyIN9__gnu_cxx17__normal_iteratorIPK12ElementosVooSt6vectorIS2_SaIS2_EEEEPS2_ET0_T_SB_SA_
	.def	_ZSt18uninitialized_copyIN9__gnu_cxx17__normal_iteratorIPK12ElementosVooSt6vectorIS2_SaIS2_EEEEPS2_ET0_T_SB_SA_;	.scl	2;	.type	32;	.endef
	.seh_proc	_ZSt18uninitialized_copyIN9__gnu_cxx17__normal_iteratorIPK12ElementosVooSt6vectorIS2_SaIS2_EEEEPS2_ET0_T_SB_SA_
_ZSt18uninitialized_copyIN9__gnu_cxx17__normal_iteratorIPK12ElementosVooSt6vectorIS2_SaIS2_EEEEPS2_ET0_T_SB_SA_:
.LFB3109:
	.loc 14 115 5
	.cfi_startproc
	pushq	%rbp
	.seh_pushreg	%rbp
	.cfi_def_cfa_offset 16
	.cfi_offset 6, -16
	movq	%rsp, %rbp
	.seh_setframe	%rbp, 0
	.cfi_def_cfa_register 6
	subq	$48, %rsp
	.seh_stackalloc	48
	.seh_endprologue
	movq	%rcx, 16(%rbp)
	movq	%rdx, 24(%rbp)
	movq	%r8, 32(%rbp)
	.loc 14 128 18
	movb	$1, -1(%rbp)
	.loc 14 134 15
	movq	32(%rbp), %rdx
	movq	24(%rbp), %rax
	movq	%rdx, %r8
	movq	%rax, %rdx
	movq	16(%rbp), %rcx
	call	_ZNSt20__uninitialized_copyILb0EE13__uninit_copyIN9__gnu_cxx17__normal_iteratorIPK12ElementosVooSt6vectorIS4_SaIS4_EEEEPS4_EET0_T_SD_SC_
	.loc 14 135 5
	addq	$48, %rsp
	popq	%rbp
	.cfi_restore 6
	.cfi_def_cfa 7, 8
	ret
	.cfi_endproc
.LFE3109:
	.seh_endproc
	.section	.text$_ZNSt16allocator_traitsISaI12ElementosVooEE10deallocateERS1_PS0_y,"x"
	.linkonce discard
	.globl	_ZNSt16allocator_traitsISaI12ElementosVooEE10deallocateERS1_PS0_y
	.def	_ZNSt16allocator_traitsISaI12ElementosVooEE10deallocateERS1_PS0_y;	.scl	2;	.type	32;	.endef
	.seh_proc	_ZNSt16allocator_traitsISaI12ElementosVooEE10deallocateERS1_PS0_y
_ZNSt16allocator_traitsISaI12ElementosVooEE10deallocateERS1_PS0_y:
.LFB3148:
	.loc 10 461 7
	.cfi_startproc
	pushq	%rbp
	.seh_pushreg	%rbp
	.cfi_def_cfa_offset 16
	.cfi_offset 6, -16
	movq	%rsp, %rbp
	.seh_setframe	%rbp, 0
	.cfi_def_cfa_register 6
	subq	$32, %rsp
	.seh_stackalloc	32
	.seh_endprologue
	movq	%rcx, 16(%rbp)
	movq	%rdx, 24(%rbp)
	movq	%r8, 32(%rbp)
	.loc 10 462 9
	movq	32(%rbp), %rdx
	movq	24(%rbp), %rax
	movq	%rdx, %r8
	movq	%rax, %rdx
	movq	16(%rbp), %rcx
	call	_ZN9__gnu_cxx13new_allocatorI12ElementosVooE10deallocateEPS1_y
	.loc 10 462 35
	nop
	addq	$32, %rsp
	popq	%rbp
	.cfi_restore 6
	.cfi_def_cfa 7, 8
	ret
	.cfi_endproc
.LFE3148:
	.seh_endproc
	.section	.text$_ZSt11__addressofI12ElementosVooEPT_RS1_,"x"
	.linkonce discard
	.globl	_ZSt11__addressofI12ElementosVooEPT_RS1_
	.def	_ZSt11__addressofI12ElementosVooEPT_RS1_;	.scl	2;	.type	32;	.endef
	.seh_proc	_ZSt11__addressofI12ElementosVooEPT_RS1_
_ZSt11__addressofI12ElementosVooEPT_RS1_:
.LFB3150:
	.loc 9 47 5
	.cfi_startproc
	pushq	%rbp
	.seh_pushreg	%rbp
	.cfi_def_cfa_offset 16
	.cfi_offset 6, -16
	movq	%rsp, %rbp
	.seh_setframe	%rbp, 0
	.cfi_def_cfa_register 6
	.seh_endprologue
	movq	%rcx, 16(%rbp)
	.loc 9 48 37
	movq	16(%rbp), %rax
	.loc 9 48 40
	popq	%rbp
	.cfi_restore 6
	.cfi_def_cfa 7, 8
	ret
	.cfi_endproc
.LFE3150:
	.seh_endproc
	.section	.text$_ZNSt12_Destroy_auxILb0EE9__destroyIP12ElementosVooEEvT_S4_,"x"
	.linkonce discard
	.globl	_ZNSt12_Destroy_auxILb0EE9__destroyIP12ElementosVooEEvT_S4_
	.def	_ZNSt12_Destroy_auxILb0EE9__destroyIP12ElementosVooEEvT_S4_;	.scl	2;	.type	32;	.endef
	.seh_proc	_ZNSt12_Destroy_auxILb0EE9__destroyIP12ElementosVooEEvT_S4_
_ZNSt12_Destroy_auxILb0EE9__destroyIP12ElementosVooEEvT_S4_:
.LFB3149:
	.loc 8 105 9
	.cfi_startproc
	pushq	%rbp
	.seh_pushreg	%rbp
	.cfi_def_cfa_offset 16
	.cfi_offset 6, -16
	movq	%rsp, %rbp
	.seh_setframe	%rbp, 0
	.cfi_def_cfa_register 6
	subq	$32, %rsp
	.seh_stackalloc	32
	.seh_endprologue
	movq	%rcx, 16(%rbp)
	movq	%rdx, 24(%rbp)
.L145:
	.loc 8 107 19 discriminator 2
	movq	16(%rbp), %rax
	cmpq	24(%rbp), %rax
	je	.L146
	.loc 8 108 19 discriminator 1
	movq	16(%rbp), %rcx
	call	_ZSt11__addressofI12ElementosVooEPT_RS1_
	movq	%rax, %rcx
	call	_ZSt8_DestroyI12ElementosVooEvPT_
	.loc 8 107 4 discriminator 1
	addq	$96, 16(%rbp)
	jmp	.L145
.L146:
	.loc 8 109 2
	nop
	addq	$32, %rsp
	popq	%rbp
	.cfi_restore 6
	.cfi_def_cfa 7, 8
	ret
	.cfi_endproc
.LFE3149:
	.seh_endproc
	.section	.text$_ZNKSt6vectorI12ElementosVooSaIS0_EE8max_sizeEv,"x"
	.linkonce discard
	.align 2
	.globl	_ZNKSt6vectorI12ElementosVooSaIS0_EE8max_sizeEv
	.def	_ZNKSt6vectorI12ElementosVooSaIS0_EE8max_sizeEv;	.scl	2;	.type	32;	.endef
	.seh_proc	_ZNKSt6vectorI12ElementosVooSaIS0_EE8max_sizeEv
_ZNKSt6vectorI12ElementosVooSaIS0_EE8max_sizeEv:
.LFB3151:
	.loc 7 810 7
	.cfi_startproc
	pushq	%rbp
	.seh_pushreg	%rbp
	.cfi_def_cfa_offset 16
	.cfi_offset 6, -16
	movq	%rsp, %rbp
	.seh_setframe	%rbp, 0
	.cfi_def_cfa_register 6
	subq	$32, %rsp
	.seh_stackalloc	32
	.seh_endprologue
	movq	%rcx, 16(%rbp)
	.loc 7 811 59
	movq	16(%rbp), %rax
	movq	%rax, %rcx
	call	_ZNKSt12_Vector_baseI12ElementosVooSaIS0_EE19_M_get_Tp_allocatorEv
	.loc 7 811 39
	movq	%rax, %rcx
	call	_ZNSt16allocator_traitsISaI12ElementosVooEE8max_sizeERKS1_
	.loc 7 811 64
	addq	$32, %rsp
	popq	%rbp
	.cfi_restore 6
	.cfi_def_cfa 7, 8
	ret
	.cfi_endproc
.LFE3151:
	.seh_endproc
	.section	.text$_ZSt3maxIyERKT_S2_S2_,"x"
	.linkonce discard
	.globl	_ZSt3maxIyERKT_S2_S2_
	.def	_ZSt3maxIyERKT_S2_S2_;	.scl	2;	.type	32;	.endef
	.seh_proc	_ZSt3maxIyERKT_S2_S2_
_ZSt3maxIyERKT_S2_S2_:
.LFB3152:
	.file 17 "C:/Program Files/CodeBlocks/MinGW/lib/gcc/x86_64-w64-mingw32/8.1.0/include/c++/bits/stl_algobase.h"
	.loc 17 219 5
	.cfi_startproc
	pushq	%rbp
	.seh_pushreg	%rbp
	.cfi_def_cfa_offset 16
	.cfi_offset 6, -16
	movq	%rsp, %rbp
	.seh_setframe	%rbp, 0
	.cfi_def_cfa_register 6
	.seh_endprologue
	movq	%rcx, 16(%rbp)
	movq	%rdx, 24(%rbp)
	.loc 17 224 15
	movq	16(%rbp), %rax
	movq	(%rax), %rdx
	movq	24(%rbp), %rax
	movq	(%rax), %rax
	.loc 17 224 7
	cmpq	%rax, %rdx
	jnb	.L150
	.loc 17 225 9
	movq	24(%rbp), %rax
	jmp	.L151
.L150:
	.loc 17 226 14
	movq	16(%rbp), %rax
.L151:
	.loc 17 227 5
	popq	%rbp
	.cfi_restore 6
	.cfi_def_cfa 7, 8
	ret
	.cfi_endproc
.LFE3152:
	.seh_endproc
	.section	.text$_ZNSt16allocator_traitsISaI12ElementosVooEE8allocateERS1_y,"x"
	.linkonce discard
	.globl	_ZNSt16allocator_traitsISaI12ElementosVooEE8allocateERS1_y
	.def	_ZNSt16allocator_traitsISaI12ElementosVooEE8allocateERS1_y;	.scl	2;	.type	32;	.endef
	.seh_proc	_ZNSt16allocator_traitsISaI12ElementosVooEE8allocateERS1_y
_ZNSt16allocator_traitsISaI12ElementosVooEE8allocateERS1_y:
.LFB3153:
	.loc 10 435 7
	.cfi_startproc
	pushq	%rbp
	.seh_pushreg	%rbp
	.cfi_def_cfa_offset 16
	.cfi_offset 6, -16
	movq	%rsp, %rbp
	.seh_setframe	%rbp, 0
	.cfi_def_cfa_register 6
	subq	$32, %rsp
	.seh_stackalloc	32
	.seh_endprologue
	movq	%rcx, 16(%rbp)
	movq	%rdx, 24(%rbp)
	.loc 10 436 32
	movq	24(%rbp), %rax
	movl	$0, %r8d
	movq	%rax, %rdx
	movq	16(%rbp), %rcx
	call	_ZN9__gnu_cxx13new_allocatorI12ElementosVooE8allocateEyPKv
	.loc 10 436 35
	addq	$32, %rsp
	popq	%rbp
	.cfi_restore 6
	.cfi_def_cfa 7, 8
	ret
	.cfi_endproc
.LFE3153:
	.seh_endproc
	.section	.text$_ZSt32__make_move_if_noexcept_iteratorI12ElementosVooSt13move_iteratorIPS0_EET0_PT_,"x"
	.linkonce discard
	.globl	_ZSt32__make_move_if_noexcept_iteratorI12ElementosVooSt13move_iteratorIPS0_EET0_PT_
	.def	_ZSt32__make_move_if_noexcept_iteratorI12ElementosVooSt13move_iteratorIPS0_EET0_PT_;	.scl	2;	.type	32;	.endef
	.seh_proc	_ZSt32__make_move_if_noexcept_iteratorI12ElementosVooSt13move_iteratorIPS0_EET0_PT_
_ZSt32__make_move_if_noexcept_iteratorI12ElementosVooSt13move_iteratorIPS0_EET0_PT_:
.LFB3154:
	.loc 16 1215 5
	.cfi_startproc
	pushq	%rbp
	.seh_pushreg	%rbp
	.cfi_def_cfa_offset 16
	.cfi_offset 6, -16
	movq	%rsp, %rbp
	.seh_setframe	%rbp, 0
	.cfi_def_cfa_register 6
	subq	$48, %rsp
	.seh_stackalloc	48
	.seh_endprologue
	movq	%rcx, 16(%rbp)
	.loc 16 1216 29
	leaq	-8(%rbp), %rax
	movq	16(%rbp), %rdx
	movq	%rax, %rcx
	call	_ZNSt13move_iteratorIP12ElementosVooEC1ES1_
	movq	-8(%rbp), %rax
	.loc 16 1216 32
	addq	$48, %rsp
	popq	%rbp
	.cfi_restore 6
	.cfi_def_cfa 7, 8
	ret
	.cfi_endproc
.LFE3154:
	.seh_endproc
	.section	.text$_ZSt22__uninitialized_copy_aISt13move_iteratorIP12ElementosVooES2_S1_ET0_T_S5_S4_RSaIT1_E,"x"
	.linkonce discard
	.globl	_ZSt22__uninitialized_copy_aISt13move_iteratorIP12ElementosVooES2_S1_ET0_T_S5_S4_RSaIT1_E
	.def	_ZSt22__uninitialized_copy_aISt13move_iteratorIP12ElementosVooES2_S1_ET0_T_S5_S4_RSaIT1_E;	.scl	2;	.type	32;	.endef
	.seh_proc	_ZSt22__uninitialized_copy_aISt13move_iteratorIP12ElementosVooES2_S1_ET0_T_S5_S4_RSaIT1_E
_ZSt22__uninitialized_copy_aISt13move_iteratorIP12ElementosVooES2_S1_ET0_T_S5_S4_RSaIT1_E:
.LFB3155:
	.loc 14 287 5
	.cfi_startproc
	pushq	%rbp
	.seh_pushreg	%rbp
	.cfi_def_cfa_offset 16
	.cfi_offset 6, -16
	movq	%rsp, %rbp
	.seh_setframe	%rbp, 0
	.cfi_def_cfa_register 6
	subq	$32, %rsp
	.seh_stackalloc	32
	.seh_endprologue
	movq	%rcx, 16(%rbp)
	movq	%rdx, 24(%rbp)
	movq	%r8, 32(%rbp)
	movq	%r9, 40(%rbp)
	.loc 14 289 37
	movq	32(%rbp), %rdx
	movq	24(%rbp), %rax
	movq	%rdx, %r8
	movq	%rax, %rdx
	movq	16(%rbp), %rcx
	call	_ZSt18uninitialized_copyISt13move_iteratorIP12ElementosVooES2_ET0_T_S5_S4_
	.loc 14 289 66
	addq	$32, %rsp
	popq	%rbp
	.cfi_restore 6
	.cfi_def_cfa 7, 8
	ret
	.cfi_endproc
.LFE3155:
	.seh_endproc
	.section	.text$_ZN9__gnu_cxx13new_allocatorI12ElementosVooE7destroyIS1_EEvPT_,"x"
	.linkonce discard
	.align 2
	.globl	_ZN9__gnu_cxx13new_allocatorI12ElementosVooE7destroyIS1_EEvPT_
	.def	_ZN9__gnu_cxx13new_allocatorI12ElementosVooE7destroyIS1_EEvPT_;	.scl	2;	.type	32;	.endef
	.seh_proc	_ZN9__gnu_cxx13new_allocatorI12ElementosVooE7destroyIS1_EEvPT_
_ZN9__gnu_cxx13new_allocatorI12ElementosVooE7destroyIS1_EEvPT_:
.LFB3156:
	.loc 15 140 2
	.cfi_startproc
	pushq	%rbp
	.seh_pushreg	%rbp
	.cfi_def_cfa_offset 16
	.cfi_offset 6, -16
	movq	%rsp, %rbp
	.seh_setframe	%rbp, 0
	.cfi_def_cfa_register 6
	subq	$32, %rsp
	.seh_stackalloc	32
	.seh_endprologue
	movq	%rcx, 16(%rbp)
	movq	%rdx, 24(%rbp)
	.loc 15 140 22
	movq	24(%rbp), %rax
	movq	(%rax), %rax
	movq	(%rax), %rax
	movq	24(%rbp), %rdx
	movq	%rdx, %rcx
	call	*%rax
.LVL4:
	.loc 15 140 35
	nop
	addq	$32, %rsp
	popq	%rbp
	.cfi_restore 6
	.cfi_def_cfa 7, 8
	ret
	.cfi_endproc
.LFE3156:
	.seh_endproc
	.section	.text$_ZN9__gnu_cxx13new_allocatorI12ElementosVooEC2ERKS2_,"x"
	.linkonce discard
	.align 2
	.globl	_ZN9__gnu_cxx13new_allocatorI12ElementosVooEC2ERKS2_
	.def	_ZN9__gnu_cxx13new_allocatorI12ElementosVooEC2ERKS2_;	.scl	2;	.type	32;	.endef
	.seh_proc	_ZN9__gnu_cxx13new_allocatorI12ElementosVooEC2ERKS2_
_ZN9__gnu_cxx13new_allocatorI12ElementosVooEC2ERKS2_:
.LFB3158:
	.loc 15 81 7
	.cfi_startproc
	pushq	%rbp
	.seh_pushreg	%rbp
	.cfi_def_cfa_offset 16
	.cfi_offset 6, -16
	movq	%rsp, %rbp
	.seh_setframe	%rbp, 0
	.cfi_def_cfa_register 6
	.seh_endprologue
	movq	%rcx, 16(%rbp)
	movq	%rdx, 24(%rbp)
	.loc 15 81 54
	nop
	popq	%rbp
	.cfi_restore 6
	.cfi_def_cfa 7, 8
	ret
	.cfi_endproc
.LFE3158:
	.seh_endproc
	.section	.text$_ZNSt20__uninitialized_copyILb0EE13__uninit_copyIN9__gnu_cxx17__normal_iteratorIPK12ElementosVooSt6vectorIS4_SaIS4_EEEEPS4_EET0_T_SD_SC_,"x"
	.linkonce discard
	.globl	_ZNSt20__uninitialized_copyILb0EE13__uninit_copyIN9__gnu_cxx17__normal_iteratorIPK12ElementosVooSt6vectorIS4_SaIS4_EEEEPS4_EET0_T_SD_SC_
	.def	_ZNSt20__uninitialized_copyILb0EE13__uninit_copyIN9__gnu_cxx17__normal_iteratorIPK12ElementosVooSt6vectorIS4_SaIS4_EEEEPS4_EET0_T_SD_SC_;	.scl	2;	.type	32;	.endef
	.seh_proc	_ZNSt20__uninitialized_copyILb0EE13__uninit_copyIN9__gnu_cxx17__normal_iteratorIPK12ElementosVooSt6vectorIS4_SaIS4_EEEEPS4_EET0_T_SD_SC_
_ZNSt20__uninitialized_copyILb0EE13__uninit_copyIN9__gnu_cxx17__normal_iteratorIPK12ElementosVooSt6vectorIS4_SaIS4_EEEEPS4_EET0_T_SD_SC_:
.LFB3160:
	.loc 14 76 9
	.cfi_startproc
	pushq	%rbp
	.seh_pushreg	%rbp
	.cfi_def_cfa_offset 16
	.cfi_offset 6, -16
	pushq	%rbx
	.seh_pushreg	%rbx
	.cfi_def_cfa_offset 24
	.cfi_offset 3, -24
	subq	$56, %rsp
	.seh_stackalloc	56
	.cfi_def_cfa_offset 80
	leaq	128(%rsp), %rbp
	.seh_setframe	%rbp, 128
	.cfi_def_cfa 6, -48
	.seh_endprologue
	movq	%rcx, -48(%rbp)
	movq	%rdx, -40(%rbp)
	movq	%r8, -32(%rbp)
	.loc 14 79 21
	movq	-32(%rbp), %rax
	movq	%rax, -88(%rbp)
.L162:
	.loc 14 82 23 discriminator 2
	leaq	-40(%rbp), %rax
	movq	%rax, %rdx
	leaq	-48(%rbp), %rcx
	call	_ZN9__gnu_cxxneIPK12ElementosVooSt6vectorIS1_SaIS1_EEEEbRKNS_17__normal_iteratorIT_T0_EESC_
	testb	%al, %al
	je	.L161
	.loc 14 83 45 discriminator 1
	leaq	-48(%rbp), %rcx
	call	_ZNK9__gnu_cxx17__normal_iteratorIPK12ElementosVooSt6vectorIS1_SaIS1_EEEdeEv
	movq	%rax, %rbx
	.loc 14 83 18 discriminator 1
	movq	-88(%rbp), %rax
	movq	%rax, %rcx
	call	_ZSt11__addressofI12ElementosVooEPT_RS1_
	movq	%rbx, %rdx
	movq	%rax, %rcx
	call	_ZSt10_ConstructI12ElementosVooJRKS0_EEvPT_DpOT0_
	.loc 14 82 34 discriminator 1
	leaq	-48(%rbp), %rcx
	call	_ZN9__gnu_cxx17__normal_iteratorIPK12ElementosVooSt6vectorIS1_SaIS1_EEEppEv
	.loc 14 82 8 discriminator 1
	addq	$96, -88(%rbp)
	jmp	.L162
.L161:
	.loc 14 84 15
	movq	-88(%rbp), %rax
	.loc 14 91 2
	addq	$56, %rsp
	popq	%rbx
	.cfi_restore 3
	popq	%rbp
	.cfi_restore 6
	.cfi_def_cfa 7, -40
	ret
	.cfi_endproc
.LFE3160:
	.seh_endproc
	.section	.text$_ZN9__gnu_cxx13new_allocatorI12ElementosVooE10deallocateEPS1_y,"x"
	.linkonce discard
	.align 2
	.globl	_ZN9__gnu_cxx13new_allocatorI12ElementosVooE10deallocateEPS1_y
	.def	_ZN9__gnu_cxx13new_allocatorI12ElementosVooE10deallocateEPS1_y;	.scl	2;	.type	32;	.endef
	.seh_proc	_ZN9__gnu_cxx13new_allocatorI12ElementosVooE10deallocateEPS1_y
_ZN9__gnu_cxx13new_allocatorI12ElementosVooE10deallocateEPS1_y:
.LFB3187:
	.loc 15 116 7
	.cfi_startproc
	pushq	%rbp
	.seh_pushreg	%rbp
	.cfi_def_cfa_offset 16
	.cfi_offset 6, -16
	movq	%rsp, %rbp
	.seh_setframe	%rbp, 0
	.cfi_def_cfa_register 6
	subq	$32, %rsp
	.seh_stackalloc	32
	.seh_endprologue
	movq	%rcx, 16(%rbp)
	movq	%rdx, 24(%rbp)
	movq	%r8, 32(%rbp)
	.loc 15 125 19
	movq	24(%rbp), %rax
	movq	%rax, %rcx
	call	_ZdlPv
	.loc 15 126 7
	nop
	addq	$32, %rsp
	popq	%rbp
	.cfi_restore 6
	.cfi_def_cfa 7, 8
	ret
	.cfi_endproc
.LFE3187:
	.seh_endproc
	.section	.text$_ZSt8_DestroyI12ElementosVooEvPT_,"x"
	.linkonce discard
	.globl	_ZSt8_DestroyI12ElementosVooEvPT_
	.def	_ZSt8_DestroyI12ElementosVooEvPT_;	.scl	2;	.type	32;	.endef
	.seh_proc	_ZSt8_DestroyI12ElementosVooEvPT_
_ZSt8_DestroyI12ElementosVooEvPT_:
.LFB3188:
	.loc 8 97 5
	.cfi_startproc
	pushq	%rbp
	.seh_pushreg	%rbp
	.cfi_def_cfa_offset 16
	.cfi_offset 6, -16
	movq	%rsp, %rbp
	.seh_setframe	%rbp, 0
	.cfi_def_cfa_register 6
	subq	$32, %rsp
	.seh_stackalloc	32
	.seh_endprologue
	movq	%rcx, 16(%rbp)
	.loc 8 98 7
	movq	16(%rbp), %rax
	movq	(%rax), %rax
	movq	(%rax), %rax
	movq	16(%rbp), %rcx
	call	*%rax
.LVL5:
	.loc 8 98 26
	nop
	addq	$32, %rsp
	popq	%rbp
	.cfi_restore 6
	.cfi_def_cfa 7, 8
	ret
	.cfi_endproc
.LFE3188:
	.seh_endproc
	.section	.text$_ZNSt16allocator_traitsISaI12ElementosVooEE8max_sizeERKS1_,"x"
	.linkonce discard
	.globl	_ZNSt16allocator_traitsISaI12ElementosVooEE8max_sizeERKS1_
	.def	_ZNSt16allocator_traitsISaI12ElementosVooEE8max_sizeERKS1_;	.scl	2;	.type	32;	.endef
	.seh_proc	_ZNSt16allocator_traitsISaI12ElementosVooEE8max_sizeERKS1_
_ZNSt16allocator_traitsISaI12ElementosVooEE8max_sizeERKS1_:
.LFB3189:
	.loc 10 495 7
	.cfi_startproc
	pushq	%rbp
	.seh_pushreg	%rbp
	.cfi_def_cfa_offset 16
	.cfi_offset 6, -16
	movq	%rsp, %rbp
	.seh_setframe	%rbp, 0
	.cfi_def_cfa_register 6
	subq	$32, %rsp
	.seh_stackalloc	32
	.seh_endprologue
	movq	%rcx, 16(%rbp)
	.loc 10 496 29
	movq	16(%rbp), %rcx
	call	_ZNK9__gnu_cxx13new_allocatorI12ElementosVooE8max_sizeEv
	.loc 10 496 32
	addq	$32, %rsp
	popq	%rbp
	.cfi_restore 6
	.cfi_def_cfa 7, 8
	ret
	.cfi_endproc
.LFE3189:
	.seh_endproc
	.section	.text$_ZN9__gnu_cxx13new_allocatorI12ElementosVooE8allocateEyPKv,"x"
	.linkonce discard
	.align 2
	.globl	_ZN9__gnu_cxx13new_allocatorI12ElementosVooE8allocateEyPKv
	.def	_ZN9__gnu_cxx13new_allocatorI12ElementosVooE8allocateEyPKv;	.scl	2;	.type	32;	.endef
	.seh_proc	_ZN9__gnu_cxx13new_allocatorI12ElementosVooE8allocateEyPKv
_ZN9__gnu_cxx13new_allocatorI12ElementosVooE8allocateEyPKv:
.LFB3190:
	.loc 15 99 7
	.cfi_startproc
	pushq	%rbp
	.seh_pushreg	%rbp
	.cfi_def_cfa_offset 16
	.cfi_offset 6, -16
	movq	%rsp, %rbp
	.seh_setframe	%rbp, 0
	.cfi_def_cfa_register 6
	subq	$32, %rsp
	.seh_stackalloc	32
	.seh_endprologue
	movq	%rcx, 16(%rbp)
	movq	%rdx, 24(%rbp)
	movq	%r8, 32(%rbp)
	.loc 15 101 10
	movq	16(%rbp), %rcx
	call	_ZNK9__gnu_cxx13new_allocatorI12ElementosVooE8max_sizeEv
	cmpq	%rax, 24(%rbp)
	seta	%al
	.loc 15 101 2
	testb	%al, %al
	je	.L169
	.loc 15 102 26
	call	_ZSt17__throw_bad_allocv
.L169:
	.loc 15 111 41
	movq	24(%rbp), %rdx
	movq	%rdx, %rax
	addq	%rax, %rax
	addq	%rdx, %rax
	salq	$5, %rax
	movq	%rax, %rcx
	call	_Znwy
	.loc 15 112 7
	addq	$32, %rsp
	popq	%rbp
	.cfi_restore 6
	.cfi_def_cfa 7, 8
	ret
	.cfi_endproc
.LFE3190:
	.seh_endproc
	.section	.text$_ZNSt13move_iteratorIP12ElementosVooEC1ES1_,"x"
	.linkonce discard
	.align 2
	.globl	_ZNSt13move_iteratorIP12ElementosVooEC1ES1_
	.def	_ZNSt13move_iteratorIP12ElementosVooEC1ES1_;	.scl	2;	.type	32;	.endef
	.seh_proc	_ZNSt13move_iteratorIP12ElementosVooEC1ES1_
_ZNSt13move_iteratorIP12ElementosVooEC1ES1_:
.LFB3193:
	.loc 16 1030 7
	.cfi_startproc
	pushq	%rbp
	.seh_pushreg	%rbp
	.cfi_def_cfa_offset 16
	.cfi_offset 6, -16
	movq	%rsp, %rbp
	.seh_setframe	%rbp, 0
	.cfi_def_cfa_register 6
	.seh_endprologue
	movq	%rcx, 16(%rbp)
	movq	%rdx, 24(%rbp)
.LBB32:
	.loc 16 1031 23
	movq	16(%rbp), %rax
	movq	24(%rbp), %rdx
	movq	%rdx, (%rax)
.LBE32:
	.loc 16 1031 27
	nop
	popq	%rbp
	.cfi_restore 6
	.cfi_def_cfa 7, 8
	ret
	.cfi_endproc
.LFE3193:
	.seh_endproc
	.section	.text$_ZSt18uninitialized_copyISt13move_iteratorIP12ElementosVooES2_ET0_T_S5_S4_,"x"
	.linkonce discard
	.globl	_ZSt18uninitialized_copyISt13move_iteratorIP12ElementosVooES2_ET0_T_S5_S4_
	.def	_ZSt18uninitialized_copyISt13move_iteratorIP12ElementosVooES2_ET0_T_S5_S4_;	.scl	2;	.type	32;	.endef
	.seh_proc	_ZSt18uninitialized_copyISt13move_iteratorIP12ElementosVooES2_ET0_T_S5_S4_
_ZSt18uninitialized_copyISt13move_iteratorIP12ElementosVooES2_ET0_T_S5_S4_:
.LFB3194:
	.loc 14 115 5
	.cfi_startproc
	pushq	%rbp
	.seh_pushreg	%rbp
	.cfi_def_cfa_offset 16
	.cfi_offset 6, -16
	movq	%rsp, %rbp
	.seh_setframe	%rbp, 0
	.cfi_def_cfa_register 6
	subq	$48, %rsp
	.seh_stackalloc	48
	.seh_endprologue
	movq	%rcx, 16(%rbp)
	movq	%rdx, 24(%rbp)
	movq	%r8, 32(%rbp)
	.loc 14 128 18
	movb	$1, -1(%rbp)
	.loc 14 134 15
	movq	32(%rbp), %rdx
	movq	24(%rbp), %rax
	movq	%rdx, %r8
	movq	%rax, %rdx
	movq	16(%rbp), %rcx
	call	_ZNSt20__uninitialized_copyILb0EE13__uninit_copyISt13move_iteratorIP12ElementosVooES4_EET0_T_S7_S6_
	.loc 14 135 5
	addq	$48, %rsp
	popq	%rbp
	.cfi_restore 6
	.cfi_def_cfa 7, 8
	ret
	.cfi_endproc
.LFE3194:
	.seh_endproc
	.section	.text$_ZN9__gnu_cxxneIPK12ElementosVooSt6vectorIS1_SaIS1_EEEEbRKNS_17__normal_iteratorIT_T0_EESC_,"x"
	.linkonce discard
	.globl	_ZN9__gnu_cxxneIPK12ElementosVooSt6vectorIS1_SaIS1_EEEEbRKNS_17__normal_iteratorIT_T0_EESC_
	.def	_ZN9__gnu_cxxneIPK12ElementosVooSt6vectorIS1_SaIS1_EEEEbRKNS_17__normal_iteratorIT_T0_EESC_;	.scl	2;	.type	32;	.endef
	.seh_proc	_ZN9__gnu_cxxneIPK12ElementosVooSt6vectorIS1_SaIS1_EEEEbRKNS_17__normal_iteratorIT_T0_EESC_
_ZN9__gnu_cxxneIPK12ElementosVooSt6vectorIS1_SaIS1_EEEEbRKNS_17__normal_iteratorIT_T0_EESC_:
.LFB3195:
	.loc 16 881 5
	.cfi_startproc
	pushq	%rbp
	.seh_pushreg	%rbp
	.cfi_def_cfa_offset 16
	.cfi_offset 6, -16
	pushq	%rbx
	.seh_pushreg	%rbx
	.cfi_def_cfa_offset 24
	.cfi_offset 3, -24
	subq	$40, %rsp
	.seh_stackalloc	40
	.cfi_def_cfa_offset 64
	leaq	128(%rsp), %rbp
	.seh_setframe	%rbp, 128
	.cfi_def_cfa 6, -64
	.seh_endprologue
	movq	%rcx, -64(%rbp)
	movq	%rdx, -56(%rbp)
	.loc 16 884 27
	movq	-64(%rbp), %rcx
	call	_ZNK9__gnu_cxx17__normal_iteratorIPK12ElementosVooSt6vectorIS1_SaIS1_EEE4baseEv
	movq	(%rax), %rbx
	movq	-56(%rbp), %rax
	movq	%rax, %rcx
	call	_ZNK9__gnu_cxx17__normal_iteratorIPK12ElementosVooSt6vectorIS1_SaIS1_EEE4baseEv
	movq	(%rax), %rax
	.loc 16 884 41
	cmpq	%rax, %rbx
	setne	%al
	.loc 16 884 44
	addq	$40, %rsp
	popq	%rbx
	.cfi_restore 3
	popq	%rbp
	.cfi_restore 6
	.cfi_def_cfa 7, -24
	ret
	.cfi_endproc
.LFE3195:
	.seh_endproc
	.section	.text$_ZN9__gnu_cxx17__normal_iteratorIPK12ElementosVooSt6vectorIS1_SaIS1_EEEppEv,"x"
	.linkonce discard
	.align 2
	.globl	_ZN9__gnu_cxx17__normal_iteratorIPK12ElementosVooSt6vectorIS1_SaIS1_EEEppEv
	.def	_ZN9__gnu_cxx17__normal_iteratorIPK12ElementosVooSt6vectorIS1_SaIS1_EEEppEv;	.scl	2;	.type	32;	.endef
	.seh_proc	_ZN9__gnu_cxx17__normal_iteratorIPK12ElementosVooSt6vectorIS1_SaIS1_EEEppEv
_ZN9__gnu_cxx17__normal_iteratorIPK12ElementosVooSt6vectorIS1_SaIS1_EEEppEv:
.LFB3196:
	.loc 16 801 7
	.cfi_startproc
	pushq	%rbp
	.seh_pushreg	%rbp
	.cfi_def_cfa_offset 16
	.cfi_offset 6, -16
	movq	%rsp, %rbp
	.seh_setframe	%rbp, 0
	.cfi_def_cfa_register 6
	.seh_endprologue
	movq	%rcx, 16(%rbp)
	.loc 16 803 4
	movq	16(%rbp), %rax
	movq	(%rax), %rax
	.loc 16 803 2
	leaq	96(%rax), %rdx
	movq	16(%rbp), %rax
	movq	%rdx, (%rax)
	.loc 16 804 10
	movq	16(%rbp), %rax
	.loc 16 805 7
	popq	%rbp
	.cfi_restore 6
	.cfi_def_cfa 7, 8
	ret
	.cfi_endproc
.LFE3196:
	.seh_endproc
	.section	.text$_ZNK9__gnu_cxx17__normal_iteratorIPK12ElementosVooSt6vectorIS1_SaIS1_EEEdeEv,"x"
	.linkonce discard
	.align 2
	.globl	_ZNK9__gnu_cxx17__normal_iteratorIPK12ElementosVooSt6vectorIS1_SaIS1_EEEdeEv
	.def	_ZNK9__gnu_cxx17__normal_iteratorIPK12ElementosVooSt6vectorIS1_SaIS1_EEEdeEv;	.scl	2;	.type	32;	.endef
	.seh_proc	_ZNK9__gnu_cxx17__normal_iteratorIPK12ElementosVooSt6vectorIS1_SaIS1_EEEdeEv
_ZNK9__gnu_cxx17__normal_iteratorIPK12ElementosVooSt6vectorIS1_SaIS1_EEEdeEv:
.LFB3197:
	.loc 16 793 7
	.cfi_startproc
	pushq	%rbp
	.seh_pushreg	%rbp
	.cfi_def_cfa_offset 16
	.cfi_offset 6, -16
	movq	%rsp, %rbp
	.seh_setframe	%rbp, 0
	.cfi_def_cfa_register 6
	.seh_endprologue
	movq	%rcx, 16(%rbp)
	.loc 16 794 17
	movq	16(%rbp), %rax
	movq	(%rax), %rax
	.loc 16 794 29
	popq	%rbp
	.cfi_restore 6
	.cfi_def_cfa 7, 8
	ret
	.cfi_endproc
.LFE3197:
	.seh_endproc
	.section	.text$_ZSt10_ConstructI12ElementosVooJRKS0_EEvPT_DpOT0_,"x"
	.linkonce discard
	.globl	_ZSt10_ConstructI12ElementosVooJRKS0_EEvPT_DpOT0_
	.def	_ZSt10_ConstructI12ElementosVooJRKS0_EEvPT_DpOT0_;	.scl	2;	.type	32;	.endef
	.seh_proc	_ZSt10_ConstructI12ElementosVooJRKS0_EEvPT_DpOT0_
_ZSt10_ConstructI12ElementosVooJRKS0_EEvPT_DpOT0_:
.LFB3198:
	.loc 8 74 5
	.cfi_startproc
	pushq	%rbp
	.seh_pushreg	%rbp
	.cfi_def_cfa_offset 16
	.cfi_offset 6, -16
	pushq	%rbx
	.seh_pushreg	%rbx
	.cfi_def_cfa_offset 24
	.cfi_offset 3, -24
	subq	$40, %rsp
	.seh_stackalloc	40
	.cfi_def_cfa_offset 64
	leaq	128(%rsp), %rbp
	.seh_setframe	%rbp, 128
	.cfi_def_cfa 6, -64
	.seh_endprologue
	movq	%rcx, -64(%rbp)
	movq	%rdx, -56(%rbp)
	.loc 8 75 61
	movq	-56(%rbp), %rax
	movq	%rax, %rcx
	call	_ZSt7forwardIRK12ElementosVooEOT_RNSt16remove_referenceIS3_E4typeE
	movq	%rax, %rbx
	.loc 8 75 7
	movq	-64(%rbp), %rax
	movq	%rax, %rdx
	movl	$96, %ecx
	call	_ZnwyPv
	movq	%rbx, %rdx
	movq	%rax, %rcx
	call	_ZN12ElementosVooC1ERKS_
	.loc 8 75 75
	nop
	addq	$40, %rsp
	popq	%rbx
	.cfi_restore 3
	popq	%rbp
	.cfi_restore 6
	.cfi_def_cfa 7, -24
	ret
	.cfi_endproc
.LFE3198:
	.seh_endproc
	.section	.text$_ZNK9__gnu_cxx13new_allocatorI12ElementosVooE8max_sizeEv,"x"
	.linkonce discard
	.align 2
	.globl	_ZNK9__gnu_cxx13new_allocatorI12ElementosVooE8max_sizeEv
	.def	_ZNK9__gnu_cxx13new_allocatorI12ElementosVooE8max_sizeEv;	.scl	2;	.type	32;	.endef
	.seh_proc	_ZNK9__gnu_cxx13new_allocatorI12ElementosVooE8max_sizeEv
_ZNK9__gnu_cxx13new_allocatorI12ElementosVooE8max_sizeEv:
.LFB3212:
	.loc 15 129 7
	.cfi_startproc
	pushq	%rbp
	.seh_pushreg	%rbp
	.cfi_def_cfa_offset 16
	.cfi_offset 6, -16
	movq	%rsp, %rbp
	.seh_setframe	%rbp, 0
	.cfi_def_cfa_register 6
	.seh_endprologue
	movq	%rcx, 16(%rbp)
	.loc 15 130 39
	movabsq	$192153584101141162, %rax
	.loc 15 130 42
	popq	%rbp
	.cfi_restore 6
	.cfi_def_cfa 7, 8
	ret
	.cfi_endproc
.LFE3212:
	.seh_endproc
	.section	.text$_ZNSt20__uninitialized_copyILb0EE13__uninit_copyISt13move_iteratorIP12ElementosVooES4_EET0_T_S7_S6_,"x"
	.linkonce discard
	.globl	_ZNSt20__uninitialized_copyILb0EE13__uninit_copyISt13move_iteratorIP12ElementosVooES4_EET0_T_S7_S6_
	.def	_ZNSt20__uninitialized_copyILb0EE13__uninit_copyISt13move_iteratorIP12ElementosVooES4_EET0_T_S7_S6_;	.scl	2;	.type	32;	.endef
	.seh_proc	_ZNSt20__uninitialized_copyILb0EE13__uninit_copyISt13move_iteratorIP12ElementosVooES4_EET0_T_S7_S6_
_ZNSt20__uninitialized_copyILb0EE13__uninit_copyISt13move_iteratorIP12ElementosVooES4_EET0_T_S7_S6_:
.LFB3213:
	.loc 14 76 9
	.cfi_startproc
	pushq	%rbp
	.seh_pushreg	%rbp
	.cfi_def_cfa_offset 16
	.cfi_offset 6, -16
	pushq	%rbx
	.seh_pushreg	%rbx
	.cfi_def_cfa_offset 24
	.cfi_offset 3, -24
	subq	$56, %rsp
	.seh_stackalloc	56
	.cfi_def_cfa_offset 80
	leaq	128(%rsp), %rbp
	.seh_setframe	%rbp, 128
	.cfi_def_cfa 6, -48
	.seh_endprologue
	movq	%rcx, -48(%rbp)
	movq	%rdx, -40(%rbp)
	movq	%r8, -32(%rbp)
	.loc 14 79 21
	movq	-32(%rbp), %rax
	movq	%rax, -88(%rbp)
.L185:
	.loc 14 82 23 discriminator 3
	leaq	-40(%rbp), %rax
	movq	%rax, %rdx
	leaq	-48(%rbp), %rcx
.LEHB26:
	call	_ZStneIP12ElementosVooEbRKSt13move_iteratorIT_ES6_
.LEHE26:
	testb	%al, %al
	je	.L184
	.loc 14 83 45 discriminator 2
	leaq	-48(%rbp), %rcx
	call	_ZNKSt13move_iteratorIP12ElementosVooEdeEv
	movq	%rax, %rbx
	.loc 14 83 18 discriminator 2
	movq	-88(%rbp), %rax
	movq	%rax, %rcx
	call	_ZSt11__addressofI12ElementosVooEPT_RS1_
	movq	%rbx, %rdx
	movq	%rax, %rcx
	call	_ZSt10_ConstructI12ElementosVooJS0_EEvPT_DpOT0_
	.loc 14 82 34 discriminator 2
	leaq	-48(%rbp), %rcx
	call	_ZNSt13move_iteratorIP12ElementosVooEppEv
	.loc 14 82 8 discriminator 2
	addq	$96, -88(%rbp)
	jmp	.L185
.L184:
	.loc 14 84 15
	movq	-88(%rbp), %rax
	jmp	.L191
.L189:
	.loc 14 86 4
	movq	%rax, %rcx
	call	__cxa_begin_catch
	.loc 14 88 21
	movq	-88(%rbp), %rdx
	movq	-32(%rbp), %rax
	movq	%rax, %rcx
.LEHB27:
	call	_ZSt8_DestroyIP12ElementosVooEvT_S2_
	.loc 14 89 8
	call	__cxa_rethrow
.LEHE27:
.L190:
	movq	%rax, %rbx
	.loc 14 86 4
	call	__cxa_end_catch
	movq	%rbx, %rax
	movq	%rax, %rcx
.LEHB28:
	call	_Unwind_Resume
.LEHE28:
.L191:
	.loc 14 91 2
	addq	$56, %rsp
	popq	%rbx
	.cfi_restore 3
	popq	%rbp
	.cfi_restore 6
	.cfi_def_cfa 7, -40
	ret
	.cfi_endproc
.LFE3213:
	.seh_handler	__gxx_personality_seh0, @unwind, @except
	.seh_handlerdata
	.align 4
.LLSDA3213:
	.byte	0xff
	.byte	0x9b
	.uleb128 .LLSDATT3213-.LLSDATTD3213
.LLSDATTD3213:
	.byte	0x1
	.uleb128 .LLSDACSE3213-.LLSDACSB3213
.LLSDACSB3213:
	.uleb128 .LEHB26-.LFB3213
	.uleb128 .LEHE26-.LEHB26
	.uleb128 .L189-.LFB3213
	.uleb128 0x1
	.uleb128 .LEHB27-.LFB3213
	.uleb128 .LEHE27-.LEHB27
	.uleb128 .L190-.LFB3213
	.uleb128 0
	.uleb128 .LEHB28-.LFB3213
	.uleb128 .LEHE28-.LEHB28
	.uleb128 0
	.uleb128 0
.LLSDACSE3213:
	.byte	0x1
	.byte	0
	.align 4
	.long	0

.LLSDATT3213:
	.section	.text$_ZNSt20__uninitialized_copyILb0EE13__uninit_copyISt13move_iteratorIP12ElementosVooES4_EET0_T_S7_S6_,"x"
	.linkonce discard
	.seh_endproc
	.section	.text$_ZNK9__gnu_cxx17__normal_iteratorIPK12ElementosVooSt6vectorIS1_SaIS1_EEE4baseEv,"x"
	.linkonce discard
	.align 2
	.globl	_ZNK9__gnu_cxx17__normal_iteratorIPK12ElementosVooSt6vectorIS1_SaIS1_EEE4baseEv
	.def	_ZNK9__gnu_cxx17__normal_iteratorIPK12ElementosVooSt6vectorIS1_SaIS1_EEE4baseEv;	.scl	2;	.type	32;	.endef
	.seh_proc	_ZNK9__gnu_cxx17__normal_iteratorIPK12ElementosVooSt6vectorIS1_SaIS1_EEE4baseEv
_ZNK9__gnu_cxx17__normal_iteratorIPK12ElementosVooSt6vectorIS1_SaIS1_EEE4baseEv:
.LFB3214:
	.loc 16 845 7
	.cfi_startproc
	pushq	%rbp
	.seh_pushreg	%rbp
	.cfi_def_cfa_offset 16
	.cfi_offset 6, -16
	movq	%rsp, %rbp
	.seh_setframe	%rbp, 0
	.cfi_def_cfa_register 6
	.seh_endprologue
	movq	%rcx, 16(%rbp)
	.loc 16 846 16
	movq	16(%rbp), %rax
	.loc 16 846 28
	popq	%rbp
	.cfi_restore 6
	.cfi_def_cfa 7, 8
	ret
	.cfi_endproc
.LFE3214:
	.seh_endproc
	.section	.text$_ZStneIP12ElementosVooEbRKSt13move_iteratorIT_ES6_,"x"
	.linkonce discard
	.globl	_ZStneIP12ElementosVooEbRKSt13move_iteratorIT_ES6_
	.def	_ZStneIP12ElementosVooEbRKSt13move_iteratorIT_ES6_;	.scl	2;	.type	32;	.endef
	.seh_proc	_ZStneIP12ElementosVooEbRKSt13move_iteratorIT_ES6_
_ZStneIP12ElementosVooEbRKSt13move_iteratorIT_ES6_:
.LFB3222:
	.loc 16 1130 5
	.cfi_startproc
	pushq	%rbp
	.seh_pushreg	%rbp
	.cfi_def_cfa_offset 16
	.cfi_offset 6, -16
	movq	%rsp, %rbp
	.seh_setframe	%rbp, 0
	.cfi_def_cfa_register 6
	subq	$32, %rsp
	.seh_stackalloc	32
	.seh_endprologue
	movq	%rcx, 16(%rbp)
	movq	%rdx, 24(%rbp)
	.loc 16 1132 20
	movq	24(%rbp), %rax
	movq	%rax, %rdx
	movq	16(%rbp), %rcx
	call	_ZSteqIP12ElementosVooEbRKSt13move_iteratorIT_ES6_
	.loc 16 1132 26
	xorl	$1, %eax
	.loc 16 1132 29
	addq	$32, %rsp
	popq	%rbp
	.cfi_restore 6
	.cfi_def_cfa 7, 8
	ret
	.cfi_endproc
.LFE3222:
	.seh_endproc
	.section	.text$_ZNSt13move_iteratorIP12ElementosVooEppEv,"x"
	.linkonce discard
	.align 2
	.globl	_ZNSt13move_iteratorIP12ElementosVooEppEv
	.def	_ZNSt13move_iteratorIP12ElementosVooEppEv;	.scl	2;	.type	32;	.endef
	.seh_proc	_ZNSt13move_iteratorIP12ElementosVooEppEv
_ZNSt13move_iteratorIP12ElementosVooEppEv:
.LFB3223:
	.loc 16 1051 7
	.cfi_startproc
	pushq	%rbp
	.seh_pushreg	%rbp
	.cfi_def_cfa_offset 16
	.cfi_offset 6, -16
	movq	%rsp, %rbp
	.seh_setframe	%rbp, 0
	.cfi_def_cfa_register 6
	.seh_endprologue
	movq	%rcx, 16(%rbp)
	.loc 16 1053 4
	movq	16(%rbp), %rax
	movq	(%rax), %rax
	.loc 16 1053 2
	leaq	96(%rax), %rdx
	movq	16(%rbp), %rax
	movq	%rdx, (%rax)
	.loc 16 1054 10
	movq	16(%rbp), %rax
	.loc 16 1055 7
	popq	%rbp
	.cfi_restore 6
	.cfi_def_cfa 7, 8
	ret
	.cfi_endproc
.LFE3223:
	.seh_endproc
	.section	.text$_ZNKSt13move_iteratorIP12ElementosVooEdeEv,"x"
	.linkonce discard
	.align 2
	.globl	_ZNKSt13move_iteratorIP12ElementosVooEdeEv
	.def	_ZNKSt13move_iteratorIP12ElementosVooEdeEv;	.scl	2;	.type	32;	.endef
	.seh_proc	_ZNKSt13move_iteratorIP12ElementosVooEdeEv
_ZNKSt13move_iteratorIP12ElementosVooEdeEv:
.LFB3224:
	.loc 16 1043 7
	.cfi_startproc
	pushq	%rbp
	.seh_pushreg	%rbp
	.cfi_def_cfa_offset 16
	.cfi_offset 6, -16
	movq	%rsp, %rbp
	.seh_setframe	%rbp, 0
	.cfi_def_cfa_register 6
	.seh_endprologue
	movq	%rcx, 16(%rbp)
	.loc 16 1044 50
	movq	16(%rbp), %rax
	movq	(%rax), %rax
	.loc 16 1044 53
	popq	%rbp
	.cfi_restore 6
	.cfi_def_cfa 7, 8
	ret
	.cfi_endproc
.LFE3224:
	.seh_endproc
	.section	.text$_ZSt7forwardI12ElementosVooEOT_RNSt16remove_referenceIS1_E4typeE,"x"
	.linkonce discard
	.globl	_ZSt7forwardI12ElementosVooEOT_RNSt16remove_referenceIS1_E4typeE
	.def	_ZSt7forwardI12ElementosVooEOT_RNSt16remove_referenceIS1_E4typeE;	.scl	2;	.type	32;	.endef
	.seh_proc	_ZSt7forwardI12ElementosVooEOT_RNSt16remove_referenceIS1_E4typeE
_ZSt7forwardI12ElementosVooEOT_RNSt16remove_referenceIS1_E4typeE:
.LFB3226:
	.loc 9 74 5
	.cfi_startproc
	pushq	%rbp
	.seh_pushreg	%rbp
	.cfi_def_cfa_offset 16
	.cfi_offset 6, -16
	movq	%rsp, %rbp
	.seh_setframe	%rbp, 0
	.cfi_def_cfa_register 6
	.seh_endprologue
	movq	%rcx, 16(%rbp)
	.loc 9 75 36
	movq	16(%rbp), %rax
	.loc 9 75 39
	popq	%rbp
	.cfi_restore 6
	.cfi_def_cfa 7, 8
	ret
	.cfi_endproc
.LFE3226:
	.seh_endproc
	.section	.text$_ZN12ElementosVooC1EOS_,"x"
	.linkonce discard
	.align 2
	.globl	_ZN12ElementosVooC1EOS_
	.def	_ZN12ElementosVooC1EOS_;	.scl	2;	.type	32;	.endef
	.seh_proc	_ZN12ElementosVooC1EOS_
_ZN12ElementosVooC1EOS_:
.LFB3229:
	.loc 3 7 7
	.cfi_startproc
	pushq	%rbp
	.seh_pushreg	%rbp
	.cfi_def_cfa_offset 16
	.cfi_offset 6, -16
	movq	%rsp, %rbp
	.seh_setframe	%rbp, 0
	.cfi_def_cfa_register 6
	subq	$32, %rsp
	.seh_stackalloc	32
	.seh_endprologue
	movq	%rcx, 16(%rbp)
	movq	%rdx, 24(%rbp)
.LBB33:
	.loc 3 7 7
	movq	16(%rbp), %rax
	movq	24(%rbp), %rdx
	movq	%rax, %rcx
	call	_ZN10BaseObjectC2ERKS_
	leaq	16+_ZTV12ElementosVoo(%rip), %rdx
	movq	16(%rbp), %rax
	movq	%rdx, (%rax)
	movq	24(%rbp), %rax
	movsd	8(%rax), %xmm0
	movq	16(%rbp), %rax
	movsd	%xmm0, 8(%rax)
	movq	24(%rbp), %rax
	movsd	16(%rax), %xmm0
	movq	16(%rbp), %rax
	movsd	%xmm0, 16(%rax)
	movq	24(%rbp), %rax
	movsd	24(%rax), %xmm0
	movq	16(%rbp), %rax
	movsd	%xmm0, 24(%rax)
	movq	24(%rbp), %rax
	movsd	32(%rax), %xmm0
	movq	16(%rbp), %rax
	movsd	%xmm0, 32(%rax)
	movq	24(%rbp), %rax
	movsd	40(%rax), %xmm0
	movq	16(%rbp), %rax
	movsd	%xmm0, 40(%rax)
	movq	24(%rbp), %rax
	movsd	48(%rax), %xmm0
	movq	16(%rbp), %rax
	movsd	%xmm0, 48(%rax)
	movq	24(%rbp), %rax
	movsd	56(%rax), %xmm0
	movq	16(%rbp), %rax
	movsd	%xmm0, 56(%rax)
	movq	24(%rbp), %rax
	movsd	64(%rax), %xmm0
	movq	16(%rbp), %rax
	movsd	%xmm0, 64(%rax)
	movq	24(%rbp), %rax
	movsd	72(%rax), %xmm0
	movq	16(%rbp), %rax
	movsd	%xmm0, 72(%rax)
	movq	24(%rbp), %rax
	movsd	80(%rax), %xmm0
	movq	16(%rbp), %rax
	movsd	%xmm0, 80(%rax)
	movq	24(%rbp), %rax
	movsd	88(%rax), %xmm0
	movq	16(%rbp), %rax
	movsd	%xmm0, 88(%rax)
.LBE33:
	nop
	addq	$32, %rsp
	popq	%rbp
	.cfi_restore 6
	.cfi_def_cfa 7, 8
	ret
	.cfi_endproc
.LFE3229:
	.seh_endproc
	.section	.text$_ZSt10_ConstructI12ElementosVooJS0_EEvPT_DpOT0_,"x"
	.linkonce discard
	.globl	_ZSt10_ConstructI12ElementosVooJS0_EEvPT_DpOT0_
	.def	_ZSt10_ConstructI12ElementosVooJS0_EEvPT_DpOT0_;	.scl	2;	.type	32;	.endef
	.seh_proc	_ZSt10_ConstructI12ElementosVooJS0_EEvPT_DpOT0_
_ZSt10_ConstructI12ElementosVooJS0_EEvPT_DpOT0_:
.LFB3225:
	.loc 8 74 5
	.cfi_startproc
	pushq	%rbp
	.seh_pushreg	%rbp
	.cfi_def_cfa_offset 16
	.cfi_offset 6, -16
	pushq	%rbx
	.seh_pushreg	%rbx
	.cfi_def_cfa_offset 24
	.cfi_offset 3, -24
	subq	$40, %rsp
	.seh_stackalloc	40
	.cfi_def_cfa_offset 64
	leaq	128(%rsp), %rbp
	.seh_setframe	%rbp, 128
	.cfi_def_cfa 6, -64
	.seh_endprologue
	movq	%rcx, -64(%rbp)
	movq	%rdx, -56(%rbp)
	.loc 8 75 61
	movq	-56(%rbp), %rax
	movq	%rax, %rcx
	call	_ZSt7forwardI12ElementosVooEOT_RNSt16remove_referenceIS1_E4typeE
	movq	%rax, %rbx
	.loc 8 75 7
	movq	-64(%rbp), %rax
	movq	%rax, %rdx
	movl	$96, %ecx
	call	_ZnwyPv
	movq	%rbx, %rdx
	movq	%rax, %rcx
	call	_ZN12ElementosVooC1EOS_
	.loc 8 75 75
	nop
	addq	$40, %rsp
	popq	%rbx
	.cfi_restore 3
	popq	%rbp
	.cfi_restore 6
	.cfi_def_cfa 7, -24
	ret
	.cfi_endproc
.LFE3225:
	.seh_endproc
	.section	.text$_ZSteqIP12ElementosVooEbRKSt13move_iteratorIT_ES6_,"x"
	.linkonce discard
	.globl	_ZSteqIP12ElementosVooEbRKSt13move_iteratorIT_ES6_
	.def	_ZSteqIP12ElementosVooEbRKSt13move_iteratorIT_ES6_;	.scl	2;	.type	32;	.endef
	.seh_proc	_ZSteqIP12ElementosVooEbRKSt13move_iteratorIT_ES6_
_ZSteqIP12ElementosVooEbRKSt13move_iteratorIT_ES6_:
.LFB3232:
	.loc 16 1118 5
	.cfi_startproc
	pushq	%rbp
	.seh_pushreg	%rbp
	.cfi_def_cfa_offset 16
	.cfi_offset 6, -16
	pushq	%rbx
	.seh_pushreg	%rbx
	.cfi_def_cfa_offset 24
	.cfi_offset 3, -24
	subq	$40, %rsp
	.seh_stackalloc	40
	.cfi_def_cfa_offset 64
	leaq	128(%rsp), %rbp
	.seh_setframe	%rbp, 128
	.cfi_def_cfa 6, -64
	.seh_endprologue
	movq	%rcx, -64(%rbp)
	movq	%rdx, -56(%rbp)
	.loc 16 1120 25
	movq	-64(%rbp), %rcx
	call	_ZNKSt13move_iteratorIP12ElementosVooE4baseEv
	movq	%rax, %rbx
	movq	-56(%rbp), %rax
	movq	%rax, %rcx
	call	_ZNKSt13move_iteratorIP12ElementosVooE4baseEv
	.loc 16 1120 37
	cmpq	%rax, %rbx
	sete	%al
	.loc 16 1120 40
	addq	$40, %rsp
	popq	%rbx
	.cfi_restore 3
	popq	%rbp
	.cfi_restore 6
	.cfi_def_cfa 7, -24
	ret
	.cfi_endproc
.LFE3232:
	.seh_endproc
	.section	.text$_ZNKSt13move_iteratorIP12ElementosVooE4baseEv,"x"
	.linkonce discard
	.align 2
	.globl	_ZNKSt13move_iteratorIP12ElementosVooE4baseEv
	.def	_ZNKSt13move_iteratorIP12ElementosVooE4baseEv;	.scl	2;	.type	32;	.endef
	.seh_proc	_ZNKSt13move_iteratorIP12ElementosVooE4baseEv
_ZNKSt13move_iteratorIP12ElementosVooE4baseEv:
.LFB3233:
	.loc 16 1039 7
	.cfi_startproc
	pushq	%rbp
	.seh_pushreg	%rbp
	.cfi_def_cfa_offset 16
	.cfi_offset 6, -16
	movq	%rsp, %rbp
	.seh_setframe	%rbp, 0
	.cfi_def_cfa_register 6
	.seh_endprologue
	movq	%rcx, 16(%rbp)
	.loc 16 1040 16
	movq	16(%rbp), %rax
	movq	(%rax), %rax
	.loc 16 1040 28
	popq	%rbp
	.cfi_restore 6
	.cfi_def_cfa 7, 8
	ret
	.cfi_endproc
.LFE3233:
	.seh_endproc
	.globl	_ZTV20CalculadorPontoMassa
	.section	.rdata$_ZTV20CalculadorPontoMassa,"dr"
	.linkonce same_size
	.align 8
_ZTV20CalculadorPontoMassa:
	.quad	0
	.quad	_ZTI20CalculadorPontoMassa
	.quad	_ZN20CalculadorPontoMassa13solucaoDiretaEddddb4RAMO
	.quad	_ZN21CalculadorAtmosferico14solucaoReversaEddd15TIPO_TRAJETORIAddd4RAMO
	.globl	_ZTV15CoeficienteDrag
	.section	.rdata$_ZTV15CoeficienteDrag,"dr"
	.linkonce same_size
	.align 8
_ZTV15CoeficienteDrag:
	.quad	0
	.quad	_ZTI15CoeficienteDrag
	.quad	_ZN15CoeficienteDragD1Ev
	.quad	_ZN15CoeficienteDragD0Ev
	.globl	_ZTV8Projetil
	.section	.rdata$_ZTV8Projetil,"dr"
	.linkonce same_size
	.align 8
_ZTV8Projetil:
	.quad	0
	.quad	_ZTI8Projetil
	.quad	_ZN8ProjetilD1Ev
	.quad	_ZN8ProjetilD0Ev
	.section	.text$_ZN8ProjetilD1Ev,"x"
	.linkonce discard
	.align 2
	.globl	_ZN8ProjetilD1Ev
	.def	_ZN8ProjetilD1Ev;	.scl	2;	.type	32;	.endef
	.seh_proc	_ZN8ProjetilD1Ev
_ZN8ProjetilD1Ev:
.LFB3244:
	.loc 4 8 7
	.cfi_startproc
	pushq	%rbp
	.seh_pushreg	%rbp
	.cfi_def_cfa_offset 16
	.cfi_offset 6, -16
	movq	%rsp, %rbp
	.seh_setframe	%rbp, 0
	.cfi_def_cfa_register 6
	subq	$32, %rsp
	.seh_stackalloc	32
	.seh_endprologue
	movq	%rcx, 16(%rbp)
.LBB34:
	.loc 4 8 7
	leaq	16+_ZTV8Projetil(%rip), %rdx
	movq	16(%rbp), %rax
	movq	%rdx, (%rax)
	movq	16(%rbp), %rax
	addq	$48, %rax
	movq	%rax, %rcx
	call	_ZNSt7__cxx1112basic_stringIcSt11char_traitsIcESaIcEED1Ev
	movq	16(%rbp), %rax
	addq	$16, %rax
	movq	%rax, %rcx
	call	_ZNSt7__cxx1112basic_stringIcSt11char_traitsIcESaIcEED1Ev
	movq	16(%rbp), %rax
	movq	%rax, %rcx
	call	_ZN10BaseObjectD2Ev
.LBE34:
	nop
	addq	$32, %rsp
	popq	%rbp
	.cfi_restore 6
	.cfi_def_cfa 7, 8
	ret
	.cfi_endproc
.LFE3244:
	.seh_endproc
	.section	.text$_ZN8ProjetilD0Ev,"x"
	.linkonce discard
	.align 2
	.globl	_ZN8ProjetilD0Ev
	.def	_ZN8ProjetilD0Ev;	.scl	2;	.type	32;	.endef
	.seh_proc	_ZN8ProjetilD0Ev
_ZN8ProjetilD0Ev:
.LFB3245:
	.loc 4 8 7
	.cfi_startproc
	pushq	%rbp
	.seh_pushreg	%rbp
	.cfi_def_cfa_offset 16
	.cfi_offset 6, -16
	movq	%rsp, %rbp
	.seh_setframe	%rbp, 0
	.cfi_def_cfa_register 6
	subq	$32, %rsp
	.seh_stackalloc	32
	.seh_endprologue
	movq	%rcx, 16(%rbp)
	.loc 4 8 7
	movq	16(%rbp), %rcx
	call	_ZN8ProjetilD1Ev
	movq	16(%rbp), %rcx
	call	_ZdlPv
	nop
	addq	$32, %rsp
	popq	%rbp
	.cfi_restore 6
	.cfi_def_cfa 7, 8
	ret
	.cfi_endproc
.LFE3245:
	.seh_endproc
	.globl	_ZTV12ElementosVoo
	.section	.rdata$_ZTV12ElementosVoo,"dr"
	.linkonce same_size
	.align 8
_ZTV12ElementosVoo:
	.quad	0
	.quad	_ZTI12ElementosVoo
	.quad	_ZN12ElementosVooD1Ev
	.quad	_ZN12ElementosVooD0Ev
	.section	.text$_ZN12ElementosVooD1Ev,"x"
	.linkonce discard
	.align 2
	.globl	_ZN12ElementosVooD1Ev
	.def	_ZN12ElementosVooD1Ev;	.scl	2;	.type	32;	.endef
	.seh_proc	_ZN12ElementosVooD1Ev
_ZN12ElementosVooD1Ev:
.LFB3248:
	.loc 3 7 7
	.cfi_startproc
	pushq	%rbp
	.seh_pushreg	%rbp
	.cfi_def_cfa_offset 16
	.cfi_offset 6, -16
	movq	%rsp, %rbp
	.seh_setframe	%rbp, 0
	.cfi_def_cfa_register 6
	subq	$32, %rsp
	.seh_stackalloc	32
	.seh_endprologue
	movq	%rcx, 16(%rbp)
.LBB35:
	.loc 3 7 7
	leaq	16+_ZTV12ElementosVoo(%rip), %rdx
	movq	16(%rbp), %rax
	movq	%rdx, (%rax)
	movq	16(%rbp), %rax
	movq	%rax, %rcx
	call	_ZN10BaseObjectD2Ev
.LBE35:
	nop
	addq	$32, %rsp
	popq	%rbp
	.cfi_restore 6
	.cfi_def_cfa 7, 8
	ret
	.cfi_endproc
.LFE3248:
	.seh_endproc
	.section	.text$_ZN12ElementosVooD0Ev,"x"
	.linkonce discard
	.align 2
	.globl	_ZN12ElementosVooD0Ev
	.def	_ZN12ElementosVooD0Ev;	.scl	2;	.type	32;	.endef
	.seh_proc	_ZN12ElementosVooD0Ev
_ZN12ElementosVooD0Ev:
.LFB3249:
	.loc 3 7 7
	.cfi_startproc
	pushq	%rbp
	.seh_pushreg	%rbp
	.cfi_def_cfa_offset 16
	.cfi_offset 6, -16
	movq	%rsp, %rbp
	.seh_setframe	%rbp, 0
	.cfi_def_cfa_register 6
	subq	$32, %rsp
	.seh_stackalloc	32
	.seh_endprologue
	movq	%rcx, 16(%rbp)
	.loc 3 7 7
	movq	16(%rbp), %rcx
	call	_ZN12ElementosVooD1Ev
	movq	16(%rbp), %rcx
	call	_ZdlPv
	nop
	addq	$32, %rsp
	popq	%rbp
	.cfi_restore 6
	.cfi_def_cfa 7, 8
	ret
	.cfi_endproc
.LFE3249:
	.seh_endproc
	.globl	_ZTV10BaseObject
	.section	.rdata$_ZTV10BaseObject,"dr"
	.linkonce same_size
	.align 8
_ZTV10BaseObject:
	.quad	0
	.quad	_ZTI10BaseObject
	.quad	_ZN10BaseObjectD1Ev
	.quad	_ZN10BaseObjectD0Ev
	.globl	_ZTI20CalculadorPontoMassa
	.section	.rdata$_ZTI20CalculadorPontoMassa,"dr"
	.linkonce same_size
	.align 8
_ZTI20CalculadorPontoMassa:
	.quad	_ZTVN10__cxxabiv120__si_class_type_infoE+16
	.quad	_ZTS20CalculadorPontoMassa
	.quad	_ZTI21CalculadorAtmosferico
	.globl	_ZTS20CalculadorPontoMassa
	.section	.rdata$_ZTS20CalculadorPontoMassa,"dr"
	.linkonce same_size
	.align 16
_ZTS20CalculadorPontoMassa:
	.ascii "20CalculadorPontoMassa\0"
	.globl	_ZTI15CoeficienteDrag
	.section	.rdata$_ZTI15CoeficienteDrag,"dr"
	.linkonce same_size
	.align 8
_ZTI15CoeficienteDrag:
	.quad	_ZTVN10__cxxabiv120__si_class_type_infoE+16
	.quad	_ZTS15CoeficienteDrag
	.quad	_ZTI23CoeficienteAerodinamico
	.globl	_ZTI23CoeficienteAerodinamico
	.section	.rdata$_ZTI23CoeficienteAerodinamico,"dr"
	.linkonce same_size
	.align 8
_ZTI23CoeficienteAerodinamico:
	.quad	_ZTVN10__cxxabiv120__si_class_type_infoE+16
	.quad	_ZTS23CoeficienteAerodinamico
	.quad	_ZTI10BaseObject
	.globl	_ZTI21CalculadorAtmosferico
	.section	.rdata$_ZTI21CalculadorAtmosferico,"dr"
	.linkonce same_size
	.align 8
_ZTI21CalculadorAtmosferico:
	.quad	_ZTVN10__cxxabiv120__si_class_type_infoE+16
	.quad	_ZTS21CalculadorAtmosferico
	.quad	_ZTI10Calculador
	.globl	_ZTS21CalculadorAtmosferico
	.section	.rdata$_ZTS21CalculadorAtmosferico,"dr"
	.linkonce same_size
	.align 16
_ZTS21CalculadorAtmosferico:
	.ascii "21CalculadorAtmosferico\0"
	.globl	_ZTI8Projetil
	.section	.rdata$_ZTI8Projetil,"dr"
	.linkonce same_size
	.align 8
_ZTI8Projetil:
	.quad	_ZTVN10__cxxabiv120__si_class_type_infoE+16
	.quad	_ZTS8Projetil
	.quad	_ZTI10BaseObject
	.globl	_ZTS8Projetil
	.section	.rdata$_ZTS8Projetil,"dr"
	.linkonce same_size
	.align 8
_ZTS8Projetil:
	.ascii "8Projetil\0"
	.globl	_ZTI10Calculador
	.section	.rdata$_ZTI10Calculador,"dr"
	.linkonce same_size
	.align 8
_ZTI10Calculador:
	.quad	_ZTVN10__cxxabiv117__class_type_infoE+16
	.quad	_ZTS10Calculador
	.globl	_ZTS10Calculador
	.section	.rdata$_ZTS10Calculador,"dr"
	.linkonce same_size
	.align 8
_ZTS10Calculador:
	.ascii "10Calculador\0"
	.globl	_ZTI12ElementosVoo
	.section	.rdata$_ZTI12ElementosVoo,"dr"
	.linkonce same_size
	.align 8
_ZTI12ElementosVoo:
	.quad	_ZTVN10__cxxabiv120__si_class_type_infoE+16
	.quad	_ZTS12ElementosVoo
	.quad	_ZTI10BaseObject
	.globl	_ZTS12ElementosVoo
	.section	.rdata$_ZTS12ElementosVoo,"dr"
	.linkonce same_size
	.align 8
_ZTS12ElementosVoo:
	.ascii "12ElementosVoo\0"
	.globl	_ZTI10BaseObject
	.section	.rdata$_ZTI10BaseObject,"dr"
	.linkonce same_size
	.align 8
_ZTI10BaseObject:
	.quad	_ZTVN10__cxxabiv117__class_type_infoE+16
	.quad	_ZTS10BaseObject
	.globl	_ZTS10BaseObject
	.section	.rdata$_ZTS10BaseObject,"dr"
	.linkonce same_size
	.align 8
_ZTS10BaseObject:
	.ascii "10BaseObject\0"
	.section	.text$_ZN15CoeficienteDragD1Ev,"x"
	.linkonce discard
	.align 2
	.globl	_ZN15CoeficienteDragD1Ev
	.def	_ZN15CoeficienteDragD1Ev;	.scl	2;	.type	32;	.endef
	.seh_proc	_ZN15CoeficienteDragD1Ev
_ZN15CoeficienteDragD1Ev:
.LFB3252:
	.file 18 "C:/PFC 2021/ballisticKernelCpp/CalculadorNumerico/coeficientes/CoeficienteDrag.h"
	.loc 18 7 7
	.cfi_startproc
	pushq	%rbp
	.seh_pushreg	%rbp
	.cfi_def_cfa_offset 16
	.cfi_offset 6, -16
	movq	%rsp, %rbp
	.seh_setframe	%rbp, 0
	.cfi_def_cfa_register 6
	subq	$32, %rsp
	.seh_stackalloc	32
	.seh_endprologue
	movq	%rcx, 16(%rbp)
.LBB36:
	.loc 18 7 7
	leaq	16+_ZTV15CoeficienteDrag(%rip), %rdx
	movq	16(%rbp), %rax
	movq	%rdx, (%rax)
	movq	16(%rbp), %rax
	movq	%rax, %rcx
	call	_ZN23CoeficienteAerodinamicoD2Ev
.LBE36:
	nop
	addq	$32, %rsp
	popq	%rbp
	.cfi_restore 6
	.cfi_def_cfa 7, 8
	ret
	.cfi_endproc
.LFE3252:
	.seh_endproc
	.section	.text$_ZN15CoeficienteDragD0Ev,"x"
	.linkonce discard
	.align 2
	.globl	_ZN15CoeficienteDragD0Ev
	.def	_ZN15CoeficienteDragD0Ev;	.scl	2;	.type	32;	.endef
	.seh_proc	_ZN15CoeficienteDragD0Ev
_ZN15CoeficienteDragD0Ev:
.LFB3253:
	.loc 18 7 7
	.cfi_startproc
	pushq	%rbp
	.seh_pushreg	%rbp
	.cfi_def_cfa_offset 16
	.cfi_offset 6, -16
	movq	%rsp, %rbp
	.seh_setframe	%rbp, 0
	.cfi_def_cfa_register 6
	subq	$32, %rsp
	.seh_stackalloc	32
	.seh_endprologue
	movq	%rcx, 16(%rbp)
	.loc 18 7 7
	movq	16(%rbp), %rcx
	call	_ZN15CoeficienteDragD1Ev
	movq	16(%rbp), %rcx
	call	_ZdlPv
	nop
	addq	$32, %rsp
	popq	%rbp
	.cfi_restore 6
	.cfi_def_cfa 7, 8
	ret
	.cfi_endproc
.LFE3253:
	.seh_endproc
	.globl	_ZTS15CoeficienteDrag
	.section	.rdata$_ZTS15CoeficienteDrag,"dr"
	.linkonce same_size
	.align 16
_ZTS15CoeficienteDrag:
	.ascii "15CoeficienteDrag\0"
	.globl	_ZTS23CoeficienteAerodinamico
	.section	.rdata$_ZTS23CoeficienteAerodinamico,"dr"
	.linkonce same_size
	.align 16
_ZTS23CoeficienteAerodinamico:
	.ascii "23CoeficienteAerodinamico\0"
	.section .rdata,"dr"
	.align 16
.LC1:
	.long	0
	.long	-2147483648
	.long	0
	.long	0
	.align 8
.LC2:
	.long	0
	.long	1071644672
	.align 8
.LC4:
	.long	1413754136
	.long	1074340347
	.align 8
.LC5:
	.long	0
	.long	1084817408
	.align 8
.LC6:
	.long	0
	.long	1075314688
	.align 8
.LC7:
	.long	0
	.long	1073741824
	.align 8
.LC8:
	.long	-2147483648
	.long	1097351111
	.text
.Letext0:
	.file 19 "C:/Program Files/CodeBlocks/MinGW/lib/gcc/x86_64-w64-mingw32/8.1.0/include/c++/bits/basic_string.h"
	.file 20 "C:/Program Files/CodeBlocks/MinGW/lib/gcc/x86_64-w64-mingw32/8.1.0/include/c++/bits/basic_string.tcc"
	.file 21 "C:/Program Files/CodeBlocks/MinGW/lib/gcc/x86_64-w64-mingw32/8.1.0/include/c++/bits/stringfwd.h"
	.file 22 "C:/Program Files/CodeBlocks/MinGW/lib/gcc/x86_64-w64-mingw32/8.1.0/include/c++/bits/stl_list.h"
	.file 23 "C:/Program Files/CodeBlocks/MinGW/lib/gcc/x86_64-w64-mingw32/8.1.0/include/c++/bits/list.tcc"
	.file 24 "C:/Program Files/CodeBlocks/MinGW/lib/gcc/x86_64-w64-mingw32/8.1.0/include/c++/cmath"
	.file 25 "C:/Program Files/CodeBlocks/MinGW/lib/gcc/x86_64-w64-mingw32/8.1.0/include/c++/bits/std_abs.h"
	.file 26 "C:/Program Files/CodeBlocks/MinGW/lib/gcc/x86_64-w64-mingw32/8.1.0/include/c++/type_traits"
	.file 27 "C:/Program Files/CodeBlocks/MinGW/lib/gcc/x86_64-w64-mingw32/8.1.0/include/c++/bits/stl_pair.h"
	.file 28 "C:/Program Files/CodeBlocks/MinGW/lib/gcc/x86_64-w64-mingw32/8.1.0/include/c++/bits/cpp_type_traits.h"
	.file 29 "C:/Program Files/CodeBlocks/MinGW/lib/gcc/x86_64-w64-mingw32/8.1.0/include/c++/bits/stl_iterator_base_types.h"
	.file 30 "C:/Program Files/CodeBlocks/MinGW/lib/gcc/x86_64-w64-mingw32/8.1.0/include/c++/debug/debug.h"
	.file 31 "C:/Program Files/CodeBlocks/MinGW/lib/gcc/x86_64-w64-mingw32/8.1.0/include/c++/cwchar"
	.file 32 "C:/Program Files/CodeBlocks/MinGW/lib/gcc/x86_64-w64-mingw32/8.1.0/include/c++/bits/char_traits.h"
	.file 33 "C:/Program Files/CodeBlocks/MinGW/lib/gcc/x86_64-w64-mingw32/8.1.0/include/c++/x86_64-w64-mingw32/bits/c++config.h"
	.file 34 "C:/Program Files/CodeBlocks/MinGW/lib/gcc/x86_64-w64-mingw32/8.1.0/include/c++/cstdint"
	.file 35 "C:/Program Files/CodeBlocks/MinGW/lib/gcc/x86_64-w64-mingw32/8.1.0/include/c++/bits/exception_ptr.h"
	.file 36 "C:/Program Files/CodeBlocks/MinGW/lib/gcc/x86_64-w64-mingw32/8.1.0/include/c++/clocale"
	.file 37 "C:/Program Files/CodeBlocks/MinGW/lib/gcc/x86_64-w64-mingw32/8.1.0/include/c++/cstdlib"
	.file 38 "C:/Program Files/CodeBlocks/MinGW/lib/gcc/x86_64-w64-mingw32/8.1.0/include/c++/cstdio"
	.file 39 "C:/Program Files/CodeBlocks/MinGW/lib/gcc/x86_64-w64-mingw32/8.1.0/include/c++/initializer_list"
	.file 40 "C:/Program Files/CodeBlocks/MinGW/lib/gcc/x86_64-w64-mingw32/8.1.0/include/c++/system_error"
	.file 41 "C:/Program Files/CodeBlocks/MinGW/lib/gcc/x86_64-w64-mingw32/8.1.0/include/c++/cwctype"
	.file 42 "C:/Program Files/CodeBlocks/MinGW/lib/gcc/x86_64-w64-mingw32/8.1.0/include/c++/bits/uses_allocator.h"
	.file 43 "C:/Program Files/CodeBlocks/MinGW/lib/gcc/x86_64-w64-mingw32/8.1.0/include/c++/tuple"
	.file 44 "C:/Program Files/CodeBlocks/MinGW/lib/gcc/x86_64-w64-mingw32/8.1.0/include/c++/bits/stl_iterator_base_funcs.h"
	.file 45 "C:/Program Files/CodeBlocks/MinGW/lib/gcc/x86_64-w64-mingw32/8.1.0/include/c++/bits/predefined_ops.h"
	.file 46 "C:/Program Files/CodeBlocks/MinGW/lib/gcc/x86_64-w64-mingw32/8.1.0/include/c++/ext/numeric_traits.h"
	.file 47 "C:/Program Files/CodeBlocks/MinGW/lib/gcc/x86_64-w64-mingw32/8.1.0/include/c++/ext/aligned_buffer.h"
	.file 48 "C:/Program Files/CodeBlocks/MinGW/lib/gcc/x86_64-w64-mingw32/8.1.0/include/c++/ext/type_traits.h"
	.file 49 "C:/Program Files/CodeBlocks/MinGW/x86_64-w64-mingw32/include/crtdefs.h"
	.file 50 "C:/Program Files/CodeBlocks/MinGW/x86_64-w64-mingw32/include/locale.h"
	.file 51 "C:/Program Files/CodeBlocks/MinGW/x86_64-w64-mingw32/include/math.h"
	.file 52 "C:/Program Files/CodeBlocks/MinGW/x86_64-w64-mingw32/include/stdlib.h"
	.file 53 "C:/Program Files/CodeBlocks/MinGW/x86_64-w64-mingw32/include/malloc.h"
	.file 54 "C:/Program Files/CodeBlocks/MinGW/lib/gcc/x86_64-w64-mingw32/8.1.0/include/c++/math.h"
	.file 55 "C:/Program Files/CodeBlocks/MinGW/x86_64-w64-mingw32/include/wchar.h"
	.file 56 "C:/Program Files/CodeBlocks/MinGW/x86_64-w64-mingw32/include/swprintf.inl"
	.file 57 "C:/Program Files/CodeBlocks/MinGW/x86_64-w64-mingw32/include/stdint.h"
	.file 58 "C:/Program Files/CodeBlocks/MinGW/x86_64-w64-mingw32/include/stdio.h"
	.file 59 "C:/Program Files/CodeBlocks/MinGW/x86_64-w64-mingw32/include/ctype.h"
	.file 60 "C:/Program Files/CodeBlocks/MinGW/x86_64-w64-mingw32/include/process.h"
	.file 61 "C:/Program Files/CodeBlocks/MinGW/x86_64-w64-mingw32/include/pthread.h"
	.file 62 "C:/Program Files/CodeBlocks/MinGW/x86_64-w64-mingw32/include/wctype.h"
	.file 63 "C:/PFC 2021/ballisticKernelCpp/CalculadorNumerico/padroes/observable.h"
	.file 64 "C:/PFC 2021/ballisticKernelCpp/CalculadorNumerico/calculador/calculador.h"
	.file 65 "C:/PFC 2021/ballisticKernelCpp/CalculadorNumerico/coeficientes/coeficienteAerodinamico.h"
	.file 66 "C:/PFC 2021/ballisticKernelCpp/CalculadorNumerico/padroes/objstring.h"
	.file 67 "C:/PFC 2021/ballisticKernelCpp/CalculadorNumerico/sql/sqlite3.h"
	.file 68 "C:/PFC 2021/ballisticKernelCpp/CalculadorNumerico/coeficientes/coeficientesdao.h"
	.file 69 "C:/PFC 2021/ballisticKernelCpp/CalculadorNumerico/calculador/calculadorPontoMassa.h"
	.file 70 "<built-in>"
	.section	.rdata$.refptr._ZTV21CalculadorAtmosferico, "dr"
	.globl	.refptr._ZTV21CalculadorAtmosferico
	.linkonce	discard
.refptr._ZTV21CalculadorAtmosferico:
	.quad	_ZTV21CalculadorAtmosferico
