	.file	"coeficientesdao.cpp"
	.text
.Ltext0:
	.cfi_sections	.debug_frame
	.section .rdata,"dr"
_ZStL19piecewise_construct:
	.space 1
	.section	.text$_ZnwyPv,"x"
	.linkonce discard
	.globl	_ZnwyPv
	.def	_ZnwyPv;	.scl	2;	.type	32;	.endef
	.seh_proc	_ZnwyPv
_ZnwyPv:
.LFB352:
	.file 1 "C:/Program Files/CodeBlocks/MinGW/lib/gcc/x86_64-w64-mingw32/8.1.0/include/c++/new"
	.loc 1 169 1
	.cfi_startproc
	pushq	%rbp
	.seh_pushreg	%rbp
	.cfi_def_cfa_offset 16
	.cfi_offset 6, -16
	movq	%rsp, %rbp
	.seh_setframe	%rbp, 0
	.cfi_def_cfa_register 6
	.seh_endprologue
	movq	%rcx, 16(%rbp)
	movq	%rdx, 24(%rbp)
	.loc 1 169 10
	movq	24(%rbp), %rax
	.loc 1 169 15
	popq	%rbp
	.cfi_restore 6
	.cfi_def_cfa 7, 8
	ret
	.cfi_endproc
.LFE352:
	.seh_endproc
	.text
	.def	_ZL7fprintfP6_iobufPKcz;	.scl	3;	.type	32;	.endef
	.seh_proc	_ZL7fprintfP6_iobufPKcz
_ZL7fprintfP6_iobufPKcz:
.LFB943:
	.file 2 "C:/Program Files/CodeBlocks/MinGW/x86_64-w64-mingw32/include/stdio.h"
	.loc 2 335 1
	.cfi_startproc
	pushq	%rbp
	.seh_pushreg	%rbp
	.cfi_def_cfa_offset 16
	.cfi_offset 6, -16
	movq	%rsp, %rbp
	.seh_setframe	%rbp, 0
	.cfi_def_cfa_register 6
	subq	$48, %rsp
	.seh_stackalloc	48
	.seh_endprologue
	movq	%rcx, 16(%rbp)
	movq	%rdx, 24(%rbp)
	movq	%r8, 32(%rbp)
	movq	%r9, 40(%rbp)
	.loc 2 337 53
	leaq	32(%rbp), %rax
	movq	%rax, -16(%rbp)
	.loc 2 338 30
	movq	-16(%rbp), %rdx
	movq	24(%rbp), %rax
	movq	%rdx, %r8
	movq	%rax, %rdx
	movq	16(%rbp), %rcx
	call	__mingw_vfprintf
	movl	%eax, -4(%rbp)
	.loc 2 340 10
	movl	-4(%rbp), %eax
	.loc 2 341 1
	addq	$48, %rsp
	popq	%rbp
	.cfi_restore 6
	.cfi_def_cfa 7, 8
	ret
	.cfi_endproc
.LFE943:
	.seh_endproc
	.def	_ZL6printfPKcz;	.scl	3;	.type	32;	.endef
	.seh_proc	_ZL6printfPKcz
_ZL6printfPKcz:
.LFB944:
	.loc 2 346 1
	.cfi_startproc
	pushq	%rbp
	.seh_pushreg	%rbp
	.cfi_def_cfa_offset 16
	.cfi_offset 6, -16
	pushq	%rbx
	.seh_pushreg	%rbx
	.cfi_def_cfa_offset 24
	.cfi_offset 3, -24
	subq	$56, %rsp
	.seh_stackalloc	56
	.cfi_def_cfa_offset 80
	leaq	128(%rsp), %rbp
	.seh_setframe	%rbp, 128
	.cfi_def_cfa 6, -48
	.seh_endprologue
	movq	%rcx, -48(%rbp)
	movq	%rdx, -40(%rbp)
	movq	%r8, -32(%rbp)
	movq	%r9, -24(%rbp)
	.loc 2 348 53
	leaq	-40(%rbp), %rax
	movq	%rax, -96(%rbp)
	.loc 2 349 30
	movq	-96(%rbp), %rbx
	movl	$1, %ecx
	movq	__imp___acrt_iob_func(%rip), %rax
	call	*%rax
.LVL0:
	movq	%rbx, %r8
	movq	-48(%rbp), %rdx
	movq	%rax, %rcx
	call	__mingw_vfprintf
	movl	%eax, -84(%rbp)
	.loc 2 351 10
	movl	-84(%rbp), %eax
	.loc 2 352 1
	addq	$56, %rsp
	popq	%rbx
	.cfi_restore 3
	popq	%rbp
	.cfi_restore 6
	.cfi_def_cfa 7, -40
	ret
	.cfi_endproc
.LFE944:
	.seh_endproc
	.def	_ZL7sprintfPcPKcz;	.scl	3;	.type	32;	.endef
	.seh_proc	_ZL7sprintfPcPKcz
_ZL7sprintfPcPKcz:
.LFB945:
	.loc 2 357 1
	.cfi_startproc
	pushq	%rbp
	.seh_pushreg	%rbp
	.cfi_def_cfa_offset 16
	.cfi_offset 6, -16
	movq	%rsp, %rbp
	.seh_setframe	%rbp, 0
	.cfi_def_cfa_register 6
	subq	$48, %rsp
	.seh_stackalloc	48
	.seh_endprologue
	movq	%rcx, 16(%rbp)
	movq	%rdx, 24(%rbp)
	movq	%r8, 32(%rbp)
	movq	%r9, 40(%rbp)
	.loc 2 359 53
	leaq	32(%rbp), %rax
	movq	%rax, -16(%rbp)
	.loc 2 360 30
	movq	-16(%rbp), %rdx
	movq	24(%rbp), %rax
	movq	%rdx, %r8
	movq	%rax, %rdx
	movq	16(%rbp), %rcx
	call	__mingw_vsprintf
	movl	%eax, -4(%rbp)
	.loc 2 362 10
	movl	-4(%rbp), %eax
	.loc 2 363 1
	addq	$48, %rsp
	popq	%rbp
	.cfi_restore 6
	.cfi_def_cfa 7, 8
	ret
	.cfi_endproc
.LFE945:
	.seh_endproc
	.section	.text$_ZN10BaseObjectD2Ev,"x"
	.linkonce discard
	.align 2
	.globl	_ZN10BaseObjectD2Ev
	.def	_ZN10BaseObjectD2Ev;	.scl	2;	.type	32;	.endef
	.seh_proc	_ZN10BaseObjectD2Ev
_ZN10BaseObjectD2Ev:
.LFB1349:
	.file 3 "C:/PFC 2021/ballisticKernelCpp/CalculadorNumerico/padroes/baseobject.h"
	.loc 3 8 17
	.cfi_startproc
	pushq	%rbp
	.seh_pushreg	%rbp
	.cfi_def_cfa_offset 16
	.cfi_offset 6, -16
	movq	%rsp, %rbp
	.seh_setframe	%rbp, 0
	.cfi_def_cfa_register 6
	.seh_endprologue
	movq	%rcx, 16(%rbp)
.LBB2:
	.loc 3 8 31
	leaq	16+_ZTV10BaseObject(%rip), %rdx
	movq	16(%rbp), %rax
	movq	%rdx, (%rax)
.LBE2:
	.loc 3 8 32
	nop
	popq	%rbp
	.cfi_restore 6
	.cfi_def_cfa 7, 8
	ret
	.cfi_endproc
.LFE1349:
	.seh_endproc
	.section	.text$_ZN10BaseObjectD1Ev,"x"
	.linkonce discard
	.align 2
	.globl	_ZN10BaseObjectD1Ev
	.def	_ZN10BaseObjectD1Ev;	.scl	2;	.type	32;	.endef
	.seh_proc	_ZN10BaseObjectD1Ev
_ZN10BaseObjectD1Ev:
.LFB1350:
	.loc 3 8 17
	.cfi_startproc
	pushq	%rbp
	.seh_pushreg	%rbp
	.cfi_def_cfa_offset 16
	.cfi_offset 6, -16
	movq	%rsp, %rbp
	.seh_setframe	%rbp, 0
	.cfi_def_cfa_register 6
	.seh_endprologue
	movq	%rcx, 16(%rbp)
.LBB3:
	.loc 3 8 31
	leaq	16+_ZTV10BaseObject(%rip), %rdx
	movq	16(%rbp), %rax
	movq	%rdx, (%rax)
.LBE3:
	.loc 3 8 32
	nop
	popq	%rbp
	.cfi_restore 6
	.cfi_def_cfa 7, 8
	ret
	.cfi_endproc
.LFE1350:
	.seh_endproc
	.section	.text$_ZN10BaseObjectD0Ev,"x"
	.linkonce discard
	.align 2
	.globl	_ZN10BaseObjectD0Ev
	.def	_ZN10BaseObjectD0Ev;	.scl	2;	.type	32;	.endef
	.seh_proc	_ZN10BaseObjectD0Ev
_ZN10BaseObjectD0Ev:
.LFB1351:
	.loc 3 8 17
	.cfi_startproc
	pushq	%rbp
	.seh_pushreg	%rbp
	.cfi_def_cfa_offset 16
	.cfi_offset 6, -16
	movq	%rsp, %rbp
	.seh_setframe	%rbp, 0
	.cfi_def_cfa_register 6
	subq	$32, %rsp
	.seh_stackalloc	32
	.seh_endprologue
	movq	%rcx, 16(%rbp)
	.loc 3 8 32
	movq	16(%rbp), %rcx
	call	_ZN10BaseObjectD1Ev
	movq	16(%rbp), %rcx
	call	_ZdlPv
	nop
	addq	$32, %rsp
	popq	%rbp
	.cfi_restore 6
	.cfi_def_cfa 7, 8
	ret
	.cfi_endproc
.LFE1351:
	.seh_endproc
	.section	.text$_ZN10BaseObjectC2Ev,"x"
	.linkonce discard
	.align 2
	.globl	_ZN10BaseObjectC2Ev
	.def	_ZN10BaseObjectC2Ev;	.scl	2;	.type	32;	.endef
	.seh_proc	_ZN10BaseObjectC2Ev
_ZN10BaseObjectC2Ev:
.LFB1354:
	.loc 3 5 7
	.cfi_startproc
	pushq	%rbp
	.seh_pushreg	%rbp
	.cfi_def_cfa_offset 16
	.cfi_offset 6, -16
	movq	%rsp, %rbp
	.seh_setframe	%rbp, 0
	.cfi_def_cfa_register 6
	.seh_endprologue
	movq	%rcx, 16(%rbp)
.LBB4:
	.loc 3 5 7
	leaq	16+_ZTV10BaseObject(%rip), %rdx
	movq	16(%rbp), %rax
	movq	%rdx, (%rax)
.LBE4:
	nop
	popq	%rbp
	.cfi_restore 6
	.cfi_def_cfa 7, 8
	ret
	.cfi_endproc
.LFE1354:
	.seh_endproc
	.section	.text$_ZN8ProjetilC1Ev,"x"
	.linkonce discard
	.align 2
	.globl	_ZN8ProjetilC1Ev
	.def	_ZN8ProjetilC1Ev;	.scl	2;	.type	32;	.endef
	.seh_proc	_ZN8ProjetilC1Ev
_ZN8ProjetilC1Ev:
.LFB1357:
	.file 4 "C:/PFC 2021/ballisticKernelCpp/CalculadorNumerico/projetil/projetil.h"
	.loc 4 13 9
	.cfi_startproc
	pushq	%rbp
	.seh_pushreg	%rbp
	.cfi_def_cfa_offset 16
	.cfi_offset 6, -16
	movq	%rsp, %rbp
	.seh_setframe	%rbp, 0
	.cfi_def_cfa_register 6
	subq	$32, %rsp
	.seh_stackalloc	32
	.seh_endprologue
	movq	%rcx, 16(%rbp)
.LBB5:
	.loc 4 13 19
	movq	16(%rbp), %rax
	movq	%rax, %rcx
	call	_ZN10BaseObjectC2Ev
	leaq	16+_ZTV8Projetil(%rip), %rdx
	movq	16(%rbp), %rax
	movq	%rdx, (%rax)
	movq	16(%rbp), %rax
	addq	$16, %rax
	movq	%rax, %rcx
	call	_ZNSt7__cxx1112basic_stringIcSt11char_traitsIcESaIcEEC1Ev
	movq	16(%rbp), %rax
	addq	$48, %rax
	movq	%rax, %rcx
	call	_ZNSt7__cxx1112basic_stringIcSt11char_traitsIcESaIcEEC1Ev
.LBE5:
	.loc 4 13 20
	nop
	addq	$32, %rsp
	popq	%rbp
	.cfi_restore 6
	.cfi_def_cfa 7, 8
	ret
	.cfi_endproc
.LFE1357:
	.seh_endproc
	.section	.text$_ZN8Projetil25getTabelaCoeficientesNomeB5cxx11Ev,"x"
	.linkonce discard
	.align 2
	.globl	_ZN8Projetil25getTabelaCoeficientesNomeB5cxx11Ev
	.def	_ZN8Projetil25getTabelaCoeficientesNomeB5cxx11Ev;	.scl	2;	.type	32;	.endef
	.seh_proc	_ZN8Projetil25getTabelaCoeficientesNomeB5cxx11Ev
_ZN8Projetil25getTabelaCoeficientesNomeB5cxx11Ev:
.LFB1359:
	.loc 4 16 16
	.cfi_startproc
	pushq	%rbp
	.seh_pushreg	%rbp
	.cfi_def_cfa_offset 16
	.cfi_offset 6, -16
	movq	%rsp, %rbp
	.seh_setframe	%rbp, 0
	.cfi_def_cfa_register 6
	subq	$32, %rsp
	.seh_stackalloc	32
	.seh_endprologue
	movq	%rcx, 16(%rbp)
	movq	%rdx, 24(%rbp)
	.loc 4 16 51
	movq	24(%rbp), %rax
	addq	$48, %rax
	movq	%rax, %rdx
	movq	16(%rbp), %rcx
	call	_ZNSt7__cxx1112basic_stringIcSt11char_traitsIcESaIcEEC1ERKS4_
	.loc 4 16 74
	movq	16(%rbp), %rax
	addq	$32, %rsp
	popq	%rbp
	.cfi_restore 6
	.cfi_def_cfa 7, 8
	ret
	.cfi_endproc
.LFE1359:
	.seh_endproc
	.section	.text$_ZN8Projetil7setTipoE13TIPO_PROJETIL,"x"
	.linkonce discard
	.align 2
	.globl	_ZN8Projetil7setTipoE13TIPO_PROJETIL
	.def	_ZN8Projetil7setTipoE13TIPO_PROJETIL;	.scl	2;	.type	32;	.endef
	.seh_proc	_ZN8Projetil7setTipoE13TIPO_PROJETIL
_ZN8Projetil7setTipoE13TIPO_PROJETIL:
.LFB1380:
	.loc 4 39 14
	.cfi_startproc
	pushq	%rbp
	.seh_pushreg	%rbp
	.cfi_def_cfa_offset 16
	.cfi_offset 6, -16
	movq	%rsp, %rbp
	.seh_setframe	%rbp, 0
	.cfi_def_cfa_register 6
	.seh_endprologue
	movq	%rcx, 16(%rbp)
	movl	%edx, 24(%rbp)
	.loc 4 39 53
	movq	16(%rbp), %rax
	movl	24(%rbp), %edx
	movl	%edx, 8(%rax)
	.loc 4 39 60
	nop
	popq	%rbp
	.cfi_restore 6
	.cfi_def_cfa 7, 8
	ret
	.cfi_endproc
.LFE1380:
	.seh_endproc
	.section	.text$_ZN23CoeficienteAerodinamico21getPointerVelocidadesEv,"x"
	.linkonce discard
	.align 2
	.globl	_ZN23CoeficienteAerodinamico21getPointerVelocidadesEv
	.def	_ZN23CoeficienteAerodinamico21getPointerVelocidadesEv;	.scl	2;	.type	32;	.endef
	.seh_proc	_ZN23CoeficienteAerodinamico21getPointerVelocidadesEv
_ZN23CoeficienteAerodinamico21getPointerVelocidadesEv:
.LFB1387:
	.file 5 "C:/PFC 2021/ballisticKernelCpp/CalculadorNumerico/coeficientes/coeficienteAerodinamico.h"
	.loc 5 19 25
	.cfi_startproc
	pushq	%rbp
	.seh_pushreg	%rbp
	.cfi_def_cfa_offset 16
	.cfi_offset 6, -16
	movq	%rsp, %rbp
	.seh_setframe	%rbp, 0
	.cfi_def_cfa_register 6
	.seh_endprologue
	movq	%rcx, 16(%rbp)
	.loc 5 19 57
	movq	16(%rbp), %rax
	addq	$16, %rax
	.loc 5 19 69
	popq	%rbp
	.cfi_restore 6
	.cfi_def_cfa 7, 8
	ret
	.cfi_endproc
.LFE1387:
	.seh_endproc
	.section	.text$_ZN23CoeficienteAerodinamico17getPointerValoresEv,"x"
	.linkonce discard
	.align 2
	.globl	_ZN23CoeficienteAerodinamico17getPointerValoresEv
	.def	_ZN23CoeficienteAerodinamico17getPointerValoresEv;	.scl	2;	.type	32;	.endef
	.seh_proc	_ZN23CoeficienteAerodinamico17getPointerValoresEv
_ZN23CoeficienteAerodinamico17getPointerValoresEv:
.LFB1388:
	.loc 5 20 25
	.cfi_startproc
	pushq	%rbp
	.seh_pushreg	%rbp
	.cfi_def_cfa_offset 16
	.cfi_offset 6, -16
	movq	%rsp, %rbp
	.seh_setframe	%rbp, 0
	.cfi_def_cfa_register 6
	.seh_endprologue
	movq	%rcx, 16(%rbp)
	.loc 5 20 53
	movq	16(%rbp), %rax
	addq	$40, %rax
	.loc 5 20 61
	popq	%rbp
	.cfi_restore 6
	.cfi_def_cfa 7, 8
	ret
	.cfi_endproc
.LFE1388:
	.seh_endproc
	.section	.text$_ZN10BaseObjectC2ERKS_,"x"
	.linkonce discard
	.align 2
	.globl	_ZN10BaseObjectC2ERKS_
	.def	_ZN10BaseObjectC2ERKS_;	.scl	2;	.type	32;	.endef
	.seh_proc	_ZN10BaseObjectC2ERKS_
_ZN10BaseObjectC2ERKS_:
.LFB1392:
	.loc 3 5 7
	.cfi_startproc
	pushq	%rbp
	.seh_pushreg	%rbp
	.cfi_def_cfa_offset 16
	.cfi_offset 6, -16
	movq	%rsp, %rbp
	.seh_setframe	%rbp, 0
	.cfi_def_cfa_register 6
	.seh_endprologue
	movq	%rcx, 16(%rbp)
	movq	%rdx, 24(%rbp)
.LBB6:
	.loc 3 5 7
	leaq	16+_ZTV10BaseObject(%rip), %rdx
	movq	16(%rbp), %rax
	movq	%rdx, (%rax)
.LBE6:
	nop
	popq	%rbp
	.cfi_restore 6
	.cfi_def_cfa 7, 8
	ret
	.cfi_endproc
.LFE1392:
	.seh_endproc
	.globl	_ZN15CoeficientesDAO8instanceE
	.bss
	.align 8
_ZN15CoeficientesDAO8instanceE:
	.space 8
	.section .rdata,"dr"
.LC0:
	.ascii "_id\0"
.LC1:
	.ascii "velocidade\0"
.LC2:
	.ascii "./resource/coeficientes.s3db\0"
.LC3:
	.ascii "Can't open database: %s\12\0"
.LC4:
	.ascii "Opened database successfully\12\0"
	.text
	.align 2
	.globl	_ZN15CoeficientesDAOC2Ev
	.def	_ZN15CoeficientesDAOC2Ev;	.scl	2;	.type	32;	.endef
	.seh_proc	_ZN15CoeficientesDAOC2Ev
_ZN15CoeficientesDAOC2Ev:
.LFB1397:
	.file 6 "C:/PFC 2021/ballisticKernelCpp/CalculadorNumerico/coeficientes/coeficientesdao.cpp"
	.loc 6 11 1
	.cfi_startproc
	pushq	%rbp
	.seh_pushreg	%rbp
	.cfi_def_cfa_offset 16
	.cfi_offset 6, -16
	pushq	%rbx
	.seh_pushreg	%rbx
	.cfi_def_cfa_offset 24
	.cfi_offset 3, -24
	subq	$184, %rsp
	.seh_stackalloc	184
	.cfi_def_cfa_offset 208
	leaq	128(%rsp), %rbp
	.seh_setframe	%rbp, 128
	.cfi_def_cfa 6, 80
	.seh_endprologue
	movq	%rcx, 80(%rbp)
.LBB7:
	.loc 6 11 34
	movq	80(%rbp), %rax
	addq	$8, %rax
	movq	%rax, %rcx
	call	_ZN8ProjetilC1Ev
	movq	80(%rbp), %rax
	leaq	.LC0(%rip), %rdx
	movq	%rdx, 136(%rax)
	movq	80(%rbp), %rax
	leaq	.LC1(%rip), %rdx
	movq	%rdx, 144(%rax)
.LBB8:
	.loc 6 14 10
	movq	$0, 40(%rbp)
	.loc 6 17 21
	movq	80(%rbp), %rax
	movq	%rax, %rdx
	leaq	.LC2(%rip), %rcx
.LEHB0:
	call	sqlite3_open
	movl	%eax, 36(%rbp)
	.loc 6 19 4
	cmpl	$0, 36(%rbp)
	je	.L23
	.loc 6 20 14
	movq	80(%rbp), %rax
	movq	(%rax), %rax
	movq	%rax, %rcx
	call	sqlite3_errmsg
	movq	%rax, %rbx
	movl	$2, %ecx
	movq	__imp___acrt_iob_func(%rip), %rax
	call	*%rax
.LVL1:
	.loc 6 20 14 is_stmt 0 discriminator 1
	movq	%rbx, %r8
	leaq	.LC3(%rip), %rdx
	movq	%rax, %rcx
	call	_ZL7fprintfP6_iobufPKcz
	.loc 6 21 7 is_stmt 1 discriminator 1
	jmp	.L22
.L23:
	.loc 6 23 14
	movl	$2, %ecx
	movq	__imp___acrt_iob_func(%rip), %rax
	call	*%rax
.LVL2:
	leaq	.LC4(%rip), %rdx
	movq	%rax, %rcx
	call	_ZL7fprintfP6_iobufPKcz
	.loc 6 26 16
	movq	80(%rbp), %rax
	addq	$8, %rax
	movl	$0, %edx
	movq	%rax, %rcx
	call	_ZN8Projetil7setTipoE13TIPO_PROJETIL
	.loc 6 27 44
	call	_ZN11ProjetilDAO11getInstanceEv
	.loc 6 27 44 is_stmt 0 discriminator 1
	movq	%rax, %rcx
	.loc 6 27 45 is_stmt 1 discriminator 1
	movq	80(%rbp), %rax
	leaq	8(%rax), %rdx
	.loc 6 27 44 discriminator 1
	leaq	-96(%rbp), %rax
	movq	%rdx, %r8
	movq	%rcx, %rdx
	movq	%rax, %rcx
	call	_ZN11ProjetilDAO12geraProjetilER8Projetil
.LEHE0:
	.loc 6 27 44 is_stmt 0 discriminator 2
	leaq	-96(%rbp), %rax
	movq	%rax, %rcx
	call	_ZN8ProjetilD1Ev
	jmp	.L22
.L26:
	movq	%rax, %rbx
.LBE8:
	.loc 6 11 34 is_stmt 1
	movq	80(%rbp), %rax
	addq	$8, %rax
	movq	%rax, %rcx
	call	_ZN8ProjetilD1Ev
	movq	%rbx, %rax
	movq	%rax, %rcx
.LEHB1:
	call	_Unwind_Resume
	nop
.LEHE1:
.L22:
.LBE7:
	.loc 6 30 1
	addq	$184, %rsp
	popq	%rbx
	.cfi_restore 3
	popq	%rbp
	.cfi_restore 6
	.cfi_def_cfa 7, -168
	ret
	.cfi_endproc
.LFE1397:
	.def	__gxx_personality_seh0;	.scl	2;	.type	32;	.endef
	.seh_handler	__gxx_personality_seh0, @unwind, @except
	.seh_handlerdata
.LLSDA1397:
	.byte	0xff
	.byte	0xff
	.byte	0x1
	.uleb128 .LLSDACSE1397-.LLSDACSB1397
.LLSDACSB1397:
	.uleb128 .LEHB0-.LFB1397
	.uleb128 .LEHE0-.LEHB0
	.uleb128 .L26-.LFB1397
	.uleb128 0
	.uleb128 .LEHB1-.LFB1397
	.uleb128 .LEHE1-.LEHB1
	.uleb128 0
	.uleb128 0
.LLSDACSE1397:
	.text
	.seh_endproc
	.globl	_ZN15CoeficientesDAOC1Ev
	.def	_ZN15CoeficientesDAOC1Ev;	.scl	2;	.type	32;	.endef
	.set	_ZN15CoeficientesDAOC1Ev,_ZN15CoeficientesDAOC2Ev
	.section .rdata,"dr"
	.align 8
.LC5:
	.ascii "Fechando banco de dados de coeficientes.\12\0"
	.text
	.align 2
	.globl	_ZN15CoeficientesDAOD2Ev
	.def	_ZN15CoeficientesDAOD2Ev;	.scl	2;	.type	32;	.endef
	.seh_proc	_ZN15CoeficientesDAOD2Ev
_ZN15CoeficientesDAOD2Ev:
.LFB1400:
	.loc 6 33 1
	.cfi_startproc
	pushq	%rbp
	.seh_pushreg	%rbp
	.cfi_def_cfa_offset 16
	.cfi_offset 6, -16
	movq	%rsp, %rbp
	.seh_setframe	%rbp, 0
	.cfi_def_cfa_register 6
	subq	$32, %rsp
	.seh_stackalloc	32
	.seh_endprologue
	movq	%rcx, 16(%rbp)
.LBB9:
	.loc 6 35 13
	movq	16(%rbp), %rax
	movq	(%rax), %rax
	.loc 6 35 9
	testq	%rax, %rax
	je	.L28
	.loc 6 37 26
	movq	16(%rbp), %rax
	movq	(%rax), %rax
	movq	%rax, %rcx
	call	sqlite3_close
	.loc 6 38 19
	leaq	.LC5(%rip), %rcx
	call	_ZL6printfPKcz
.L28:
	.loc 6 33 35
	movq	16(%rbp), %rax
	addq	$8, %rax
	movq	%rax, %rcx
	call	_ZN8ProjetilD1Ev
.LBE9:
	.loc 6 41 1
	nop
	addq	$32, %rsp
	popq	%rbp
	.cfi_restore 6
	.cfi_def_cfa 7, 8
	ret
	.cfi_endproc
.LFE1400:
	.seh_handler	__gxx_personality_seh0, @unwind, @except
	.seh_handlerdata
.LLSDA1400:
	.byte	0xff
	.byte	0xff
	.byte	0x1
	.uleb128 .LLSDACSE1400-.LLSDACSB1400
.LLSDACSB1400:
.LLSDACSE1400:
	.text
	.seh_endproc
	.globl	_ZN15CoeficientesDAOD1Ev
	.def	_ZN15CoeficientesDAOD1Ev;	.scl	2;	.type	32;	.endef
	.set	_ZN15CoeficientesDAOD1Ev,_ZN15CoeficientesDAOD2Ev
	.align 2
	.globl	_ZN15CoeficientesDAO8callbackEPviPPcS2_
	.def	_ZN15CoeficientesDAO8callbackEPviPPcS2_;	.scl	2;	.type	32;	.endef
	.seh_proc	_ZN15CoeficientesDAO8callbackEPviPPcS2_
_ZN15CoeficientesDAO8callbackEPviPPcS2_:
.LFB1402:
	.loc 6 43 84
	.cfi_startproc
	pushq	%rbp
	.seh_pushreg	%rbp
	.cfi_def_cfa_offset 16
	.cfi_offset 6, -16
	movq	%rsp, %rbp
	.seh_setframe	%rbp, 0
	.cfi_def_cfa_register 6
	subq	$80, %rsp
	.seh_stackalloc	80
	.seh_endprologue
	movq	%rcx, 16(%rbp)
	movl	%edx, 24(%rbp)
	movq	%r8, 32(%rbp)
	movq	%r9, 40(%rbp)
	.loc 6 46 28
	movq	16(%rbp), %rax
	movq	%rax, -8(%rbp)
	.loc 6 47 60
	movq	-8(%rbp), %rax
	movq	%rax, %rcx
	call	_ZN23CoeficienteAerodinamico21getPointerVelocidadesEv
	movq	%rax, -16(%rbp)
	.loc 6 48 52
	movq	-8(%rbp), %rax
	movq	%rax, %rcx
	call	_ZN23CoeficienteAerodinamico17getPointerValoresEv
	movq	%rax, -24(%rbp)
	.loc 6 54 15
	movq	32(%rbp), %rax
	movq	(%rax), %rax
	.loc 6 54 6
	testq	%rax, %rax
	je	.L30
	.loc 6 55 36
	movq	32(%rbp), %rax
	movq	(%rax), %rax
	movq	%rax, %rcx
	call	atof
	movq	%xmm0, %rax
	movq	%rax, -40(%rbp)
	.loc 6 55 31
	leaq	-40(%rbp), %rax
	movq	-16(%rbp), %rcx
	movq	%rax, %rdx
	call	_ZNSt6vectorIdSaIdEE9push_backEOd
.L30:
	.loc 6 57 15
	movq	32(%rbp), %rax
	addq	$8, %rax
	movq	(%rax), %rax
	.loc 6 57 6
	testq	%rax, %rax
	je	.L31
	.loc 6 58 39
	movq	32(%rbp), %rax
	addq	$8, %rax
	.loc 6 58 32
	movq	(%rax), %rax
	movq	%rax, %rcx
	call	atof
	movq	%xmm0, %rax
	movq	%rax, -32(%rbp)
	.loc 6 58 27
	leaq	-32(%rbp), %rax
	movq	-24(%rbp), %rcx
	movq	%rax, %rdx
	call	_ZNSt6vectorIdSaIdEE9push_backEOd
.L31:
	.loc 6 61 11
	movl	$0, %eax
	.loc 6 62 1
	addq	$80, %rsp
	popq	%rbp
	.cfi_restore 6
	.cfi_def_cfa 7, 8
	ret
	.cfi_endproc
.LFE1402:
	.seh_endproc
	.align 2
	.globl	_ZN15CoeficientesDAO13clearInstanceEv
	.def	_ZN15CoeficientesDAO13clearInstanceEv;	.scl	2;	.type	32;	.endef
	.seh_proc	_ZN15CoeficientesDAO13clearInstanceEv
_ZN15CoeficientesDAO13clearInstanceEv:
.LFB1403:
	.loc 6 65 1
	.cfi_startproc
	pushq	%rbp
	.seh_pushreg	%rbp
	.cfi_def_cfa_offset 16
	.cfi_offset 6, -16
	pushq	%rbx
	.seh_pushreg	%rbx
	.cfi_def_cfa_offset 24
	.cfi_offset 3, -24
	subq	$40, %rsp
	.seh_stackalloc	40
	.cfi_def_cfa_offset 64
	leaq	128(%rsp), %rbp
	.seh_setframe	%rbp, 128
	.cfi_def_cfa 6, -64
	.seh_endprologue
	.loc 6 66 17
	movq	_ZN15CoeficientesDAO8instanceE(%rip), %rax
	.loc 6 66 5
	testq	%rax, %rax
	je	.L36
	.loc 6 68 16
	movq	_ZN15CoeficientesDAO8instanceE(%rip), %rbx
	.loc 6 68 24
	testq	%rbx, %rbx
	je	.L35
	.loc 6 68 16 discriminator 1
	movq	%rbx, %rcx
	call	_ZN15CoeficientesDAOD1Ev
	movq	%rbx, %rcx
	call	_ZdlPv
.L35:
	.loc 6 69 18
	movq	$0, _ZN15CoeficientesDAO8instanceE(%rip)
.L36:
	.loc 6 72 1
	nop
	addq	$40, %rsp
	popq	%rbx
	.cfi_restore 3
	popq	%rbp
	.cfi_restore 6
	.cfi_def_cfa 7, -24
	ret
	.cfi_endproc
.LFE1403:
	.seh_endproc
	.section	.text$_ZN23CoeficienteAerodinamicoC1ERKS_,"x"
	.linkonce discard
	.align 2
	.globl	_ZN23CoeficienteAerodinamicoC1ERKS_
	.def	_ZN23CoeficienteAerodinamicoC1ERKS_;	.scl	2;	.type	32;	.endef
	.seh_proc	_ZN23CoeficienteAerodinamicoC1ERKS_
_ZN23CoeficienteAerodinamicoC1ERKS_:
.LFB1407:
	.loc 5 8 7
	.cfi_startproc
	pushq	%rbp
	.seh_pushreg	%rbp
	.cfi_def_cfa_offset 16
	.cfi_offset 6, -16
	pushq	%rbx
	.seh_pushreg	%rbx
	.cfi_def_cfa_offset 24
	.cfi_offset 3, -24
	subq	$40, %rsp
	.seh_stackalloc	40
	.cfi_def_cfa_offset 64
	leaq	128(%rsp), %rbp
	.seh_setframe	%rbp, 128
	.cfi_def_cfa 6, -64
	.seh_endprologue
	movq	%rcx, -64(%rbp)
	movq	%rdx, -56(%rbp)
.LBB10:
	.loc 5 8 7
	movq	-64(%rbp), %rax
	movq	-56(%rbp), %rdx
	movq	%rax, %rcx
	call	_ZN10BaseObjectC2ERKS_
	movq	.refptr._ZTV23CoeficienteAerodinamico(%rip), %rax
	leaq	16(%rax), %rdx
	movq	-64(%rbp), %rax
	movq	%rdx, (%rax)
	movq	-56(%rbp), %rax
	movl	8(%rax), %edx
	movq	-64(%rbp), %rax
	movl	%edx, 8(%rax)
	movq	-64(%rbp), %rax
	addq	$16, %rax
	movq	-56(%rbp), %rdx
	addq	$16, %rdx
	movq	%rax, %rcx
.LEHB2:
	call	_ZNSt6vectorIdSaIdEEC1ERKS1_
.LEHE2:
	.loc 5 8 7 is_stmt 0 discriminator 2
	movq	-64(%rbp), %rax
	addq	$40, %rax
	movq	-56(%rbp), %rdx
	addq	$40, %rdx
	movq	%rax, %rcx
.LEHB3:
	call	_ZNSt6vectorIdSaIdEEC1ERKS1_
.LEHE3:
.LBE10:
	.loc 5 8 7
	jmp	.L42
.L41:
	movq	%rax, %rbx
.LBB11:
	movq	-64(%rbp), %rax
	addq	$16, %rax
	movq	%rax, %rcx
	call	_ZNSt6vectorIdSaIdEED1Ev
	jmp	.L39
.L40:
	movq	%rax, %rbx
.L39:
	.loc 5 8 7 discriminator 1
	movq	-64(%rbp), %rax
	movq	%rax, %rcx
	call	_ZN10BaseObjectD2Ev
	movq	%rbx, %rax
	movq	%rax, %rcx
.LEHB4:
	call	_Unwind_Resume
	nop
.LEHE4:
.L42:
.LBE11:
	.loc 5 8 7
	addq	$40, %rsp
	popq	%rbx
	.cfi_restore 3
	popq	%rbp
	.cfi_restore 6
	.cfi_def_cfa 7, -24
	ret
	.cfi_endproc
.LFE1407:
	.seh_handler	__gxx_personality_seh0, @unwind, @except
	.seh_handlerdata
.LLSDA1407:
	.byte	0xff
	.byte	0xff
	.byte	0x1
	.uleb128 .LLSDACSE1407-.LLSDACSB1407
.LLSDACSB1407:
	.uleb128 .LEHB2-.LFB1407
	.uleb128 .LEHE2-.LEHB2
	.uleb128 .L40-.LFB1407
	.uleb128 0
	.uleb128 .LEHB3-.LFB1407
	.uleb128 .LEHE3-.LEHB3
	.uleb128 .L41-.LFB1407
	.uleb128 0
	.uleb128 .LEHB4-.LFB1407
	.uleb128 .LEHE4-.LEHB4
	.uleb128 0
	.uleb128 0
.LLSDACSE1407:
	.section	.text$_ZN23CoeficienteAerodinamicoC1ERKS_,"x"
	.linkonce discard
	.seh_endproc
	.section .rdata,"dr"
.LC6:
	.ascii "drag\0"
.LC7:
	.ascii "drag_linear\0"
.LC8:
	.ascii "drag2\0"
.LC9:
	.ascii "magnus_force\0"
.LC10:
	.ascii "lift\0"
.LC11:
	.ascii "overturning_moment\0"
.LC12:
	.ascii "overturning_moment3\0"
.LC13:
	.ascii "spin_damping_moment\0"
.LC14:
	.ascii "SELECT velocidade, %s FROM %s\0"
.LC15:
	.ascii "SQL error: %s\12\0"
.LC16:
	.ascii "Operation done successfully\12\0"
	.text
	.align 2
	.globl	_ZN15CoeficientesDAO15geraCoeficienteER23CoeficienteAerodinamico
	.def	_ZN15CoeficientesDAO15geraCoeficienteER23CoeficienteAerodinamico;	.scl	2;	.type	32;	.endef
	.seh_proc	_ZN15CoeficientesDAO15geraCoeficienteER23CoeficienteAerodinamico
_ZN15CoeficientesDAO15geraCoeficienteER23CoeficienteAerodinamico:
.LFB1404:
	.loc 6 75 1 is_stmt 1
	.cfi_startproc
	pushq	%rbp
	.seh_pushreg	%rbp
	.cfi_def_cfa_offset 16
	.cfi_offset 6, -16
	pushq	%rbx
	.seh_pushreg	%rbx
	.cfi_def_cfa_offset 24
	.cfi_offset 3, -24
	subq	$232, %rsp
	.seh_stackalloc	232
	.cfi_def_cfa_offset 256
	leaq	128(%rsp), %rbp
	.seh_setframe	%rbp, 128
	.cfi_def_cfa 6, 128
	.seh_endprologue
	movq	%rcx, 128(%rbp)
	movq	%rdx, 136(%rbp)
	movq	%r8, 144(%rbp)
	.loc 6 77 10
	movq	$0, 56(%rbp)
	.loc 6 80 54
	movq	136(%rbp), %rax
	leaq	8(%rax), %rdx
	leaq	-80(%rbp), %rax
	movq	%rax, %rcx
.LEHB5:
	call	_ZN8Projetil25getTabelaCoeficientesNomeB5cxx11Ev
.LEHE5:
	.loc 6 81 40
	leaq	-80(%rbp), %rax
	movq	%rax, %rcx
	call	_ZNKSt7__cxx1112basic_stringIcSt11char_traitsIcESaIcEE5c_strEv
	movq	%rax, 80(%rbp)
	.loc 6 85 23
	movq	144(%rbp), %rax
	movl	8(%rax), %eax
	.loc 6 85 4
	cmpl	$7, %eax
	ja	.L44
	movl	%eax, %eax
	leaq	0(,%rax,4), %rdx
	leaq	.L46(%rip), %rax
	movl	(%rdx,%rax), %eax
	cltq
	leaq	.L46(%rip), %rdx
	addq	%rdx, %rax
	jmp	*%rax
	.section .rdata,"dr"
	.align 4
.L46:
	.long	.L53-.L46
	.long	.L52-.L46
	.long	.L51-.L46
	.long	.L50-.L46
	.long	.L49-.L46
	.long	.L48-.L46
	.long	.L47-.L46
	.long	.L45-.L46
	.text
.L53:
	.loc 6 89 19
	leaq	.LC6(%rip), %rax
	movq	%rax, 88(%rbp)
	.loc 6 90 9
	jmp	.L54
.L52:
	.loc 6 92 20
	leaq	.LC7(%rip), %rax
	movq	%rax, 88(%rbp)
	.loc 6 93 13
	jmp	.L54
.L51:
	.loc 6 95 20
	leaq	.LC8(%rip), %rax
	movq	%rax, 88(%rbp)
	.loc 6 96 13
	jmp	.L54
.L50:
	.loc 6 98 20
	leaq	.LC9(%rip), %rax
	movq	%rax, 88(%rbp)
	.loc 6 99 13
	jmp	.L54
.L49:
	.loc 6 101 20
	leaq	.LC10(%rip), %rax
	movq	%rax, 88(%rbp)
	.loc 6 102 13
	jmp	.L54
.L48:
	.loc 6 104 20
	leaq	.LC11(%rip), %rax
	movq	%rax, 88(%rbp)
	.loc 6 105 13
	jmp	.L54
.L47:
	.loc 6 107 20
	leaq	.LC12(%rip), %rax
	movq	%rax, 88(%rbp)
	.loc 6 108 13
	jmp	.L54
.L45:
	.loc 6 110 20
	leaq	.LC13(%rip), %rax
	movq	%rax, 88(%rbp)
	.loc 6 111 13
	jmp	.L54
.L44:
	.loc 6 113 16
	movq	144(%rbp), %rax
	movq	%rax, %rdx
	movq	128(%rbp), %rcx
.LEHB6:
	call	_ZN23CoeficienteAerodinamicoC1ERKS_
	jmp	.L55
.L54:
	.loc 6 116 22
	movq	144(%rbp), %rax
	movq	%rax, %rcx
	call	_ZN23CoeficienteAerodinamico6limparEv
	.loc 6 117 29
	movq	144(%rbp), %rax
	movq	%rax, 72(%rbp)
	.loc 6 118 12
	movq	80(%rbp), %rcx
	movq	88(%rbp), %rdx
	leaq	-48(%rbp), %rax
	movq	%rcx, %r9
	movq	%rdx, %r8
	leaq	.LC14(%rip), %rdx
	movq	%rax, %rcx
	call	_ZL7sprintfPcPKcz
	.loc 6 121 21
	movq	136(%rbp), %rax
	movq	(%rax), %rcx
	movq	72(%rbp), %r8
	leaq	-48(%rbp), %rax
	leaq	56(%rbp), %rdx
	movq	%rdx, 32(%rsp)
	movq	%r8, %r9
	leaq	_ZN15CoeficientesDAO8callbackEPviPPcS2_(%rip), %r8
	movq	%rax, %rdx
	call	sqlite3_exec
	movl	%eax, 68(%rbp)
	.loc 6 122 4
	cmpl	$0, 68(%rbp)
	je	.L56
	.loc 6 124 14
	movq	56(%rbp), %rbx
	movl	$2, %ecx
	movq	__imp___acrt_iob_func(%rip), %rax
	call	*%rax
.LVL3:
	movq	%rbx, %r8
	leaq	.LC15(%rip), %rdx
	movq	%rax, %rcx
	call	_ZL7fprintfP6_iobufPKcz
	.loc 6 125 19
	movq	56(%rbp), %rax
	movq	%rax, %rcx
	call	sqlite3_free
	jmp	.L57
.L56:
	.loc 6 129 14
	movl	$1, %ecx
	movq	__imp___acrt_iob_func(%rip), %rax
	call	*%rax
.LVL4:
	leaq	.LC16(%rip), %rdx
	movq	%rax, %rcx
	call	_ZL7fprintfP6_iobufPKcz
.L57:
	.loc 6 132 12
	movq	144(%rbp), %rax
	movq	%rax, %rdx
	movq	128(%rbp), %rcx
	call	_ZN23CoeficienteAerodinamicoC1ERKS_
.LEHE6:
.L55:
	.loc 6 80 54
	leaq	-80(%rbp), %rax
	movq	%rax, %rcx
	call	_ZNSt7__cxx1112basic_stringIcSt11char_traitsIcESaIcEED1Ev
	jmp	.L61
.L60:
	movq	%rax, %rbx
	leaq	-80(%rbp), %rax
	movq	%rax, %rcx
	call	_ZNSt7__cxx1112basic_stringIcSt11char_traitsIcESaIcEED1Ev
	movq	%rbx, %rax
	movq	%rax, %rcx
.LEHB7:
	call	_Unwind_Resume
.LEHE7:
.L61:
	.loc 6 133 1
	movq	128(%rbp), %rax
	addq	$232, %rsp
	popq	%rbx
	.cfi_restore 3
	popq	%rbp
	.cfi_restore 6
	.cfi_def_cfa 7, -216
	ret
	.cfi_endproc
.LFE1404:
	.seh_handler	__gxx_personality_seh0, @unwind, @except
	.seh_handlerdata
.LLSDA1404:
	.byte	0xff
	.byte	0xff
	.byte	0x1
	.uleb128 .LLSDACSE1404-.LLSDACSB1404
.LLSDACSB1404:
	.uleb128 .LEHB5-.LFB1404
	.uleb128 .LEHE5-.LEHB5
	.uleb128 0
	.uleb128 0
	.uleb128 .LEHB6-.LFB1404
	.uleb128 .LEHE6-.LEHB6
	.uleb128 .L60-.LFB1404
	.uleb128 0
	.uleb128 .LEHB7-.LFB1404
	.uleb128 .LEHE7-.LEHB7
	.uleb128 0
	.uleb128 0
.LLSDACSE1404:
	.text
	.seh_endproc
	.align 2
	.globl	_ZN15CoeficientesDAO11getInstanceEv
	.def	_ZN15CoeficientesDAO11getInstanceEv;	.scl	2;	.type	32;	.endef
	.seh_proc	_ZN15CoeficientesDAO11getInstanceEv
_ZN15CoeficientesDAO11getInstanceEv:
.LFB1408:
	.loc 6 137 1
	.cfi_startproc
	pushq	%rbp
	.seh_pushreg	%rbp
	.cfi_def_cfa_offset 16
	.cfi_offset 6, -16
	pushq	%rsi
	.seh_pushreg	%rsi
	.cfi_def_cfa_offset 24
	.cfi_offset 4, -24
	pushq	%rbx
	.seh_pushreg	%rbx
	.cfi_def_cfa_offset 32
	.cfi_offset 3, -32
	movq	%rsp, %rbp
	.seh_setframe	%rbp, 0
	.cfi_def_cfa_register 6
	subq	$32, %rsp
	.seh_stackalloc	32
	.seh_endprologue
	.loc 6 138 17
	movq	_ZN15CoeficientesDAO8instanceE(%rip), %rax
	.loc 6 138 5
	testq	%rax, %rax
	jne	.L63
	.loc 6 141 40
	movl	$152, %ecx
.LEHB8:
	call	_Znwy
.LEHE8:
	movq	%rax, %rbx
	movq	%rbx, %rcx
.LEHB9:
	call	_ZN15CoeficientesDAOC1Ev
.LEHE9:
	.loc 6 141 18
	movq	%rbx, _ZN15CoeficientesDAO8instanceE(%rip)
.L63:
	.loc 6 144 12
	movq	_ZN15CoeficientesDAO8instanceE(%rip), %rax
	jmp	.L67
.L66:
	movq	%rax, %rsi
	.loc 6 141 40
	movq	%rbx, %rcx
	call	_ZdlPv
	movq	%rsi, %rax
	movq	%rax, %rcx
.LEHB10:
	call	_Unwind_Resume
.LEHE10:
.L67:
	.loc 6 146 1
	addq	$32, %rsp
	popq	%rbx
	.cfi_restore 3
	popq	%rsi
	.cfi_restore 4
	popq	%rbp
	.cfi_restore 6
	.cfi_def_cfa 7, 24
	ret
	.cfi_endproc
.LFE1408:
	.seh_handler	__gxx_personality_seh0, @unwind, @except
	.seh_handlerdata
.LLSDA1408:
	.byte	0xff
	.byte	0xff
	.byte	0x1
	.uleb128 .LLSDACSE1408-.LLSDACSB1408
.LLSDACSB1408:
	.uleb128 .LEHB8-.LFB1408
	.uleb128 .LEHE8-.LEHB8
	.uleb128 0
	.uleb128 0
	.uleb128 .LEHB9-.LFB1408
	.uleb128 .LEHE9-.LEHB9
	.uleb128 .L66-.LFB1408
	.uleb128 0
	.uleb128 .LEHB10-.LFB1408
	.uleb128 .LEHE10-.LEHB10
	.uleb128 0
	.uleb128 0
.LLSDACSE1408:
	.text
	.seh_endproc
	.align 2
	.globl	_ZN15CoeficientesDAO11setProjetilE13TIPO_PROJETIL
	.def	_ZN15CoeficientesDAO11setProjetilE13TIPO_PROJETIL;	.scl	2;	.type	32;	.endef
	.seh_proc	_ZN15CoeficientesDAO11setProjetilE13TIPO_PROJETIL
_ZN15CoeficientesDAO11setProjetilE13TIPO_PROJETIL:
.LFB1409:
	.loc 6 149 1
	.cfi_startproc
	pushq	%rbp
	.seh_pushreg	%rbp
	.cfi_def_cfa_offset 16
	.cfi_offset 6, -16
	movq	%rsp, %rbp
	.seh_setframe	%rbp, 0
	.cfi_def_cfa_register 6
	subq	$160, %rsp
	.seh_stackalloc	160
	.seh_endprologue
	movq	%rcx, 16(%rbp)
	movl	%edx, 24(%rbp)
	.loc 6 150 17
	movq	16(%rbp), %rax
	addq	$8, %rax
	movl	24(%rbp), %edx
	movq	%rax, %rcx
	call	_ZN8Projetil7setTipoE13TIPO_PROJETIL
	.loc 6 151 45
	call	_ZN11ProjetilDAO11getInstanceEv
	movq	%rax, %rcx
	.loc 6 151 46
	movq	16(%rbp), %rax
	leaq	8(%rax), %rdx
	.loc 6 151 45
	leaq	-128(%rbp), %rax
	movq	%rdx, %r8
	movq	%rcx, %rdx
	movq	%rax, %rcx
	call	_ZN11ProjetilDAO12geraProjetilER8Projetil
	leaq	-128(%rbp), %rax
	movq	%rax, %rcx
	call	_ZN8ProjetilD1Ev
	.loc 6 154 1
	nop
	addq	$160, %rsp
	popq	%rbp
	.cfi_restore 6
	.cfi_def_cfa 7, 8
	ret
	.cfi_endproc
.LFE1409:
	.seh_endproc
	.section	.text$_ZNSt6vectorIdSaIdEED1Ev,"x"
	.linkonce discard
	.align 2
	.globl	_ZNSt6vectorIdSaIdEED1Ev
	.def	_ZNSt6vectorIdSaIdEED1Ev;	.scl	2;	.type	32;	.endef
	.seh_proc	_ZNSt6vectorIdSaIdEED1Ev
_ZNSt6vectorIdSaIdEED1Ev:
.LFB1601:
	.file 7 "C:/Program Files/CodeBlocks/MinGW/lib/gcc/x86_64-w64-mingw32/8.1.0/include/c++/bits/stl_vector.h"
	.loc 7 565 7
	.cfi_startproc
	pushq	%rbp
	.seh_pushreg	%rbp
	.cfi_def_cfa_offset 16
	.cfi_offset 6, -16
	movq	%rsp, %rbp
	.seh_setframe	%rbp, 0
	.cfi_def_cfa_register 6
	subq	$32, %rsp
	.seh_stackalloc	32
	.seh_endprologue
	movq	%rcx, 16(%rbp)
.LBB12:
	.loc 7 568 28
	movq	16(%rbp), %rax
	movq	%rax, %rcx
	call	_ZNSt12_Vector_baseIdSaIdEE19_M_get_Tp_allocatorEv
	movq	%rax, %rcx
	.loc 7 567 15
	movq	16(%rbp), %rax
	movq	8(%rax), %rdx
	movq	16(%rbp), %rax
	movq	(%rax), %rax
	movq	%rcx, %r8
	movq	%rax, %rcx
	call	_ZSt8_DestroyIPddEvT_S1_RSaIT0_E
	.loc 7 570 7
	movq	16(%rbp), %rax
	movq	%rax, %rcx
	call	_ZNSt12_Vector_baseIdSaIdEED2Ev
.LBE12:
	nop
	addq	$32, %rsp
	popq	%rbp
	.cfi_restore 6
	.cfi_def_cfa 7, 8
	ret
	.cfi_endproc
.LFE1601:
	.seh_handler	__gxx_personality_seh0, @unwind, @except
	.seh_handlerdata
.LLSDA1601:
	.byte	0xff
	.byte	0xff
	.byte	0x1
	.uleb128 .LLSDACSE1601-.LLSDACSB1601
.LLSDACSB1601:
.LLSDACSE1601:
	.section	.text$_ZNSt6vectorIdSaIdEED1Ev,"x"
	.linkonce discard
	.seh_endproc
	.section	.text$_ZNSt6vectorIdSaIdEEC1ERKS1_,"x"
	.linkonce discard
	.align 2
	.globl	_ZNSt6vectorIdSaIdEEC1ERKS1_
	.def	_ZNSt6vectorIdSaIdEEC1ERKS1_;	.scl	2;	.type	32;	.endef
	.seh_proc	_ZNSt6vectorIdSaIdEEC1ERKS1_
_ZNSt6vectorIdSaIdEEC1ERKS1_:
.LFB1604:
	.loc 7 458 7
	.cfi_startproc
	pushq	%rbp
	.seh_pushreg	%rbp
	.cfi_def_cfa_offset 16
	.cfi_offset 6, -16
	pushq	%rdi
	.seh_pushreg	%rdi
	.cfi_def_cfa_offset 24
	.cfi_offset 5, -24
	pushq	%rsi
	.seh_pushreg	%rsi
	.cfi_def_cfa_offset 32
	.cfi_offset 4, -32
	pushq	%rbx
	.seh_pushreg	%rbx
	.cfi_def_cfa_offset 40
	.cfi_offset 3, -40
	subq	$56, %rsp
	.seh_stackalloc	56
	.cfi_def_cfa_offset 96
	leaq	128(%rsp), %rbp
	.seh_setframe	%rbp, 128
	.cfi_def_cfa 6, -32
	.seh_endprologue
	movq	%rcx, -32(%rbp)
	movq	%rdx, -24(%rbp)
.LBB13:
	.loc 7 460 61
	movq	-32(%rbp), %rbx
	.loc 7 460 34
	movq	-24(%rbp), %rax
	movq	%rax, %rcx
	call	_ZNKSt12_Vector_baseIdSaIdEE19_M_get_Tp_allocatorEv
	movq	%rax, %rdx
	.loc 7 460 61
	leaq	-81(%rbp), %rax
	movq	%rax, %rcx
.LEHB11:
	call	_ZN9__gnu_cxx14__alloc_traitsISaIdEdE17_S_select_on_copyERKS1_
.LEHE11:
	movq	-24(%rbp), %rax
	movq	%rax, %rcx
	call	_ZNKSt6vectorIdSaIdEE4sizeEv
	movq	%rax, %rdx
	leaq	-81(%rbp), %rax
	movq	%rax, %r8
	movq	%rbx, %rcx
.LEHB12:
	call	_ZNSt12_Vector_baseIdSaIdEEC2EyRKS0_
.LEHE12:
	.loc 7 460 61 is_stmt 0 discriminator 2
	leaq	-81(%rbp), %rax
	movq	%rax, %rcx
	call	_ZNSaIdED1Ev
	.loc 7 465 30 is_stmt 1 discriminator 2
	movq	-32(%rbp), %rax
	movq	%rax, %rcx
	call	_ZNSt12_Vector_baseIdSaIdEE19_M_get_Tp_allocatorEv
	movq	%rax, %rdi
	.loc 7 463 31 discriminator 2
	movq	-32(%rbp), %rax
	movq	(%rax), %rbx
	movq	-24(%rbp), %rax
	movq	%rax, %rcx
	call	_ZNKSt6vectorIdSaIdEE3endEv
	movq	%rax, %rsi
	movq	-24(%rbp), %rax
	movq	%rax, %rcx
	call	_ZNKSt6vectorIdSaIdEE5beginEv
	movq	%rdi, %r9
	movq	%rbx, %r8
	movq	%rsi, %rdx
	movq	%rax, %rcx
.LEHB13:
	call	_ZSt22__uninitialized_copy_aIN9__gnu_cxx17__normal_iteratorIPKdSt6vectorIdSaIdEEEEPddET0_T_SA_S9_RSaIT1_E
.LEHE13:
	movq	%rax, %rdx
	.loc 7 462 2 discriminator 2
	movq	-32(%rbp), %rax
	movq	%rdx, 8(%rax)
.LBE13:
	.loc 7 466 7 discriminator 2
	jmp	.L75
.L73:
	movq	%rax, %rbx
.LBB14:
	.loc 7 460 61
	leaq	-81(%rbp), %rax
	movq	%rax, %rcx
	call	_ZNSaIdED1Ev
	movq	%rbx, %rax
	movq	%rax, %rcx
.LEHB14:
	call	_Unwind_Resume
.L74:
	movq	%rax, %rbx
	movq	-32(%rbp), %rax
	movq	%rax, %rcx
	call	_ZNSt12_Vector_baseIdSaIdEED2Ev
	movq	%rbx, %rax
	movq	%rax, %rcx
	call	_Unwind_Resume
	nop
.LEHE14:
.L75:
.LBE14:
	.loc 7 466 7
	addq	$56, %rsp
	popq	%rbx
	.cfi_restore 3
	popq	%rsi
	.cfi_restore 4
	popq	%rdi
	.cfi_restore 5
	popq	%rbp
	.cfi_restore 6
	.cfi_def_cfa 7, -24
	ret
	.cfi_endproc
.LFE1604:
	.seh_handler	__gxx_personality_seh0, @unwind, @except
	.seh_handlerdata
.LLSDA1604:
	.byte	0xff
	.byte	0xff
	.byte	0x1
	.uleb128 .LLSDACSE1604-.LLSDACSB1604
.LLSDACSB1604:
	.uleb128 .LEHB11-.LFB1604
	.uleb128 .LEHE11-.LEHB11
	.uleb128 0
	.uleb128 0
	.uleb128 .LEHB12-.LFB1604
	.uleb128 .LEHE12-.LEHB12
	.uleb128 .L73-.LFB1604
	.uleb128 0
	.uleb128 .LEHB13-.LFB1604
	.uleb128 .LEHE13-.LEHB13
	.uleb128 .L74-.LFB1604
	.uleb128 0
	.uleb128 .LEHB14-.LFB1604
	.uleb128 .LEHE14-.LEHB14
	.uleb128 0
	.uleb128 0
.LLSDACSE1604:
	.section	.text$_ZNSt6vectorIdSaIdEEC1ERKS1_,"x"
	.linkonce discard
	.seh_endproc
	.section	.text$_ZSt4moveIRdEONSt16remove_referenceIT_E4typeEOS2_,"x"
	.linkonce discard
	.globl	_ZSt4moveIRdEONSt16remove_referenceIT_E4typeEOS2_
	.def	_ZSt4moveIRdEONSt16remove_referenceIT_E4typeEOS2_;	.scl	2;	.type	32;	.endef
	.seh_proc	_ZSt4moveIRdEONSt16remove_referenceIT_E4typeEOS2_
_ZSt4moveIRdEONSt16remove_referenceIT_E4typeEOS2_:
.LFB1606:
	.file 8 "C:/Program Files/CodeBlocks/MinGW/lib/gcc/x86_64-w64-mingw32/8.1.0/include/c++/bits/move.h"
	.loc 8 99 5
	.cfi_startproc
	pushq	%rbp
	.seh_pushreg	%rbp
	.cfi_def_cfa_offset 16
	.cfi_offset 6, -16
	movq	%rsp, %rbp
	.seh_setframe	%rbp, 0
	.cfi_def_cfa_register 6
	.seh_endprologue
	movq	%rcx, 16(%rbp)
	.loc 8 100 74
	movq	16(%rbp), %rax
	.loc 8 100 77
	popq	%rbp
	.cfi_restore 6
	.cfi_def_cfa 7, 8
	ret
	.cfi_endproc
.LFE1606:
	.seh_endproc
	.section	.text$_ZNSt6vectorIdSaIdEE9push_backEOd,"x"
	.linkonce discard
	.align 2
	.globl	_ZNSt6vectorIdSaIdEE9push_backEOd
	.def	_ZNSt6vectorIdSaIdEE9push_backEOd;	.scl	2;	.type	32;	.endef
	.seh_proc	_ZNSt6vectorIdSaIdEE9push_backEOd
_ZNSt6vectorIdSaIdEE9push_backEOd:
.LFB1605:
	.loc 7 1090 7
	.cfi_startproc
	pushq	%rbp
	.seh_pushreg	%rbp
	.cfi_def_cfa_offset 16
	.cfi_offset 6, -16
	movq	%rsp, %rbp
	.seh_setframe	%rbp, 0
	.cfi_def_cfa_register 6
	subq	$32, %rsp
	.seh_stackalloc	32
	.seh_endprologue
	movq	%rcx, 16(%rbp)
	movq	%rdx, 24(%rbp)
	.loc 7 1091 31
	movq	24(%rbp), %rax
	movq	%rax, %rcx
	call	_ZSt4moveIRdEONSt16remove_referenceIT_E4typeEOS2_
	.loc 7 1091 9
	movq	%rax, %rdx
	movq	16(%rbp), %rcx
	call	_ZNSt6vectorIdSaIdEE12emplace_backIJdEEEvDpOT_
	.loc 7 1091 39
	nop
	addq	$32, %rsp
	popq	%rbp
	.cfi_restore 6
	.cfi_def_cfa 7, 8
	ret
	.cfi_endproc
.LFE1605:
	.seh_endproc
	.section	.text$_ZNSt12_Vector_baseIdSaIdEE12_Vector_implD1Ev,"x"
	.linkonce discard
	.align 2
	.globl	_ZNSt12_Vector_baseIdSaIdEE12_Vector_implD1Ev
	.def	_ZNSt12_Vector_baseIdSaIdEE12_Vector_implD1Ev;	.scl	2;	.type	32;	.endef
	.seh_proc	_ZNSt12_Vector_baseIdSaIdEE12_Vector_implD1Ev
_ZNSt12_Vector_baseIdSaIdEE12_Vector_implD1Ev:
.LFB1669:
	.loc 7 88 14
	.cfi_startproc
	pushq	%rbp
	.seh_pushreg	%rbp
	.cfi_def_cfa_offset 16
	.cfi_offset 6, -16
	movq	%rsp, %rbp
	.seh_setframe	%rbp, 0
	.cfi_def_cfa_register 6
	subq	$32, %rsp
	.seh_stackalloc	32
	.seh_endprologue
	movq	%rcx, 16(%rbp)
.LBB15:
	.loc 7 88 14
	movq	16(%rbp), %rcx
	call	_ZNSaIdED2Ev
.LBE15:
	nop
	addq	$32, %rsp
	popq	%rbp
	.cfi_restore 6
	.cfi_def_cfa 7, 8
	ret
	.cfi_endproc
.LFE1669:
	.seh_endproc
	.section	.text$_ZNSt12_Vector_baseIdSaIdEED2Ev,"x"
	.linkonce discard
	.align 2
	.globl	_ZNSt12_Vector_baseIdSaIdEED2Ev
	.def	_ZNSt12_Vector_baseIdSaIdEED2Ev;	.scl	2;	.type	32;	.endef
	.seh_proc	_ZNSt12_Vector_baseIdSaIdEED2Ev
_ZNSt12_Vector_baseIdSaIdEED2Ev:
.LFB1673:
	.loc 7 283 7
	.cfi_startproc
	pushq	%rbp
	.seh_pushreg	%rbp
	.cfi_def_cfa_offset 16
	.cfi_offset 6, -16
	movq	%rsp, %rbp
	.seh_setframe	%rbp, 0
	.cfi_def_cfa_register 6
	subq	$32, %rsp
	.seh_stackalloc	32
	.seh_endprologue
	movq	%rcx, 16(%rbp)
.LBB16:
	.loc 7 286 17
	movq	16(%rbp), %rax
	movq	16(%rax), %rdx
	.loc 7 286 45
	movq	16(%rbp), %rax
	movq	(%rax), %rax
	.loc 7 286 35
	subq	%rax, %rdx
	movq	%rdx, %rax
	sarq	$3, %rax
	.loc 7 285 2
	movq	%rax, %rdx
	movq	16(%rbp), %rax
	movq	(%rax), %rax
	movq	%rdx, %r8
	movq	%rax, %rdx
	movq	16(%rbp), %rcx
	call	_ZNSt12_Vector_baseIdSaIdEE13_M_deallocateEPdy
	.loc 7 287 7
	movq	16(%rbp), %rax
	movq	%rax, %rcx
	call	_ZNSt12_Vector_baseIdSaIdEE12_Vector_implD1Ev
.LBE16:
	nop
	addq	$32, %rsp
	popq	%rbp
	.cfi_restore 6
	.cfi_def_cfa 7, 8
	ret
	.cfi_endproc
.LFE1673:
	.seh_handler	__gxx_personality_seh0, @unwind, @except
	.seh_handlerdata
.LLSDA1673:
	.byte	0xff
	.byte	0xff
	.byte	0x1
	.uleb128 .LLSDACSE1673-.LLSDACSB1673
.LLSDACSB1673:
.LLSDACSE1673:
	.section	.text$_ZNSt12_Vector_baseIdSaIdEED2Ev,"x"
	.linkonce discard
	.seh_endproc
	.section	.text$_ZNSt12_Vector_baseIdSaIdEE19_M_get_Tp_allocatorEv,"x"
	.linkonce discard
	.align 2
	.globl	_ZNSt12_Vector_baseIdSaIdEE19_M_get_Tp_allocatorEv
	.def	_ZNSt12_Vector_baseIdSaIdEE19_M_get_Tp_allocatorEv;	.scl	2;	.type	32;	.endef
	.seh_proc	_ZNSt12_Vector_baseIdSaIdEE19_M_get_Tp_allocatorEv
_ZNSt12_Vector_baseIdSaIdEE19_M_get_Tp_allocatorEv:
.LFB1675:
	.loc 7 237 7
	.cfi_startproc
	pushq	%rbp
	.seh_pushreg	%rbp
	.cfi_def_cfa_offset 16
	.cfi_offset 6, -16
	movq	%rsp, %rbp
	.seh_setframe	%rbp, 0
	.cfi_def_cfa_register 6
	.seh_endprologue
	movq	%rcx, 16(%rbp)
	.loc 7 238 60
	movq	16(%rbp), %rax
	.loc 7 238 63
	popq	%rbp
	.cfi_restore 6
	.cfi_def_cfa 7, 8
	ret
	.cfi_endproc
.LFE1675:
	.seh_endproc
	.section	.text$_ZSt8_DestroyIPddEvT_S1_RSaIT0_E,"x"
	.linkonce discard
	.globl	_ZSt8_DestroyIPddEvT_S1_RSaIT0_E
	.def	_ZSt8_DestroyIPddEvT_S1_RSaIT0_E;	.scl	2;	.type	32;	.endef
	.seh_proc	_ZSt8_DestroyIPddEvT_S1_RSaIT0_E
_ZSt8_DestroyIPddEvT_S1_RSaIT0_E:
.LFB1676:
	.file 9 "C:/Program Files/CodeBlocks/MinGW/lib/gcc/x86_64-w64-mingw32/8.1.0/include/c++/bits/stl_construct.h"
	.loc 9 203 5
	.cfi_startproc
	pushq	%rbp
	.seh_pushreg	%rbp
	.cfi_def_cfa_offset 16
	.cfi_offset 6, -16
	movq	%rsp, %rbp
	.seh_setframe	%rbp, 0
	.cfi_def_cfa_register 6
	subq	$32, %rsp
	.seh_stackalloc	32
	.seh_endprologue
	movq	%rcx, 16(%rbp)
	movq	%rdx, 24(%rbp)
	movq	%r8, 32(%rbp)
	.loc 9 206 15
	movq	24(%rbp), %rax
	movq	%rax, %rdx
	movq	16(%rbp), %rcx
	call	_ZSt8_DestroyIPdEvT_S1_
	.loc 9 207 5
	nop
	addq	$32, %rsp
	popq	%rbp
	.cfi_restore 6
	.cfi_def_cfa 7, 8
	ret
	.cfi_endproc
.LFE1676:
	.seh_endproc
	.section	.text$_ZNKSt6vectorIdSaIdEE4sizeEv,"x"
	.linkonce discard
	.align 2
	.globl	_ZNKSt6vectorIdSaIdEE4sizeEv
	.def	_ZNKSt6vectorIdSaIdEE4sizeEv;	.scl	2;	.type	32;	.endef
	.seh_proc	_ZNKSt6vectorIdSaIdEE4sizeEv
_ZNKSt6vectorIdSaIdEE4sizeEv:
.LFB1677:
	.loc 7 805 7
	.cfi_startproc
	pushq	%rbp
	.seh_pushreg	%rbp
	.cfi_def_cfa_offset 16
	.cfi_offset 6, -16
	movq	%rsp, %rbp
	.seh_setframe	%rbp, 0
	.cfi_def_cfa_register 6
	.seh_endprologue
	movq	%rcx, 16(%rbp)
	.loc 7 806 40
	movq	16(%rbp), %rax
	movq	8(%rax), %rdx
	.loc 7 806 66
	movq	16(%rbp), %rax
	movq	(%rax), %rax
	.loc 7 806 50
	subq	%rax, %rdx
	movq	%rdx, %rax
	sarq	$3, %rax
	.loc 7 806 77
	popq	%rbp
	.cfi_restore 6
	.cfi_def_cfa 7, 8
	ret
	.cfi_endproc
.LFE1677:
	.seh_endproc
	.section	.text$_ZN9__gnu_cxx14__alloc_traitsISaIdEdE17_S_select_on_copyERKS1_,"x"
	.linkonce discard
	.globl	_ZN9__gnu_cxx14__alloc_traitsISaIdEdE17_S_select_on_copyERKS1_
	.def	_ZN9__gnu_cxx14__alloc_traitsISaIdEdE17_S_select_on_copyERKS1_;	.scl	2;	.type	32;	.endef
	.seh_proc	_ZN9__gnu_cxx14__alloc_traitsISaIdEdE17_S_select_on_copyERKS1_
_ZN9__gnu_cxx14__alloc_traitsISaIdEdE17_S_select_on_copyERKS1_:
.LFB1678:
	.file 10 "C:/Program Files/CodeBlocks/MinGW/lib/gcc/x86_64-w64-mingw32/8.1.0/include/c++/ext/alloc_traits.h"
	.loc 10 94 19
	.cfi_startproc
	pushq	%rbp
	.seh_pushreg	%rbp
	.cfi_def_cfa_offset 16
	.cfi_offset 6, -16
	movq	%rsp, %rbp
	.seh_setframe	%rbp, 0
	.cfi_def_cfa_register 6
	subq	$32, %rsp
	.seh_stackalloc	32
	.seh_endprologue
	movq	%rcx, 16(%rbp)
	movq	%rdx, 24(%rbp)
	.loc 10 95 67
	movq	16(%rbp), %rax
	movq	24(%rbp), %rdx
	movq	%rax, %rcx
	call	_ZNSt16allocator_traitsISaIdEE37select_on_container_copy_constructionERKS0_
	.loc 10 95 70
	movq	16(%rbp), %rax
	addq	$32, %rsp
	popq	%rbp
	.cfi_restore 6
	.cfi_def_cfa 7, 8
	ret
	.cfi_endproc
.LFE1678:
	.seh_endproc
	.section	.text$_ZNKSt12_Vector_baseIdSaIdEE19_M_get_Tp_allocatorEv,"x"
	.linkonce discard
	.align 2
	.globl	_ZNKSt12_Vector_baseIdSaIdEE19_M_get_Tp_allocatorEv
	.def	_ZNKSt12_Vector_baseIdSaIdEE19_M_get_Tp_allocatorEv;	.scl	2;	.type	32;	.endef
	.seh_proc	_ZNKSt12_Vector_baseIdSaIdEE19_M_get_Tp_allocatorEv
_ZNKSt12_Vector_baseIdSaIdEE19_M_get_Tp_allocatorEv:
.LFB1679:
	.loc 7 241 7
	.cfi_startproc
	pushq	%rbp
	.seh_pushreg	%rbp
	.cfi_def_cfa_offset 16
	.cfi_offset 6, -16
	movq	%rsp, %rbp
	.seh_setframe	%rbp, 0
	.cfi_def_cfa_register 6
	.seh_endprologue
	movq	%rcx, 16(%rbp)
	.loc 7 242 66
	movq	16(%rbp), %rax
	.loc 7 242 69
	popq	%rbp
	.cfi_restore 6
	.cfi_def_cfa 7, 8
	ret
	.cfi_endproc
.LFE1679:
	.seh_endproc
	.section	.text$_ZNSaIdED2Ev,"x"
	.linkonce discard
	.align 2
	.globl	_ZNSaIdED2Ev
	.def	_ZNSaIdED2Ev;	.scl	2;	.type	32;	.endef
	.seh_proc	_ZNSaIdED2Ev
_ZNSaIdED2Ev:
.LFB1681:
	.file 11 "C:/Program Files/CodeBlocks/MinGW/lib/gcc/x86_64-w64-mingw32/8.1.0/include/c++/bits/allocator.h"
	.loc 11 139 7
	.cfi_startproc
	pushq	%rbp
	.seh_pushreg	%rbp
	.cfi_def_cfa_offset 16
	.cfi_offset 6, -16
	movq	%rsp, %rbp
	.seh_setframe	%rbp, 0
	.cfi_def_cfa_register 6
	subq	$32, %rsp
	.seh_stackalloc	32
	.seh_endprologue
	movq	%rcx, 16(%rbp)
.LBB17:
	.loc 11 139 30
	movq	16(%rbp), %rcx
	call	_ZN9__gnu_cxx13new_allocatorIdED2Ev
.LBE17:
	nop
	addq	$32, %rsp
	popq	%rbp
	.cfi_restore 6
	.cfi_def_cfa 7, 8
	ret
	.cfi_endproc
.LFE1681:
	.seh_endproc
	.section	.text$_ZNSaIdED1Ev,"x"
	.linkonce discard
	.align 2
	.globl	_ZNSaIdED1Ev
	.def	_ZNSaIdED1Ev;	.scl	2;	.type	32;	.endef
	.seh_proc	_ZNSaIdED1Ev
_ZNSaIdED1Ev:
.LFB1682:
	.loc 11 139 7
	.cfi_startproc
	pushq	%rbp
	.seh_pushreg	%rbp
	.cfi_def_cfa_offset 16
	.cfi_offset 6, -16
	movq	%rsp, %rbp
	.seh_setframe	%rbp, 0
	.cfi_def_cfa_register 6
	subq	$32, %rsp
	.seh_stackalloc	32
	.seh_endprologue
	movq	%rcx, 16(%rbp)
.LBB18:
	.loc 11 139 30
	movq	16(%rbp), %rcx
	call	_ZN9__gnu_cxx13new_allocatorIdED2Ev
.LBE18:
	nop
	addq	$32, %rsp
	popq	%rbp
	.cfi_restore 6
	.cfi_def_cfa 7, 8
	ret
	.cfi_endproc
.LFE1682:
	.seh_endproc
	.section	.text$_ZNSt12_Vector_baseIdSaIdEEC2EyRKS0_,"x"
	.linkonce discard
	.align 2
	.globl	_ZNSt12_Vector_baseIdSaIdEEC2EyRKS0_
	.def	_ZNSt12_Vector_baseIdSaIdEEC2EyRKS0_;	.scl	2;	.type	32;	.endef
	.seh_proc	_ZNSt12_Vector_baseIdSaIdEEC2EyRKS0_
_ZNSt12_Vector_baseIdSaIdEEC2EyRKS0_:
.LFB1684:
	.loc 7 258 7
	.cfi_startproc
	pushq	%rbp
	.seh_pushreg	%rbp
	.cfi_def_cfa_offset 16
	.cfi_offset 6, -16
	pushq	%rbx
	.seh_pushreg	%rbx
	.cfi_def_cfa_offset 24
	.cfi_offset 3, -24
	subq	$40, %rsp
	.seh_stackalloc	40
	.cfi_def_cfa_offset 64
	leaq	128(%rsp), %rbp
	.seh_setframe	%rbp, 128
	.cfi_def_cfa 6, -64
	.seh_endprologue
	movq	%rcx, -64(%rbp)
	movq	%rdx, -56(%rbp)
	movq	%r8, -48(%rbp)
.LBB19:
	.loc 7 259 20
	movq	-64(%rbp), %rax
	movq	-48(%rbp), %rdx
	movq	%rax, %rcx
	call	_ZNSt12_Vector_baseIdSaIdEE12_Vector_implC1ERKS0_
	.loc 7 260 9
	movq	-56(%rbp), %rax
	movq	%rax, %rdx
	movq	-64(%rbp), %rcx
.LEHB15:
	call	_ZNSt12_Vector_baseIdSaIdEE17_M_create_storageEy
.LEHE15:
.LBE19:
	.loc 7 260 33
	jmp	.L95
.L94:
	movq	%rax, %rbx
.LBB20:
	.loc 7 259 20
	movq	-64(%rbp), %rax
	movq	%rax, %rcx
	call	_ZNSt12_Vector_baseIdSaIdEE12_Vector_implD1Ev
	movq	%rbx, %rax
	movq	%rax, %rcx
.LEHB16:
	call	_Unwind_Resume
	nop
.LEHE16:
.L95:
.LBE20:
	.loc 7 260 33
	addq	$40, %rsp
	popq	%rbx
	.cfi_restore 3
	popq	%rbp
	.cfi_restore 6
	.cfi_def_cfa 7, -24
	ret
	.cfi_endproc
.LFE1684:
	.seh_handler	__gxx_personality_seh0, @unwind, @except
	.seh_handlerdata
.LLSDA1684:
	.byte	0xff
	.byte	0xff
	.byte	0x1
	.uleb128 .LLSDACSE1684-.LLSDACSB1684
.LLSDACSB1684:
	.uleb128 .LEHB15-.LFB1684
	.uleb128 .LEHE15-.LEHB15
	.uleb128 .L94-.LFB1684
	.uleb128 0
	.uleb128 .LEHB16-.LFB1684
	.uleb128 .LEHE16-.LEHB16
	.uleb128 0
	.uleb128 0
.LLSDACSE1684:
	.section	.text$_ZNSt12_Vector_baseIdSaIdEEC2EyRKS0_,"x"
	.linkonce discard
	.seh_endproc
	.section	.text$_ZNKSt6vectorIdSaIdEE5beginEv,"x"
	.linkonce discard
	.align 2
	.globl	_ZNKSt6vectorIdSaIdEE5beginEv
	.def	_ZNKSt6vectorIdSaIdEE5beginEv;	.scl	2;	.type	32;	.endef
	.seh_proc	_ZNKSt6vectorIdSaIdEE5beginEv
_ZNKSt6vectorIdSaIdEE5beginEv:
.LFB1686:
	.loc 7 707 7
	.cfi_startproc
	pushq	%rbp
	.seh_pushreg	%rbp
	.cfi_def_cfa_offset 16
	.cfi_offset 6, -16
	movq	%rsp, %rbp
	.seh_setframe	%rbp, 0
	.cfi_def_cfa_register 6
	subq	$48, %rsp
	.seh_stackalloc	48
	.seh_endprologue
	movq	%rcx, 16(%rbp)
	.loc 7 708 45
	movq	16(%rbp), %rax
	movq	(%rax), %rax
	movq	%rax, -8(%rbp)
	.loc 7 708 53
	leaq	-8(%rbp), %rdx
	leaq	-16(%rbp), %rax
	movq	%rax, %rcx
	call	_ZN9__gnu_cxx17__normal_iteratorIPKdSt6vectorIdSaIdEEEC1ERKS2_
	movq	-16(%rbp), %rax
	.loc 7 708 56
	addq	$48, %rsp
	popq	%rbp
	.cfi_restore 6
	.cfi_def_cfa 7, 8
	ret
	.cfi_endproc
.LFE1686:
	.seh_endproc
	.section	.text$_ZNKSt6vectorIdSaIdEE3endEv,"x"
	.linkonce discard
	.align 2
	.globl	_ZNKSt6vectorIdSaIdEE3endEv
	.def	_ZNKSt6vectorIdSaIdEE3endEv;	.scl	2;	.type	32;	.endef
	.seh_proc	_ZNKSt6vectorIdSaIdEE3endEv
_ZNKSt6vectorIdSaIdEE3endEv:
.LFB1687:
	.loc 7 725 7
	.cfi_startproc
	pushq	%rbp
	.seh_pushreg	%rbp
	.cfi_def_cfa_offset 16
	.cfi_offset 6, -16
	movq	%rsp, %rbp
	.seh_setframe	%rbp, 0
	.cfi_def_cfa_register 6
	subq	$48, %rsp
	.seh_stackalloc	48
	.seh_endprologue
	movq	%rcx, 16(%rbp)
	.loc 7 726 45
	movq	16(%rbp), %rax
	movq	8(%rax), %rax
	movq	%rax, -8(%rbp)
	.loc 7 726 54
	leaq	-8(%rbp), %rdx
	leaq	-16(%rbp), %rax
	movq	%rax, %rcx
	call	_ZN9__gnu_cxx17__normal_iteratorIPKdSt6vectorIdSaIdEEEC1ERKS2_
	movq	-16(%rbp), %rax
	.loc 7 726 57
	addq	$48, %rsp
	popq	%rbp
	.cfi_restore 6
	.cfi_def_cfa 7, 8
	ret
	.cfi_endproc
.LFE1687:
	.seh_endproc
	.section	.text$_ZSt22__uninitialized_copy_aIN9__gnu_cxx17__normal_iteratorIPKdSt6vectorIdSaIdEEEEPddET0_T_SA_S9_RSaIT1_E,"x"
	.linkonce discard
	.globl	_ZSt22__uninitialized_copy_aIN9__gnu_cxx17__normal_iteratorIPKdSt6vectorIdSaIdEEEEPddET0_T_SA_S9_RSaIT1_E
	.def	_ZSt22__uninitialized_copy_aIN9__gnu_cxx17__normal_iteratorIPKdSt6vectorIdSaIdEEEEPddET0_T_SA_S9_RSaIT1_E;	.scl	2;	.type	32;	.endef
	.seh_proc	_ZSt22__uninitialized_copy_aIN9__gnu_cxx17__normal_iteratorIPKdSt6vectorIdSaIdEEEEPddET0_T_SA_S9_RSaIT1_E
_ZSt22__uninitialized_copy_aIN9__gnu_cxx17__normal_iteratorIPKdSt6vectorIdSaIdEEEEPddET0_T_SA_S9_RSaIT1_E:
.LFB1688:
	.file 12 "C:/Program Files/CodeBlocks/MinGW/lib/gcc/x86_64-w64-mingw32/8.1.0/include/c++/bits/stl_uninitialized.h"
	.loc 12 287 5
	.cfi_startproc
	pushq	%rbp
	.seh_pushreg	%rbp
	.cfi_def_cfa_offset 16
	.cfi_offset 6, -16
	movq	%rsp, %rbp
	.seh_setframe	%rbp, 0
	.cfi_def_cfa_register 6
	subq	$32, %rsp
	.seh_stackalloc	32
	.seh_endprologue
	movq	%rcx, 16(%rbp)
	movq	%rdx, 24(%rbp)
	movq	%r8, 32(%rbp)
	movq	%r9, 40(%rbp)
	.loc 12 289 37
	movq	32(%rbp), %rdx
	movq	24(%rbp), %rax
	movq	%rdx, %r8
	movq	%rax, %rdx
	movq	16(%rbp), %rcx
	call	_ZSt18uninitialized_copyIN9__gnu_cxx17__normal_iteratorIPKdSt6vectorIdSaIdEEEEPdET0_T_SA_S9_
	.loc 12 289 66
	addq	$32, %rsp
	popq	%rbp
	.cfi_restore 6
	.cfi_def_cfa 7, 8
	ret
	.cfi_endproc
.LFE1688:
	.seh_endproc
	.section	.text$_ZSt7forwardIdEOT_RNSt16remove_referenceIS0_E4typeE,"x"
	.linkonce discard
	.globl	_ZSt7forwardIdEOT_RNSt16remove_referenceIS0_E4typeE
	.def	_ZSt7forwardIdEOT_RNSt16remove_referenceIS0_E4typeE;	.scl	2;	.type	32;	.endef
	.seh_proc	_ZSt7forwardIdEOT_RNSt16remove_referenceIS0_E4typeE
_ZSt7forwardIdEOT_RNSt16remove_referenceIS0_E4typeE:
.LFB1690:
	.loc 8 74 5
	.cfi_startproc
	pushq	%rbp
	.seh_pushreg	%rbp
	.cfi_def_cfa_offset 16
	.cfi_offset 6, -16
	movq	%rsp, %rbp
	.seh_setframe	%rbp, 0
	.cfi_def_cfa_register 6
	.seh_endprologue
	movq	%rcx, 16(%rbp)
	.loc 8 75 36
	movq	16(%rbp), %rax
	.loc 8 75 39
	popq	%rbp
	.cfi_restore 6
	.cfi_def_cfa 7, 8
	ret
	.cfi_endproc
.LFE1690:
	.seh_endproc
	.section	.text$_ZNSt6vectorIdSaIdEE12emplace_backIJdEEEvDpOT_,"x"
	.linkonce discard
	.align 2
	.globl	_ZNSt6vectorIdSaIdEE12emplace_backIJdEEEvDpOT_
	.def	_ZNSt6vectorIdSaIdEE12emplace_backIJdEEEvDpOT_;	.scl	2;	.type	32;	.endef
	.seh_proc	_ZNSt6vectorIdSaIdEE12emplace_backIJdEEEvDpOT_
_ZNSt6vectorIdSaIdEE12emplace_backIJdEEEvDpOT_:
.LFB1689:
	.file 13 "C:/Program Files/CodeBlocks/MinGW/lib/gcc/x86_64-w64-mingw32/8.1.0/include/c++/bits/vector.tcc"
	.loc 13 97 7
	.cfi_startproc
	pushq	%rbp
	.seh_pushreg	%rbp
	.cfi_def_cfa_offset 16
	.cfi_offset 6, -16
	pushq	%rbx
	.seh_pushreg	%rbx
	.cfi_def_cfa_offset 24
	.cfi_offset 3, -24
	subq	$40, %rsp
	.seh_stackalloc	40
	.cfi_def_cfa_offset 64
	leaq	128(%rsp), %rbp
	.seh_setframe	%rbp, 128
	.cfi_def_cfa 6, -64
	.seh_endprologue
	movq	%rcx, -64(%rbp)
	movq	%rdx, -56(%rbp)
	.loc 13 100 20
	movq	-64(%rbp), %rax
	movq	8(%rax), %rdx
	.loc 13 100 47
	movq	-64(%rbp), %rax
	movq	16(%rax), %rax
	.loc 13 100 2
	cmpq	%rax, %rdx
	je	.L105
	.loc 13 103 30
	movq	-56(%rbp), %rax
	movq	%rax, %rcx
	call	_ZSt7forwardIdEOT_RNSt16remove_referenceIS0_E4typeE
	movq	%rax, %rcx
	movq	-64(%rbp), %rax
	movq	8(%rax), %rdx
	.loc 13 103 37
	movq	-64(%rbp), %rax
	.loc 13 103 30
	movq	%rcx, %r8
	movq	%rax, %rcx
	call	_ZNSt16allocator_traitsISaIdEE9constructIdJdEEEvRS0_PT_DpOT0_
	.loc 13 105 22
	movq	-64(%rbp), %rax
	movq	8(%rax), %rax
	.loc 13 105 6
	leaq	8(%rax), %rdx
	movq	-64(%rbp), %rax
	movq	%rdx, 8(%rax)
	.loc 13 113 7
	jmp	.L107
.L105:
	.loc 13 109 4
	movq	-56(%rbp), %rax
	movq	%rax, %rcx
	call	_ZSt7forwardIdEOT_RNSt16remove_referenceIS0_E4typeE
	movq	%rax, %rbx
	movq	-64(%rbp), %rcx
	call	_ZNSt6vectorIdSaIdEE3endEv
	movq	%rbx, %r8
	movq	%rax, %rdx
	movq	-64(%rbp), %rcx
	call	_ZNSt6vectorIdSaIdEE17_M_realloc_insertIJdEEEvN9__gnu_cxx17__normal_iteratorIPdS1_EEDpOT_
.L107:
	.loc 13 113 7
	nop
	addq	$40, %rsp
	popq	%rbx
	.cfi_restore 3
	popq	%rbp
	.cfi_restore 6
	.cfi_def_cfa 7, -24
	ret
	.cfi_endproc
.LFE1689:
	.seh_endproc
	.section	.text$_ZNSt12_Vector_baseIdSaIdEE13_M_deallocateEPdy,"x"
	.linkonce discard
	.align 2
	.globl	_ZNSt12_Vector_baseIdSaIdEE13_M_deallocateEPdy
	.def	_ZNSt12_Vector_baseIdSaIdEE13_M_deallocateEPdy;	.scl	2;	.type	32;	.endef
	.seh_proc	_ZNSt12_Vector_baseIdSaIdEE13_M_deallocateEPdy
_ZNSt12_Vector_baseIdSaIdEE13_M_deallocateEPdy:
.LFB1729:
	.loc 7 300 7
	.cfi_startproc
	pushq	%rbp
	.seh_pushreg	%rbp
	.cfi_def_cfa_offset 16
	.cfi_offset 6, -16
	movq	%rsp, %rbp
	.seh_setframe	%rbp, 0
	.cfi_def_cfa_register 6
	subq	$32, %rsp
	.seh_stackalloc	32
	.seh_endprologue
	movq	%rcx, 16(%rbp)
	movq	%rdx, 24(%rbp)
	movq	%r8, 32(%rbp)
	.loc 7 303 2
	cmpq	$0, 24(%rbp)
	je	.L110
	.loc 7 304 20
	movq	16(%rbp), %rax
	.loc 7 304 19
	movq	32(%rbp), %rcx
	movq	24(%rbp), %rdx
	movq	%rcx, %r8
	movq	%rax, %rcx
	call	_ZNSt16allocator_traitsISaIdEE10deallocateERS0_Pdy
.L110:
	.loc 7 305 7
	nop
	addq	$32, %rsp
	popq	%rbp
	.cfi_restore 6
	.cfi_def_cfa 7, 8
	ret
	.cfi_endproc
.LFE1729:
	.seh_endproc
	.section	.text$_ZSt8_DestroyIPdEvT_S1_,"x"
	.linkonce discard
	.globl	_ZSt8_DestroyIPdEvT_S1_
	.def	_ZSt8_DestroyIPdEvT_S1_;	.scl	2;	.type	32;	.endef
	.seh_proc	_ZSt8_DestroyIPdEvT_S1_
_ZSt8_DestroyIPdEvT_S1_:
.LFB1730:
	.loc 9 127 5
	.cfi_startproc
	pushq	%rbp
	.seh_pushreg	%rbp
	.cfi_def_cfa_offset 16
	.cfi_offset 6, -16
	movq	%rsp, %rbp
	.seh_setframe	%rbp, 0
	.cfi_def_cfa_register 6
	subq	$32, %rsp
	.seh_stackalloc	32
	.seh_endprologue
	movq	%rcx, 16(%rbp)
	movq	%rdx, 24(%rbp)
	.loc 9 137 11
	movq	24(%rbp), %rax
	movq	%rax, %rdx
	movq	16(%rbp), %rcx
	call	_ZNSt12_Destroy_auxILb1EE9__destroyIPdEEvT_S3_
	.loc 9 138 5
	nop
	addq	$32, %rsp
	popq	%rbp
	.cfi_restore 6
	.cfi_def_cfa 7, 8
	ret
	.cfi_endproc
.LFE1730:
	.seh_endproc
	.section	.text$_ZNSt16allocator_traitsISaIdEE37select_on_container_copy_constructionERKS0_,"x"
	.linkonce discard
	.globl	_ZNSt16allocator_traitsISaIdEE37select_on_container_copy_constructionERKS0_
	.def	_ZNSt16allocator_traitsISaIdEE37select_on_container_copy_constructionERKS0_;	.scl	2;	.type	32;	.endef
	.seh_proc	_ZNSt16allocator_traitsISaIdEE37select_on_container_copy_constructionERKS0_
_ZNSt16allocator_traitsISaIdEE37select_on_container_copy_constructionERKS0_:
.LFB1731:
	.file 14 "C:/Program Files/CodeBlocks/MinGW/lib/gcc/x86_64-w64-mingw32/8.1.0/include/c++/bits/alloc_traits.h"
	.loc 14 504 7
	.cfi_startproc
	pushq	%rbp
	.seh_pushreg	%rbp
	.cfi_def_cfa_offset 16
	.cfi_offset 6, -16
	movq	%rsp, %rbp
	.seh_setframe	%rbp, 0
	.cfi_def_cfa_register 6
	subq	$32, %rsp
	.seh_stackalloc	32
	.seh_endprologue
	movq	%rcx, 16(%rbp)
	movq	%rdx, 24(%rbp)
	.loc 14 505 16
	movq	24(%rbp), %rax
	movq	%rax, %rdx
	movq	16(%rbp), %rcx
	call	_ZNSaIdEC1ERKS_
	.loc 14 505 23
	movq	16(%rbp), %rax
	addq	$32, %rsp
	popq	%rbp
	.cfi_restore 6
	.cfi_def_cfa 7, 8
	ret
	.cfi_endproc
.LFE1731:
	.seh_endproc
	.section	.text$_ZNSaIdEC2ERKS_,"x"
	.linkonce discard
	.align 2
	.globl	_ZNSaIdEC2ERKS_
	.def	_ZNSaIdEC2ERKS_;	.scl	2;	.type	32;	.endef
	.seh_proc	_ZNSaIdEC2ERKS_
_ZNSaIdEC2ERKS_:
.LFB1733:
	.loc 11 133 7
	.cfi_startproc
	pushq	%rbp
	.seh_pushreg	%rbp
	.cfi_def_cfa_offset 16
	.cfi_offset 6, -16
	movq	%rsp, %rbp
	.seh_setframe	%rbp, 0
	.cfi_def_cfa_register 6
	subq	$32, %rsp
	.seh_stackalloc	32
	.seh_endprologue
	movq	%rcx, 16(%rbp)
	movq	%rdx, 24(%rbp)
.LBB21:
	.loc 11 134 34
	movq	24(%rbp), %rax
	movq	%rax, %rdx
	movq	16(%rbp), %rcx
	call	_ZN9__gnu_cxx13new_allocatorIdEC2ERKS1_
.LBE21:
	.loc 11 134 38
	nop
	addq	$32, %rsp
	popq	%rbp
	.cfi_restore 6
	.cfi_def_cfa 7, 8
	ret
	.cfi_endproc
.LFE1733:
	.seh_endproc
	.section	.text$_ZNSaIdEC1ERKS_,"x"
	.linkonce discard
	.align 2
	.globl	_ZNSaIdEC1ERKS_
	.def	_ZNSaIdEC1ERKS_;	.scl	2;	.type	32;	.endef
	.seh_proc	_ZNSaIdEC1ERKS_
_ZNSaIdEC1ERKS_:
.LFB1734:
	.loc 11 133 7
	.cfi_startproc
	pushq	%rbp
	.seh_pushreg	%rbp
	.cfi_def_cfa_offset 16
	.cfi_offset 6, -16
	movq	%rsp, %rbp
	.seh_setframe	%rbp, 0
	.cfi_def_cfa_register 6
	subq	$32, %rsp
	.seh_stackalloc	32
	.seh_endprologue
	movq	%rcx, 16(%rbp)
	movq	%rdx, 24(%rbp)
.LBB22:
	.loc 11 134 34
	movq	24(%rbp), %rax
	movq	%rax, %rdx
	movq	16(%rbp), %rcx
	call	_ZN9__gnu_cxx13new_allocatorIdEC2ERKS1_
.LBE22:
	.loc 11 134 38
	nop
	addq	$32, %rsp
	popq	%rbp
	.cfi_restore 6
	.cfi_def_cfa 7, 8
	ret
	.cfi_endproc
.LFE1734:
	.seh_endproc
	.section	.text$_ZN9__gnu_cxx13new_allocatorIdED2Ev,"x"
	.linkonce discard
	.align 2
	.globl	_ZN9__gnu_cxx13new_allocatorIdED2Ev
	.def	_ZN9__gnu_cxx13new_allocatorIdED2Ev;	.scl	2;	.type	32;	.endef
	.seh_proc	_ZN9__gnu_cxx13new_allocatorIdED2Ev
_ZN9__gnu_cxx13new_allocatorIdED2Ev:
.LFB1736:
	.file 15 "C:/Program Files/CodeBlocks/MinGW/lib/gcc/x86_64-w64-mingw32/8.1.0/include/c++/ext/new_allocator.h"
	.loc 15 86 7
	.cfi_startproc
	pushq	%rbp
	.seh_pushreg	%rbp
	.cfi_def_cfa_offset 16
	.cfi_offset 6, -16
	movq	%rsp, %rbp
	.seh_setframe	%rbp, 0
	.cfi_def_cfa_register 6
	.seh_endprologue
	movq	%rcx, 16(%rbp)
	.loc 15 86 35
	nop
	popq	%rbp
	.cfi_restore 6
	.cfi_def_cfa 7, 8
	ret
	.cfi_endproc
.LFE1736:
	.seh_endproc
	.section	.text$_ZNSt12_Vector_baseIdSaIdEE12_Vector_implC1ERKS0_,"x"
	.linkonce discard
	.align 2
	.globl	_ZNSt12_Vector_baseIdSaIdEE12_Vector_implC1ERKS0_
	.def	_ZNSt12_Vector_baseIdSaIdEE12_Vector_implC1ERKS0_;	.scl	2;	.type	32;	.endef
	.seh_proc	_ZNSt12_Vector_baseIdSaIdEE12_Vector_implC1ERKS0_
_ZNSt12_Vector_baseIdSaIdEE12_Vector_implC1ERKS0_:
.LFB1740:
	.loc 7 99 2
	.cfi_startproc
	pushq	%rbp
	.seh_pushreg	%rbp
	.cfi_def_cfa_offset 16
	.cfi_offset 6, -16
	movq	%rsp, %rbp
	.seh_setframe	%rbp, 0
	.cfi_def_cfa_register 6
	subq	$32, %rsp
	.seh_stackalloc	32
	.seh_endprologue
	movq	%rcx, 16(%rbp)
	movq	%rdx, 24(%rbp)
.LBB23:
	.loc 7 100 68
	movq	24(%rbp), %rax
	movq	%rax, %rdx
	movq	16(%rbp), %rcx
	call	_ZNSaIdEC2ERKS_
	movq	16(%rbp), %rax
	movq	$0, (%rax)
	movq	16(%rbp), %rax
	movq	$0, 8(%rax)
	movq	16(%rbp), %rax
	movq	$0, 16(%rax)
.LBE23:
	.loc 7 101 4
	nop
	addq	$32, %rsp
	popq	%rbp
	.cfi_restore 6
	.cfi_def_cfa 7, 8
	ret
	.cfi_endproc
.LFE1740:
	.seh_endproc
	.section	.text$_ZNSt12_Vector_baseIdSaIdEE17_M_create_storageEy,"x"
	.linkonce discard
	.align 2
	.globl	_ZNSt12_Vector_baseIdSaIdEE17_M_create_storageEy
	.def	_ZNSt12_Vector_baseIdSaIdEE17_M_create_storageEy;	.scl	2;	.type	32;	.endef
	.seh_proc	_ZNSt12_Vector_baseIdSaIdEE17_M_create_storageEy
_ZNSt12_Vector_baseIdSaIdEE17_M_create_storageEy:
.LFB1741:
	.loc 7 309 7
	.cfi_startproc
	pushq	%rbp
	.seh_pushreg	%rbp
	.cfi_def_cfa_offset 16
	.cfi_offset 6, -16
	movq	%rsp, %rbp
	.seh_setframe	%rbp, 0
	.cfi_def_cfa_register 6
	subq	$32, %rsp
	.seh_stackalloc	32
	.seh_endprologue
	movq	%rcx, 16(%rbp)
	movq	%rdx, 24(%rbp)
	.loc 7 311 25
	movq	24(%rbp), %rax
	movq	%rax, %rdx
	movq	16(%rbp), %rcx
	call	_ZNSt12_Vector_baseIdSaIdEE11_M_allocateEy
	movq	%rax, %rdx
	.loc 7 311 2
	movq	16(%rbp), %rax
	movq	%rdx, (%rax)
	.loc 7 312 42
	movq	16(%rbp), %rax
	movq	(%rax), %rdx
	.loc 7 312 2
	movq	16(%rbp), %rax
	movq	%rdx, 8(%rax)
	.loc 7 313 50
	movq	16(%rbp), %rax
	movq	(%rax), %rdx
	.loc 7 313 59
	movq	24(%rbp), %rax
	salq	$3, %rax
	addq	%rax, %rdx
	.loc 7 313 2
	movq	16(%rbp), %rax
	movq	%rdx, 16(%rax)
	.loc 7 314 7
	nop
	addq	$32, %rsp
	popq	%rbp
	.cfi_restore 6
	.cfi_def_cfa 7, 8
	ret
	.cfi_endproc
.LFE1741:
	.seh_endproc
	.section	.text$_ZN9__gnu_cxx17__normal_iteratorIPKdSt6vectorIdSaIdEEEC1ERKS2_,"x"
	.linkonce discard
	.align 2
	.globl	_ZN9__gnu_cxx17__normal_iteratorIPKdSt6vectorIdSaIdEEEC1ERKS2_
	.def	_ZN9__gnu_cxx17__normal_iteratorIPKdSt6vectorIdSaIdEEEC1ERKS2_;	.scl	2;	.type	32;	.endef
	.seh_proc	_ZN9__gnu_cxx17__normal_iteratorIPKdSt6vectorIdSaIdEEEC1ERKS2_
_ZN9__gnu_cxx17__normal_iteratorIPKdSt6vectorIdSaIdEEEC1ERKS2_:
.LFB1744:
	.file 16 "C:/Program Files/CodeBlocks/MinGW/lib/gcc/x86_64-w64-mingw32/8.1.0/include/c++/bits/stl_iterator.h"
	.loc 16 780 7
	.cfi_startproc
	pushq	%rbp
	.seh_pushreg	%rbp
	.cfi_def_cfa_offset 16
	.cfi_offset 6, -16
	movq	%rsp, %rbp
	.seh_setframe	%rbp, 0
	.cfi_def_cfa_register 6
	.seh_endprologue
	movq	%rcx, 16(%rbp)
	movq	%rdx, 24(%rbp)
.LBB24:
	.loc 16 781 23
	movq	24(%rbp), %rax
	movq	(%rax), %rdx
	movq	16(%rbp), %rax
	movq	%rdx, (%rax)
.LBE24:
	.loc 16 781 27
	nop
	popq	%rbp
	.cfi_restore 6
	.cfi_def_cfa 7, 8
	ret
	.cfi_endproc
.LFE1744:
	.seh_endproc
	.section	.text$_ZSt18uninitialized_copyIN9__gnu_cxx17__normal_iteratorIPKdSt6vectorIdSaIdEEEEPdET0_T_SA_S9_,"x"
	.linkonce discard
	.globl	_ZSt18uninitialized_copyIN9__gnu_cxx17__normal_iteratorIPKdSt6vectorIdSaIdEEEEPdET0_T_SA_S9_
	.def	_ZSt18uninitialized_copyIN9__gnu_cxx17__normal_iteratorIPKdSt6vectorIdSaIdEEEEPdET0_T_SA_S9_;	.scl	2;	.type	32;	.endef
	.seh_proc	_ZSt18uninitialized_copyIN9__gnu_cxx17__normal_iteratorIPKdSt6vectorIdSaIdEEEEPdET0_T_SA_S9_
_ZSt18uninitialized_copyIN9__gnu_cxx17__normal_iteratorIPKdSt6vectorIdSaIdEEEEPdET0_T_SA_S9_:
.LFB1745:
	.loc 12 115 5
	.cfi_startproc
	pushq	%rbp
	.seh_pushreg	%rbp
	.cfi_def_cfa_offset 16
	.cfi_offset 6, -16
	movq	%rsp, %rbp
	.seh_setframe	%rbp, 0
	.cfi_def_cfa_register 6
	subq	$48, %rsp
	.seh_stackalloc	48
	.seh_endprologue
	movq	%rcx, 16(%rbp)
	movq	%rdx, 24(%rbp)
	movq	%r8, 32(%rbp)
	.loc 12 128 18
	movb	$1, -1(%rbp)
	.loc 12 134 15
	movq	32(%rbp), %rdx
	movq	24(%rbp), %rax
	movq	%rdx, %r8
	movq	%rax, %rdx
	movq	16(%rbp), %rcx
	call	_ZNSt20__uninitialized_copyILb1EE13__uninit_copyIN9__gnu_cxx17__normal_iteratorIPKdSt6vectorIdSaIdEEEEPdEET0_T_SC_SB_
	.loc 12 135 5
	addq	$48, %rsp
	popq	%rbp
	.cfi_restore 6
	.cfi_def_cfa 7, 8
	ret
	.cfi_endproc
.LFE1745:
	.seh_endproc
	.section	.text$_ZNSt16allocator_traitsISaIdEE9constructIdJdEEEvRS0_PT_DpOT0_,"x"
	.linkonce discard
	.globl	_ZNSt16allocator_traitsISaIdEE9constructIdJdEEEvRS0_PT_DpOT0_
	.def	_ZNSt16allocator_traitsISaIdEE9constructIdJdEEEvRS0_PT_DpOT0_;	.scl	2;	.type	32;	.endef
	.seh_proc	_ZNSt16allocator_traitsISaIdEE9constructIdJdEEEvRS0_PT_DpOT0_
_ZNSt16allocator_traitsISaIdEE9constructIdJdEEEvRS0_PT_DpOT0_:
.LFB1746:
	.loc 14 474 2
	.cfi_startproc
	pushq	%rbp
	.seh_pushreg	%rbp
	.cfi_def_cfa_offset 16
	.cfi_offset 6, -16
	movq	%rsp, %rbp
	.seh_setframe	%rbp, 0
	.cfi_def_cfa_register 6
	subq	$32, %rsp
	.seh_stackalloc	32
	.seh_endprologue
	movq	%rcx, 16(%rbp)
	movq	%rdx, 24(%rbp)
	movq	%r8, 32(%rbp)
	.loc 14 475 4
	movq	32(%rbp), %rax
	movq	%rax, %rcx
	call	_ZSt7forwardIdEOT_RNSt16remove_referenceIS0_E4typeE
	movq	%rax, %rdx
	movq	24(%rbp), %rax
	movq	%rdx, %r8
	movq	%rax, %rdx
	movq	16(%rbp), %rcx
	call	_ZN9__gnu_cxx13new_allocatorIdE9constructIdJdEEEvPT_DpOT0_
	.loc 14 475 56
	nop
	addq	$32, %rsp
	popq	%rbp
	.cfi_restore 6
	.cfi_def_cfa 7, 8
	ret
	.cfi_endproc
.LFE1746:
	.seh_endproc
	.section	.text$_ZNSt6vectorIdSaIdEE3endEv,"x"
	.linkonce discard
	.align 2
	.globl	_ZNSt6vectorIdSaIdEE3endEv
	.def	_ZNSt6vectorIdSaIdEE3endEv;	.scl	2;	.type	32;	.endef
	.seh_proc	_ZNSt6vectorIdSaIdEE3endEv
_ZNSt6vectorIdSaIdEE3endEv:
.LFB1747:
	.loc 7 716 7
	.cfi_startproc
	pushq	%rbp
	.seh_pushreg	%rbp
	.cfi_def_cfa_offset 16
	.cfi_offset 6, -16
	movq	%rsp, %rbp
	.seh_setframe	%rbp, 0
	.cfi_def_cfa_register 6
	subq	$48, %rsp
	.seh_stackalloc	48
	.seh_endprologue
	movq	%rcx, 16(%rbp)
	.loc 7 717 39
	movq	16(%rbp), %rax
	leaq	8(%rax), %rdx
	.loc 7 717 48
	leaq	-8(%rbp), %rax
	movq	%rax, %rcx
	call	_ZN9__gnu_cxx17__normal_iteratorIPdSt6vectorIdSaIdEEEC1ERKS1_
	movq	-8(%rbp), %rax
	.loc 7 717 51
	addq	$48, %rsp
	popq	%rbp
	.cfi_restore 6
	.cfi_def_cfa 7, 8
	ret
	.cfi_endproc
.LFE1747:
	.seh_endproc
	.section .rdata,"dr"
.LC17:
	.ascii "vector::_M_realloc_insert\0"
	.section	.text$_ZNSt6vectorIdSaIdEE17_M_realloc_insertIJdEEEvN9__gnu_cxx17__normal_iteratorIPdS1_EEDpOT_,"x"
	.linkonce discard
	.align 2
	.globl	_ZNSt6vectorIdSaIdEE17_M_realloc_insertIJdEEEvN9__gnu_cxx17__normal_iteratorIPdS1_EEDpOT_
	.def	_ZNSt6vectorIdSaIdEE17_M_realloc_insertIJdEEEvN9__gnu_cxx17__normal_iteratorIPdS1_EEDpOT_;	.scl	2;	.type	32;	.endef
	.seh_proc	_ZNSt6vectorIdSaIdEE17_M_realloc_insertIJdEEEvN9__gnu_cxx17__normal_iteratorIPdS1_EEDpOT_
_ZNSt6vectorIdSaIdEE17_M_realloc_insertIJdEEEvN9__gnu_cxx17__normal_iteratorIPdS1_EEDpOT_:
.LFB1748:
	.loc 13 413 7
	.cfi_startproc
	pushq	%rbp
	.seh_pushreg	%rbp
	.cfi_def_cfa_offset 16
	.cfi_offset 6, -16
	pushq	%rbx
	.seh_pushreg	%rbx
	.cfi_def_cfa_offset 24
	.cfi_offset 3, -24
	subq	$104, %rsp
	.seh_stackalloc	104
	.cfi_def_cfa_offset 128
	leaq	128(%rsp), %rbp
	.seh_setframe	%rbp, 128
	.cfi_def_cfa 6, 0
	.seh_endprologue
	movq	%rcx, 0(%rbp)
	movq	%rdx, 8(%rbp)
	movq	%r8, 16(%rbp)
	.loc 13 422 23
	leaq	.LC17(%rip), %r8
	movl	$1, %edx
	movq	0(%rbp), %rcx
.LEHB17:
	call	_ZNKSt6vectorIdSaIdEE12_M_check_lenEyPKc
	movq	%rax, -48(%rbp)
	.loc 13 424 15
	movq	0(%rbp), %rax
	movq	(%rax), %rax
	movq	%rax, -56(%rbp)
	.loc 13 425 15
	movq	0(%rbp), %rax
	movq	8(%rax), %rax
	movq	%rax, -64(%rbp)
	.loc 13 426 51
	movq	0(%rbp), %rcx
	call	_ZNSt6vectorIdSaIdEE5beginEv
	movq	%rax, -88(%rbp)
	leaq	-88(%rbp), %rdx
	leaq	8(%rbp), %rax
	movq	%rax, %rcx
	call	_ZN9__gnu_cxxmiIPdSt6vectorIdSaIdEEEENS_17__normal_iteratorIT_T0_E15difference_typeERKS8_SB_
	.loc 13 426 23
	movq	%rax, -72(%rbp)
	.loc 13 427 15
	movq	0(%rbp), %rax
	movq	-48(%rbp), %rdx
	movq	%rax, %rcx
	call	_ZNSt12_Vector_baseIdSaIdEE11_M_allocateEy
.LEHE17:
	movq	%rax, -80(%rbp)
	.loc 13 428 15
	movq	-80(%rbp), %rax
	movq	%rax, -40(%rbp)
	.loc 13 436 28
	movq	16(%rbp), %rax
	movq	%rax, %rcx
	call	_ZSt7forwardIdEOT_RNSt16remove_referenceIS0_E4typeE
	movq	%rax, %rcx
	.loc 13 437 20
	movq	-72(%rbp), %rax
	leaq	0(,%rax,8), %rdx
	.loc 13 436 28
	movq	-80(%rbp), %rax
	addq	%rax, %rdx
	.loc 13 436 35
	movq	0(%rbp), %rax
	.loc 13 436 28
	movq	%rcx, %r8
	movq	%rax, %rcx
	call	_ZNSt16allocator_traitsISaIdEE9constructIdJdEEEvRS0_PT_DpOT0_
	.loc 13 443 4
	movq	$0, -40(%rbp)
	.loc 13 448 39
	movq	0(%rbp), %rax
	movq	%rax, %rcx
	call	_ZNSt12_Vector_baseIdSaIdEE19_M_get_Tp_allocatorEv
	movq	%rax, %rbx
	.loc 13 447 6
	leaq	8(%rbp), %rax
	movq	%rax, %rcx
	call	_ZNK9__gnu_cxx17__normal_iteratorIPdSt6vectorIdSaIdEEE4baseEv
	movq	(%rax), %rdx
	movq	-80(%rbp), %rcx
	movq	-56(%rbp), %rax
	movq	%rbx, %r9
	movq	%rcx, %r8
	movq	%rax, %rcx
.LEHB18:
	call	_ZSt34__uninitialized_move_if_noexcept_aIPdS0_SaIdEET0_T_S3_S2_RT1_
	movq	%rax, -40(%rbp)
	.loc 13 450 4
	addq	$8, -40(%rbp)
	.loc 13 455 40
	movq	0(%rbp), %rax
	movq	%rax, %rcx
	call	_ZNSt12_Vector_baseIdSaIdEE19_M_get_Tp_allocatorEv
	movq	%rax, %rbx
	.loc 13 454 6
	leaq	8(%rbp), %rax
	movq	%rax, %rcx
	call	_ZNK9__gnu_cxx17__normal_iteratorIPdSt6vectorIdSaIdEEE4baseEv
	movq	(%rax), %rax
	movq	-40(%rbp), %rcx
	movq	-64(%rbp), %rdx
	movq	%rbx, %r9
	movq	%rcx, %r8
	movq	%rax, %rcx
	call	_ZSt34__uninitialized_move_if_noexcept_aIPdS0_SaIdEET0_T_S3_S2_RT1_
.LEHE18:
	.loc 13 454 6 is_stmt 0 discriminator 1
	movq	%rax, -40(%rbp)
	.loc 13 468 67 is_stmt 1 discriminator 1
	movq	0(%rbp), %rax
	movq	%rax, %rcx
	call	_ZNSt12_Vector_baseIdSaIdEE19_M_get_Tp_allocatorEv
	movq	%rax, %rcx
	.loc 13 468 20 discriminator 1
	movq	-64(%rbp), %rdx
	movq	-56(%rbp), %rax
	movq	%rcx, %r8
	movq	%rax, %rcx
.LEHB19:
	call	_ZSt8_DestroyIPddEvT_S1_RSaIT0_E
	.loc 13 469 20 discriminator 1
	movq	0(%rbp), %rax
	.loc 13 470 21 discriminator 1
	movq	0(%rbp), %rdx
	movq	16(%rdx), %rdx
	.loc 13 470 39 discriminator 1
	subq	-56(%rbp), %rdx
	sarq	$3, %rdx
	.loc 13 469 20 discriminator 1
	movq	%rdx, %rcx
	movq	-56(%rbp), %rdx
	movq	%rcx, %r8
	movq	%rax, %rcx
	call	_ZNSt12_Vector_baseIdSaIdEE13_M_deallocateEPdy
.LEHE19:
	.loc 13 471 7 discriminator 1
	movq	0(%rbp), %rax
	movq	-80(%rbp), %rdx
	movq	%rdx, (%rax)
	.loc 13 472 7 discriminator 1
	movq	0(%rbp), %rax
	movq	-40(%rbp), %rdx
	movq	%rdx, 8(%rax)
	.loc 13 473 53 discriminator 1
	movq	-48(%rbp), %rax
	leaq	0(,%rax,8), %rdx
	movq	-80(%rbp), %rax
	addq	%rax, %rdx
	.loc 13 473 7 discriminator 1
	movq	0(%rbp), %rax
	movq	%rdx, 16(%rax)
	.loc 13 474 5 discriminator 1
	jmp	.L132
.L130:
	.loc 13 457 7
	movq	%rax, %rcx
	call	__cxa_begin_catch
	.loc 13 459 4
	cmpq	$0, -40(%rbp)
	jne	.L127
	.loc 13 461 20
	movq	-72(%rbp), %rax
	leaq	0(,%rax,8), %rdx
	.loc 13 460 28
	movq	-80(%rbp), %rax
	addq	%rax, %rdx
	.loc 13 460 35
	movq	0(%rbp), %rax
	.loc 13 460 28
	movq	%rax, %rcx
.LEHB20:
	call	_ZNSt16allocator_traitsISaIdEE7destroyIdEEvRS0_PT_
	jmp	.L128
.L127:
	.loc 13 463 66
	movq	0(%rbp), %rax
	movq	%rax, %rcx
	call	_ZNSt12_Vector_baseIdSaIdEE19_M_get_Tp_allocatorEv
	movq	%rax, %rcx
	.loc 13 463 19
	movq	-40(%rbp), %rdx
	movq	-80(%rbp), %rax
	movq	%rcx, %r8
	movq	%rax, %rcx
	call	_ZSt8_DestroyIPddEvT_S1_RSaIT0_E
.L128:
	.loc 13 464 17
	movq	0(%rbp), %rax
	movq	-48(%rbp), %rcx
	movq	-80(%rbp), %rdx
	movq	%rcx, %r8
	movq	%rax, %rcx
	call	_ZNSt12_Vector_baseIdSaIdEE13_M_deallocateEPdy
	.loc 13 465 4
	call	__cxa_rethrow
.LEHE20:
.L131:
	movq	%rax, %rbx
	.loc 13 457 7
	call	__cxa_end_catch
	movq	%rbx, %rax
	movq	%rax, %rcx
.LEHB21:
	call	_Unwind_Resume
	nop
.LEHE21:
.L132:
	.loc 13 474 5
	addq	$104, %rsp
	popq	%rbx
	.cfi_restore 3
	popq	%rbp
	.cfi_restore 6
	.cfi_def_cfa 7, -88
	ret
	.cfi_endproc
.LFE1748:
	.seh_handler	__gxx_personality_seh0, @unwind, @except
	.seh_handlerdata
	.align 4
.LLSDA1748:
	.byte	0xff
	.byte	0x9b
	.uleb128 .LLSDATT1748-.LLSDATTD1748
.LLSDATTD1748:
	.byte	0x1
	.uleb128 .LLSDACSE1748-.LLSDACSB1748
.LLSDACSB1748:
	.uleb128 .LEHB17-.LFB1748
	.uleb128 .LEHE17-.LEHB17
	.uleb128 0
	.uleb128 0
	.uleb128 .LEHB18-.LFB1748
	.uleb128 .LEHE18-.LEHB18
	.uleb128 .L130-.LFB1748
	.uleb128 0x1
	.uleb128 .LEHB19-.LFB1748
	.uleb128 .LEHE19-.LEHB19
	.uleb128 0
	.uleb128 0
	.uleb128 .LEHB20-.LFB1748
	.uleb128 .LEHE20-.LEHB20
	.uleb128 .L131-.LFB1748
	.uleb128 0
	.uleb128 .LEHB21-.LFB1748
	.uleb128 .LEHE21-.LEHB21
	.uleb128 0
	.uleb128 0
.LLSDACSE1748:
	.byte	0x1
	.byte	0
	.align 4
	.long	0

.LLSDATT1748:
	.section	.text$_ZNSt6vectorIdSaIdEE17_M_realloc_insertIJdEEEvN9__gnu_cxx17__normal_iteratorIPdS1_EEDpOT_,"x"
	.linkonce discard
	.seh_endproc
	.section	.text$_ZNSt16allocator_traitsISaIdEE10deallocateERS0_Pdy,"x"
	.linkonce discard
	.globl	_ZNSt16allocator_traitsISaIdEE10deallocateERS0_Pdy
	.def	_ZNSt16allocator_traitsISaIdEE10deallocateERS0_Pdy;	.scl	2;	.type	32;	.endef
	.seh_proc	_ZNSt16allocator_traitsISaIdEE10deallocateERS0_Pdy
_ZNSt16allocator_traitsISaIdEE10deallocateERS0_Pdy:
.LFB1764:
	.loc 14 461 7
	.cfi_startproc
	pushq	%rbp
	.seh_pushreg	%rbp
	.cfi_def_cfa_offset 16
	.cfi_offset 6, -16
	movq	%rsp, %rbp
	.seh_setframe	%rbp, 0
	.cfi_def_cfa_register 6
	subq	$32, %rsp
	.seh_stackalloc	32
	.seh_endprologue
	movq	%rcx, 16(%rbp)
	movq	%rdx, 24(%rbp)
	movq	%r8, 32(%rbp)
	.loc 14 462 9
	movq	32(%rbp), %rdx
	movq	24(%rbp), %rax
	movq	%rdx, %r8
	movq	%rax, %rdx
	movq	16(%rbp), %rcx
	call	_ZN9__gnu_cxx13new_allocatorIdE10deallocateEPdy
	.loc 14 462 35
	nop
	addq	$32, %rsp
	popq	%rbp
	.cfi_restore 6
	.cfi_def_cfa 7, 8
	ret
	.cfi_endproc
.LFE1764:
	.seh_endproc
	.section	.text$_ZNSt12_Destroy_auxILb1EE9__destroyIPdEEvT_S3_,"x"
	.linkonce discard
	.globl	_ZNSt12_Destroy_auxILb1EE9__destroyIPdEEvT_S3_
	.def	_ZNSt12_Destroy_auxILb1EE9__destroyIPdEEvT_S3_;	.scl	2;	.type	32;	.endef
	.seh_proc	_ZNSt12_Destroy_auxILb1EE9__destroyIPdEEvT_S3_
_ZNSt12_Destroy_auxILb1EE9__destroyIPdEEvT_S3_:
.LFB1765:
	.loc 9 117 9
	.cfi_startproc
	pushq	%rbp
	.seh_pushreg	%rbp
	.cfi_def_cfa_offset 16
	.cfi_offset 6, -16
	movq	%rsp, %rbp
	.seh_setframe	%rbp, 0
	.cfi_def_cfa_register 6
	.seh_endprologue
	movq	%rcx, 16(%rbp)
	movq	%rdx, 24(%rbp)
	.loc 9 117 57
	nop
	popq	%rbp
	.cfi_restore 6
	.cfi_def_cfa 7, 8
	ret
	.cfi_endproc
.LFE1765:
	.seh_endproc
	.section	.text$_ZN9__gnu_cxx13new_allocatorIdEC2ERKS1_,"x"
	.linkonce discard
	.align 2
	.globl	_ZN9__gnu_cxx13new_allocatorIdEC2ERKS1_
	.def	_ZN9__gnu_cxx13new_allocatorIdEC2ERKS1_;	.scl	2;	.type	32;	.endef
	.seh_proc	_ZN9__gnu_cxx13new_allocatorIdEC2ERKS1_
_ZN9__gnu_cxx13new_allocatorIdEC2ERKS1_:
.LFB1767:
	.loc 15 81 7
	.cfi_startproc
	pushq	%rbp
	.seh_pushreg	%rbp
	.cfi_def_cfa_offset 16
	.cfi_offset 6, -16
	movq	%rsp, %rbp
	.seh_setframe	%rbp, 0
	.cfi_def_cfa_register 6
	.seh_endprologue
	movq	%rcx, 16(%rbp)
	movq	%rdx, 24(%rbp)
	.loc 15 81 54
	nop
	popq	%rbp
	.cfi_restore 6
	.cfi_def_cfa 7, 8
	ret
	.cfi_endproc
.LFE1767:
	.seh_endproc
	.section	.text$_ZNSt12_Vector_baseIdSaIdEE11_M_allocateEy,"x"
	.linkonce discard
	.align 2
	.globl	_ZNSt12_Vector_baseIdSaIdEE11_M_allocateEy
	.def	_ZNSt12_Vector_baseIdSaIdEE11_M_allocateEy;	.scl	2;	.type	32;	.endef
	.seh_proc	_ZNSt12_Vector_baseIdSaIdEE11_M_allocateEy
_ZNSt12_Vector_baseIdSaIdEE11_M_allocateEy:
.LFB1769:
	.loc 7 293 7
	.cfi_startproc
	pushq	%rbp
	.seh_pushreg	%rbp
	.cfi_def_cfa_offset 16
	.cfi_offset 6, -16
	movq	%rsp, %rbp
	.seh_setframe	%rbp, 0
	.cfi_def_cfa_register 6
	subq	$32, %rsp
	.seh_stackalloc	32
	.seh_endprologue
	movq	%rcx, 16(%rbp)
	movq	%rdx, 24(%rbp)
	.loc 7 296 18
	cmpq	$0, 24(%rbp)
	je	.L137
	.loc 7 296 34 discriminator 1
	movq	16(%rbp), %rax
	.loc 7 296 33 discriminator 1
	movq	24(%rbp), %rdx
	movq	%rax, %rcx
	call	_ZNSt16allocator_traitsISaIdEE8allocateERS0_y
	.loc 7 296 58 discriminator 1
	jmp	.L139
.L137:
	.loc 7 296 18 discriminator 2
	movl	$0, %eax
.L139:
	.loc 7 297 7 discriminator 5
	addq	$32, %rsp
	popq	%rbp
	.cfi_restore 6
	.cfi_def_cfa 7, 8
	ret
	.cfi_endproc
.LFE1769:
	.seh_endproc
	.section	.text$_ZNSt20__uninitialized_copyILb1EE13__uninit_copyIN9__gnu_cxx17__normal_iteratorIPKdSt6vectorIdSaIdEEEEPdEET0_T_SC_SB_,"x"
	.linkonce discard
	.globl	_ZNSt20__uninitialized_copyILb1EE13__uninit_copyIN9__gnu_cxx17__normal_iteratorIPKdSt6vectorIdSaIdEEEEPdEET0_T_SC_SB_
	.def	_ZNSt20__uninitialized_copyILb1EE13__uninit_copyIN9__gnu_cxx17__normal_iteratorIPKdSt6vectorIdSaIdEEEEPdEET0_T_SC_SB_;	.scl	2;	.type	32;	.endef
	.seh_proc	_ZNSt20__uninitialized_copyILb1EE13__uninit_copyIN9__gnu_cxx17__normal_iteratorIPKdSt6vectorIdSaIdEEEEPdEET0_T_SC_SB_
_ZNSt20__uninitialized_copyILb1EE13__uninit_copyIN9__gnu_cxx17__normal_iteratorIPKdSt6vectorIdSaIdEEEEPdEET0_T_SC_SB_:
.LFB1770:
	.loc 12 99 9
	.cfi_startproc
	pushq	%rbp
	.seh_pushreg	%rbp
	.cfi_def_cfa_offset 16
	.cfi_offset 6, -16
	movq	%rsp, %rbp
	.seh_setframe	%rbp, 0
	.cfi_def_cfa_register 6
	subq	$32, %rsp
	.seh_stackalloc	32
	.seh_endprologue
	movq	%rcx, 16(%rbp)
	movq	%rdx, 24(%rbp)
	movq	%r8, 32(%rbp)
	.loc 12 101 27
	movq	32(%rbp), %rdx
	movq	24(%rbp), %rax
	movq	%rdx, %r8
	movq	%rax, %rdx
	movq	16(%rbp), %rcx
	call	_ZSt4copyIN9__gnu_cxx17__normal_iteratorIPKdSt6vectorIdSaIdEEEEPdET0_T_SA_S9_
	.loc 12 101 56
	addq	$32, %rsp
	popq	%rbp
	.cfi_restore 6
	.cfi_def_cfa 7, 8
	ret
	.cfi_endproc
.LFE1770:
	.seh_endproc
	.section	.text$_ZN9__gnu_cxx13new_allocatorIdE9constructIdJdEEEvPT_DpOT0_,"x"
	.linkonce discard
	.align 2
	.globl	_ZN9__gnu_cxx13new_allocatorIdE9constructIdJdEEEvPT_DpOT0_
	.def	_ZN9__gnu_cxx13new_allocatorIdE9constructIdJdEEEvPT_DpOT0_;	.scl	2;	.type	32;	.endef
	.seh_proc	_ZN9__gnu_cxx13new_allocatorIdE9constructIdJdEEEvPT_DpOT0_
_ZN9__gnu_cxx13new_allocatorIdE9constructIdJdEEEvPT_DpOT0_:
.LFB1771:
	.loc 15 135 2
	.cfi_startproc
	pushq	%rbp
	.seh_pushreg	%rbp
	.cfi_def_cfa_offset 16
	.cfi_offset 6, -16
	movq	%rsp, %rbp
	.seh_setframe	%rbp, 0
	.cfi_def_cfa_register 6
	subq	$48, %rsp
	.seh_stackalloc	48
	movaps	%xmm6, -16(%rbp)
	.seh_savexmm	%xmm6, 32
	.cfi_offset 23, -32
	.seh_endprologue
	movq	%rcx, 16(%rbp)
	movq	%rdx, 24(%rbp)
	movq	%r8, 32(%rbp)
	.loc 15 136 46
	movq	32(%rbp), %rax
	movq	%rax, %rcx
	call	_ZSt7forwardIdEOT_RNSt16remove_referenceIS0_E4typeE
	.loc 15 136 4
	movsd	(%rax), %xmm6
	movq	24(%rbp), %rax
	movq	%rax, %rdx
	movl	$8, %ecx
	call	_ZnwyPv
	movsd	%xmm6, (%rax)
	.loc 15 136 60
	nop
	movaps	-16(%rbp), %xmm6
	addq	$48, %rsp
	.cfi_restore 23
	popq	%rbp
	.cfi_restore 6
	.cfi_def_cfa 7, 8
	ret
	.cfi_endproc
.LFE1771:
	.seh_endproc
	.section	.text$_ZN9__gnu_cxx17__normal_iteratorIPdSt6vectorIdSaIdEEEC1ERKS1_,"x"
	.linkonce discard
	.align 2
	.globl	_ZN9__gnu_cxx17__normal_iteratorIPdSt6vectorIdSaIdEEEC1ERKS1_
	.def	_ZN9__gnu_cxx17__normal_iteratorIPdSt6vectorIdSaIdEEEC1ERKS1_;	.scl	2;	.type	32;	.endef
	.seh_proc	_ZN9__gnu_cxx17__normal_iteratorIPdSt6vectorIdSaIdEEEC1ERKS1_
_ZN9__gnu_cxx17__normal_iteratorIPdSt6vectorIdSaIdEEEC1ERKS1_:
.LFB1774:
	.loc 16 780 7
	.cfi_startproc
	pushq	%rbp
	.seh_pushreg	%rbp
	.cfi_def_cfa_offset 16
	.cfi_offset 6, -16
	movq	%rsp, %rbp
	.seh_setframe	%rbp, 0
	.cfi_def_cfa_register 6
	.seh_endprologue
	movq	%rcx, 16(%rbp)
	movq	%rdx, 24(%rbp)
.LBB25:
	.loc 16 781 23
	movq	24(%rbp), %rax
	movq	(%rax), %rdx
	movq	16(%rbp), %rax
	movq	%rdx, (%rax)
.LBE25:
	.loc 16 781 27
	nop
	popq	%rbp
	.cfi_restore 6
	.cfi_def_cfa 7, 8
	ret
	.cfi_endproc
.LFE1774:
	.seh_endproc
	.section	.text$_ZNKSt6vectorIdSaIdEE12_M_check_lenEyPKc,"x"
	.linkonce discard
	.align 2
	.globl	_ZNKSt6vectorIdSaIdEE12_M_check_lenEyPKc
	.def	_ZNKSt6vectorIdSaIdEE12_M_check_lenEyPKc;	.scl	2;	.type	32;	.endef
	.seh_proc	_ZNKSt6vectorIdSaIdEE12_M_check_lenEyPKc
_ZNKSt6vectorIdSaIdEE12_M_check_lenEyPKc:
.LFB1775:
	.loc 7 1635 7
	.cfi_startproc
	pushq	%rbp
	.seh_pushreg	%rbp
	.cfi_def_cfa_offset 16
	.cfi_offset 6, -16
	pushq	%rbx
	.seh_pushreg	%rbx
	.cfi_def_cfa_offset 24
	.cfi_offset 3, -24
	subq	$56, %rsp
	.seh_stackalloc	56
	.cfi_def_cfa_offset 80
	leaq	128(%rsp), %rbp
	.seh_setframe	%rbp, 128
	.cfi_def_cfa 6, -48
	.seh_endprologue
	movq	%rcx, -48(%rbp)
	movq	%rdx, -40(%rbp)
	movq	%r8, -32(%rbp)
	.loc 7 1637 17
	movq	-48(%rbp), %rcx
	call	_ZNKSt6vectorIdSaIdEE8max_sizeEv
	movq	%rax, %rbx
	movq	-48(%rbp), %rcx
	call	_ZNKSt6vectorIdSaIdEE4sizeEv
	subq	%rax, %rbx
	movq	%rbx, %rdx
	.loc 7 1637 26
	movq	-40(%rbp), %rax
	cmpq	%rax, %rdx
	setb	%al
	.loc 7 1637 2
	testb	%al, %al
	je	.L145
	.loc 7 1638 24
	movq	-32(%rbp), %rax
	movq	%rax, %rcx
	call	_ZSt20__throw_length_errorPKc
.L145:
	.loc 7 1640 33
	movq	-48(%rbp), %rcx
	call	_ZNKSt6vectorIdSaIdEE4sizeEv
	movq	%rax, %rbx
	.loc 7 1640 43
	movq	-48(%rbp), %rcx
	call	_ZNKSt6vectorIdSaIdEE4sizeEv
	movq	%rax, -96(%rbp)
	leaq	-40(%rbp), %rdx
	leaq	-96(%rbp), %rax
	movq	%rax, %rcx
	call	_ZSt3maxIyERKT_S2_S2_
	.loc 7 1640 33
	movq	(%rax), %rax
	.loc 7 1640 18
	addq	%rbx, %rax
	movq	%rax, -88(%rbp)
	.loc 7 1641 16
	movq	-48(%rbp), %rcx
	call	_ZNKSt6vectorIdSaIdEE4sizeEv
	.loc 7 1641 48
	cmpq	%rax, -88(%rbp)
	jb	.L146
	.loc 7 1641 34 discriminator 2
	movq	-48(%rbp), %rcx
	call	_ZNKSt6vectorIdSaIdEE8max_sizeEv
	.loc 7 1641 25 discriminator 2
	cmpq	%rax, -88(%rbp)
	jbe	.L147
.L146:
	.loc 7 1641 48 discriminator 3
	movq	-48(%rbp), %rcx
	call	_ZNKSt6vectorIdSaIdEE8max_sizeEv
	jmp	.L148
.L147:
	.loc 7 1641 48 is_stmt 0 discriminator 4
	movq	-88(%rbp), %rax
.L148:
	.loc 7 1642 7 is_stmt 1 discriminator 6
	addq	$56, %rsp
	popq	%rbx
	.cfi_restore 3
	popq	%rbp
	.cfi_restore 6
	.cfi_def_cfa 7, -40
	ret
	.cfi_endproc
.LFE1775:
	.seh_endproc
	.section	.text$_ZNSt6vectorIdSaIdEE5beginEv,"x"
	.linkonce discard
	.align 2
	.globl	_ZNSt6vectorIdSaIdEE5beginEv
	.def	_ZNSt6vectorIdSaIdEE5beginEv;	.scl	2;	.type	32;	.endef
	.seh_proc	_ZNSt6vectorIdSaIdEE5beginEv
_ZNSt6vectorIdSaIdEE5beginEv:
.LFB1776:
	.loc 7 698 7
	.cfi_startproc
	pushq	%rbp
	.seh_pushreg	%rbp
	.cfi_def_cfa_offset 16
	.cfi_offset 6, -16
	movq	%rsp, %rbp
	.seh_setframe	%rbp, 0
	.cfi_def_cfa_register 6
	subq	$48, %rsp
	.seh_stackalloc	48
	.seh_endprologue
	movq	%rcx, 16(%rbp)
	.loc 7 699 39
	movq	16(%rbp), %rdx
	.loc 7 699 47
	leaq	-8(%rbp), %rax
	movq	%rax, %rcx
	call	_ZN9__gnu_cxx17__normal_iteratorIPdSt6vectorIdSaIdEEEC1ERKS1_
	movq	-8(%rbp), %rax
	.loc 7 699 50
	addq	$48, %rsp
	popq	%rbp
	.cfi_restore 6
	.cfi_def_cfa 7, 8
	ret
	.cfi_endproc
.LFE1776:
	.seh_endproc
	.section	.text$_ZN9__gnu_cxxmiIPdSt6vectorIdSaIdEEEENS_17__normal_iteratorIT_T0_E15difference_typeERKS8_SB_,"x"
	.linkonce discard
	.globl	_ZN9__gnu_cxxmiIPdSt6vectorIdSaIdEEEENS_17__normal_iteratorIT_T0_E15difference_typeERKS8_SB_
	.def	_ZN9__gnu_cxxmiIPdSt6vectorIdSaIdEEEENS_17__normal_iteratorIT_T0_E15difference_typeERKS8_SB_;	.scl	2;	.type	32;	.endef
	.seh_proc	_ZN9__gnu_cxxmiIPdSt6vectorIdSaIdEEEENS_17__normal_iteratorIT_T0_E15difference_typeERKS8_SB_
_ZN9__gnu_cxxmiIPdSt6vectorIdSaIdEEEENS_17__normal_iteratorIT_T0_E15difference_typeERKS8_SB_:
.LFB1777:
	.loc 16 963 5
	.cfi_startproc
	pushq	%rbp
	.seh_pushreg	%rbp
	.cfi_def_cfa_offset 16
	.cfi_offset 6, -16
	pushq	%rbx
	.seh_pushreg	%rbx
	.cfi_def_cfa_offset 24
	.cfi_offset 3, -24
	subq	$40, %rsp
	.seh_stackalloc	40
	.cfi_def_cfa_offset 64
	leaq	128(%rsp), %rbp
	.seh_setframe	%rbp, 128
	.cfi_def_cfa 6, -64
	.seh_endprologue
	movq	%rcx, -64(%rbp)
	movq	%rdx, -56(%rbp)
	.loc 16 966 27
	movq	-64(%rbp), %rcx
	call	_ZNK9__gnu_cxx17__normal_iteratorIPdSt6vectorIdSaIdEEE4baseEv
	movq	(%rax), %rbx
	movq	-56(%rbp), %rax
	movq	%rax, %rcx
	call	_ZNK9__gnu_cxx17__normal_iteratorIPdSt6vectorIdSaIdEEE4baseEv
	movq	(%rax), %rax
	subq	%rax, %rbx
	movq	%rbx, %rax
	.loc 16 966 40
	sarq	$3, %rax
	.loc 16 966 43
	addq	$40, %rsp
	popq	%rbx
	.cfi_restore 3
	popq	%rbp
	.cfi_restore 6
	.cfi_def_cfa 7, -24
	ret
	.cfi_endproc
.LFE1777:
	.seh_endproc
	.section	.text$_ZNK9__gnu_cxx17__normal_iteratorIPdSt6vectorIdSaIdEEE4baseEv,"x"
	.linkonce discard
	.align 2
	.globl	_ZNK9__gnu_cxx17__normal_iteratorIPdSt6vectorIdSaIdEEE4baseEv
	.def	_ZNK9__gnu_cxx17__normal_iteratorIPdSt6vectorIdSaIdEEE4baseEv;	.scl	2;	.type	32;	.endef
	.seh_proc	_ZNK9__gnu_cxx17__normal_iteratorIPdSt6vectorIdSaIdEEE4baseEv
_ZNK9__gnu_cxx17__normal_iteratorIPdSt6vectorIdSaIdEEE4baseEv:
.LFB1778:
	.loc 16 845 7
	.cfi_startproc
	pushq	%rbp
	.seh_pushreg	%rbp
	.cfi_def_cfa_offset 16
	.cfi_offset 6, -16
	movq	%rsp, %rbp
	.seh_setframe	%rbp, 0
	.cfi_def_cfa_register 6
	.seh_endprologue
	movq	%rcx, 16(%rbp)
	.loc 16 846 16
	movq	16(%rbp), %rax
	.loc 16 846 28
	popq	%rbp
	.cfi_restore 6
	.cfi_def_cfa 7, 8
	ret
	.cfi_endproc
.LFE1778:
	.seh_endproc
	.section	.text$_ZSt34__uninitialized_move_if_noexcept_aIPdS0_SaIdEET0_T_S3_S2_RT1_,"x"
	.linkonce discard
	.globl	_ZSt34__uninitialized_move_if_noexcept_aIPdS0_SaIdEET0_T_S3_S2_RT1_
	.def	_ZSt34__uninitialized_move_if_noexcept_aIPdS0_SaIdEET0_T_S3_S2_RT1_;	.scl	2;	.type	32;	.endef
	.seh_proc	_ZSt34__uninitialized_move_if_noexcept_aIPdS0_SaIdEET0_T_S3_S2_RT1_
_ZSt34__uninitialized_move_if_noexcept_aIPdS0_SaIdEET0_T_S3_S2_RT1_:
.LFB1779:
	.loc 12 305 5
	.cfi_startproc
	pushq	%rbp
	.seh_pushreg	%rbp
	.cfi_def_cfa_offset 16
	.cfi_offset 6, -16
	pushq	%rbx
	.seh_pushreg	%rbx
	.cfi_def_cfa_offset 24
	.cfi_offset 3, -24
	subq	$40, %rsp
	.seh_stackalloc	40
	.cfi_def_cfa_offset 64
	leaq	128(%rsp), %rbp
	.seh_setframe	%rbp, 128
	.cfi_def_cfa 6, -64
	.seh_endprologue
	movq	%rcx, -64(%rbp)
	movq	%rdx, -56(%rbp)
	movq	%r8, -48(%rbp)
	movq	%r9, -40(%rbp)
	.loc 12 311 2
	movq	-56(%rbp), %rax
	movq	%rax, %rcx
	call	_ZSt32__make_move_if_noexcept_iteratorIdSt13move_iteratorIPdEET0_PT_
	movq	%rax, %rbx
	movq	-64(%rbp), %rcx
	call	_ZSt32__make_move_if_noexcept_iteratorIdSt13move_iteratorIPdEET0_PT_
	movq	%rax, %rcx
	movq	-40(%rbp), %rdx
	movq	-48(%rbp), %rax
	movq	%rdx, %r9
	movq	%rax, %r8
	movq	%rbx, %rdx
	call	_ZSt22__uninitialized_copy_aISt13move_iteratorIPdES1_dET0_T_S4_S3_RSaIT1_E
	.loc 12 313 5
	addq	$40, %rsp
	popq	%rbx
	.cfi_restore 3
	popq	%rbp
	.cfi_restore 6
	.cfi_def_cfa 7, -24
	ret
	.cfi_endproc
.LFE1779:
	.seh_endproc
	.section	.text$_ZNSt16allocator_traitsISaIdEE7destroyIdEEvRS0_PT_,"x"
	.linkonce discard
	.globl	_ZNSt16allocator_traitsISaIdEE7destroyIdEEvRS0_PT_
	.def	_ZNSt16allocator_traitsISaIdEE7destroyIdEEvRS0_PT_;	.scl	2;	.type	32;	.endef
	.seh_proc	_ZNSt16allocator_traitsISaIdEE7destroyIdEEvRS0_PT_
_ZNSt16allocator_traitsISaIdEE7destroyIdEEvRS0_PT_:
.LFB1780:
	.loc 14 486 2
	.cfi_startproc
	pushq	%rbp
	.seh_pushreg	%rbp
	.cfi_def_cfa_offset 16
	.cfi_offset 6, -16
	movq	%rsp, %rbp
	.seh_setframe	%rbp, 0
	.cfi_def_cfa_register 6
	subq	$32, %rsp
	.seh_stackalloc	32
	.seh_endprologue
	movq	%rcx, 16(%rbp)
	movq	%rdx, 24(%rbp)
	.loc 14 487 4
	movq	24(%rbp), %rax
	movq	%rax, %rdx
	movq	16(%rbp), %rcx
	call	_ZN9__gnu_cxx13new_allocatorIdE7destroyIdEEvPT_
	.loc 14 487 22
	nop
	addq	$32, %rsp
	popq	%rbp
	.cfi_restore 6
	.cfi_def_cfa 7, 8
	ret
	.cfi_endproc
.LFE1780:
	.seh_endproc
	.section	.text$_ZN9__gnu_cxx13new_allocatorIdE10deallocateEPdy,"x"
	.linkonce discard
	.align 2
	.globl	_ZN9__gnu_cxx13new_allocatorIdE10deallocateEPdy
	.def	_ZN9__gnu_cxx13new_allocatorIdE10deallocateEPdy;	.scl	2;	.type	32;	.endef
	.seh_proc	_ZN9__gnu_cxx13new_allocatorIdE10deallocateEPdy
_ZN9__gnu_cxx13new_allocatorIdE10deallocateEPdy:
.LFB1794:
	.loc 15 116 7
	.cfi_startproc
	pushq	%rbp
	.seh_pushreg	%rbp
	.cfi_def_cfa_offset 16
	.cfi_offset 6, -16
	movq	%rsp, %rbp
	.seh_setframe	%rbp, 0
	.cfi_def_cfa_register 6
	subq	$32, %rsp
	.seh_stackalloc	32
	.seh_endprologue
	movq	%rcx, 16(%rbp)
	movq	%rdx, 24(%rbp)
	movq	%r8, 32(%rbp)
	.loc 15 125 19
	movq	24(%rbp), %rax
	movq	%rax, %rcx
	call	_ZdlPv
	.loc 15 126 7
	nop
	addq	$32, %rsp
	popq	%rbp
	.cfi_restore 6
	.cfi_def_cfa 7, 8
	ret
	.cfi_endproc
.LFE1794:
	.seh_endproc
	.section	.text$_ZNSt16allocator_traitsISaIdEE8allocateERS0_y,"x"
	.linkonce discard
	.globl	_ZNSt16allocator_traitsISaIdEE8allocateERS0_y
	.def	_ZNSt16allocator_traitsISaIdEE8allocateERS0_y;	.scl	2;	.type	32;	.endef
	.seh_proc	_ZNSt16allocator_traitsISaIdEE8allocateERS0_y
_ZNSt16allocator_traitsISaIdEE8allocateERS0_y:
.LFB1795:
	.loc 14 435 7
	.cfi_startproc
	pushq	%rbp
	.seh_pushreg	%rbp
	.cfi_def_cfa_offset 16
	.cfi_offset 6, -16
	movq	%rsp, %rbp
	.seh_setframe	%rbp, 0
	.cfi_def_cfa_register 6
	subq	$32, %rsp
	.seh_stackalloc	32
	.seh_endprologue
	movq	%rcx, 16(%rbp)
	movq	%rdx, 24(%rbp)
	.loc 14 436 32
	movq	24(%rbp), %rax
	movl	$0, %r8d
	movq	%rax, %rdx
	movq	16(%rbp), %rcx
	call	_ZN9__gnu_cxx13new_allocatorIdE8allocateEyPKv
	.loc 14 436 35
	addq	$32, %rsp
	popq	%rbp
	.cfi_restore 6
	.cfi_def_cfa 7, 8
	ret
	.cfi_endproc
.LFE1795:
	.seh_endproc
	.section	.text$_ZSt4copyIN9__gnu_cxx17__normal_iteratorIPKdSt6vectorIdSaIdEEEEPdET0_T_SA_S9_,"x"
	.linkonce discard
	.globl	_ZSt4copyIN9__gnu_cxx17__normal_iteratorIPKdSt6vectorIdSaIdEEEEPdET0_T_SA_S9_
	.def	_ZSt4copyIN9__gnu_cxx17__normal_iteratorIPKdSt6vectorIdSaIdEEEEPdET0_T_SA_S9_;	.scl	2;	.type	32;	.endef
	.seh_proc	_ZSt4copyIN9__gnu_cxx17__normal_iteratorIPKdSt6vectorIdSaIdEEEEPdET0_T_SA_S9_
_ZSt4copyIN9__gnu_cxx17__normal_iteratorIPKdSt6vectorIdSaIdEEEEPdET0_T_SA_S9_:
.LFB1796:
	.file 17 "C:/Program Files/CodeBlocks/MinGW/lib/gcc/x86_64-w64-mingw32/8.1.0/include/c++/bits/stl_algobase.h"
	.loc 17 446 5
	.cfi_startproc
	pushq	%rbp
	.seh_pushreg	%rbp
	.cfi_def_cfa_offset 16
	.cfi_offset 6, -16
	pushq	%rbx
	.seh_pushreg	%rbx
	.cfi_def_cfa_offset 24
	.cfi_offset 3, -24
	subq	$40, %rsp
	.seh_stackalloc	40
	.cfi_def_cfa_offset 64
	leaq	128(%rsp), %rbp
	.seh_setframe	%rbp, 128
	.cfi_def_cfa 6, -64
	.seh_endprologue
	movq	%rcx, -64(%rbp)
	movq	%rdx, -56(%rbp)
	movq	%r8, -48(%rbp)
	.loc 17 455 8
	movq	-56(%rbp), %rax
	movq	%rax, %rcx
	call	_ZSt12__miter_baseIN9__gnu_cxx17__normal_iteratorIPKdSt6vectorIdSaIdEEEEET_S8_
	movq	%rax, %rbx
	movq	-64(%rbp), %rcx
	call	_ZSt12__miter_baseIN9__gnu_cxx17__normal_iteratorIPKdSt6vectorIdSaIdEEEEET_S8_
	movq	%rax, %rcx
	movq	-48(%rbp), %rax
	movq	%rax, %r8
	movq	%rbx, %rdx
	call	_ZSt14__copy_move_a2ILb0EN9__gnu_cxx17__normal_iteratorIPKdSt6vectorIdSaIdEEEEPdET1_T0_SA_S9_
	.loc 17 457 5
	addq	$40, %rsp
	popq	%rbx
	.cfi_restore 3
	popq	%rbp
	.cfi_restore 6
	.cfi_def_cfa 7, -24
	ret
	.cfi_endproc
.LFE1796:
	.seh_endproc
	.section	.text$_ZNKSt6vectorIdSaIdEE8max_sizeEv,"x"
	.linkonce discard
	.align 2
	.globl	_ZNKSt6vectorIdSaIdEE8max_sizeEv
	.def	_ZNKSt6vectorIdSaIdEE8max_sizeEv;	.scl	2;	.type	32;	.endef
	.seh_proc	_ZNKSt6vectorIdSaIdEE8max_sizeEv
_ZNKSt6vectorIdSaIdEE8max_sizeEv:
.LFB1797:
	.loc 7 810 7
	.cfi_startproc
	pushq	%rbp
	.seh_pushreg	%rbp
	.cfi_def_cfa_offset 16
	.cfi_offset 6, -16
	movq	%rsp, %rbp
	.seh_setframe	%rbp, 0
	.cfi_def_cfa_register 6
	subq	$32, %rsp
	.seh_stackalloc	32
	.seh_endprologue
	movq	%rcx, 16(%rbp)
	.loc 7 811 59
	movq	16(%rbp), %rax
	movq	%rax, %rcx
	call	_ZNKSt12_Vector_baseIdSaIdEE19_M_get_Tp_allocatorEv
	.loc 7 811 39
	movq	%rax, %rcx
	call	_ZNSt16allocator_traitsISaIdEE8max_sizeERKS0_
	.loc 7 811 64
	addq	$32, %rsp
	popq	%rbp
	.cfi_restore 6
	.cfi_def_cfa 7, 8
	ret
	.cfi_endproc
.LFE1797:
	.seh_endproc
	.section	.text$_ZSt3maxIyERKT_S2_S2_,"x"
	.linkonce discard
	.globl	_ZSt3maxIyERKT_S2_S2_
	.def	_ZSt3maxIyERKT_S2_S2_;	.scl	2;	.type	32;	.endef
	.seh_proc	_ZSt3maxIyERKT_S2_S2_
_ZSt3maxIyERKT_S2_S2_:
.LFB1798:
	.loc 17 219 5
	.cfi_startproc
	pushq	%rbp
	.seh_pushreg	%rbp
	.cfi_def_cfa_offset 16
	.cfi_offset 6, -16
	movq	%rsp, %rbp
	.seh_setframe	%rbp, 0
	.cfi_def_cfa_register 6
	.seh_endprologue
	movq	%rcx, 16(%rbp)
	movq	%rdx, 24(%rbp)
	.loc 17 224 15
	movq	16(%rbp), %rax
	movq	(%rax), %rdx
	movq	24(%rbp), %rax
	movq	(%rax), %rax
	.loc 17 224 7
	cmpq	%rax, %rdx
	jnb	.L167
	.loc 17 225 9
	movq	24(%rbp), %rax
	jmp	.L168
.L167:
	.loc 17 226 14
	movq	16(%rbp), %rax
.L168:
	.loc 17 227 5
	popq	%rbp
	.cfi_restore 6
	.cfi_def_cfa 7, 8
	ret
	.cfi_endproc
.LFE1798:
	.seh_endproc
	.section	.text$_ZSt32__make_move_if_noexcept_iteratorIdSt13move_iteratorIPdEET0_PT_,"x"
	.linkonce discard
	.globl	_ZSt32__make_move_if_noexcept_iteratorIdSt13move_iteratorIPdEET0_PT_
	.def	_ZSt32__make_move_if_noexcept_iteratorIdSt13move_iteratorIPdEET0_PT_;	.scl	2;	.type	32;	.endef
	.seh_proc	_ZSt32__make_move_if_noexcept_iteratorIdSt13move_iteratorIPdEET0_PT_
_ZSt32__make_move_if_noexcept_iteratorIdSt13move_iteratorIPdEET0_PT_:
.LFB1799:
	.loc 16 1215 5
	.cfi_startproc
	pushq	%rbp
	.seh_pushreg	%rbp
	.cfi_def_cfa_offset 16
	.cfi_offset 6, -16
	movq	%rsp, %rbp
	.seh_setframe	%rbp, 0
	.cfi_def_cfa_register 6
	subq	$48, %rsp
	.seh_stackalloc	48
	.seh_endprologue
	movq	%rcx, 16(%rbp)
	.loc 16 1216 29
	leaq	-8(%rbp), %rax
	movq	16(%rbp), %rdx
	movq	%rax, %rcx
	call	_ZNSt13move_iteratorIPdEC1ES0_
	movq	-8(%rbp), %rax
	.loc 16 1216 32
	addq	$48, %rsp
	popq	%rbp
	.cfi_restore 6
	.cfi_def_cfa 7, 8
	ret
	.cfi_endproc
.LFE1799:
	.seh_endproc
	.section	.text$_ZSt22__uninitialized_copy_aISt13move_iteratorIPdES1_dET0_T_S4_S3_RSaIT1_E,"x"
	.linkonce discard
	.globl	_ZSt22__uninitialized_copy_aISt13move_iteratorIPdES1_dET0_T_S4_S3_RSaIT1_E
	.def	_ZSt22__uninitialized_copy_aISt13move_iteratorIPdES1_dET0_T_S4_S3_RSaIT1_E;	.scl	2;	.type	32;	.endef
	.seh_proc	_ZSt22__uninitialized_copy_aISt13move_iteratorIPdES1_dET0_T_S4_S3_RSaIT1_E
_ZSt22__uninitialized_copy_aISt13move_iteratorIPdES1_dET0_T_S4_S3_RSaIT1_E:
.LFB1800:
	.loc 12 287 5
	.cfi_startproc
	pushq	%rbp
	.seh_pushreg	%rbp
	.cfi_def_cfa_offset 16
	.cfi_offset 6, -16
	movq	%rsp, %rbp
	.seh_setframe	%rbp, 0
	.cfi_def_cfa_register 6
	subq	$32, %rsp
	.seh_stackalloc	32
	.seh_endprologue
	movq	%rcx, 16(%rbp)
	movq	%rdx, 24(%rbp)
	movq	%r8, 32(%rbp)
	movq	%r9, 40(%rbp)
	.loc 12 289 37
	movq	32(%rbp), %rdx
	movq	24(%rbp), %rax
	movq	%rdx, %r8
	movq	%rax, %rdx
	movq	16(%rbp), %rcx
	call	_ZSt18uninitialized_copyISt13move_iteratorIPdES1_ET0_T_S4_S3_
	.loc 12 289 66
	addq	$32, %rsp
	popq	%rbp
	.cfi_restore 6
	.cfi_def_cfa 7, 8
	ret
	.cfi_endproc
.LFE1800:
	.seh_endproc
	.section	.text$_ZN9__gnu_cxx13new_allocatorIdE7destroyIdEEvPT_,"x"
	.linkonce discard
	.align 2
	.globl	_ZN9__gnu_cxx13new_allocatorIdE7destroyIdEEvPT_
	.def	_ZN9__gnu_cxx13new_allocatorIdE7destroyIdEEvPT_;	.scl	2;	.type	32;	.endef
	.seh_proc	_ZN9__gnu_cxx13new_allocatorIdE7destroyIdEEvPT_
_ZN9__gnu_cxx13new_allocatorIdE7destroyIdEEvPT_:
.LFB1801:
	.loc 15 140 2
	.cfi_startproc
	pushq	%rbp
	.seh_pushreg	%rbp
	.cfi_def_cfa_offset 16
	.cfi_offset 6, -16
	movq	%rsp, %rbp
	.seh_setframe	%rbp, 0
	.cfi_def_cfa_register 6
	.seh_endprologue
	movq	%rcx, 16(%rbp)
	movq	%rdx, 24(%rbp)
	.loc 15 140 35
	nop
	popq	%rbp
	.cfi_restore 6
	.cfi_def_cfa 7, 8
	ret
	.cfi_endproc
.LFE1801:
	.seh_endproc
	.section	.text$_ZN9__gnu_cxx13new_allocatorIdE8allocateEyPKv,"x"
	.linkonce discard
	.align 2
	.globl	_ZN9__gnu_cxx13new_allocatorIdE8allocateEyPKv
	.def	_ZN9__gnu_cxx13new_allocatorIdE8allocateEyPKv;	.scl	2;	.type	32;	.endef
	.seh_proc	_ZN9__gnu_cxx13new_allocatorIdE8allocateEyPKv
_ZN9__gnu_cxx13new_allocatorIdE8allocateEyPKv:
.LFB1810:
	.loc 15 99 7
	.cfi_startproc
	pushq	%rbp
	.seh_pushreg	%rbp
	.cfi_def_cfa_offset 16
	.cfi_offset 6, -16
	movq	%rsp, %rbp
	.seh_setframe	%rbp, 0
	.cfi_def_cfa_register 6
	subq	$32, %rsp
	.seh_stackalloc	32
	.seh_endprologue
	movq	%rcx, 16(%rbp)
	movq	%rdx, 24(%rbp)
	movq	%r8, 32(%rbp)
	.loc 15 101 10
	movq	16(%rbp), %rcx
	call	_ZNK9__gnu_cxx13new_allocatorIdE8max_sizeEv
	cmpq	%rax, 24(%rbp)
	seta	%al
	.loc 15 101 2
	testb	%al, %al
	je	.L175
	.loc 15 102 26
	call	_ZSt17__throw_bad_allocv
.L175:
	.loc 15 111 41
	movq	24(%rbp), %rax
	salq	$3, %rax
	movq	%rax, %rcx
	call	_Znwy
	.loc 15 112 7
	addq	$32, %rsp
	popq	%rbp
	.cfi_restore 6
	.cfi_def_cfa 7, 8
	ret
	.cfi_endproc
.LFE1810:
	.seh_endproc
	.section	.text$_ZSt12__miter_baseIN9__gnu_cxx17__normal_iteratorIPKdSt6vectorIdSaIdEEEEET_S8_,"x"
	.linkonce discard
	.globl	_ZSt12__miter_baseIN9__gnu_cxx17__normal_iteratorIPKdSt6vectorIdSaIdEEEEET_S8_
	.def	_ZSt12__miter_baseIN9__gnu_cxx17__normal_iteratorIPKdSt6vectorIdSaIdEEEEET_S8_;	.scl	2;	.type	32;	.endef
	.seh_proc	_ZSt12__miter_baseIN9__gnu_cxx17__normal_iteratorIPKdSt6vectorIdSaIdEEEEET_S8_
_ZSt12__miter_baseIN9__gnu_cxx17__normal_iteratorIPKdSt6vectorIdSaIdEEEEET_S8_:
.LFB1811:
	.file 18 "C:/Program Files/CodeBlocks/MinGW/lib/gcc/x86_64-w64-mingw32/8.1.0/include/c++/bits/cpp_type_traits.h"
	.loc 18 408 5
	.cfi_startproc
	pushq	%rbp
	.seh_pushreg	%rbp
	.cfi_def_cfa_offset 16
	.cfi_offset 6, -16
	movq	%rsp, %rbp
	.seh_setframe	%rbp, 0
	.cfi_def_cfa_register 6
	.seh_endprologue
	movq	%rcx, 16(%rbp)
	.loc 18 409 14
	movq	16(%rbp), %rax
	.loc 18 409 20
	popq	%rbp
	.cfi_restore 6
	.cfi_def_cfa 7, 8
	ret
	.cfi_endproc
.LFE1811:
	.seh_endproc
	.section	.text$_ZSt14__copy_move_a2ILb0EN9__gnu_cxx17__normal_iteratorIPKdSt6vectorIdSaIdEEEEPdET1_T0_SA_S9_,"x"
	.linkonce discard
	.globl	_ZSt14__copy_move_a2ILb0EN9__gnu_cxx17__normal_iteratorIPKdSt6vectorIdSaIdEEEEPdET1_T0_SA_S9_
	.def	_ZSt14__copy_move_a2ILb0EN9__gnu_cxx17__normal_iteratorIPKdSt6vectorIdSaIdEEEEPdET1_T0_SA_S9_;	.scl	2;	.type	32;	.endef
	.seh_proc	_ZSt14__copy_move_a2ILb0EN9__gnu_cxx17__normal_iteratorIPKdSt6vectorIdSaIdEEEEPdET1_T0_SA_S9_
_ZSt14__copy_move_a2ILb0EN9__gnu_cxx17__normal_iteratorIPKdSt6vectorIdSaIdEEEEPdET1_T0_SA_S9_:
.LFB1812:
	.loc 17 420 5
	.cfi_startproc
	pushq	%rbp
	.seh_pushreg	%rbp
	.cfi_def_cfa_offset 16
	.cfi_offset 6, -16
	pushq	%rsi
	.seh_pushreg	%rsi
	.cfi_def_cfa_offset 24
	.cfi_offset 4, -24
	pushq	%rbx
	.seh_pushreg	%rbx
	.cfi_def_cfa_offset 32
	.cfi_offset 3, -32
	movq	%rsp, %rbp
	.seh_setframe	%rbp, 0
	.cfi_def_cfa_register 6
	subq	$32, %rsp
	.seh_stackalloc	32
	.seh_endprologue
	movq	%rcx, 32(%rbp)
	movq	%rdx, 40(%rbp)
	movq	%r8, 48(%rbp)
	.loc 17 422 45
	movq	48(%rbp), %rax
	movq	%rax, %rcx
	call	_ZSt12__niter_baseIPdET_S1_
	movq	%rax, %rsi
	movq	40(%rbp), %rax
	movq	%rax, %rcx
	call	_ZSt12__niter_baseIPKdSt6vectorIdSaIdEEET_N9__gnu_cxx17__normal_iteratorIS5_T0_EE
	movq	%rax, %rbx
	movq	32(%rbp), %rcx
	call	_ZSt12__niter_baseIPKdSt6vectorIdSaIdEEET_N9__gnu_cxx17__normal_iteratorIS5_T0_EE
	movq	%rsi, %r8
	movq	%rbx, %rdx
	movq	%rax, %rcx
	call	_ZSt13__copy_move_aILb0EPKdPdET1_T0_S4_S3_
	.loc 17 425 5
	addq	$32, %rsp
	popq	%rbx
	.cfi_restore 3
	popq	%rsi
	.cfi_restore 4
	popq	%rbp
	.cfi_restore 6
	.cfi_def_cfa 7, 24
	ret
	.cfi_endproc
.LFE1812:
	.seh_endproc
	.section	.text$_ZNSt16allocator_traitsISaIdEE8max_sizeERKS0_,"x"
	.linkonce discard
	.globl	_ZNSt16allocator_traitsISaIdEE8max_sizeERKS0_
	.def	_ZNSt16allocator_traitsISaIdEE8max_sizeERKS0_;	.scl	2;	.type	32;	.endef
	.seh_proc	_ZNSt16allocator_traitsISaIdEE8max_sizeERKS0_
_ZNSt16allocator_traitsISaIdEE8max_sizeERKS0_:
.LFB1813:
	.loc 14 495 7
	.cfi_startproc
	pushq	%rbp
	.seh_pushreg	%rbp
	.cfi_def_cfa_offset 16
	.cfi_offset 6, -16
	movq	%rsp, %rbp
	.seh_setframe	%rbp, 0
	.cfi_def_cfa_register 6
	subq	$32, %rsp
	.seh_stackalloc	32
	.seh_endprologue
	movq	%rcx, 16(%rbp)
	.loc 14 496 29
	movq	16(%rbp), %rcx
	call	_ZNK9__gnu_cxx13new_allocatorIdE8max_sizeEv
	.loc 14 496 32
	addq	$32, %rsp
	popq	%rbp
	.cfi_restore 6
	.cfi_def_cfa 7, 8
	ret
	.cfi_endproc
.LFE1813:
	.seh_endproc
	.section	.text$_ZNSt13move_iteratorIPdEC1ES0_,"x"
	.linkonce discard
	.align 2
	.globl	_ZNSt13move_iteratorIPdEC1ES0_
	.def	_ZNSt13move_iteratorIPdEC1ES0_;	.scl	2;	.type	32;	.endef
	.seh_proc	_ZNSt13move_iteratorIPdEC1ES0_
_ZNSt13move_iteratorIPdEC1ES0_:
.LFB1816:
	.loc 16 1030 7
	.cfi_startproc
	pushq	%rbp
	.seh_pushreg	%rbp
	.cfi_def_cfa_offset 16
	.cfi_offset 6, -16
	movq	%rsp, %rbp
	.seh_setframe	%rbp, 0
	.cfi_def_cfa_register 6
	.seh_endprologue
	movq	%rcx, 16(%rbp)
	movq	%rdx, 24(%rbp)
.LBB26:
	.loc 16 1031 23
	movq	16(%rbp), %rax
	movq	24(%rbp), %rdx
	movq	%rdx, (%rax)
.LBE26:
	.loc 16 1031 27
	nop
	popq	%rbp
	.cfi_restore 6
	.cfi_def_cfa 7, 8
	ret
	.cfi_endproc
.LFE1816:
	.seh_endproc
	.section	.text$_ZSt18uninitialized_copyISt13move_iteratorIPdES1_ET0_T_S4_S3_,"x"
	.linkonce discard
	.globl	_ZSt18uninitialized_copyISt13move_iteratorIPdES1_ET0_T_S4_S3_
	.def	_ZSt18uninitialized_copyISt13move_iteratorIPdES1_ET0_T_S4_S3_;	.scl	2;	.type	32;	.endef
	.seh_proc	_ZSt18uninitialized_copyISt13move_iteratorIPdES1_ET0_T_S4_S3_
_ZSt18uninitialized_copyISt13move_iteratorIPdES1_ET0_T_S4_S3_:
.LFB1817:
	.loc 12 115 5
	.cfi_startproc
	pushq	%rbp
	.seh_pushreg	%rbp
	.cfi_def_cfa_offset 16
	.cfi_offset 6, -16
	movq	%rsp, %rbp
	.seh_setframe	%rbp, 0
	.cfi_def_cfa_register 6
	subq	$48, %rsp
	.seh_stackalloc	48
	.seh_endprologue
	movq	%rcx, 16(%rbp)
	movq	%rdx, 24(%rbp)
	movq	%r8, 32(%rbp)
	.loc 12 128 18
	movb	$1, -1(%rbp)
	.loc 12 134 15
	movq	32(%rbp), %rdx
	movq	24(%rbp), %rax
	movq	%rdx, %r8
	movq	%rax, %rdx
	movq	16(%rbp), %rcx
	call	_ZNSt20__uninitialized_copyILb1EE13__uninit_copyISt13move_iteratorIPdES3_EET0_T_S6_S5_
	.loc 12 135 5
	addq	$48, %rsp
	popq	%rbp
	.cfi_restore 6
	.cfi_def_cfa 7, 8
	ret
	.cfi_endproc
.LFE1817:
	.seh_endproc
	.section	.text$_ZNK9__gnu_cxx13new_allocatorIdE8max_sizeEv,"x"
	.linkonce discard
	.align 2
	.globl	_ZNK9__gnu_cxx13new_allocatorIdE8max_sizeEv
	.def	_ZNK9__gnu_cxx13new_allocatorIdE8max_sizeEv;	.scl	2;	.type	32;	.endef
	.seh_proc	_ZNK9__gnu_cxx13new_allocatorIdE8max_sizeEv
_ZNK9__gnu_cxx13new_allocatorIdE8max_sizeEv:
.LFB1820:
	.loc 15 129 7
	.cfi_startproc
	pushq	%rbp
	.seh_pushreg	%rbp
	.cfi_def_cfa_offset 16
	.cfi_offset 6, -16
	movq	%rsp, %rbp
	.seh_setframe	%rbp, 0
	.cfi_def_cfa_register 6
	.seh_endprologue
	movq	%rcx, 16(%rbp)
	.loc 15 130 39
	movabsq	$2305843009213693951, %rax
	.loc 15 130 42
	popq	%rbp
	.cfi_restore 6
	.cfi_def_cfa 7, 8
	ret
	.cfi_endproc
.LFE1820:
	.seh_endproc
	.section	.text$_ZSt12__niter_baseIPKdSt6vectorIdSaIdEEET_N9__gnu_cxx17__normal_iteratorIS5_T0_EE,"x"
	.linkonce discard
	.globl	_ZSt12__niter_baseIPKdSt6vectorIdSaIdEEET_N9__gnu_cxx17__normal_iteratorIS5_T0_EE
	.def	_ZSt12__niter_baseIPKdSt6vectorIdSaIdEEET_N9__gnu_cxx17__normal_iteratorIS5_T0_EE;	.scl	2;	.type	32;	.endef
	.seh_proc	_ZSt12__niter_baseIPKdSt6vectorIdSaIdEEET_N9__gnu_cxx17__normal_iteratorIS5_T0_EE
_ZSt12__niter_baseIPKdSt6vectorIdSaIdEEET_N9__gnu_cxx17__normal_iteratorIS5_T0_EE:
.LFB1821:
	.loc 16 984 5
	.cfi_startproc
	pushq	%rbp
	.seh_pushreg	%rbp
	.cfi_def_cfa_offset 16
	.cfi_offset 6, -16
	movq	%rsp, %rbp
	.seh_setframe	%rbp, 0
	.cfi_def_cfa_register 6
	subq	$32, %rsp
	.seh_stackalloc	32
	.seh_endprologue
	movq	%rcx, 16(%rbp)
	.loc 16 985 24
	leaq	16(%rbp), %rcx
	call	_ZNK9__gnu_cxx17__normal_iteratorIPKdSt6vectorIdSaIdEEE4baseEv
	movq	(%rax), %rax
	.loc 16 985 27
	addq	$32, %rsp
	popq	%rbp
	.cfi_restore 6
	.cfi_def_cfa 7, 8
	ret
	.cfi_endproc
.LFE1821:
	.seh_endproc
	.section	.text$_ZSt12__niter_baseIPdET_S1_,"x"
	.linkonce discard
	.globl	_ZSt12__niter_baseIPdET_S1_
	.def	_ZSt12__niter_baseIPdET_S1_;	.scl	2;	.type	32;	.endef
	.seh_proc	_ZSt12__niter_baseIPdET_S1_
_ZSt12__niter_baseIPdET_S1_:
.LFB1822:
	.loc 17 277 5
	.cfi_startproc
	pushq	%rbp
	.seh_pushreg	%rbp
	.cfi_def_cfa_offset 16
	.cfi_offset 6, -16
	movq	%rsp, %rbp
	.seh_setframe	%rbp, 0
	.cfi_def_cfa_register 6
	.seh_endprologue
	movq	%rcx, 16(%rbp)
	.loc 17 278 14
	movq	16(%rbp), %rax
	.loc 17 278 20
	popq	%rbp
	.cfi_restore 6
	.cfi_def_cfa 7, 8
	ret
	.cfi_endproc
.LFE1822:
	.seh_endproc
	.section	.text$_ZSt13__copy_move_aILb0EPKdPdET1_T0_S4_S3_,"x"
	.linkonce discard
	.globl	_ZSt13__copy_move_aILb0EPKdPdET1_T0_S4_S3_
	.def	_ZSt13__copy_move_aILb0EPKdPdET1_T0_S4_S3_;	.scl	2;	.type	32;	.endef
	.seh_proc	_ZSt13__copy_move_aILb0EPKdPdET1_T0_S4_S3_
_ZSt13__copy_move_aILb0EPKdPdET1_T0_S4_S3_:
.LFB1823:
	.loc 17 375 5
	.cfi_startproc
	pushq	%rbp
	.seh_pushreg	%rbp
	.cfi_def_cfa_offset 16
	.cfi_offset 6, -16
	movq	%rsp, %rbp
	.seh_setframe	%rbp, 0
	.cfi_def_cfa_register 6
	subq	$48, %rsp
	.seh_stackalloc	48
	.seh_endprologue
	movq	%rcx, 16(%rbp)
	movq	%rdx, 24(%rbp)
	movq	%r8, 32(%rbp)
	.loc 17 380 18
	movb	$1, -1(%rbp)
	.loc 17 386 30
	movq	32(%rbp), %rdx
	movq	24(%rbp), %rax
	movq	%rdx, %r8
	movq	%rax, %rdx
	movq	16(%rbp), %rcx
	call	_ZNSt11__copy_moveILb0ELb1ESt26random_access_iterator_tagE8__copy_mIdEEPT_PKS3_S6_S4_
	.loc 17 387 5
	addq	$48, %rsp
	popq	%rbp
	.cfi_restore 6
	.cfi_def_cfa 7, 8
	ret
	.cfi_endproc
.LFE1823:
	.seh_endproc
	.section	.text$_ZNSt20__uninitialized_copyILb1EE13__uninit_copyISt13move_iteratorIPdES3_EET0_T_S6_S5_,"x"
	.linkonce discard
	.globl	_ZNSt20__uninitialized_copyILb1EE13__uninit_copyISt13move_iteratorIPdES3_EET0_T_S6_S5_
	.def	_ZNSt20__uninitialized_copyILb1EE13__uninit_copyISt13move_iteratorIPdES3_EET0_T_S6_S5_;	.scl	2;	.type	32;	.endef
	.seh_proc	_ZNSt20__uninitialized_copyILb1EE13__uninit_copyISt13move_iteratorIPdES3_EET0_T_S6_S5_
_ZNSt20__uninitialized_copyILb1EE13__uninit_copyISt13move_iteratorIPdES3_EET0_T_S6_S5_:
.LFB1824:
	.loc 12 99 9
	.cfi_startproc
	pushq	%rbp
	.seh_pushreg	%rbp
	.cfi_def_cfa_offset 16
	.cfi_offset 6, -16
	movq	%rsp, %rbp
	.seh_setframe	%rbp, 0
	.cfi_def_cfa_register 6
	subq	$32, %rsp
	.seh_stackalloc	32
	.seh_endprologue
	movq	%rcx, 16(%rbp)
	movq	%rdx, 24(%rbp)
	movq	%r8, 32(%rbp)
	.loc 12 101 27
	movq	32(%rbp), %rdx
	movq	24(%rbp), %rax
	movq	%rdx, %r8
	movq	%rax, %rdx
	movq	16(%rbp), %rcx
	call	_ZSt4copyISt13move_iteratorIPdES1_ET0_T_S4_S3_
	.loc 12 101 56
	addq	$32, %rsp
	popq	%rbp
	.cfi_restore 6
	.cfi_def_cfa 7, 8
	ret
	.cfi_endproc
.LFE1824:
	.seh_endproc
	.section	.text$_ZNK9__gnu_cxx17__normal_iteratorIPKdSt6vectorIdSaIdEEE4baseEv,"x"
	.linkonce discard
	.align 2
	.globl	_ZNK9__gnu_cxx17__normal_iteratorIPKdSt6vectorIdSaIdEEE4baseEv
	.def	_ZNK9__gnu_cxx17__normal_iteratorIPKdSt6vectorIdSaIdEEE4baseEv;	.scl	2;	.type	32;	.endef
	.seh_proc	_ZNK9__gnu_cxx17__normal_iteratorIPKdSt6vectorIdSaIdEEE4baseEv
_ZNK9__gnu_cxx17__normal_iteratorIPKdSt6vectorIdSaIdEEE4baseEv:
.LFB1825:
	.loc 16 845 7
	.cfi_startproc
	pushq	%rbp
	.seh_pushreg	%rbp
	.cfi_def_cfa_offset 16
	.cfi_offset 6, -16
	movq	%rsp, %rbp
	.seh_setframe	%rbp, 0
	.cfi_def_cfa_register 6
	.seh_endprologue
	movq	%rcx, 16(%rbp)
	.loc 16 846 16
	movq	16(%rbp), %rax
	.loc 16 846 28
	popq	%rbp
	.cfi_restore 6
	.cfi_def_cfa 7, 8
	ret
	.cfi_endproc
.LFE1825:
	.seh_endproc
	.section	.text$_ZNSt11__copy_moveILb0ELb1ESt26random_access_iterator_tagE8__copy_mIdEEPT_PKS3_S6_S4_,"x"
	.linkonce discard
	.globl	_ZNSt11__copy_moveILb0ELb1ESt26random_access_iterator_tagE8__copy_mIdEEPT_PKS3_S6_S4_
	.def	_ZNSt11__copy_moveILb0ELb1ESt26random_access_iterator_tagE8__copy_mIdEEPT_PKS3_S6_S4_;	.scl	2;	.type	32;	.endef
	.seh_proc	_ZNSt11__copy_moveILb0ELb1ESt26random_access_iterator_tagE8__copy_mIdEEPT_PKS3_S6_S4_
_ZNSt11__copy_moveILb0ELb1ESt26random_access_iterator_tagE8__copy_mIdEEPT_PKS3_S6_S4_:
.LFB1826:
	.loc 17 357 2
	.cfi_startproc
	pushq	%rbp
	.seh_pushreg	%rbp
	.cfi_def_cfa_offset 16
	.cfi_offset 6, -16
	movq	%rsp, %rbp
	.seh_setframe	%rbp, 0
	.cfi_def_cfa_register 6
	subq	$48, %rsp
	.seh_stackalloc	48
	.seh_endprologue
	movq	%rcx, 16(%rbp)
	movq	%rdx, 24(%rbp)
	movq	%r8, 32(%rbp)
	.loc 17 366 34
	movq	24(%rbp), %rax
	subq	16(%rbp), %rax
	.loc 17 366 20
	sarq	$3, %rax
	movq	%rax, -8(%rbp)
	.loc 17 367 4
	cmpq	$0, -8(%rbp)
	je	.L199
	.loc 17 368 23
	movq	-8(%rbp), %rax
	leaq	0(,%rax,8), %rdx
	movq	32(%rbp), %rax
	movq	%rdx, %r8
	movq	16(%rbp), %rdx
	movq	%rax, %rcx
	call	memmove
.L199:
	.loc 17 369 20
	movq	-8(%rbp), %rax
	leaq	0(,%rax,8), %rdx
	.loc 17 369 22
	movq	32(%rbp), %rax
	addq	%rdx, %rax
	.loc 17 370 2
	addq	$48, %rsp
	popq	%rbp
	.cfi_restore 6
	.cfi_def_cfa 7, 8
	ret
	.cfi_endproc
.LFE1826:
	.seh_endproc
	.section	.text$_ZSt4copyISt13move_iteratorIPdES1_ET0_T_S4_S3_,"x"
	.linkonce discard
	.globl	_ZSt4copyISt13move_iteratorIPdES1_ET0_T_S4_S3_
	.def	_ZSt4copyISt13move_iteratorIPdES1_ET0_T_S4_S3_;	.scl	2;	.type	32;	.endef
	.seh_proc	_ZSt4copyISt13move_iteratorIPdES1_ET0_T_S4_S3_
_ZSt4copyISt13move_iteratorIPdES1_ET0_T_S4_S3_:
.LFB1827:
	.loc 17 446 5
	.cfi_startproc
	pushq	%rbp
	.seh_pushreg	%rbp
	.cfi_def_cfa_offset 16
	.cfi_offset 6, -16
	pushq	%rbx
	.seh_pushreg	%rbx
	.cfi_def_cfa_offset 24
	.cfi_offset 3, -24
	subq	$40, %rsp
	.seh_stackalloc	40
	.cfi_def_cfa_offset 64
	leaq	128(%rsp), %rbp
	.seh_setframe	%rbp, 128
	.cfi_def_cfa 6, -64
	.seh_endprologue
	movq	%rcx, -64(%rbp)
	movq	%rdx, -56(%rbp)
	movq	%r8, -48(%rbp)
	.loc 17 455 8
	movq	-56(%rbp), %rax
	movq	%rax, %rcx
	call	_ZSt12__miter_baseIPdEDTcl12__miter_basecldtfp_4baseEEESt13move_iteratorIT_E
	movq	%rax, %rbx
	movq	-64(%rbp), %rcx
	call	_ZSt12__miter_baseIPdEDTcl12__miter_basecldtfp_4baseEEESt13move_iteratorIT_E
	movq	%rax, %rcx
	movq	-48(%rbp), %rax
	movq	%rax, %r8
	movq	%rbx, %rdx
	call	_ZSt14__copy_move_a2ILb1EPdS0_ET1_T0_S2_S1_
	.loc 17 457 5
	addq	$40, %rsp
	popq	%rbx
	.cfi_restore 3
	popq	%rbp
	.cfi_restore 6
	.cfi_def_cfa 7, -24
	ret
	.cfi_endproc
.LFE1827:
	.seh_endproc
	.section	.text$_ZSt12__miter_baseIPdEDTcl12__miter_basecldtfp_4baseEEESt13move_iteratorIT_E,"x"
	.linkonce discard
	.globl	_ZSt12__miter_baseIPdEDTcl12__miter_basecldtfp_4baseEEESt13move_iteratorIT_E
	.def	_ZSt12__miter_baseIPdEDTcl12__miter_basecldtfp_4baseEEESt13move_iteratorIT_E;	.scl	2;	.type	32;	.endef
	.seh_proc	_ZSt12__miter_baseIPdEDTcl12__miter_basecldtfp_4baseEEESt13move_iteratorIT_E
_ZSt12__miter_baseIPdEDTcl12__miter_basecldtfp_4baseEEESt13move_iteratorIT_E:
.LFB1828:
	.loc 16 1235 5
	.cfi_startproc
	pushq	%rbp
	.seh_pushreg	%rbp
	.cfi_def_cfa_offset 16
	.cfi_offset 6, -16
	movq	%rsp, %rbp
	.seh_setframe	%rbp, 0
	.cfi_def_cfa_register 6
	subq	$32, %rsp
	.seh_stackalloc	32
	.seh_endprologue
	movq	%rcx, 16(%rbp)
	.loc 16 1237 26
	leaq	16(%rbp), %rcx
	call	_ZNKSt13move_iteratorIPdE4baseEv
	movq	%rax, %rcx
	call	_ZSt12__miter_baseIPdET_S1_
	.loc 16 1237 41
	addq	$32, %rsp
	popq	%rbp
	.cfi_restore 6
	.cfi_def_cfa 7, 8
	ret
	.cfi_endproc
.LFE1828:
	.seh_endproc
	.section	.text$_ZSt14__copy_move_a2ILb1EPdS0_ET1_T0_S2_S1_,"x"
	.linkonce discard
	.globl	_ZSt14__copy_move_a2ILb1EPdS0_ET1_T0_S2_S1_
	.def	_ZSt14__copy_move_a2ILb1EPdS0_ET1_T0_S2_S1_;	.scl	2;	.type	32;	.endef
	.seh_proc	_ZSt14__copy_move_a2ILb1EPdS0_ET1_T0_S2_S1_
_ZSt14__copy_move_a2ILb1EPdS0_ET1_T0_S2_S1_:
.LFB1829:
	.loc 17 420 5
	.cfi_startproc
	pushq	%rbp
	.seh_pushreg	%rbp
	.cfi_def_cfa_offset 16
	.cfi_offset 6, -16
	pushq	%rsi
	.seh_pushreg	%rsi
	.cfi_def_cfa_offset 24
	.cfi_offset 4, -24
	pushq	%rbx
	.seh_pushreg	%rbx
	.cfi_def_cfa_offset 32
	.cfi_offset 3, -32
	movq	%rsp, %rbp
	.seh_setframe	%rbp, 0
	.cfi_def_cfa_register 6
	subq	$32, %rsp
	.seh_stackalloc	32
	.seh_endprologue
	movq	%rcx, 32(%rbp)
	movq	%rdx, 40(%rbp)
	movq	%r8, 48(%rbp)
	.loc 17 422 45
	movq	48(%rbp), %rax
	movq	%rax, %rcx
	call	_ZSt12__niter_baseIPdET_S1_
	movq	%rax, %rsi
	movq	40(%rbp), %rax
	movq	%rax, %rcx
	call	_ZSt12__niter_baseIPdET_S1_
	movq	%rax, %rbx
	movq	32(%rbp), %rcx
	call	_ZSt12__niter_baseIPdET_S1_
	movq	%rsi, %r8
	movq	%rbx, %rdx
	movq	%rax, %rcx
	call	_ZSt13__copy_move_aILb1EPdS0_ET1_T0_S2_S1_
	.loc 17 425 5
	addq	$32, %rsp
	popq	%rbx
	.cfi_restore 3
	popq	%rsi
	.cfi_restore 4
	popq	%rbp
	.cfi_restore 6
	.cfi_def_cfa 7, 24
	ret
	.cfi_endproc
.LFE1829:
	.seh_endproc
	.section	.text$_ZNKSt13move_iteratorIPdE4baseEv,"x"
	.linkonce discard
	.align 2
	.globl	_ZNKSt13move_iteratorIPdE4baseEv
	.def	_ZNKSt13move_iteratorIPdE4baseEv;	.scl	2;	.type	32;	.endef
	.seh_proc	_ZNKSt13move_iteratorIPdE4baseEv
_ZNKSt13move_iteratorIPdE4baseEv:
.LFB1830:
	.loc 16 1039 7
	.cfi_startproc
	pushq	%rbp
	.seh_pushreg	%rbp
	.cfi_def_cfa_offset 16
	.cfi_offset 6, -16
	movq	%rsp, %rbp
	.seh_setframe	%rbp, 0
	.cfi_def_cfa_register 6
	.seh_endprologue
	movq	%rcx, 16(%rbp)
	.loc 16 1040 16
	movq	16(%rbp), %rax
	movq	(%rax), %rax
	.loc 16 1040 28
	popq	%rbp
	.cfi_restore 6
	.cfi_def_cfa 7, 8
	ret
	.cfi_endproc
.LFE1830:
	.seh_endproc
	.section	.text$_ZSt12__miter_baseIPdET_S1_,"x"
	.linkonce discard
	.globl	_ZSt12__miter_baseIPdET_S1_
	.def	_ZSt12__miter_baseIPdET_S1_;	.scl	2;	.type	32;	.endef
	.seh_proc	_ZSt12__miter_baseIPdET_S1_
_ZSt12__miter_baseIPdET_S1_:
.LFB1831:
	.loc 18 408 5
	.cfi_startproc
	pushq	%rbp
	.seh_pushreg	%rbp
	.cfi_def_cfa_offset 16
	.cfi_offset 6, -16
	movq	%rsp, %rbp
	.seh_setframe	%rbp, 0
	.cfi_def_cfa_register 6
	.seh_endprologue
	movq	%rcx, 16(%rbp)
	.loc 18 409 14
	movq	16(%rbp), %rax
	.loc 18 409 20
	popq	%rbp
	.cfi_restore 6
	.cfi_def_cfa 7, 8
	ret
	.cfi_endproc
.LFE1831:
	.seh_endproc
	.section	.text$_ZSt13__copy_move_aILb1EPdS0_ET1_T0_S2_S1_,"x"
	.linkonce discard
	.globl	_ZSt13__copy_move_aILb1EPdS0_ET1_T0_S2_S1_
	.def	_ZSt13__copy_move_aILb1EPdS0_ET1_T0_S2_S1_;	.scl	2;	.type	32;	.endef
	.seh_proc	_ZSt13__copy_move_aILb1EPdS0_ET1_T0_S2_S1_
_ZSt13__copy_move_aILb1EPdS0_ET1_T0_S2_S1_:
.LFB1832:
	.loc 17 375 5
	.cfi_startproc
	pushq	%rbp
	.seh_pushreg	%rbp
	.cfi_def_cfa_offset 16
	.cfi_offset 6, -16
	movq	%rsp, %rbp
	.seh_setframe	%rbp, 0
	.cfi_def_cfa_register 6
	subq	$48, %rsp
	.seh_stackalloc	48
	.seh_endprologue
	movq	%rcx, 16(%rbp)
	movq	%rdx, 24(%rbp)
	movq	%r8, 32(%rbp)
	.loc 17 380 18
	movb	$1, -1(%rbp)
	.loc 17 386 30
	movq	32(%rbp), %rdx
	movq	24(%rbp), %rax
	movq	%rdx, %r8
	movq	%rax, %rdx
	movq	16(%rbp), %rcx
	call	_ZNSt11__copy_moveILb1ELb1ESt26random_access_iterator_tagE8__copy_mIdEEPT_PKS3_S6_S4_
	.loc 17 387 5
	addq	$48, %rsp
	popq	%rbp
	.cfi_restore 6
	.cfi_def_cfa 7, 8
	ret
	.cfi_endproc
.LFE1832:
	.seh_endproc
	.section	.text$_ZNSt11__copy_moveILb1ELb1ESt26random_access_iterator_tagE8__copy_mIdEEPT_PKS3_S6_S4_,"x"
	.linkonce discard
	.globl	_ZNSt11__copy_moveILb1ELb1ESt26random_access_iterator_tagE8__copy_mIdEEPT_PKS3_S6_S4_
	.def	_ZNSt11__copy_moveILb1ELb1ESt26random_access_iterator_tagE8__copy_mIdEEPT_PKS3_S6_S4_;	.scl	2;	.type	32;	.endef
	.seh_proc	_ZNSt11__copy_moveILb1ELb1ESt26random_access_iterator_tagE8__copy_mIdEEPT_PKS3_S6_S4_
_ZNSt11__copy_moveILb1ELb1ESt26random_access_iterator_tagE8__copy_mIdEEPT_PKS3_S6_S4_:
.LFB1833:
	.loc 17 357 2
	.cfi_startproc
	pushq	%rbp
	.seh_pushreg	%rbp
	.cfi_def_cfa_offset 16
	.cfi_offset 6, -16
	movq	%rsp, %rbp
	.seh_setframe	%rbp, 0
	.cfi_def_cfa_register 6
	subq	$48, %rsp
	.seh_stackalloc	48
	.seh_endprologue
	movq	%rcx, 16(%rbp)
	movq	%rdx, 24(%rbp)
	movq	%r8, 32(%rbp)
	.loc 17 366 34
	movq	24(%rbp), %rax
	subq	16(%rbp), %rax
	.loc 17 366 20
	sarq	$3, %rax
	movq	%rax, -8(%rbp)
	.loc 17 367 4
	cmpq	$0, -8(%rbp)
	je	.L214
	.loc 17 368 23
	movq	-8(%rbp), %rax
	leaq	0(,%rax,8), %rdx
	movq	32(%rbp), %rax
	movq	%rdx, %r8
	movq	16(%rbp), %rdx
	movq	%rax, %rcx
	call	memmove
.L214:
	.loc 17 369 20
	movq	-8(%rbp), %rax
	leaq	0(,%rax,8), %rdx
	.loc 17 369 22
	movq	32(%rbp), %rax
	addq	%rdx, %rax
	.loc 17 370 2
	addq	$48, %rsp
	popq	%rbp
	.cfi_restore 6
	.cfi_def_cfa 7, 8
	ret
	.cfi_endproc
.LFE1833:
	.seh_endproc
	.globl	_ZTV8Projetil
	.section	.rdata$_ZTV8Projetil,"dr"
	.linkonce same_size
	.align 8
_ZTV8Projetil:
	.quad	0
	.quad	_ZTI8Projetil
	.quad	_ZN8ProjetilD1Ev
	.quad	_ZN8ProjetilD0Ev
	.section	.text$_ZN8ProjetilD1Ev,"x"
	.linkonce discard
	.align 2
	.globl	_ZN8ProjetilD1Ev
	.def	_ZN8ProjetilD1Ev;	.scl	2;	.type	32;	.endef
	.seh_proc	_ZN8ProjetilD1Ev
_ZN8ProjetilD1Ev:
.LFB1836:
	.loc 4 8 7
	.cfi_startproc
	pushq	%rbp
	.seh_pushreg	%rbp
	.cfi_def_cfa_offset 16
	.cfi_offset 6, -16
	movq	%rsp, %rbp
	.seh_setframe	%rbp, 0
	.cfi_def_cfa_register 6
	subq	$32, %rsp
	.seh_stackalloc	32
	.seh_endprologue
	movq	%rcx, 16(%rbp)
.LBB27:
	.loc 4 8 7
	leaq	16+_ZTV8Projetil(%rip), %rdx
	movq	16(%rbp), %rax
	movq	%rdx, (%rax)
	movq	16(%rbp), %rax
	addq	$48, %rax
	movq	%rax, %rcx
	call	_ZNSt7__cxx1112basic_stringIcSt11char_traitsIcESaIcEED1Ev
	movq	16(%rbp), %rax
	addq	$16, %rax
	movq	%rax, %rcx
	call	_ZNSt7__cxx1112basic_stringIcSt11char_traitsIcESaIcEED1Ev
	movq	16(%rbp), %rax
	movq	%rax, %rcx
	call	_ZN10BaseObjectD2Ev
.LBE27:
	nop
	addq	$32, %rsp
	popq	%rbp
	.cfi_restore 6
	.cfi_def_cfa 7, 8
	ret
	.cfi_endproc
.LFE1836:
	.seh_endproc
	.section	.text$_ZN8ProjetilD0Ev,"x"
	.linkonce discard
	.align 2
	.globl	_ZN8ProjetilD0Ev
	.def	_ZN8ProjetilD0Ev;	.scl	2;	.type	32;	.endef
	.seh_proc	_ZN8ProjetilD0Ev
_ZN8ProjetilD0Ev:
.LFB1837:
	.loc 4 8 7
	.cfi_startproc
	pushq	%rbp
	.seh_pushreg	%rbp
	.cfi_def_cfa_offset 16
	.cfi_offset 6, -16
	movq	%rsp, %rbp
	.seh_setframe	%rbp, 0
	.cfi_def_cfa_register 6
	subq	$32, %rsp
	.seh_stackalloc	32
	.seh_endprologue
	movq	%rcx, 16(%rbp)
	.loc 4 8 7
	movq	16(%rbp), %rcx
	call	_ZN8ProjetilD1Ev
	movq	16(%rbp), %rcx
	call	_ZdlPv
	nop
	addq	$32, %rsp
	popq	%rbp
	.cfi_restore 6
	.cfi_def_cfa 7, 8
	ret
	.cfi_endproc
.LFE1837:
	.seh_endproc
	.globl	_ZTV10BaseObject
	.section	.rdata$_ZTV10BaseObject,"dr"
	.linkonce same_size
	.align 8
_ZTV10BaseObject:
	.quad	0
	.quad	_ZTI10BaseObject
	.quad	_ZN10BaseObjectD1Ev
	.quad	_ZN10BaseObjectD0Ev
	.globl	_ZTI8Projetil
	.section	.rdata$_ZTI8Projetil,"dr"
	.linkonce same_size
	.align 8
_ZTI8Projetil:
	.quad	_ZTVN10__cxxabiv120__si_class_type_infoE+16
	.quad	_ZTS8Projetil
	.quad	_ZTI10BaseObject
	.globl	_ZTS8Projetil
	.section	.rdata$_ZTS8Projetil,"dr"
	.linkonce same_size
	.align 8
_ZTS8Projetil:
	.ascii "8Projetil\0"
	.globl	_ZTI10BaseObject
	.section	.rdata$_ZTI10BaseObject,"dr"
	.linkonce same_size
	.align 8
_ZTI10BaseObject:
	.quad	_ZTVN10__cxxabiv117__class_type_infoE+16
	.quad	_ZTS10BaseObject
	.globl	_ZTS10BaseObject
	.section	.rdata$_ZTS10BaseObject,"dr"
	.linkonce same_size
	.align 8
_ZTS10BaseObject:
	.ascii "10BaseObject\0"
	.text
.Letext0:
	.file 19 "C:/Program Files/CodeBlocks/MinGW/lib/gcc/x86_64-w64-mingw32/8.1.0/include/c++/bits/basic_string.h"
	.file 20 "C:/Program Files/CodeBlocks/MinGW/lib/gcc/x86_64-w64-mingw32/8.1.0/include/c++/bits/basic_string.tcc"
	.file 21 "C:/Program Files/CodeBlocks/MinGW/lib/gcc/x86_64-w64-mingw32/8.1.0/include/c++/type_traits"
	.file 22 "C:/Program Files/CodeBlocks/MinGW/lib/gcc/x86_64-w64-mingw32/8.1.0/include/c++/bits/stringfwd.h"
	.file 23 "C:/Program Files/CodeBlocks/MinGW/lib/gcc/x86_64-w64-mingw32/8.1.0/include/c++/bits/stl_pair.h"
	.file 24 "C:/Program Files/CodeBlocks/MinGW/lib/gcc/x86_64-w64-mingw32/8.1.0/include/c++/bits/stl_iterator_base_types.h"
	.file 25 "C:/Program Files/CodeBlocks/MinGW/lib/gcc/x86_64-w64-mingw32/8.1.0/include/c++/debug/debug.h"
	.file 26 "C:/Program Files/CodeBlocks/MinGW/lib/gcc/x86_64-w64-mingw32/8.1.0/include/c++/bits/exception_ptr.h"
	.file 27 "C:/Program Files/CodeBlocks/MinGW/lib/gcc/x86_64-w64-mingw32/8.1.0/include/c++/x86_64-w64-mingw32/bits/c++config.h"
	.file 28 "C:/Program Files/CodeBlocks/MinGW/lib/gcc/x86_64-w64-mingw32/8.1.0/include/c++/cwchar"
	.file 29 "C:/Program Files/CodeBlocks/MinGW/lib/gcc/x86_64-w64-mingw32/8.1.0/include/c++/bits/char_traits.h"
	.file 30 "C:/Program Files/CodeBlocks/MinGW/lib/gcc/x86_64-w64-mingw32/8.1.0/include/c++/cstdint"
	.file 31 "C:/Program Files/CodeBlocks/MinGW/lib/gcc/x86_64-w64-mingw32/8.1.0/include/c++/clocale"
	.file 32 "C:/Program Files/CodeBlocks/MinGW/lib/gcc/x86_64-w64-mingw32/8.1.0/include/c++/cstdlib"
	.file 33 "C:/Program Files/CodeBlocks/MinGW/lib/gcc/x86_64-w64-mingw32/8.1.0/include/c++/cstdio"
	.file 34 "C:/Program Files/CodeBlocks/MinGW/lib/gcc/x86_64-w64-mingw32/8.1.0/include/c++/initializer_list"
	.file 35 "C:/Program Files/CodeBlocks/MinGW/lib/gcc/x86_64-w64-mingw32/8.1.0/include/c++/bits/std_abs.h"
	.file 36 "C:/Program Files/CodeBlocks/MinGW/lib/gcc/x86_64-w64-mingw32/8.1.0/include/c++/bits/stl_iterator_base_funcs.h"
	.file 37 "C:/Program Files/CodeBlocks/MinGW/lib/gcc/x86_64-w64-mingw32/8.1.0/include/c++/bits/predefined_ops.h"
	.file 38 "C:/Program Files/CodeBlocks/MinGW/lib/gcc/x86_64-w64-mingw32/8.1.0/include/c++/ext/numeric_traits.h"
	.file 39 "C:/Program Files/CodeBlocks/MinGW/lib/gcc/x86_64-w64-mingw32/8.1.0/include/c++/ext/type_traits.h"
	.file 40 "C:/Program Files/CodeBlocks/MinGW/x86_64-w64-mingw32/include/crtdefs.h"
	.file 41 "C:/Program Files/CodeBlocks/MinGW/x86_64-w64-mingw32/include/locale.h"
	.file 42 "C:/PFC 2021/ballisticKernelCpp/CalculadorNumerico/sql/sqlite3.h"
	.file 43 "C:/Program Files/CodeBlocks/MinGW/x86_64-w64-mingw32/include/wchar.h"
	.file 44 "C:/Program Files/CodeBlocks/MinGW/x86_64-w64-mingw32/include/swprintf.inl"
	.file 45 "C:/Program Files/CodeBlocks/MinGW/x86_64-w64-mingw32/include/stdint.h"
	.file 46 "C:/Program Files/CodeBlocks/MinGW/x86_64-w64-mingw32/include/ctype.h"
	.file 47 "C:/Program Files/CodeBlocks/MinGW/x86_64-w64-mingw32/include/process.h"
	.file 48 "C:/Program Files/CodeBlocks/MinGW/x86_64-w64-mingw32/include/pthread.h"
	.file 49 "C:/Program Files/CodeBlocks/MinGW/x86_64-w64-mingw32/include/stdlib.h"
	.file 50 "C:/Program Files/CodeBlocks/MinGW/x86_64-w64-mingw32/include/malloc.h"
	.file 51 "C:/PFC 2021/ballisticKernelCpp/CalculadorNumerico/coeficientes/coeficientesdao.h"
	.file 52 "C:/Program Files/CodeBlocks/MinGW/lib/gcc/x86_64-w64-mingw32/8.1.0/include/c++/stdlib.h"
	.file 53 "<built-in>"
	.section	.rdata$.refptr._ZTV23CoeficienteAerodinamico, "dr"
	.globl	.refptr._ZTV23CoeficienteAerodinamico
	.linkonce	discard
.refptr._ZTV23CoeficienteAerodinamico:
	.quad	_ZTV23CoeficienteAerodinamico
