	.file	"coeficienteMagnusForce.cpp"
	.text
.Ltext0:
	.cfi_sections	.debug_frame
	.section .rdata,"dr"
_ZStL19piecewise_construct:
	.space 1
	.section	.text$_ZN10BaseObjectD1Ev,"x"
	.linkonce discard
	.align 2
	.globl	_ZN10BaseObjectD1Ev
	.def	_ZN10BaseObjectD1Ev;	.scl	2;	.type	32;	.endef
	.seh_proc	_ZN10BaseObjectD1Ev
_ZN10BaseObjectD1Ev:
.LFB815:
	.file 1 "C:/PFC 2021/ballisticKernelCpp/CalculadorNumerico/padroes/baseobject.h"
	.loc 1 8 17
	.cfi_startproc
	pushq	%rbp
	.seh_pushreg	%rbp
	.cfi_def_cfa_offset 16
	.cfi_offset 6, -16
	movq	%rsp, %rbp
	.seh_setframe	%rbp, 0
	.cfi_def_cfa_register 6
	.seh_endprologue
	movq	%rcx, 16(%rbp)
.LBB2:
	.loc 1 8 31
	leaq	16+_ZTV10BaseObject(%rip), %rdx
	movq	16(%rbp), %rax
	movq	%rdx, (%rax)
.LBE2:
	.loc 1 8 32
	nop
	popq	%rbp
	.cfi_restore 6
	.cfi_def_cfa 7, 8
	ret
	.cfi_endproc
.LFE815:
	.seh_endproc
	.section	.text$_ZN10BaseObjectD0Ev,"x"
	.linkonce discard
	.align 2
	.globl	_ZN10BaseObjectD0Ev
	.def	_ZN10BaseObjectD0Ev;	.scl	2;	.type	32;	.endef
	.seh_proc	_ZN10BaseObjectD0Ev
_ZN10BaseObjectD0Ev:
.LFB816:
	.loc 1 8 17
	.cfi_startproc
	pushq	%rbp
	.seh_pushreg	%rbp
	.cfi_def_cfa_offset 16
	.cfi_offset 6, -16
	movq	%rsp, %rbp
	.seh_setframe	%rbp, 0
	.cfi_def_cfa_register 6
	subq	$32, %rsp
	.seh_stackalloc	32
	.seh_endprologue
	movq	%rcx, 16(%rbp)
	.loc 1 8 32
	movq	16(%rbp), %rcx
	call	_ZN10BaseObjectD1Ev
	movq	16(%rbp), %rcx
	call	_ZdlPv
	nop
	addq	$32, %rsp
	popq	%rbp
	.cfi_restore 6
	.cfi_def_cfa 7, 8
	ret
	.cfi_endproc
.LFE816:
	.seh_endproc
	.section	.text$_ZN10BaseObjectC2Ev,"x"
	.linkonce discard
	.align 2
	.globl	_ZN10BaseObjectC2Ev
	.def	_ZN10BaseObjectC2Ev;	.scl	2;	.type	32;	.endef
	.seh_proc	_ZN10BaseObjectC2Ev
_ZN10BaseObjectC2Ev:
.LFB819:
	.loc 1 5 7
	.cfi_startproc
	pushq	%rbp
	.seh_pushreg	%rbp
	.cfi_def_cfa_offset 16
	.cfi_offset 6, -16
	movq	%rsp, %rbp
	.seh_setframe	%rbp, 0
	.cfi_def_cfa_register 6
	.seh_endprologue
	movq	%rcx, 16(%rbp)
.LBB3:
	.loc 1 5 7
	leaq	16+_ZTV10BaseObject(%rip), %rdx
	movq	16(%rbp), %rax
	movq	%rdx, (%rax)
.LBE3:
	nop
	popq	%rbp
	.cfi_restore 6
	.cfi_def_cfa 7, 8
	ret
	.cfi_endproc
.LFE819:
	.seh_endproc
	.section	.text$_ZN23CoeficienteAerodinamicoC2Ev,"x"
	.linkonce discard
	.align 2
	.globl	_ZN23CoeficienteAerodinamicoC2Ev
	.def	_ZN23CoeficienteAerodinamicoC2Ev;	.scl	2;	.type	32;	.endef
	.seh_proc	_ZN23CoeficienteAerodinamicoC2Ev
_ZN23CoeficienteAerodinamicoC2Ev:
.LFB821:
	.file 2 "C:/PFC 2021/ballisticKernelCpp/CalculadorNumerico/coeficientes/coeficienteAerodinamico.h"
	.loc 2 11 9
	.cfi_startproc
	pushq	%rbp
	.seh_pushreg	%rbp
	.cfi_def_cfa_offset 16
	.cfi_offset 6, -16
	movq	%rsp, %rbp
	.seh_setframe	%rbp, 0
	.cfi_def_cfa_register 6
	subq	$32, %rsp
	.seh_stackalloc	32
	.seh_endprologue
	movq	%rcx, 16(%rbp)
.LBB4:
	.loc 2 11 34
	movq	16(%rbp), %rax
	movq	%rax, %rcx
	call	_ZN10BaseObjectC2Ev
	movq	.refptr._ZTV23CoeficienteAerodinamico(%rip), %rax
	leaq	16(%rax), %rdx
	movq	16(%rbp), %rax
	movq	%rdx, (%rax)
	movq	16(%rbp), %rax
	addq	$16, %rax
	movq	%rax, %rcx
	call	_ZNSt6vectorIdSaIdEEC1Ev
	movq	16(%rbp), %rax
	addq	$40, %rax
	movq	%rax, %rcx
	call	_ZNSt6vectorIdSaIdEEC1Ev
.LBE4:
	.loc 2 11 35
	nop
	addq	$32, %rsp
	popq	%rbp
	.cfi_restore 6
	.cfi_def_cfa 7, 8
	ret
	.cfi_endproc
.LFE821:
	.seh_endproc
	.text
	.align 2
	.globl	_ZN22CoeficienteMagnusForceC2Ev
	.def	_ZN22CoeficienteMagnusForceC2Ev;	.scl	2;	.type	32;	.endef
	.seh_proc	_ZN22CoeficienteMagnusForceC2Ev
_ZN22CoeficienteMagnusForceC2Ev:
.LFB828:
	.file 3 "C:/PFC 2021/ballisticKernelCpp/CalculadorNumerico/coeficientes/coeficienteMagnusForce.cpp"
	.loc 3 3 1
	.cfi_startproc
	pushq	%rbp
	.seh_pushreg	%rbp
	.cfi_def_cfa_offset 16
	.cfi_offset 6, -16
	movq	%rsp, %rbp
	.seh_setframe	%rbp, 0
	.cfi_def_cfa_register 6
	subq	$32, %rsp
	.seh_stackalloc	32
	.seh_endprologue
	movq	%rcx, 16(%rbp)
.LBB5:
	.loc 3 3 48
	movq	16(%rbp), %rax
	movq	%rax, %rcx
	call	_ZN23CoeficienteAerodinamicoC2Ev
	leaq	16+_ZTV22CoeficienteMagnusForce(%rip), %rdx
	movq	16(%rbp), %rax
	movq	%rdx, (%rax)
	.loc 3 7 11
	movq	16(%rbp), %rax
	movl	$3, 8(%rax)
.LBE5:
	.loc 3 8 1
	nop
	addq	$32, %rsp
	popq	%rbp
	.cfi_restore 6
	.cfi_def_cfa 7, 8
	ret
	.cfi_endproc
.LFE828:
	.seh_endproc
	.globl	_ZN22CoeficienteMagnusForceC1Ev
	.def	_ZN22CoeficienteMagnusForceC1Ev;	.scl	2;	.type	32;	.endef
	.set	_ZN22CoeficienteMagnusForceC1Ev,_ZN22CoeficienteMagnusForceC2Ev
	.section	.text$_ZNSt6vectorIdSaIdEEC1Ev,"x"
	.linkonce discard
	.align 2
	.globl	_ZNSt6vectorIdSaIdEEC1Ev
	.def	_ZNSt6vectorIdSaIdEEC1Ev;	.scl	2;	.type	32;	.endef
	.seh_proc	_ZNSt6vectorIdSaIdEEC1Ev
_ZNSt6vectorIdSaIdEEC1Ev:
.LFB834:
	.file 4 "C:/Program Files/CodeBlocks/MinGW/lib/gcc/x86_64-w64-mingw32/8.1.0/include/c++/bits/stl_vector.h"
	.loc 4 391 7
	.cfi_startproc
	pushq	%rbp
	.seh_pushreg	%rbp
	.cfi_def_cfa_offset 16
	.cfi_offset 6, -16
	movq	%rsp, %rbp
	.seh_setframe	%rbp, 0
	.cfi_def_cfa_register 6
	subq	$32, %rsp
	.seh_stackalloc	32
	.seh_endprologue
	movq	%rcx, 16(%rbp)
.LBB6:
	.loc 4 395 15
	movq	16(%rbp), %rax
	movq	%rax, %rcx
	call	_ZNSt12_Vector_baseIdSaIdEEC2Ev
.LBE6:
	.loc 4 395 19
	nop
	addq	$32, %rsp
	popq	%rbp
	.cfi_restore 6
	.cfi_def_cfa 7, 8
	ret
	.cfi_endproc
.LFE834:
	.def	__gxx_personality_seh0;	.scl	2;	.type	32;	.endef
	.seh_handler	__gxx_personality_seh0, @unwind, @except
	.seh_handlerdata
.LLSDA834:
	.byte	0xff
	.byte	0xff
	.byte	0x1
	.uleb128 .LLSDACSE834-.LLSDACSB834
.LLSDACSB834:
.LLSDACSE834:
	.section	.text$_ZNSt6vectorIdSaIdEEC1Ev,"x"
	.linkonce discard
	.seh_endproc
	.section	.text$_ZNSt12_Vector_baseIdSaIdEEC2Ev,"x"
	.linkonce discard
	.align 2
	.globl	_ZNSt12_Vector_baseIdSaIdEEC2Ev
	.def	_ZNSt12_Vector_baseIdSaIdEEC2Ev;	.scl	2;	.type	32;	.endef
	.seh_proc	_ZNSt12_Vector_baseIdSaIdEEC2Ev
_ZNSt12_Vector_baseIdSaIdEEC2Ev:
.LFB845:
	.loc 4 248 7
	.cfi_startproc
	pushq	%rbp
	.seh_pushreg	%rbp
	.cfi_def_cfa_offset 16
	.cfi_offset 6, -16
	movq	%rsp, %rbp
	.seh_setframe	%rbp, 0
	.cfi_def_cfa_register 6
	subq	$32, %rsp
	.seh_stackalloc	32
	.seh_endprologue
	movq	%rcx, 16(%rbp)
.LBB7:
	.loc 4 249 17
	movq	16(%rbp), %rax
	movq	%rax, %rcx
	call	_ZNSt12_Vector_baseIdSaIdEE12_Vector_implC1Ev
.LBE7:
	.loc 4 249 21
	nop
	addq	$32, %rsp
	popq	%rbp
	.cfi_restore 6
	.cfi_def_cfa 7, 8
	ret
	.cfi_endproc
.LFE845:
	.seh_endproc
	.section	.text$_ZNSt12_Vector_baseIdSaIdEE12_Vector_implC1Ev,"x"
	.linkonce discard
	.align 2
	.globl	_ZNSt12_Vector_baseIdSaIdEE12_Vector_implC1Ev
	.def	_ZNSt12_Vector_baseIdSaIdEE12_Vector_implC1Ev;	.scl	2;	.type	32;	.endef
	.seh_proc	_ZNSt12_Vector_baseIdSaIdEE12_Vector_implC1Ev
_ZNSt12_Vector_baseIdSaIdEE12_Vector_implC1Ev:
.LFB866:
	.loc 4 95 2
	.cfi_startproc
	pushq	%rbp
	.seh_pushreg	%rbp
	.cfi_def_cfa_offset 16
	.cfi_offset 6, -16
	movq	%rsp, %rbp
	.seh_setframe	%rbp, 0
	.cfi_def_cfa_register 6
	subq	$32, %rsp
	.seh_stackalloc	32
	.seh_endprologue
	movq	%rcx, 16(%rbp)
.LBB8:
	.loc 4 96 65
	movq	16(%rbp), %rcx
	call	_ZNSaIdEC2Ev
	movq	16(%rbp), %rax
	movq	$0, (%rax)
	movq	16(%rbp), %rax
	movq	$0, 8(%rax)
	movq	16(%rbp), %rax
	movq	$0, 16(%rax)
.LBE8:
	.loc 4 97 4
	nop
	addq	$32, %rsp
	popq	%rbp
	.cfi_restore 6
	.cfi_def_cfa 7, 8
	ret
	.cfi_endproc
.LFE866:
	.seh_endproc
	.section	.text$_ZNSaIdEC2Ev,"x"
	.linkonce discard
	.align 2
	.globl	_ZNSaIdEC2Ev
	.def	_ZNSaIdEC2Ev;	.scl	2;	.type	32;	.endef
	.seh_proc	_ZNSaIdEC2Ev
_ZNSaIdEC2Ev:
.LFB885:
	.file 5 "C:/Program Files/CodeBlocks/MinGW/lib/gcc/x86_64-w64-mingw32/8.1.0/include/c++/bits/allocator.h"
	.loc 5 131 7
	.cfi_startproc
	pushq	%rbp
	.seh_pushreg	%rbp
	.cfi_def_cfa_offset 16
	.cfi_offset 6, -16
	movq	%rsp, %rbp
	.seh_setframe	%rbp, 0
	.cfi_def_cfa_register 6
	subq	$32, %rsp
	.seh_stackalloc	32
	.seh_endprologue
	movq	%rcx, 16(%rbp)
.LBB9:
	.loc 5 131 27
	movq	16(%rbp), %rcx
	call	_ZN9__gnu_cxx13new_allocatorIdEC2Ev
.LBE9:
	.loc 5 131 29
	nop
	addq	$32, %rsp
	popq	%rbp
	.cfi_restore 6
	.cfi_def_cfa 7, 8
	ret
	.cfi_endproc
.LFE885:
	.seh_endproc
	.section	.text$_ZN9__gnu_cxx13new_allocatorIdEC2Ev,"x"
	.linkonce discard
	.align 2
	.globl	_ZN9__gnu_cxx13new_allocatorIdEC2Ev
	.def	_ZN9__gnu_cxx13new_allocatorIdEC2Ev;	.scl	2;	.type	32;	.endef
	.seh_proc	_ZN9__gnu_cxx13new_allocatorIdEC2Ev
_ZN9__gnu_cxx13new_allocatorIdEC2Ev:
.LFB895:
	.file 6 "C:/Program Files/CodeBlocks/MinGW/lib/gcc/x86_64-w64-mingw32/8.1.0/include/c++/ext/new_allocator.h"
	.loc 6 79 7
	.cfi_startproc
	pushq	%rbp
	.seh_pushreg	%rbp
	.cfi_def_cfa_offset 16
	.cfi_offset 6, -16
	movq	%rsp, %rbp
	.seh_setframe	%rbp, 0
	.cfi_def_cfa_register 6
	.seh_endprologue
	movq	%rcx, 16(%rbp)
	.loc 6 79 34
	nop
	popq	%rbp
	.cfi_restore 6
	.cfi_def_cfa 7, 8
	ret
	.cfi_endproc
.LFE895:
	.seh_endproc
	.globl	_ZTV22CoeficienteMagnusForce
	.section	.rdata$_ZTV22CoeficienteMagnusForce,"dr"
	.linkonce same_size
	.align 8
_ZTV22CoeficienteMagnusForce:
	.quad	0
	.quad	_ZTI22CoeficienteMagnusForce
	.quad	_ZN22CoeficienteMagnusForceD1Ev
	.quad	_ZN22CoeficienteMagnusForceD0Ev
	.section	.text$_ZN22CoeficienteMagnusForceD1Ev,"x"
	.linkonce discard
	.align 2
	.globl	_ZN22CoeficienteMagnusForceD1Ev
	.def	_ZN22CoeficienteMagnusForceD1Ev;	.scl	2;	.type	32;	.endef
	.seh_proc	_ZN22CoeficienteMagnusForceD1Ev
_ZN22CoeficienteMagnusForceD1Ev:
.LFB911:
	.file 7 "C:/PFC 2021/ballisticKernelCpp/CalculadorNumerico/coeficientes/coeficienteMagnusForce.h"
	.loc 7 6 7
	.cfi_startproc
	pushq	%rbp
	.seh_pushreg	%rbp
	.cfi_def_cfa_offset 16
	.cfi_offset 6, -16
	movq	%rsp, %rbp
	.seh_setframe	%rbp, 0
	.cfi_def_cfa_register 6
	subq	$32, %rsp
	.seh_stackalloc	32
	.seh_endprologue
	movq	%rcx, 16(%rbp)
.LBB10:
	.loc 7 6 7
	leaq	16+_ZTV22CoeficienteMagnusForce(%rip), %rdx
	movq	16(%rbp), %rax
	movq	%rdx, (%rax)
	movq	16(%rbp), %rax
	movq	%rax, %rcx
	call	_ZN23CoeficienteAerodinamicoD2Ev
.LBE10:
	nop
	addq	$32, %rsp
	popq	%rbp
	.cfi_restore 6
	.cfi_def_cfa 7, 8
	ret
	.cfi_endproc
.LFE911:
	.seh_endproc
	.section	.text$_ZN22CoeficienteMagnusForceD0Ev,"x"
	.linkonce discard
	.align 2
	.globl	_ZN22CoeficienteMagnusForceD0Ev
	.def	_ZN22CoeficienteMagnusForceD0Ev;	.scl	2;	.type	32;	.endef
	.seh_proc	_ZN22CoeficienteMagnusForceD0Ev
_ZN22CoeficienteMagnusForceD0Ev:
.LFB912:
	.loc 7 6 7
	.cfi_startproc
	pushq	%rbp
	.seh_pushreg	%rbp
	.cfi_def_cfa_offset 16
	.cfi_offset 6, -16
	movq	%rsp, %rbp
	.seh_setframe	%rbp, 0
	.cfi_def_cfa_register 6
	subq	$32, %rsp
	.seh_stackalloc	32
	.seh_endprologue
	movq	%rcx, 16(%rbp)
	.loc 7 6 7
	movq	16(%rbp), %rcx
	call	_ZN22CoeficienteMagnusForceD1Ev
	movq	16(%rbp), %rcx
	call	_ZdlPv
	nop
	addq	$32, %rsp
	popq	%rbp
	.cfi_restore 6
	.cfi_def_cfa 7, 8
	ret
	.cfi_endproc
.LFE912:
	.seh_endproc
	.globl	_ZTV10BaseObject
	.section	.rdata$_ZTV10BaseObject,"dr"
	.linkonce same_size
	.align 8
_ZTV10BaseObject:
	.quad	0
	.quad	_ZTI10BaseObject
	.quad	_ZN10BaseObjectD1Ev
	.quad	_ZN10BaseObjectD0Ev
	.globl	_ZTI22CoeficienteMagnusForce
	.section	.rdata$_ZTI22CoeficienteMagnusForce,"dr"
	.linkonce same_size
	.align 8
_ZTI22CoeficienteMagnusForce:
	.quad	_ZTVN10__cxxabiv120__si_class_type_infoE+16
	.quad	_ZTS22CoeficienteMagnusForce
	.quad	_ZTI23CoeficienteAerodinamico
	.globl	_ZTS22CoeficienteMagnusForce
	.section	.rdata$_ZTS22CoeficienteMagnusForce,"dr"
	.linkonce same_size
	.align 16
_ZTS22CoeficienteMagnusForce:
	.ascii "22CoeficienteMagnusForce\0"
	.globl	_ZTI23CoeficienteAerodinamico
	.section	.rdata$_ZTI23CoeficienteAerodinamico,"dr"
	.linkonce same_size
	.align 8
_ZTI23CoeficienteAerodinamico:
	.quad	_ZTVN10__cxxabiv120__si_class_type_infoE+16
	.quad	_ZTS23CoeficienteAerodinamico
	.quad	_ZTI10BaseObject
	.globl	_ZTS23CoeficienteAerodinamico
	.section	.rdata$_ZTS23CoeficienteAerodinamico,"dr"
	.linkonce same_size
	.align 16
_ZTS23CoeficienteAerodinamico:
	.ascii "23CoeficienteAerodinamico\0"
	.globl	_ZTI10BaseObject
	.section	.rdata$_ZTI10BaseObject,"dr"
	.linkonce same_size
	.align 8
_ZTI10BaseObject:
	.quad	_ZTVN10__cxxabiv117__class_type_infoE+16
	.quad	_ZTS10BaseObject
	.globl	_ZTS10BaseObject
	.section	.rdata$_ZTS10BaseObject,"dr"
	.linkonce same_size
	.align 8
_ZTS10BaseObject:
	.ascii "10BaseObject\0"
	.text
.Letext0:
	.file 8 "C:/Program Files/CodeBlocks/MinGW/lib/gcc/x86_64-w64-mingw32/8.1.0/include/c++/type_traits"
	.file 9 "C:/Program Files/CodeBlocks/MinGW/lib/gcc/x86_64-w64-mingw32/8.1.0/include/c++/debug/debug.h"
	.file 10 "C:/Program Files/CodeBlocks/MinGW/lib/gcc/x86_64-w64-mingw32/8.1.0/include/c++/bits/stl_pair.h"
	.file 11 "C:/Program Files/CodeBlocks/MinGW/lib/gcc/x86_64-w64-mingw32/8.1.0/include/c++/bits/exception_ptr.h"
	.file 12 "C:/Program Files/CodeBlocks/MinGW/lib/gcc/x86_64-w64-mingw32/8.1.0/include/c++/x86_64-w64-mingw32/bits/c++config.h"
	.file 13 "C:/Program Files/CodeBlocks/MinGW/lib/gcc/x86_64-w64-mingw32/8.1.0/include/c++/new"
	.file 14 "C:/Program Files/CodeBlocks/MinGW/lib/gcc/x86_64-w64-mingw32/8.1.0/include/c++/bits/alloc_traits.h"
	.file 15 "C:/Program Files/CodeBlocks/MinGW/lib/gcc/x86_64-w64-mingw32/8.1.0/include/c++/bits/vector.tcc"
	.file 16 "C:/Program Files/CodeBlocks/MinGW/lib/gcc/x86_64-w64-mingw32/8.1.0/include/c++/initializer_list"
	.file 17 "C:/Program Files/CodeBlocks/MinGW/lib/gcc/x86_64-w64-mingw32/8.1.0/include/c++/bits/stl_iterator_base_types.h"
	.file 18 "C:/Program Files/CodeBlocks/MinGW/lib/gcc/x86_64-w64-mingw32/8.1.0/include/c++/bits/predefined_ops.h"
	.file 19 "C:/Program Files/CodeBlocks/MinGW/lib/gcc/x86_64-w64-mingw32/8.1.0/include/c++/ext/numeric_traits.h"
	.file 20 "C:/Program Files/CodeBlocks/MinGW/lib/gcc/x86_64-w64-mingw32/8.1.0/include/c++/ext/alloc_traits.h"
	.file 21 "C:/Program Files/CodeBlocks/MinGW/lib/gcc/x86_64-w64-mingw32/8.1.0/include/c++/bits/stl_iterator.h"
	.file 22 "<built-in>"
	.file 23 "C:/Program Files/CodeBlocks/MinGW/lib/gcc/x86_64-w64-mingw32/8.1.0/include/c++/bits/cpp_type_traits.h"
	.section	.rdata$.refptr._ZTV23CoeficienteAerodinamico, "dr"
	.globl	.refptr._ZTV23CoeficienteAerodinamico
	.linkonce	discard
.refptr._ZTV23CoeficienteAerodinamico:
	.quad	_ZTV23CoeficienteAerodinamico
