	.file	"coeficienteAerodinamico.cpp"
	.text
.Ltext0:
	.cfi_sections	.debug_frame
	.section .rdata,"dr"
_ZStL19piecewise_construct:
	.space 1
	.section	.text$_ZN10BaseObjectD2Ev,"x"
	.linkonce discard
	.align 2
	.globl	_ZN10BaseObjectD2Ev
	.def	_ZN10BaseObjectD2Ev;	.scl	2;	.type	32;	.endef
	.seh_proc	_ZN10BaseObjectD2Ev
_ZN10BaseObjectD2Ev:
.LFB814:
	.file 1 "C:/PFC 2021/ballisticKernelCpp/CalculadorNumerico/padroes/baseobject.h"
	.loc 1 8 17
	.cfi_startproc
	pushq	%rbp
	.seh_pushreg	%rbp
	.cfi_def_cfa_offset 16
	.cfi_offset 6, -16
	movq	%rsp, %rbp
	.seh_setframe	%rbp, 0
	.cfi_def_cfa_register 6
	.seh_endprologue
	movq	%rcx, 16(%rbp)
.LBB2:
	.loc 1 8 31
	leaq	16+_ZTV10BaseObject(%rip), %rdx
	movq	16(%rbp), %rax
	movq	%rdx, (%rax)
.LBE2:
	.loc 1 8 32
	nop
	popq	%rbp
	.cfi_restore 6
	.cfi_def_cfa 7, 8
	ret
	.cfi_endproc
.LFE814:
	.seh_endproc
	.section	.text$_ZN10BaseObjectD1Ev,"x"
	.linkonce discard
	.align 2
	.globl	_ZN10BaseObjectD1Ev
	.def	_ZN10BaseObjectD1Ev;	.scl	2;	.type	32;	.endef
	.seh_proc	_ZN10BaseObjectD1Ev
_ZN10BaseObjectD1Ev:
.LFB815:
	.loc 1 8 17
	.cfi_startproc
	pushq	%rbp
	.seh_pushreg	%rbp
	.cfi_def_cfa_offset 16
	.cfi_offset 6, -16
	movq	%rsp, %rbp
	.seh_setframe	%rbp, 0
	.cfi_def_cfa_register 6
	.seh_endprologue
	movq	%rcx, 16(%rbp)
.LBB3:
	.loc 1 8 31
	leaq	16+_ZTV10BaseObject(%rip), %rdx
	movq	16(%rbp), %rax
	movq	%rdx, (%rax)
.LBE3:
	.loc 1 8 32
	nop
	popq	%rbp
	.cfi_restore 6
	.cfi_def_cfa 7, 8
	ret
	.cfi_endproc
.LFE815:
	.seh_endproc
	.section	.text$_ZN10BaseObjectD0Ev,"x"
	.linkonce discard
	.align 2
	.globl	_ZN10BaseObjectD0Ev
	.def	_ZN10BaseObjectD0Ev;	.scl	2;	.type	32;	.endef
	.seh_proc	_ZN10BaseObjectD0Ev
_ZN10BaseObjectD0Ev:
.LFB816:
	.loc 1 8 17
	.cfi_startproc
	pushq	%rbp
	.seh_pushreg	%rbp
	.cfi_def_cfa_offset 16
	.cfi_offset 6, -16
	movq	%rsp, %rbp
	.seh_setframe	%rbp, 0
	.cfi_def_cfa_register 6
	subq	$32, %rsp
	.seh_stackalloc	32
	.seh_endprologue
	movq	%rcx, 16(%rbp)
	.loc 1 8 32
	movq	16(%rbp), %rcx
	call	_ZN10BaseObjectD1Ev
	movq	16(%rbp), %rcx
	call	_ZdlPv
	nop
	addq	$32, %rsp
	popq	%rbp
	.cfi_restore 6
	.cfi_def_cfa 7, 8
	ret
	.cfi_endproc
.LFE816:
	.seh_endproc
	.section	.text$_ZN10BaseObjectC2Ev,"x"
	.linkonce discard
	.align 2
	.globl	_ZN10BaseObjectC2Ev
	.def	_ZN10BaseObjectC2Ev;	.scl	2;	.type	32;	.endef
	.seh_proc	_ZN10BaseObjectC2Ev
_ZN10BaseObjectC2Ev:
.LFB819:
	.loc 1 5 7
	.cfi_startproc
	pushq	%rbp
	.seh_pushreg	%rbp
	.cfi_def_cfa_offset 16
	.cfi_offset 6, -16
	movq	%rsp, %rbp
	.seh_setframe	%rbp, 0
	.cfi_def_cfa_register 6
	.seh_endprologue
	movq	%rcx, 16(%rbp)
.LBB4:
	.loc 1 5 7
	leaq	16+_ZTV10BaseObject(%rip), %rdx
	movq	16(%rbp), %rax
	movq	%rdx, (%rax)
.LBE4:
	nop
	popq	%rbp
	.cfi_restore 6
	.cfi_def_cfa 7, 8
	ret
	.cfi_endproc
.LFE819:
	.seh_endproc
	.text
	.align 2
	.globl	_ZN23CoeficienteAerodinamicoC2E16TIPO_COEFICIENTE
	.def	_ZN23CoeficienteAerodinamicoC2E16TIPO_COEFICIENTE;	.scl	2;	.type	32;	.endef
	.seh_proc	_ZN23CoeficienteAerodinamicoC2E16TIPO_COEFICIENTE
_ZN23CoeficienteAerodinamicoC2E16TIPO_COEFICIENTE:
.LFB828:
	.file 2 "C:/PFC 2021/ballisticKernelCpp/CalculadorNumerico/coeficientes/coeficienteAerodinamico.cpp"
	.loc 2 3 1
	.cfi_startproc
	pushq	%rbp
	.seh_pushreg	%rbp
	.cfi_def_cfa_offset 16
	.cfi_offset 6, -16
	movq	%rsp, %rbp
	.seh_setframe	%rbp, 0
	.cfi_def_cfa_register 6
	subq	$32, %rsp
	.seh_stackalloc	32
	.seh_endprologue
	movq	%rcx, 16(%rbp)
	movl	%edx, 24(%rbp)
.LBB5:
	.loc 2 3 71
	movq	16(%rbp), %rax
	movq	%rax, %rcx
	call	_ZN10BaseObjectC2Ev
	leaq	16+_ZTV23CoeficienteAerodinamico(%rip), %rdx
	movq	16(%rbp), %rax
	movq	%rdx, (%rax)
	movq	16(%rbp), %rax
	addq	$16, %rax
	movq	%rax, %rcx
	call	_ZNSt6vectorIdSaIdEEC1Ev
	movq	16(%rbp), %rax
	addq	$40, %rax
	movq	%rax, %rcx
	call	_ZNSt6vectorIdSaIdEEC1Ev
	.loc 2 5 16
	movq	16(%rbp), %rax
	movl	24(%rbp), %edx
	movl	%edx, 8(%rax)
.LBE5:
	.loc 2 7 1
	nop
	addq	$32, %rsp
	popq	%rbp
	.cfi_restore 6
	.cfi_def_cfa 7, 8
	ret
	.cfi_endproc
.LFE828:
	.seh_endproc
	.globl	_ZN23CoeficienteAerodinamicoC1E16TIPO_COEFICIENTE
	.def	_ZN23CoeficienteAerodinamicoC1E16TIPO_COEFICIENTE;	.scl	2;	.type	32;	.endef
	.set	_ZN23CoeficienteAerodinamicoC1E16TIPO_COEFICIENTE,_ZN23CoeficienteAerodinamicoC2E16TIPO_COEFICIENTE
	.align 2
	.globl	_ZN23CoeficienteAerodinamicoD2Ev
	.def	_ZN23CoeficienteAerodinamicoD2Ev;	.scl	2;	.type	32;	.endef
	.seh_proc	_ZN23CoeficienteAerodinamicoD2Ev
_ZN23CoeficienteAerodinamicoD2Ev:
.LFB831:
	.loc 2 14 1
	.cfi_startproc
	pushq	%rbp
	.seh_pushreg	%rbp
	.cfi_def_cfa_offset 16
	.cfi_offset 6, -16
	movq	%rsp, %rbp
	.seh_setframe	%rbp, 0
	.cfi_def_cfa_register 6
	subq	$32, %rsp
	.seh_stackalloc	32
	.seh_endprologue
	movq	%rcx, 16(%rbp)
.LBB6:
	.loc 2 14 51
	leaq	16+_ZTV23CoeficienteAerodinamico(%rip), %rdx
	movq	16(%rbp), %rax
	movq	%rdx, (%rax)
	.loc 2 16 22
	movq	16(%rbp), %rax
	addq	$16, %rax
	movq	%rax, %rcx
	call	_ZNSt6vectorIdSaIdEE5clearEv
	.loc 2 17 18
	movq	16(%rbp), %rax
	addq	$40, %rax
	movq	%rax, %rcx
	call	_ZNSt6vectorIdSaIdEE5clearEv
	.loc 2 14 51
	movq	16(%rbp), %rax
	addq	$40, %rax
	movq	%rax, %rcx
	call	_ZNSt6vectorIdSaIdEED1Ev
	movq	16(%rbp), %rax
	addq	$16, %rax
	movq	%rax, %rcx
	call	_ZNSt6vectorIdSaIdEED1Ev
	movq	16(%rbp), %rax
	movq	%rax, %rcx
	call	_ZN10BaseObjectD2Ev
.LBE6:
	.loc 2 18 1
	nop
	addq	$32, %rsp
	popq	%rbp
	.cfi_restore 6
	.cfi_def_cfa 7, 8
	ret
	.cfi_endproc
.LFE831:
	.seh_endproc
	.globl	_ZN23CoeficienteAerodinamicoD1Ev
	.def	_ZN23CoeficienteAerodinamicoD1Ev;	.scl	2;	.type	32;	.endef
	.set	_ZN23CoeficienteAerodinamicoD1Ev,_ZN23CoeficienteAerodinamicoD2Ev
	.align 2
	.globl	_ZN23CoeficienteAerodinamicoD0Ev
	.def	_ZN23CoeficienteAerodinamicoD0Ev;	.scl	2;	.type	32;	.endef
	.seh_proc	_ZN23CoeficienteAerodinamicoD0Ev
_ZN23CoeficienteAerodinamicoD0Ev:
.LFB833:
	.loc 2 14 1
	.cfi_startproc
	pushq	%rbp
	.seh_pushreg	%rbp
	.cfi_def_cfa_offset 16
	.cfi_offset 6, -16
	movq	%rsp, %rbp
	.seh_setframe	%rbp, 0
	.cfi_def_cfa_register 6
	subq	$32, %rsp
	.seh_stackalloc	32
	.seh_endprologue
	movq	%rcx, 16(%rbp)
	.loc 2 18 1
	movq	16(%rbp), %rcx
	call	_ZN23CoeficienteAerodinamicoD1Ev
	movq	16(%rbp), %rcx
	call	_ZdlPv
	nop
	addq	$32, %rsp
	popq	%rbp
	.cfi_restore 6
	.cfi_def_cfa 7, 8
	ret
	.cfi_endproc
.LFE833:
	.seh_endproc
	.align 2
	.globl	_ZN23CoeficienteAerodinamico8getValorEd
	.def	_ZN23CoeficienteAerodinamico8getValorEd;	.scl	2;	.type	32;	.endef
	.seh_proc	_ZN23CoeficienteAerodinamico8getValorEd
_ZN23CoeficienteAerodinamico8getValorEd:
.LFB834:
	.loc 2 23 1
	.cfi_startproc
	pushq	%rbp
	.seh_pushreg	%rbp
	.cfi_def_cfa_offset 16
	.cfi_offset 6, -16
	movq	%rsp, %rbp
	.seh_setframe	%rbp, 0
	.cfi_def_cfa_register 6
	subq	$96, %rsp
	.seh_stackalloc	96
	movaps	%xmm6, -32(%rbp)
	.seh_savexmm	%xmm6, 64
	movaps	%xmm7, -16(%rbp)
	.seh_savexmm	%xmm7, 80
	.cfi_offset 23, -48
	.cfi_offset 24, -32
	.seh_endprologue
	movq	%rcx, 16(%rbp)
	movsd	%xmm1, 24(%rbp)
	.loc 2 24 6
	movl	$0, -36(%rbp)
	.loc 2 25 35
	movq	16(%rbp), %rax
	addq	$16, %rax
	movq	%rax, %rcx
	call	_ZNKSt6vectorIdSaIdEE4sizeEv
	.loc 2 25 36
	movl	%eax, -52(%rbp)
	.loc 2 26 12
	pxor	%xmm0, %xmm0
	movsd	%xmm0, -48(%rbp)
.L13:
	.loc 2 27 22 discriminator 8
	movl	-36(%rbp), %eax
	cmpl	-52(%rbp), %eax
	jge	.L9
	.loc 2 27 54 discriminator 1
	movq	16(%rbp), %rax
	leaq	16(%rax), %rcx
	movl	-36(%rbp), %eax
	cltq
	movq	%rax, %rdx
	call	_ZNSt6vectorIdSaIdEE2atEy
	.loc 2 27 52 discriminator 1
	movsd	(%rax), %xmm1
	.loc 2 27 22 discriminator 1
	movsd	24(%rbp), %xmm0
	comisd	%xmm1, %xmm0
	jbe	.L9
	.loc 2 27 22 is_stmt 0 discriminator 3
	movl	$1, %eax
	jmp	.L11
.L9:
	.loc 2 27 22 discriminator 4
	movl	$0, %eax
.L11:
	.loc 2 27 22 discriminator 6
	testb	%al, %al
	je	.L12
	.loc 2 27 58 is_stmt 1 discriminator 7
	addl	$1, -36(%rbp)
	.loc 2 27 5 discriminator 7
	jmp	.L13
.L12:
	.loc 2 28 2
	movl	-36(%rbp), %eax
	cmpl	-52(%rbp), %eax
	jne	.L14
	.loc 2 31 34
	movq	16(%rbp), %rax
	leaq	40(%rax), %rcx
	.loc 2 31 32
	movl	-52(%rbp), %eax
	subl	$1, %eax
	.loc 2 31 34
	cltq
	movq	%rax, %rdx
	call	_ZNSt6vectorIdSaIdEE2atEy
	.loc 2 31 24
	movsd	(%rax), %xmm6
	.loc 2 31 58
	movq	16(%rbp), %rax
	leaq	40(%rax), %rcx
	.loc 2 31 56
	movl	-52(%rbp), %eax
	subl	$2, %eax
	.loc 2 31 58
	cltq
	movq	%rax, %rdx
	call	_ZNSt6vectorIdSaIdEE2atEy
	.loc 2 31 48
	movsd	(%rax), %xmm0
	.loc 2 31 36
	subsd	%xmm0, %xmm6
	.loc 2 31 86
	movq	16(%rbp), %rax
	leaq	16(%rax), %rcx
	.loc 2 31 84
	movl	-52(%rbp), %eax
	subl	$1, %eax
	.loc 2 31 86
	cltq
	movq	%rax, %rdx
	call	_ZNSt6vectorIdSaIdEE2atEy
	.loc 2 31 76
	movsd	(%rax), %xmm7
	.loc 2 31 114
	movq	16(%rbp), %rax
	leaq	16(%rax), %rcx
	.loc 2 31 112
	movl	-52(%rbp), %eax
	subl	$2, %eax
	.loc 2 31 114
	cltq
	movq	%rax, %rdx
	call	_ZNSt6vectorIdSaIdEE2atEy
	.loc 2 31 104
	movsd	(%rax), %xmm0
	.loc 2 31 88
	subsd	%xmm0, %xmm7
	movapd	%xmm7, %xmm0
	.loc 2 31 60
	divsd	%xmm0, %xmm6
	.loc 2 31 156
	movq	16(%rbp), %rax
	leaq	16(%rax), %rcx
	.loc 2 31 154
	movl	-52(%rbp), %eax
	subl	$1, %eax
	.loc 2 31 156
	cltq
	movq	%rax, %rdx
	call	_ZNSt6vectorIdSaIdEE2atEy
	.loc 2 31 146
	movsd	(%rax), %xmm1
	.loc 2 31 130
	movsd	24(%rbp), %xmm0
	subsd	%xmm1, %xmm0
	.loc 2 31 117
	mulsd	%xmm0, %xmm6
	.loc 2 31 181
	movq	16(%rbp), %rax
	leaq	40(%rax), %rcx
	.loc 2 31 179
	movl	-52(%rbp), %eax
	subl	$1, %eax
	.loc 2 31 181
	cltq
	movq	%rax, %rdx
	call	_ZNSt6vectorIdSaIdEE2atEy
	.loc 2 31 171
	movsd	(%rax), %xmm0
	.loc 2 31 11
	addsd	%xmm6, %xmm0
	movsd	%xmm0, -48(%rbp)
	jmp	.L15
.L14:
	.loc 2 35 7
	cmpl	$0, -36(%rbp)
	jne	.L16
	.loc 2 36 29
	movq	16(%rbp), %rax
	addq	$40, %rax
	movl	$0, %edx
	movq	%rax, %rcx
	call	_ZNSt6vectorIdSaIdEE2atEy
	movsd	(%rax), %xmm0
	jmp	.L17
.L16:
	.loc 2 39 33
	movq	16(%rbp), %rax
	leaq	40(%rax), %rcx
	movl	-36(%rbp), %eax
	cltq
	movq	%rax, %rdx
	call	_ZNSt6vectorIdSaIdEE2atEy
	.loc 2 39 31
	movsd	(%rax), %xmm6
	.loc 2 39 51
	movq	16(%rbp), %rax
	leaq	40(%rax), %rcx
	.loc 2 39 49
	movl	-36(%rbp), %eax
	subl	$1, %eax
	.loc 2 39 51
	cltq
	movq	%rax, %rdx
	call	_ZNSt6vectorIdSaIdEE2atEy
	.loc 2 39 47
	movsd	(%rax), %xmm0
	.loc 2 39 35
	subsd	%xmm0, %xmm6
	.loc 2 39 71
	movq	16(%rbp), %rax
	leaq	16(%rax), %rcx
	movl	-36(%rbp), %eax
	cltq
	movq	%rax, %rdx
	call	_ZNSt6vectorIdSaIdEE2atEy
	.loc 2 39 69
	movsd	(%rax), %xmm7
	.loc 2 39 93
	movq	16(%rbp), %rax
	leaq	16(%rax), %rcx
	.loc 2 39 91
	movl	-36(%rbp), %eax
	subl	$1, %eax
	.loc 2 39 93
	cltq
	movq	%rax, %rdx
	call	_ZNSt6vectorIdSaIdEE2atEy
	.loc 2 39 89
	movsd	(%rax), %xmm0
	.loc 2 39 73
	subsd	%xmm0, %xmm7
	movapd	%xmm7, %xmm0
	.loc 2 39 53
	divsd	%xmm0, %xmm6
	.loc 2 39 129
	movq	16(%rbp), %rax
	leaq	16(%rax), %rcx
	.loc 2 39 127
	movl	-36(%rbp), %eax
	subl	$1, %eax
	.loc 2 39 129
	cltq
	movq	%rax, %rdx
	call	_ZNSt6vectorIdSaIdEE2atEy
	.loc 2 39 125
	movsd	(%rax), %xmm1
	.loc 2 39 109
	movsd	24(%rbp), %xmm0
	subsd	%xmm1, %xmm0
	.loc 2 39 96
	mulsd	%xmm0, %xmm6
	.loc 2 39 148
	movq	16(%rbp), %rax
	leaq	40(%rax), %rcx
	.loc 2 39 146
	movl	-36(%rbp), %eax
	subl	$1, %eax
	.loc 2 39 148
	cltq
	movq	%rax, %rdx
	call	_ZNSt6vectorIdSaIdEE2atEy
	.loc 2 39 144
	movsd	(%rax), %xmm0
	.loc 2 39 18
	addsd	%xmm6, %xmm0
	movsd	%xmm0, -48(%rbp)
.L15:
	.loc 2 43 9
	movsd	-48(%rbp), %xmm0
.L17:
	movq	%xmm0, %rax
	.loc 2 45 1
	movq	%rax, %xmm0
	movaps	-32(%rbp), %xmm6
	movaps	-16(%rbp), %xmm7
	addq	$96, %rsp
	.cfi_restore 24
	.cfi_restore 23
	popq	%rbp
	.cfi_restore 6
	.cfi_def_cfa 7, 8
	ret
	.cfi_endproc
.LFE834:
	.seh_endproc
	.align 2
	.globl	_ZN23CoeficienteAerodinamico6limparEv
	.def	_ZN23CoeficienteAerodinamico6limparEv;	.scl	2;	.type	32;	.endef
	.seh_proc	_ZN23CoeficienteAerodinamico6limparEv
_ZN23CoeficienteAerodinamico6limparEv:
.LFB835:
	.loc 2 48 1
	.cfi_startproc
	pushq	%rbp
	.seh_pushreg	%rbp
	.cfi_def_cfa_offset 16
	.cfi_offset 6, -16
	movq	%rsp, %rbp
	.seh_setframe	%rbp, 0
	.cfi_def_cfa_register 6
	subq	$32, %rsp
	.seh_stackalloc	32
	.seh_endprologue
	movq	%rcx, 16(%rbp)
	.loc 2 49 22
	movq	16(%rbp), %rax
	addq	$16, %rax
	movq	%rax, %rcx
	call	_ZNSt6vectorIdSaIdEE5clearEv
	.loc 2 50 18
	movq	16(%rbp), %rax
	addq	$40, %rax
	movq	%rax, %rcx
	call	_ZNSt6vectorIdSaIdEE5clearEv
	.loc 2 51 1
	nop
	addq	$32, %rsp
	popq	%rbp
	.cfi_restore 6
	.cfi_def_cfa 7, 8
	ret
	.cfi_endproc
.LFE835:
	.seh_endproc
	.section	.text$_ZNSt6vectorIdSaIdEEC1Ev,"x"
	.linkonce discard
	.align 2
	.globl	_ZNSt6vectorIdSaIdEEC1Ev
	.def	_ZNSt6vectorIdSaIdEEC1Ev;	.scl	2;	.type	32;	.endef
	.seh_proc	_ZNSt6vectorIdSaIdEEC1Ev
_ZNSt6vectorIdSaIdEEC1Ev:
.LFB840:
	.file 3 "C:/Program Files/CodeBlocks/MinGW/lib/gcc/x86_64-w64-mingw32/8.1.0/include/c++/bits/stl_vector.h"
	.loc 3 391 7
	.cfi_startproc
	pushq	%rbp
	.seh_pushreg	%rbp
	.cfi_def_cfa_offset 16
	.cfi_offset 6, -16
	movq	%rsp, %rbp
	.seh_setframe	%rbp, 0
	.cfi_def_cfa_register 6
	subq	$32, %rsp
	.seh_stackalloc	32
	.seh_endprologue
	movq	%rcx, 16(%rbp)
.LBB7:
	.loc 3 395 15
	movq	16(%rbp), %rax
	movq	%rax, %rcx
	call	_ZNSt12_Vector_baseIdSaIdEEC2Ev
.LBE7:
	.loc 3 395 19
	nop
	addq	$32, %rsp
	popq	%rbp
	.cfi_restore 6
	.cfi_def_cfa 7, 8
	ret
	.cfi_endproc
.LFE840:
	.def	__gxx_personality_seh0;	.scl	2;	.type	32;	.endef
	.seh_handler	__gxx_personality_seh0, @unwind, @except
	.seh_handlerdata
.LLSDA840:
	.byte	0xff
	.byte	0xff
	.byte	0x1
	.uleb128 .LLSDACSE840-.LLSDACSB840
.LLSDACSB840:
.LLSDACSE840:
	.section	.text$_ZNSt6vectorIdSaIdEEC1Ev,"x"
	.linkonce discard
	.seh_endproc
	.section	.text$_ZNSt6vectorIdSaIdEED1Ev,"x"
	.linkonce discard
	.align 2
	.globl	_ZNSt6vectorIdSaIdEED1Ev
	.def	_ZNSt6vectorIdSaIdEED1Ev;	.scl	2;	.type	32;	.endef
	.seh_proc	_ZNSt6vectorIdSaIdEED1Ev
_ZNSt6vectorIdSaIdEED1Ev:
.LFB843:
	.loc 3 565 7
	.cfi_startproc
	pushq	%rbp
	.seh_pushreg	%rbp
	.cfi_def_cfa_offset 16
	.cfi_offset 6, -16
	movq	%rsp, %rbp
	.seh_setframe	%rbp, 0
	.cfi_def_cfa_register 6
	subq	$32, %rsp
	.seh_stackalloc	32
	.seh_endprologue
	movq	%rcx, 16(%rbp)
.LBB8:
	.loc 3 568 28
	movq	16(%rbp), %rax
	movq	%rax, %rcx
	call	_ZNSt12_Vector_baseIdSaIdEE19_M_get_Tp_allocatorEv
	movq	%rax, %rcx
	.loc 3 567 15
	movq	16(%rbp), %rax
	movq	8(%rax), %rdx
	movq	16(%rbp), %rax
	movq	(%rax), %rax
	movq	%rcx, %r8
	movq	%rax, %rcx
	call	_ZSt8_DestroyIPddEvT_S1_RSaIT0_E
	.loc 3 570 7
	movq	16(%rbp), %rax
	movq	%rax, %rcx
	call	_ZNSt12_Vector_baseIdSaIdEED2Ev
.LBE8:
	nop
	addq	$32, %rsp
	popq	%rbp
	.cfi_restore 6
	.cfi_def_cfa 7, 8
	ret
	.cfi_endproc
.LFE843:
	.seh_handler	__gxx_personality_seh0, @unwind, @except
	.seh_handlerdata
.LLSDA843:
	.byte	0xff
	.byte	0xff
	.byte	0x1
	.uleb128 .LLSDACSE843-.LLSDACSB843
.LLSDACSB843:
.LLSDACSE843:
	.section	.text$_ZNSt6vectorIdSaIdEED1Ev,"x"
	.linkonce discard
	.seh_endproc
	.section	.text$_ZNSt6vectorIdSaIdEE5clearEv,"x"
	.linkonce discard
	.align 2
	.globl	_ZNSt6vectorIdSaIdEE5clearEv
	.def	_ZNSt6vectorIdSaIdEE5clearEv;	.scl	2;	.type	32;	.endef
	.seh_proc	_ZNSt6vectorIdSaIdEE5clearEv
_ZNSt6vectorIdSaIdEE5clearEv:
.LFB847:
	.loc 3 1385 7
	.cfi_startproc
	pushq	%rbp
	.seh_pushreg	%rbp
	.cfi_def_cfa_offset 16
	.cfi_offset 6, -16
	movq	%rsp, %rbp
	.seh_setframe	%rbp, 0
	.cfi_def_cfa_register 6
	subq	$32, %rsp
	.seh_stackalloc	32
	.seh_endprologue
	movq	%rcx, 16(%rbp)
	.loc 3 1386 9
	movq	16(%rbp), %rax
	movq	(%rax), %rax
	movq	%rax, %rdx
	movq	16(%rbp), %rcx
	call	_ZNSt6vectorIdSaIdEE15_M_erase_at_endEPd
	.loc 3 1386 50
	nop
	addq	$32, %rsp
	popq	%rbp
	.cfi_restore 6
	.cfi_def_cfa 7, 8
	ret
	.cfi_endproc
.LFE847:
	.seh_endproc
	.section	.text$_ZNKSt6vectorIdSaIdEE4sizeEv,"x"
	.linkonce discard
	.align 2
	.globl	_ZNKSt6vectorIdSaIdEE4sizeEv
	.def	_ZNKSt6vectorIdSaIdEE4sizeEv;	.scl	2;	.type	32;	.endef
	.seh_proc	_ZNKSt6vectorIdSaIdEE4sizeEv
_ZNKSt6vectorIdSaIdEE4sizeEv:
.LFB848:
	.loc 3 805 7
	.cfi_startproc
	pushq	%rbp
	.seh_pushreg	%rbp
	.cfi_def_cfa_offset 16
	.cfi_offset 6, -16
	movq	%rsp, %rbp
	.seh_setframe	%rbp, 0
	.cfi_def_cfa_register 6
	.seh_endprologue
	movq	%rcx, 16(%rbp)
	.loc 3 806 40
	movq	16(%rbp), %rax
	movq	8(%rax), %rdx
	.loc 3 806 66
	movq	16(%rbp), %rax
	movq	(%rax), %rax
	.loc 3 806 50
	subq	%rax, %rdx
	movq	%rdx, %rax
	sarq	$3, %rax
	.loc 3 806 77
	popq	%rbp
	.cfi_restore 6
	.cfi_def_cfa 7, 8
	ret
	.cfi_endproc
.LFE848:
	.seh_endproc
	.section	.text$_ZNSt6vectorIdSaIdEE2atEy,"x"
	.linkonce discard
	.align 2
	.globl	_ZNSt6vectorIdSaIdEE2atEy
	.def	_ZNSt6vectorIdSaIdEE2atEy;	.scl	2;	.type	32;	.endef
	.seh_proc	_ZNSt6vectorIdSaIdEE2atEy
_ZNSt6vectorIdSaIdEE2atEy:
.LFB849:
	.loc 3 979 7
	.cfi_startproc
	pushq	%rbp
	.seh_pushreg	%rbp
	.cfi_def_cfa_offset 16
	.cfi_offset 6, -16
	movq	%rsp, %rbp
	.seh_setframe	%rbp, 0
	.cfi_def_cfa_register 6
	subq	$32, %rsp
	.seh_stackalloc	32
	.seh_endprologue
	movq	%rcx, 16(%rbp)
	movq	%rdx, 24(%rbp)
	.loc 3 981 2
	movq	24(%rbp), %rax
	movq	%rax, %rdx
	movq	16(%rbp), %rcx
	call	_ZNKSt6vectorIdSaIdEE14_M_range_checkEy
	.loc 3 982 16
	movq	24(%rbp), %rax
	movq	%rax, %rdx
	movq	16(%rbp), %rcx
	call	_ZNSt6vectorIdSaIdEEixEy
	.loc 3 983 7
	addq	$32, %rsp
	popq	%rbp
	.cfi_restore 6
	.cfi_def_cfa 7, 8
	ret
	.cfi_endproc
.LFE849:
	.seh_endproc
	.section	.text$_ZNSt12_Vector_baseIdSaIdEE12_Vector_implD1Ev,"x"
	.linkonce discard
	.align 2
	.globl	_ZNSt12_Vector_baseIdSaIdEE12_Vector_implD1Ev
	.def	_ZNSt12_Vector_baseIdSaIdEE12_Vector_implD1Ev;	.scl	2;	.type	32;	.endef
	.seh_proc	_ZNSt12_Vector_baseIdSaIdEE12_Vector_implD1Ev
_ZNSt12_Vector_baseIdSaIdEE12_Vector_implD1Ev:
.LFB853:
	.loc 3 88 14
	.cfi_startproc
	pushq	%rbp
	.seh_pushreg	%rbp
	.cfi_def_cfa_offset 16
	.cfi_offset 6, -16
	movq	%rsp, %rbp
	.seh_setframe	%rbp, 0
	.cfi_def_cfa_register 6
	subq	$32, %rsp
	.seh_stackalloc	32
	.seh_endprologue
	movq	%rcx, 16(%rbp)
.LBB9:
	.loc 3 88 14
	movq	16(%rbp), %rcx
	call	_ZNSaIdED2Ev
.LBE9:
	nop
	addq	$32, %rsp
	popq	%rbp
	.cfi_restore 6
	.cfi_def_cfa 7, 8
	ret
	.cfi_endproc
.LFE853:
	.seh_endproc
	.section	.text$_ZNSt12_Vector_baseIdSaIdEEC2Ev,"x"
	.linkonce discard
	.align 2
	.globl	_ZNSt12_Vector_baseIdSaIdEEC2Ev
	.def	_ZNSt12_Vector_baseIdSaIdEEC2Ev;	.scl	2;	.type	32;	.endef
	.seh_proc	_ZNSt12_Vector_baseIdSaIdEEC2Ev
_ZNSt12_Vector_baseIdSaIdEEC2Ev:
.LFB854:
	.loc 3 248 7
	.cfi_startproc
	pushq	%rbp
	.seh_pushreg	%rbp
	.cfi_def_cfa_offset 16
	.cfi_offset 6, -16
	movq	%rsp, %rbp
	.seh_setframe	%rbp, 0
	.cfi_def_cfa_register 6
	subq	$32, %rsp
	.seh_stackalloc	32
	.seh_endprologue
	movq	%rcx, 16(%rbp)
.LBB10:
	.loc 3 249 17
	movq	16(%rbp), %rax
	movq	%rax, %rcx
	call	_ZNSt12_Vector_baseIdSaIdEE12_Vector_implC1Ev
.LBE10:
	.loc 3 249 21
	nop
	addq	$32, %rsp
	popq	%rbp
	.cfi_restore 6
	.cfi_def_cfa 7, 8
	ret
	.cfi_endproc
.LFE854:
	.seh_endproc
	.section	.text$_ZNSt12_Vector_baseIdSaIdEED2Ev,"x"
	.linkonce discard
	.align 2
	.globl	_ZNSt12_Vector_baseIdSaIdEED2Ev
	.def	_ZNSt12_Vector_baseIdSaIdEED2Ev;	.scl	2;	.type	32;	.endef
	.seh_proc	_ZNSt12_Vector_baseIdSaIdEED2Ev
_ZNSt12_Vector_baseIdSaIdEED2Ev:
.LFB857:
	.loc 3 283 7
	.cfi_startproc
	pushq	%rbp
	.seh_pushreg	%rbp
	.cfi_def_cfa_offset 16
	.cfi_offset 6, -16
	movq	%rsp, %rbp
	.seh_setframe	%rbp, 0
	.cfi_def_cfa_register 6
	subq	$32, %rsp
	.seh_stackalloc	32
	.seh_endprologue
	movq	%rcx, 16(%rbp)
.LBB11:
	.loc 3 286 17
	movq	16(%rbp), %rax
	movq	16(%rax), %rdx
	.loc 3 286 45
	movq	16(%rbp), %rax
	movq	(%rax), %rax
	.loc 3 286 35
	subq	%rax, %rdx
	movq	%rdx, %rax
	sarq	$3, %rax
	.loc 3 285 2
	movq	%rax, %rdx
	movq	16(%rbp), %rax
	movq	(%rax), %rax
	movq	%rdx, %r8
	movq	%rax, %rdx
	movq	16(%rbp), %rcx
	call	_ZNSt12_Vector_baseIdSaIdEE13_M_deallocateEPdy
	.loc 3 287 7
	movq	16(%rbp), %rax
	movq	%rax, %rcx
	call	_ZNSt12_Vector_baseIdSaIdEE12_Vector_implD1Ev
.LBE11:
	nop
	addq	$32, %rsp
	popq	%rbp
	.cfi_restore 6
	.cfi_def_cfa 7, 8
	ret
	.cfi_endproc
.LFE857:
	.seh_handler	__gxx_personality_seh0, @unwind, @except
	.seh_handlerdata
.LLSDA857:
	.byte	0xff
	.byte	0xff
	.byte	0x1
	.uleb128 .LLSDACSE857-.LLSDACSB857
.LLSDACSB857:
.LLSDACSE857:
	.section	.text$_ZNSt12_Vector_baseIdSaIdEED2Ev,"x"
	.linkonce discard
	.seh_endproc
	.section	.text$_ZNSt12_Vector_baseIdSaIdEE19_M_get_Tp_allocatorEv,"x"
	.linkonce discard
	.align 2
	.globl	_ZNSt12_Vector_baseIdSaIdEE19_M_get_Tp_allocatorEv
	.def	_ZNSt12_Vector_baseIdSaIdEE19_M_get_Tp_allocatorEv;	.scl	2;	.type	32;	.endef
	.seh_proc	_ZNSt12_Vector_baseIdSaIdEE19_M_get_Tp_allocatorEv
_ZNSt12_Vector_baseIdSaIdEE19_M_get_Tp_allocatorEv:
.LFB859:
	.loc 3 237 7
	.cfi_startproc
	pushq	%rbp
	.seh_pushreg	%rbp
	.cfi_def_cfa_offset 16
	.cfi_offset 6, -16
	movq	%rsp, %rbp
	.seh_setframe	%rbp, 0
	.cfi_def_cfa_register 6
	.seh_endprologue
	movq	%rcx, 16(%rbp)
	.loc 3 238 60
	movq	16(%rbp), %rax
	.loc 3 238 63
	popq	%rbp
	.cfi_restore 6
	.cfi_def_cfa 7, 8
	ret
	.cfi_endproc
.LFE859:
	.seh_endproc
	.section	.text$_ZSt8_DestroyIPddEvT_S1_RSaIT0_E,"x"
	.linkonce discard
	.globl	_ZSt8_DestroyIPddEvT_S1_RSaIT0_E
	.def	_ZSt8_DestroyIPddEvT_S1_RSaIT0_E;	.scl	2;	.type	32;	.endef
	.seh_proc	_ZSt8_DestroyIPddEvT_S1_RSaIT0_E
_ZSt8_DestroyIPddEvT_S1_RSaIT0_E:
.LFB860:
	.file 4 "C:/Program Files/CodeBlocks/MinGW/lib/gcc/x86_64-w64-mingw32/8.1.0/include/c++/bits/stl_construct.h"
	.loc 4 203 5
	.cfi_startproc
	pushq	%rbp
	.seh_pushreg	%rbp
	.cfi_def_cfa_offset 16
	.cfi_offset 6, -16
	movq	%rsp, %rbp
	.seh_setframe	%rbp, 0
	.cfi_def_cfa_register 6
	subq	$32, %rsp
	.seh_stackalloc	32
	.seh_endprologue
	movq	%rcx, 16(%rbp)
	movq	%rdx, 24(%rbp)
	movq	%r8, 32(%rbp)
	.loc 4 206 15
	movq	24(%rbp), %rax
	movq	%rax, %rdx
	movq	16(%rbp), %rcx
	call	_ZSt8_DestroyIPdEvT_S1_
	.loc 4 207 5
	nop
	addq	$32, %rsp
	popq	%rbp
	.cfi_restore 6
	.cfi_def_cfa 7, 8
	ret
	.cfi_endproc
.LFE860:
	.seh_endproc
	.section	.text$_ZNSaIdED2Ev,"x"
	.linkonce discard
	.align 2
	.globl	_ZNSaIdED2Ev
	.def	_ZNSaIdED2Ev;	.scl	2;	.type	32;	.endef
	.seh_proc	_ZNSaIdED2Ev
_ZNSaIdED2Ev:
.LFB864:
	.file 5 "C:/Program Files/CodeBlocks/MinGW/lib/gcc/x86_64-w64-mingw32/8.1.0/include/c++/bits/allocator.h"
	.loc 5 139 7
	.cfi_startproc
	pushq	%rbp
	.seh_pushreg	%rbp
	.cfi_def_cfa_offset 16
	.cfi_offset 6, -16
	movq	%rsp, %rbp
	.seh_setframe	%rbp, 0
	.cfi_def_cfa_register 6
	subq	$32, %rsp
	.seh_stackalloc	32
	.seh_endprologue
	movq	%rcx, 16(%rbp)
.LBB12:
	.loc 5 139 30
	movq	16(%rbp), %rcx
	call	_ZN9__gnu_cxx13new_allocatorIdED2Ev
.LBE12:
	nop
	addq	$32, %rsp
	popq	%rbp
	.cfi_restore 6
	.cfi_def_cfa 7, 8
	ret
	.cfi_endproc
.LFE864:
	.seh_endproc
	.section	.text$_ZNSt6vectorIdSaIdEE15_M_erase_at_endEPd,"x"
	.linkonce discard
	.align 2
	.globl	_ZNSt6vectorIdSaIdEE15_M_erase_at_endEPd
	.def	_ZNSt6vectorIdSaIdEE15_M_erase_at_endEPd;	.scl	2;	.type	32;	.endef
	.seh_proc	_ZNSt6vectorIdSaIdEE15_M_erase_at_endEPd
_ZNSt6vectorIdSaIdEE15_M_erase_at_endEPd:
.LFB872:
	.loc 3 1649 7
	.cfi_startproc
	pushq	%rbp
	.seh_pushreg	%rbp
	.cfi_def_cfa_offset 16
	.cfi_offset 6, -16
	movq	%rsp, %rbp
	.seh_setframe	%rbp, 0
	.cfi_def_cfa_register 6
	subq	$48, %rsp
	.seh_stackalloc	48
	.seh_endprologue
	movq	%rcx, 16(%rbp)
	movq	%rdx, 24(%rbp)
.LBB13:
	.loc 3 1651 36
	movq	16(%rbp), %rax
	movq	8(%rax), %rax
	.loc 3 1651 46
	subq	24(%rbp), %rax
	sarq	$3, %rax
	.loc 3 1651 16
	movq	%rax, -8(%rbp)
	.loc 3 1651 2
	cmpq	$0, -8(%rbp)
	je	.L36
	.loc 3 1654 25
	movq	16(%rbp), %rax
	movq	%rax, %rcx
	call	_ZNSt12_Vector_baseIdSaIdEE19_M_get_Tp_allocatorEv
	movq	%rax, %rcx
	.loc 3 1653 19
	movq	16(%rbp), %rax
	movq	8(%rax), %rdx
	movq	24(%rbp), %rax
	movq	%rcx, %r8
	movq	%rax, %rcx
	call	_ZSt8_DestroyIPddEvT_S1_RSaIT0_E
	.loc 3 1655 6
	movq	16(%rbp), %rax
	movq	24(%rbp), %rdx
	movq	%rdx, 8(%rax)
.L36:
.LBE13:
	.loc 3 1658 7
	nop
	addq	$48, %rsp
	popq	%rbp
	.cfi_restore 6
	.cfi_def_cfa 7, 8
	ret
	.cfi_endproc
.LFE872:
	.seh_handler	__gxx_personality_seh0, @unwind, @except
	.seh_handlerdata
.LLSDA872:
	.byte	0xff
	.byte	0xff
	.byte	0x1
	.uleb128 .LLSDACSE872-.LLSDACSB872
.LLSDACSB872:
.LLSDACSE872:
	.section	.text$_ZNSt6vectorIdSaIdEE15_M_erase_at_endEPd,"x"
	.linkonce discard
	.seh_endproc
	.section .rdata,"dr"
	.align 8
.LC1:
	.ascii "vector::_M_range_check: __n (which is %zu) >= this->size() (which is %zu)\0"
	.section	.text$_ZNKSt6vectorIdSaIdEE14_M_range_checkEy,"x"
	.linkonce discard
	.align 2
	.globl	_ZNKSt6vectorIdSaIdEE14_M_range_checkEy
	.def	_ZNKSt6vectorIdSaIdEE14_M_range_checkEy;	.scl	2;	.type	32;	.endef
	.seh_proc	_ZNKSt6vectorIdSaIdEE14_M_range_checkEy
_ZNKSt6vectorIdSaIdEE14_M_range_checkEy:
.LFB873:
	.loc 3 957 7
	.cfi_startproc
	pushq	%rbp
	.seh_pushreg	%rbp
	.cfi_def_cfa_offset 16
	.cfi_offset 6, -16
	movq	%rsp, %rbp
	.seh_setframe	%rbp, 0
	.cfi_def_cfa_register 6
	subq	$32, %rsp
	.seh_stackalloc	32
	.seh_endprologue
	movq	%rcx, 16(%rbp)
	movq	%rdx, 24(%rbp)
	.loc 3 959 10
	movq	16(%rbp), %rcx
	call	_ZNKSt6vectorIdSaIdEE4sizeEv
	cmpq	%rax, 24(%rbp)
	setnb	%al
	.loc 3 959 2
	testb	%al, %al
	je	.L39
	.loc 3 960 28
	movq	16(%rbp), %rcx
	call	_ZNKSt6vectorIdSaIdEE4sizeEv
	movq	%rax, %rdx
	movq	24(%rbp), %rax
	movq	%rdx, %r8
	movq	%rax, %rdx
	leaq	.LC1(%rip), %rcx
	call	_ZSt24__throw_out_of_range_fmtPKcz
.L39:
	.loc 3 964 7
	nop
	addq	$32, %rsp
	popq	%rbp
	.cfi_restore 6
	.cfi_def_cfa 7, 8
	ret
	.cfi_endproc
.LFE873:
	.seh_endproc
	.section	.text$_ZNSt6vectorIdSaIdEEixEy,"x"
	.linkonce discard
	.align 2
	.globl	_ZNSt6vectorIdSaIdEEixEy
	.def	_ZNSt6vectorIdSaIdEEixEy;	.scl	2;	.type	32;	.endef
	.seh_proc	_ZNSt6vectorIdSaIdEEixEy
_ZNSt6vectorIdSaIdEEixEy:
.LFB874:
	.loc 3 930 7
	.cfi_startproc
	pushq	%rbp
	.seh_pushreg	%rbp
	.cfi_def_cfa_offset 16
	.cfi_offset 6, -16
	movq	%rsp, %rbp
	.seh_setframe	%rbp, 0
	.cfi_def_cfa_register 6
	.seh_endprologue
	movq	%rcx, 16(%rbp)
	movq	%rdx, 24(%rbp)
	.loc 3 933 25
	movq	16(%rbp), %rax
	movq	(%rax), %rdx
	.loc 3 933 34
	movq	24(%rbp), %rax
	salq	$3, %rax
	.loc 3 933 39
	addq	%rdx, %rax
	.loc 3 934 7
	popq	%rbp
	.cfi_restore 6
	.cfi_def_cfa 7, 8
	ret
	.cfi_endproc
.LFE874:
	.seh_endproc
	.section	.text$_ZNSt12_Vector_baseIdSaIdEE12_Vector_implC1Ev,"x"
	.linkonce discard
	.align 2
	.globl	_ZNSt12_Vector_baseIdSaIdEE12_Vector_implC1Ev
	.def	_ZNSt12_Vector_baseIdSaIdEE12_Vector_implC1Ev;	.scl	2;	.type	32;	.endef
	.seh_proc	_ZNSt12_Vector_baseIdSaIdEE12_Vector_implC1Ev
_ZNSt12_Vector_baseIdSaIdEE12_Vector_implC1Ev:
.LFB877:
	.loc 3 95 2
	.cfi_startproc
	pushq	%rbp
	.seh_pushreg	%rbp
	.cfi_def_cfa_offset 16
	.cfi_offset 6, -16
	movq	%rsp, %rbp
	.seh_setframe	%rbp, 0
	.cfi_def_cfa_register 6
	subq	$32, %rsp
	.seh_stackalloc	32
	.seh_endprologue
	movq	%rcx, 16(%rbp)
.LBB14:
	.loc 3 96 65
	movq	16(%rbp), %rcx
	call	_ZNSaIdEC2Ev
	movq	16(%rbp), %rax
	movq	$0, (%rax)
	movq	16(%rbp), %rax
	movq	$0, 8(%rax)
	movq	16(%rbp), %rax
	movq	$0, 16(%rax)
.LBE14:
	.loc 3 97 4
	nop
	addq	$32, %rsp
	popq	%rbp
	.cfi_restore 6
	.cfi_def_cfa 7, 8
	ret
	.cfi_endproc
.LFE877:
	.seh_endproc
	.section	.text$_ZNSt12_Vector_baseIdSaIdEE13_M_deallocateEPdy,"x"
	.linkonce discard
	.align 2
	.globl	_ZNSt12_Vector_baseIdSaIdEE13_M_deallocateEPdy
	.def	_ZNSt12_Vector_baseIdSaIdEE13_M_deallocateEPdy;	.scl	2;	.type	32;	.endef
	.seh_proc	_ZNSt12_Vector_baseIdSaIdEE13_M_deallocateEPdy
_ZNSt12_Vector_baseIdSaIdEE13_M_deallocateEPdy:
.LFB878:
	.loc 3 300 7
	.cfi_startproc
	pushq	%rbp
	.seh_pushreg	%rbp
	.cfi_def_cfa_offset 16
	.cfi_offset 6, -16
	movq	%rsp, %rbp
	.seh_setframe	%rbp, 0
	.cfi_def_cfa_register 6
	subq	$32, %rsp
	.seh_stackalloc	32
	.seh_endprologue
	movq	%rcx, 16(%rbp)
	movq	%rdx, 24(%rbp)
	movq	%r8, 32(%rbp)
	.loc 3 303 2
	cmpq	$0, 24(%rbp)
	je	.L45
	.loc 3 304 20
	movq	16(%rbp), %rax
	.loc 3 304 19
	movq	32(%rbp), %rcx
	movq	24(%rbp), %rdx
	movq	%rcx, %r8
	movq	%rax, %rcx
	call	_ZNSt16allocator_traitsISaIdEE10deallocateERS0_Pdy
.L45:
	.loc 3 305 7
	nop
	addq	$32, %rsp
	popq	%rbp
	.cfi_restore 6
	.cfi_def_cfa 7, 8
	ret
	.cfi_endproc
.LFE878:
	.seh_endproc
	.section	.text$_ZSt8_DestroyIPdEvT_S1_,"x"
	.linkonce discard
	.globl	_ZSt8_DestroyIPdEvT_S1_
	.def	_ZSt8_DestroyIPdEvT_S1_;	.scl	2;	.type	32;	.endef
	.seh_proc	_ZSt8_DestroyIPdEvT_S1_
_ZSt8_DestroyIPdEvT_S1_:
.LFB879:
	.loc 4 127 5
	.cfi_startproc
	pushq	%rbp
	.seh_pushreg	%rbp
	.cfi_def_cfa_offset 16
	.cfi_offset 6, -16
	movq	%rsp, %rbp
	.seh_setframe	%rbp, 0
	.cfi_def_cfa_register 6
	subq	$32, %rsp
	.seh_stackalloc	32
	.seh_endprologue
	movq	%rcx, 16(%rbp)
	movq	%rdx, 24(%rbp)
	.loc 4 137 11
	movq	24(%rbp), %rax
	movq	%rax, %rdx
	movq	16(%rbp), %rcx
	call	_ZNSt12_Destroy_auxILb1EE9__destroyIPdEEvT_S3_
	.loc 4 138 5
	nop
	addq	$32, %rsp
	popq	%rbp
	.cfi_restore 6
	.cfi_def_cfa 7, 8
	ret
	.cfi_endproc
.LFE879:
	.seh_endproc
	.section	.text$_ZN9__gnu_cxx13new_allocatorIdED2Ev,"x"
	.linkonce discard
	.align 2
	.globl	_ZN9__gnu_cxx13new_allocatorIdED2Ev
	.def	_ZN9__gnu_cxx13new_allocatorIdED2Ev;	.scl	2;	.type	32;	.endef
	.seh_proc	_ZN9__gnu_cxx13new_allocatorIdED2Ev
_ZN9__gnu_cxx13new_allocatorIdED2Ev:
.LFB885:
	.file 6 "C:/Program Files/CodeBlocks/MinGW/lib/gcc/x86_64-w64-mingw32/8.1.0/include/c++/ext/new_allocator.h"
	.loc 6 86 7
	.cfi_startproc
	pushq	%rbp
	.seh_pushreg	%rbp
	.cfi_def_cfa_offset 16
	.cfi_offset 6, -16
	movq	%rsp, %rbp
	.seh_setframe	%rbp, 0
	.cfi_def_cfa_register 6
	.seh_endprologue
	movq	%rcx, 16(%rbp)
	.loc 6 86 35
	nop
	popq	%rbp
	.cfi_restore 6
	.cfi_def_cfa 7, 8
	ret
	.cfi_endproc
.LFE885:
	.seh_endproc
	.section	.text$_ZNSaIdEC2Ev,"x"
	.linkonce discard
	.align 2
	.globl	_ZNSaIdEC2Ev
	.def	_ZNSaIdEC2Ev;	.scl	2;	.type	32;	.endef
	.seh_proc	_ZNSaIdEC2Ev
_ZNSaIdEC2Ev:
.LFB896:
	.loc 5 131 7
	.cfi_startproc
	pushq	%rbp
	.seh_pushreg	%rbp
	.cfi_def_cfa_offset 16
	.cfi_offset 6, -16
	movq	%rsp, %rbp
	.seh_setframe	%rbp, 0
	.cfi_def_cfa_register 6
	subq	$32, %rsp
	.seh_stackalloc	32
	.seh_endprologue
	movq	%rcx, 16(%rbp)
.LBB15:
	.loc 5 131 27
	movq	16(%rbp), %rcx
	call	_ZN9__gnu_cxx13new_allocatorIdEC2Ev
.LBE15:
	.loc 5 131 29
	nop
	addq	$32, %rsp
	popq	%rbp
	.cfi_restore 6
	.cfi_def_cfa 7, 8
	ret
	.cfi_endproc
.LFE896:
	.seh_endproc
	.section	.text$_ZNSt16allocator_traitsISaIdEE10deallocateERS0_Pdy,"x"
	.linkonce discard
	.globl	_ZNSt16allocator_traitsISaIdEE10deallocateERS0_Pdy
	.def	_ZNSt16allocator_traitsISaIdEE10deallocateERS0_Pdy;	.scl	2;	.type	32;	.endef
	.seh_proc	_ZNSt16allocator_traitsISaIdEE10deallocateERS0_Pdy
_ZNSt16allocator_traitsISaIdEE10deallocateERS0_Pdy:
.LFB898:
	.file 7 "C:/Program Files/CodeBlocks/MinGW/lib/gcc/x86_64-w64-mingw32/8.1.0/include/c++/bits/alloc_traits.h"
	.loc 7 461 7
	.cfi_startproc
	pushq	%rbp
	.seh_pushreg	%rbp
	.cfi_def_cfa_offset 16
	.cfi_offset 6, -16
	movq	%rsp, %rbp
	.seh_setframe	%rbp, 0
	.cfi_def_cfa_register 6
	subq	$32, %rsp
	.seh_stackalloc	32
	.seh_endprologue
	movq	%rcx, 16(%rbp)
	movq	%rdx, 24(%rbp)
	movq	%r8, 32(%rbp)
	.loc 7 462 9
	movq	32(%rbp), %rdx
	movq	24(%rbp), %rax
	movq	%rdx, %r8
	movq	%rax, %rdx
	movq	16(%rbp), %rcx
	call	_ZN9__gnu_cxx13new_allocatorIdE10deallocateEPdy
	.loc 7 462 35
	nop
	addq	$32, %rsp
	popq	%rbp
	.cfi_restore 6
	.cfi_def_cfa 7, 8
	ret
	.cfi_endproc
.LFE898:
	.seh_endproc
	.section	.text$_ZNSt12_Destroy_auxILb1EE9__destroyIPdEEvT_S3_,"x"
	.linkonce discard
	.globl	_ZNSt12_Destroy_auxILb1EE9__destroyIPdEEvT_S3_
	.def	_ZNSt12_Destroy_auxILb1EE9__destroyIPdEEvT_S3_;	.scl	2;	.type	32;	.endef
	.seh_proc	_ZNSt12_Destroy_auxILb1EE9__destroyIPdEEvT_S3_
_ZNSt12_Destroy_auxILb1EE9__destroyIPdEEvT_S3_:
.LFB899:
	.loc 4 117 9
	.cfi_startproc
	pushq	%rbp
	.seh_pushreg	%rbp
	.cfi_def_cfa_offset 16
	.cfi_offset 6, -16
	movq	%rsp, %rbp
	.seh_setframe	%rbp, 0
	.cfi_def_cfa_register 6
	.seh_endprologue
	movq	%rcx, 16(%rbp)
	movq	%rdx, 24(%rbp)
	.loc 4 117 57
	nop
	popq	%rbp
	.cfi_restore 6
	.cfi_def_cfa 7, 8
	ret
	.cfi_endproc
.LFE899:
	.seh_endproc
	.section	.text$_ZN9__gnu_cxx13new_allocatorIdEC2Ev,"x"
	.linkonce discard
	.align 2
	.globl	_ZN9__gnu_cxx13new_allocatorIdEC2Ev
	.def	_ZN9__gnu_cxx13new_allocatorIdEC2Ev;	.scl	2;	.type	32;	.endef
	.seh_proc	_ZN9__gnu_cxx13new_allocatorIdEC2Ev
_ZN9__gnu_cxx13new_allocatorIdEC2Ev:
.LFB906:
	.loc 6 79 7
	.cfi_startproc
	pushq	%rbp
	.seh_pushreg	%rbp
	.cfi_def_cfa_offset 16
	.cfi_offset 6, -16
	movq	%rsp, %rbp
	.seh_setframe	%rbp, 0
	.cfi_def_cfa_register 6
	.seh_endprologue
	movq	%rcx, 16(%rbp)
	.loc 6 79 34
	nop
	popq	%rbp
	.cfi_restore 6
	.cfi_def_cfa 7, 8
	ret
	.cfi_endproc
.LFE906:
	.seh_endproc
	.section	.text$_ZN9__gnu_cxx13new_allocatorIdE10deallocateEPdy,"x"
	.linkonce discard
	.align 2
	.globl	_ZN9__gnu_cxx13new_allocatorIdE10deallocateEPdy
	.def	_ZN9__gnu_cxx13new_allocatorIdE10deallocateEPdy;	.scl	2;	.type	32;	.endef
	.seh_proc	_ZN9__gnu_cxx13new_allocatorIdE10deallocateEPdy
_ZN9__gnu_cxx13new_allocatorIdE10deallocateEPdy:
.LFB908:
	.loc 6 116 7
	.cfi_startproc
	pushq	%rbp
	.seh_pushreg	%rbp
	.cfi_def_cfa_offset 16
	.cfi_offset 6, -16
	movq	%rsp, %rbp
	.seh_setframe	%rbp, 0
	.cfi_def_cfa_register 6
	subq	$32, %rsp
	.seh_stackalloc	32
	.seh_endprologue
	movq	%rcx, 16(%rbp)
	movq	%rdx, 24(%rbp)
	movq	%r8, 32(%rbp)
	.loc 6 125 19
	movq	24(%rbp), %rax
	movq	%rax, %rcx
	call	_ZdlPv
	.loc 6 126 7
	nop
	addq	$32, %rsp
	popq	%rbp
	.cfi_restore 6
	.cfi_def_cfa 7, 8
	ret
	.cfi_endproc
.LFE908:
	.seh_endproc
	.globl	_ZTV23CoeficienteAerodinamico
	.section	.rdata$_ZTV23CoeficienteAerodinamico,"dr"
	.linkonce same_size
	.align 8
_ZTV23CoeficienteAerodinamico:
	.quad	0
	.quad	_ZTI23CoeficienteAerodinamico
	.quad	_ZN23CoeficienteAerodinamicoD1Ev
	.quad	_ZN23CoeficienteAerodinamicoD0Ev
	.globl	_ZTV10BaseObject
	.section	.rdata$_ZTV10BaseObject,"dr"
	.linkonce same_size
	.align 8
_ZTV10BaseObject:
	.quad	0
	.quad	_ZTI10BaseObject
	.quad	_ZN10BaseObjectD1Ev
	.quad	_ZN10BaseObjectD0Ev
	.globl	_ZTI23CoeficienteAerodinamico
	.section	.rdata$_ZTI23CoeficienteAerodinamico,"dr"
	.linkonce same_size
	.align 8
_ZTI23CoeficienteAerodinamico:
	.quad	_ZTVN10__cxxabiv120__si_class_type_infoE+16
	.quad	_ZTS23CoeficienteAerodinamico
	.quad	_ZTI10BaseObject
	.globl	_ZTS23CoeficienteAerodinamico
	.section	.rdata$_ZTS23CoeficienteAerodinamico,"dr"
	.linkonce same_size
	.align 16
_ZTS23CoeficienteAerodinamico:
	.ascii "23CoeficienteAerodinamico\0"
	.globl	_ZTI10BaseObject
	.section	.rdata$_ZTI10BaseObject,"dr"
	.linkonce same_size
	.align 8
_ZTI10BaseObject:
	.quad	_ZTVN10__cxxabiv117__class_type_infoE+16
	.quad	_ZTS10BaseObject
	.globl	_ZTS10BaseObject
	.section	.rdata$_ZTS10BaseObject,"dr"
	.linkonce same_size
	.align 8
_ZTS10BaseObject:
	.ascii "10BaseObject\0"
	.text
.Letext0:
	.file 8 "C:/Program Files/CodeBlocks/MinGW/lib/gcc/x86_64-w64-mingw32/8.1.0/include/c++/type_traits"
	.file 9 "C:/Program Files/CodeBlocks/MinGW/lib/gcc/x86_64-w64-mingw32/8.1.0/include/c++/debug/debug.h"
	.file 10 "C:/Program Files/CodeBlocks/MinGW/lib/gcc/x86_64-w64-mingw32/8.1.0/include/c++/bits/stl_pair.h"
	.file 11 "C:/Program Files/CodeBlocks/MinGW/lib/gcc/x86_64-w64-mingw32/8.1.0/include/c++/bits/exception_ptr.h"
	.file 12 "C:/Program Files/CodeBlocks/MinGW/lib/gcc/x86_64-w64-mingw32/8.1.0/include/c++/x86_64-w64-mingw32/bits/c++config.h"
	.file 13 "C:/Program Files/CodeBlocks/MinGW/lib/gcc/x86_64-w64-mingw32/8.1.0/include/c++/new"
	.file 14 "C:/Program Files/CodeBlocks/MinGW/lib/gcc/x86_64-w64-mingw32/8.1.0/include/c++/bits/vector.tcc"
	.file 15 "C:/Program Files/CodeBlocks/MinGW/lib/gcc/x86_64-w64-mingw32/8.1.0/include/c++/initializer_list"
	.file 16 "C:/Program Files/CodeBlocks/MinGW/lib/gcc/x86_64-w64-mingw32/8.1.0/include/c++/bits/stl_iterator_base_types.h"
	.file 17 "C:/Program Files/CodeBlocks/MinGW/lib/gcc/x86_64-w64-mingw32/8.1.0/include/c++/bits/cpp_type_traits.h"
	.file 18 "C:/Program Files/CodeBlocks/MinGW/lib/gcc/x86_64-w64-mingw32/8.1.0/include/c++/bits/predefined_ops.h"
	.file 19 "C:/Program Files/CodeBlocks/MinGW/lib/gcc/x86_64-w64-mingw32/8.1.0/include/c++/ext/numeric_traits.h"
	.file 20 "C:/Program Files/CodeBlocks/MinGW/lib/gcc/x86_64-w64-mingw32/8.1.0/include/c++/ext/alloc_traits.h"
	.file 21 "C:/Program Files/CodeBlocks/MinGW/lib/gcc/x86_64-w64-mingw32/8.1.0/include/c++/bits/stl_iterator.h"
	.file 22 "C:/PFC 2021/ballisticKernelCpp/CalculadorNumerico/coeficientes/coeficienteaerodinamico.h"
	.file 23 "<built-in>"