	.file	"objstring.cpp"
	.text
.Ltext0:
	.cfi_sections	.debug_frame
	.section .rdata,"dr"
_ZStL19piecewise_construct:
	.space 1
	.section	.text$_ZN10BaseObjectD2Ev,"x"
	.linkonce discard
	.align 2
	.globl	_ZN10BaseObjectD2Ev
	.def	_ZN10BaseObjectD2Ev;	.scl	2;	.type	32;	.endef
	.seh_proc	_ZN10BaseObjectD2Ev
_ZN10BaseObjectD2Ev:
.LFB1005:
	.file 1 "C:/PFC 2021/ballisticKernelCpp/CalculadorNumerico/padroes/baseobject.h"
	.loc 1 8 17
	.cfi_startproc
	pushq	%rbp
	.seh_pushreg	%rbp
	.cfi_def_cfa_offset 16
	.cfi_offset 6, -16
	movq	%rsp, %rbp
	.seh_setframe	%rbp, 0
	.cfi_def_cfa_register 6
	.seh_endprologue
	movq	%rcx, 16(%rbp)
.LBB2:
	.loc 1 8 31
	leaq	16+_ZTV10BaseObject(%rip), %rdx
	movq	16(%rbp), %rax
	movq	%rdx, (%rax)
.LBE2:
	.loc 1 8 32
	nop
	popq	%rbp
	.cfi_restore 6
	.cfi_def_cfa 7, 8
	ret
	.cfi_endproc
.LFE1005:
	.seh_endproc
	.section	.text$_ZN10BaseObjectD1Ev,"x"
	.linkonce discard
	.align 2
	.globl	_ZN10BaseObjectD1Ev
	.def	_ZN10BaseObjectD1Ev;	.scl	2;	.type	32;	.endef
	.seh_proc	_ZN10BaseObjectD1Ev
_ZN10BaseObjectD1Ev:
.LFB1006:
	.loc 1 8 17
	.cfi_startproc
	pushq	%rbp
	.seh_pushreg	%rbp
	.cfi_def_cfa_offset 16
	.cfi_offset 6, -16
	movq	%rsp, %rbp
	.seh_setframe	%rbp, 0
	.cfi_def_cfa_register 6
	.seh_endprologue
	movq	%rcx, 16(%rbp)
.LBB3:
	.loc 1 8 31
	leaq	16+_ZTV10BaseObject(%rip), %rdx
	movq	16(%rbp), %rax
	movq	%rdx, (%rax)
.LBE3:
	.loc 1 8 32
	nop
	popq	%rbp
	.cfi_restore 6
	.cfi_def_cfa 7, 8
	ret
	.cfi_endproc
.LFE1006:
	.seh_endproc
	.section	.text$_ZN10BaseObjectD0Ev,"x"
	.linkonce discard
	.align 2
	.globl	_ZN10BaseObjectD0Ev
	.def	_ZN10BaseObjectD0Ev;	.scl	2;	.type	32;	.endef
	.seh_proc	_ZN10BaseObjectD0Ev
_ZN10BaseObjectD0Ev:
.LFB1007:
	.loc 1 8 17
	.cfi_startproc
	pushq	%rbp
	.seh_pushreg	%rbp
	.cfi_def_cfa_offset 16
	.cfi_offset 6, -16
	movq	%rsp, %rbp
	.seh_setframe	%rbp, 0
	.cfi_def_cfa_register 6
	subq	$32, %rsp
	.seh_stackalloc	32
	.seh_endprologue
	movq	%rcx, 16(%rbp)
	.loc 1 8 32
	movq	16(%rbp), %rcx
	call	_ZN10BaseObjectD1Ev
	movq	16(%rbp), %rcx
	call	_ZdlPv
	nop
	addq	$32, %rsp
	popq	%rbp
	.cfi_restore 6
	.cfi_def_cfa 7, 8
	ret
	.cfi_endproc
.LFE1007:
	.seh_endproc
	.section	.text$_ZN10BaseObjectC2Ev,"x"
	.linkonce discard
	.align 2
	.globl	_ZN10BaseObjectC2Ev
	.def	_ZN10BaseObjectC2Ev;	.scl	2;	.type	32;	.endef
	.seh_proc	_ZN10BaseObjectC2Ev
_ZN10BaseObjectC2Ev:
.LFB1010:
	.loc 1 5 7
	.cfi_startproc
	pushq	%rbp
	.seh_pushreg	%rbp
	.cfi_def_cfa_offset 16
	.cfi_offset 6, -16
	movq	%rsp, %rbp
	.seh_setframe	%rbp, 0
	.cfi_def_cfa_register 6
	.seh_endprologue
	movq	%rcx, 16(%rbp)
.LBB4:
	.loc 1 5 7
	leaq	16+_ZTV10BaseObject(%rip), %rdx
	movq	16(%rbp), %rax
	movq	%rdx, (%rax)
.LBE4:
	nop
	popq	%rbp
	.cfi_restore 6
	.cfi_def_cfa 7, 8
	ret
	.cfi_endproc
.LFE1010:
	.seh_endproc
	.text
	.align 2
	.globl	_ZN9ObjStringC2EPKc
	.def	_ZN9ObjStringC2EPKc;	.scl	2;	.type	32;	.endef
	.seh_proc	_ZN9ObjStringC2EPKc
_ZN9ObjStringC2EPKc:
.LFB1016:
	.file 2 "C:/PFC 2021/ballisticKernelCpp/CalculadorNumerico/padroes/objstring.cpp"
	.loc 2 3 1
	.cfi_startproc
	pushq	%rbp
	.seh_pushreg	%rbp
	.cfi_def_cfa_offset 16
	.cfi_offset 6, -16
	pushq	%rsi
	.seh_pushreg	%rsi
	.cfi_def_cfa_offset 24
	.cfi_offset 4, -24
	pushq	%rbx
	.seh_pushreg	%rbx
	.cfi_def_cfa_offset 32
	.cfi_offset 3, -32
	movq	%rsp, %rbp
	.seh_setframe	%rbp, 0
	.cfi_def_cfa_register 6
	subq	$48, %rsp
	.seh_stackalloc	48
	.seh_endprologue
	movq	%rcx, 32(%rbp)
	movq	%rdx, 40(%rbp)
.LBB5:
	.loc 2 3 39
	movq	32(%rbp), %rax
	movq	%rax, %rcx
	call	_ZN10BaseObjectC2Ev
	leaq	16+_ZTV9ObjString(%rip), %rdx
	movq	32(%rbp), %rax
	movq	%rdx, (%rax)
	.loc 2 5 9
	leaq	-1(%rbp), %rax
	movq	%rax, %rcx
	call	_ZNSaIcEC1Ev
	leaq	-1(%rbp), %rsi
	.loc 2 5 27
	movl	$32, %ecx
.LEHB0:
	call	_Znwy
.LEHE0:
	movq	%rax, %rbx
	movq	40(%rbp), %rax
	movq	%rsi, %r8
	movq	%rax, %rdx
	movq	%rbx, %rcx
.LEHB1:
	call	_ZNSt7__cxx1112basic_stringIcSt11char_traitsIcESaIcEEC1EPKcRKS3_
.LEHE1:
	.loc 2 5 9 discriminator 4
	movq	32(%rbp), %rax
	movq	%rbx, 8(%rax)
	leaq	-1(%rbp), %rax
	movq	%rax, %rcx
	call	_ZNSaIcED1Ev
.LBE5:
	.loc 2 6 1 discriminator 4
	jmp	.L10
.L9:
	movq	%rax, %rsi
.LBB6:
	.loc 2 5 27
	movq	%rbx, %rcx
	call	_ZdlPv
	movq	%rsi, %rbx
	jmp	.L7
.L8:
	movq	%rax, %rbx
.L7:
	.loc 2 5 9 discriminator 1
	leaq	-1(%rbp), %rax
	movq	%rax, %rcx
	call	_ZNSaIcED1Ev
	.loc 2 3 39 discriminator 1
	movq	32(%rbp), %rax
	movq	%rax, %rcx
	call	_ZN10BaseObjectD2Ev
	movq	%rbx, %rax
	movq	%rax, %rcx
.LEHB2:
	call	_Unwind_Resume
	nop
.LEHE2:
.L10:
.LBE6:
	.loc 2 6 1
	addq	$48, %rsp
	popq	%rbx
	.cfi_restore 3
	popq	%rsi
	.cfi_restore 4
	popq	%rbp
	.cfi_restore 6
	.cfi_def_cfa 7, 24
	ret
	.cfi_endproc
.LFE1016:
	.def	__gxx_personality_seh0;	.scl	2;	.type	32;	.endef
	.seh_handler	__gxx_personality_seh0, @unwind, @except
	.seh_handlerdata
.LLSDA1016:
	.byte	0xff
	.byte	0xff
	.byte	0x1
	.uleb128 .LLSDACSE1016-.LLSDACSB1016
.LLSDACSB1016:
	.uleb128 .LEHB0-.LFB1016
	.uleb128 .LEHE0-.LEHB0
	.uleb128 .L8-.LFB1016
	.uleb128 0
	.uleb128 .LEHB1-.LFB1016
	.uleb128 .LEHE1-.LEHB1
	.uleb128 .L9-.LFB1016
	.uleb128 0
	.uleb128 .LEHB2-.LFB1016
	.uleb128 .LEHE2-.LEHB2
	.uleb128 0
	.uleb128 0
.LLSDACSE1016:
	.text
	.seh_endproc
	.globl	_ZN9ObjStringC1EPKc
	.def	_ZN9ObjStringC1EPKc;	.scl	2;	.type	32;	.endef
	.set	_ZN9ObjStringC1EPKc,_ZN9ObjStringC2EPKc
	.globl	_ZTV9ObjString
	.section	.rdata$_ZTV9ObjString,"dr"
	.linkonce same_size
	.align 8
_ZTV9ObjString:
	.quad	0
	.quad	_ZTI9ObjString
	.quad	_ZN9ObjStringD1Ev
	.quad	_ZN9ObjStringD0Ev
	.section	.text$_ZN9ObjStringD1Ev,"x"
	.linkonce discard
	.align 2
	.globl	_ZN9ObjStringD1Ev
	.def	_ZN9ObjStringD1Ev;	.scl	2;	.type	32;	.endef
	.seh_proc	_ZN9ObjStringD1Ev
_ZN9ObjStringD1Ev:
.LFB1327:
	.file 3 "C:/PFC 2021/ballisticKernelCpp/CalculadorNumerico/padroes/objstring.h"
	.loc 3 9 7
	.cfi_startproc
	pushq	%rbp
	.seh_pushreg	%rbp
	.cfi_def_cfa_offset 16
	.cfi_offset 6, -16
	movq	%rsp, %rbp
	.seh_setframe	%rbp, 0
	.cfi_def_cfa_register 6
	subq	$32, %rsp
	.seh_stackalloc	32
	.seh_endprologue
	movq	%rcx, 16(%rbp)
.LBB7:
	.loc 3 9 7
	leaq	16+_ZTV9ObjString(%rip), %rdx
	movq	16(%rbp), %rax
	movq	%rdx, (%rax)
	movq	16(%rbp), %rax
	movq	%rax, %rcx
	call	_ZN10BaseObjectD2Ev
.LBE7:
	nop
	addq	$32, %rsp
	popq	%rbp
	.cfi_restore 6
	.cfi_def_cfa 7, 8
	ret
	.cfi_endproc
.LFE1327:
	.seh_endproc
	.section	.text$_ZN9ObjStringD0Ev,"x"
	.linkonce discard
	.align 2
	.globl	_ZN9ObjStringD0Ev
	.def	_ZN9ObjStringD0Ev;	.scl	2;	.type	32;	.endef
	.seh_proc	_ZN9ObjStringD0Ev
_ZN9ObjStringD0Ev:
.LFB1328:
	.loc 3 9 7
	.cfi_startproc
	pushq	%rbp
	.seh_pushreg	%rbp
	.cfi_def_cfa_offset 16
	.cfi_offset 6, -16
	movq	%rsp, %rbp
	.seh_setframe	%rbp, 0
	.cfi_def_cfa_register 6
	subq	$32, %rsp
	.seh_stackalloc	32
	.seh_endprologue
	movq	%rcx, 16(%rbp)
	.loc 3 9 7
	movq	16(%rbp), %rcx
	call	_ZN9ObjStringD1Ev
	movq	16(%rbp), %rcx
	call	_ZdlPv
	nop
	addq	$32, %rsp
	popq	%rbp
	.cfi_restore 6
	.cfi_def_cfa 7, 8
	ret
	.cfi_endproc
.LFE1328:
	.seh_endproc
	.globl	_ZTV10BaseObject
	.section	.rdata$_ZTV10BaseObject,"dr"
	.linkonce same_size
	.align 8
_ZTV10BaseObject:
	.quad	0
	.quad	_ZTI10BaseObject
	.quad	_ZN10BaseObjectD1Ev
	.quad	_ZN10BaseObjectD0Ev
	.globl	_ZTI9ObjString
	.section	.rdata$_ZTI9ObjString,"dr"
	.linkonce same_size
	.align 8
_ZTI9ObjString:
	.quad	_ZTVN10__cxxabiv120__si_class_type_infoE+16
	.quad	_ZTS9ObjString
	.quad	_ZTI10BaseObject
	.globl	_ZTS9ObjString
	.section	.rdata$_ZTS9ObjString,"dr"
	.linkonce same_size
	.align 8
_ZTS9ObjString:
	.ascii "9ObjString\0"
	.globl	_ZTI10BaseObject
	.section	.rdata$_ZTI10BaseObject,"dr"
	.linkonce same_size
	.align 8
_ZTI10BaseObject:
	.quad	_ZTVN10__cxxabiv117__class_type_infoE+16
	.quad	_ZTS10BaseObject
	.globl	_ZTS10BaseObject
	.section	.rdata$_ZTS10BaseObject,"dr"
	.linkonce same_size
	.align 8
_ZTS10BaseObject:
	.ascii "10BaseObject\0"
	.text
.Letext0:
	.file 4 "C:/Program Files/CodeBlocks/MinGW/lib/gcc/x86_64-w64-mingw32/8.1.0/include/c++/bits/basic_string.h"
	.file 5 "C:/Program Files/CodeBlocks/MinGW/lib/gcc/x86_64-w64-mingw32/8.1.0/include/c++/bits/basic_string.tcc"
	.file 6 "C:/Program Files/CodeBlocks/MinGW/lib/gcc/x86_64-w64-mingw32/8.1.0/include/c++/type_traits"
	.file 7 "C:/Program Files/CodeBlocks/MinGW/lib/gcc/x86_64-w64-mingw32/8.1.0/include/c++/bits/stl_pair.h"
	.file 8 "C:/Program Files/CodeBlocks/MinGW/lib/gcc/x86_64-w64-mingw32/8.1.0/include/c++/bits/cpp_type_traits.h"
	.file 9 "C:/Program Files/CodeBlocks/MinGW/lib/gcc/x86_64-w64-mingw32/8.1.0/include/c++/bits/stl_iterator_base_types.h"
	.file 10 "C:/Program Files/CodeBlocks/MinGW/lib/gcc/x86_64-w64-mingw32/8.1.0/include/c++/debug/debug.h"
	.file 11 "C:/Program Files/CodeBlocks/MinGW/lib/gcc/x86_64-w64-mingw32/8.1.0/include/c++/cwchar"
	.file 12 "C:/Program Files/CodeBlocks/MinGW/lib/gcc/x86_64-w64-mingw32/8.1.0/include/c++/bits/char_traits.h"
	.file 13 "C:/Program Files/CodeBlocks/MinGW/lib/gcc/x86_64-w64-mingw32/8.1.0/include/c++/bits/stringfwd.h"
	.file 14 "C:/Program Files/CodeBlocks/MinGW/lib/gcc/x86_64-w64-mingw32/8.1.0/include/c++/x86_64-w64-mingw32/bits/c++config.h"
	.file 15 "C:/Program Files/CodeBlocks/MinGW/lib/gcc/x86_64-w64-mingw32/8.1.0/include/c++/cstdint"
	.file 16 "C:/Program Files/CodeBlocks/MinGW/lib/gcc/x86_64-w64-mingw32/8.1.0/include/c++/bits/exception_ptr.h"
	.file 17 "C:/Program Files/CodeBlocks/MinGW/lib/gcc/x86_64-w64-mingw32/8.1.0/include/c++/new"
	.file 18 "C:/Program Files/CodeBlocks/MinGW/lib/gcc/x86_64-w64-mingw32/8.1.0/include/c++/bits/allocator.h"
	.file 19 "C:/Program Files/CodeBlocks/MinGW/lib/gcc/x86_64-w64-mingw32/8.1.0/include/c++/clocale"
	.file 20 "C:/Program Files/CodeBlocks/MinGW/lib/gcc/x86_64-w64-mingw32/8.1.0/include/c++/cstdlib"
	.file 21 "C:/Program Files/CodeBlocks/MinGW/lib/gcc/x86_64-w64-mingw32/8.1.0/include/c++/cstdio"
	.file 22 "C:/Program Files/CodeBlocks/MinGW/lib/gcc/x86_64-w64-mingw32/8.1.0/include/c++/bits/alloc_traits.h"
	.file 23 "C:/Program Files/CodeBlocks/MinGW/lib/gcc/x86_64-w64-mingw32/8.1.0/include/c++/initializer_list"
	.file 24 "C:/Program Files/CodeBlocks/MinGW/lib/gcc/x86_64-w64-mingw32/8.1.0/include/c++/bits/stl_iterator_base_funcs.h"
	.file 25 "C:/Program Files/CodeBlocks/MinGW/lib/gcc/x86_64-w64-mingw32/8.1.0/include/c++/bits/predefined_ops.h"
	.file 26 "C:/Program Files/CodeBlocks/MinGW/lib/gcc/x86_64-w64-mingw32/8.1.0/include/c++/ext/new_allocator.h"
	.file 27 "C:/Program Files/CodeBlocks/MinGW/lib/gcc/x86_64-w64-mingw32/8.1.0/include/c++/ext/numeric_traits.h"
	.file 28 "C:/Program Files/CodeBlocks/MinGW/lib/gcc/x86_64-w64-mingw32/8.1.0/include/c++/ext/alloc_traits.h"
	.file 29 "C:/Program Files/CodeBlocks/MinGW/lib/gcc/x86_64-w64-mingw32/8.1.0/include/c++/bits/stl_iterator.h"
	.file 30 "C:/Program Files/CodeBlocks/MinGW/lib/gcc/x86_64-w64-mingw32/8.1.0/include/c++/ext/type_traits.h"
	.file 31 "C:/Program Files/CodeBlocks/MinGW/x86_64-w64-mingw32/include/crtdefs.h"
	.file 32 "C:/Program Files/CodeBlocks/MinGW/x86_64-w64-mingw32/include/locale.h"
	.file 33 "C:/Program Files/CodeBlocks/MinGW/x86_64-w64-mingw32/include/wchar.h"
	.file 34 "C:/Program Files/CodeBlocks/MinGW/x86_64-w64-mingw32/include/swprintf.inl"
	.file 35 "C:/Program Files/CodeBlocks/MinGW/x86_64-w64-mingw32/include/stdint.h"
	.file 36 "C:/Program Files/CodeBlocks/MinGW/x86_64-w64-mingw32/include/stdio.h"
	.file 37 "C:/Program Files/CodeBlocks/MinGW/x86_64-w64-mingw32/include/ctype.h"
	.file 38 "C:/Program Files/CodeBlocks/MinGW/x86_64-w64-mingw32/include/process.h"
	.file 39 "C:/Program Files/CodeBlocks/MinGW/x86_64-w64-mingw32/include/pthread.h"
	.file 40 "C:/Program Files/CodeBlocks/MinGW/x86_64-w64-mingw32/include/stdlib.h"
	.file 41 "C:/Program Files/CodeBlocks/MinGW/x86_64-w64-mingw32/include/malloc.h"
	.file 42 "<built-in>"