	.file	"observer.cpp"
	.text
.Ltext0:
	.cfi_sections	.debug_frame
	.section .rdata,"dr"
_ZStL19piecewise_construct:
	.space 1
	.section	.text$_ZnwyPv,"x"
	.linkonce discard
	.globl	_ZnwyPv
	.def	_ZnwyPv;	.scl	2;	.type	32;	.endef
	.seh_proc	_ZnwyPv
_ZnwyPv:
.LFB352:
	.file 1 "C:/Program Files/CodeBlocks/MinGW/lib/gcc/x86_64-w64-mingw32/8.1.0/include/c++/new"
	.loc 1 169 1
	.cfi_startproc
	pushq	%rbp
	.seh_pushreg	%rbp
	.cfi_def_cfa_offset 16
	.cfi_offset 6, -16
	movq	%rsp, %rbp
	.seh_setframe	%rbp, 0
	.cfi_def_cfa_register 6
	.seh_endprologue
	movq	%rcx, 16(%rbp)
	movq	%rdx, 24(%rbp)
	.loc 1 169 10
	movq	24(%rbp), %rax
	.loc 1 169 15
	popq	%rbp
	.cfi_restore 6
	.cfi_def_cfa 7, 8
	ret
	.cfi_endproc
.LFE352:
	.seh_endproc
	.section	.text$_ZN10Observable6attachEP8Observer,"x"
	.linkonce discard
	.align 2
	.globl	_ZN10Observable6attachEP8Observer
	.def	_ZN10Observable6attachEP8Observer;	.scl	2;	.type	32;	.endef
	.seh_proc	_ZN10Observable6attachEP8Observer
_ZN10Observable6attachEP8Observer:
.LFB632:
	.file 2 "C:/PFC 2021/ballisticKernelCpp/CalculadorNumerico/padroes/observable.h"
	.loc 2 30 10
	.cfi_startproc
	pushq	%rbp
	.seh_pushreg	%rbp
	.cfi_def_cfa_offset 16
	.cfi_offset 6, -16
	movq	%rsp, %rbp
	.seh_setframe	%rbp, 0
	.cfi_def_cfa_register 6
	subq	$32, %rsp
	.seh_stackalloc	32
	.seh_endprologue
	movq	%rcx, 16(%rbp)
	movq	%rdx, 24(%rbp)
	.loc 2 32 28
	movq	16(%rbp), %rax
	leaq	8(%rax), %rcx
	leaq	24(%rbp), %rax
	movq	%rax, %rdx
	call	_ZNSt7__cxx114listIP8ObserverSaIS2_EE9push_backERKS2_
	.loc 2 33 5
	nop
	addq	$32, %rsp
	popq	%rbp
	.cfi_restore 6
	.cfi_def_cfa 7, 8
	ret
	.cfi_endproc
.LFE632:
	.seh_endproc
	.section	.text$_ZN10Observable6detachEP8Observer,"x"
	.linkonce discard
	.align 2
	.globl	_ZN10Observable6detachEP8Observer
	.def	_ZN10Observable6detachEP8Observer;	.scl	2;	.type	32;	.endef
	.seh_proc	_ZN10Observable6detachEP8Observer
_ZN10Observable6detachEP8Observer:
.LFB633:
	.loc 2 35 10
	.cfi_startproc
	pushq	%rbp
	.seh_pushreg	%rbp
	.cfi_def_cfa_offset 16
	.cfi_offset 6, -16
	movq	%rsp, %rbp
	.seh_setframe	%rbp, 0
	.cfi_def_cfa_register 6
	subq	$32, %rsp
	.seh_stackalloc	32
	.seh_endprologue
	movq	%rcx, 16(%rbp)
	movq	%rdx, 24(%rbp)
	.loc 2 37 25
	movq	16(%rbp), %rax
	leaq	8(%rax), %rcx
	leaq	24(%rbp), %rax
	movq	%rax, %rdx
	call	_ZNSt7__cxx114listIP8ObserverSaIS2_EE6removeERKS2_
	.loc 2 38 5
	nop
	addq	$32, %rsp
	popq	%rbp
	.cfi_restore 6
	.cfi_def_cfa 7, 8
	ret
	.cfi_endproc
.LFE633:
	.seh_endproc
	.text
	.align 2
	.globl	_ZN8ObserverC2Ev
	.def	_ZN8ObserverC2Ev;	.scl	2;	.type	32;	.endef
	.seh_proc	_ZN8ObserverC2Ev
_ZN8ObserverC2Ev:
.LFB641:
	.file 3 "C:/PFC 2021/ballisticKernelCpp/CalculadorNumerico/padroes/observer.cpp"
	.loc 3 5 1
	.cfi_startproc
	pushq	%rbp
	.seh_pushreg	%rbp
	.cfi_def_cfa_offset 16
	.cfi_offset 6, -16
	movq	%rsp, %rbp
	.seh_setframe	%rbp, 0
	.cfi_def_cfa_register 6
	.seh_endprologue
	movq	%rcx, 16(%rbp)
.LBB2:
	.loc 3 5 21
	leaq	16+_ZTV8Observer(%rip), %rdx
	movq	16(%rbp), %rax
	movq	%rdx, (%rax)
	.loc 3 7 16
	movq	16(%rbp), %rax
	movq	$0, 8(%rax)
.LBE2:
	.loc 3 8 1
	nop
	popq	%rbp
	.cfi_restore 6
	.cfi_def_cfa 7, 8
	ret
	.cfi_endproc
.LFE641:
	.seh_endproc
	.globl	_ZN8ObserverC1Ev
	.def	_ZN8ObserverC1Ev;	.scl	2;	.type	32;	.endef
	.set	_ZN8ObserverC1Ev,_ZN8ObserverC2Ev
	.align 2
	.globl	_ZN8ObserverC2EP10Observable
	.def	_ZN8ObserverC2EP10Observable;	.scl	2;	.type	32;	.endef
	.seh_proc	_ZN8ObserverC2EP10Observable
_ZN8ObserverC2EP10Observable:
.LFB644:
	.loc 3 9 1
	.cfi_startproc
	pushq	%rbp
	.seh_pushreg	%rbp
	.cfi_def_cfa_offset 16
	.cfi_offset 6, -16
	movq	%rsp, %rbp
	.seh_setframe	%rbp, 0
	.cfi_def_cfa_register 6
	subq	$32, %rsp
	.seh_stackalloc	32
	.seh_endprologue
	movq	%rcx, 16(%rbp)
	movq	%rdx, 24(%rbp)
.LBB3:
	.loc 3 9 42
	leaq	16+_ZTV8Observer(%rip), %rdx
	movq	16(%rbp), %rax
	movq	%rdx, (%rax)
	.loc 3 11 22
	movq	16(%rbp), %rax
	movq	24(%rbp), %rdx
	movq	%rdx, 8(%rax)
	.loc 3 12 23
	movq	24(%rbp), %rax
	movq	16(%rbp), %rdx
	movq	%rax, %rcx
	call	_ZN10Observable6attachEP8Observer
.LBE3:
	.loc 3 13 1
	nop
	addq	$32, %rsp
	popq	%rbp
	.cfi_restore 6
	.cfi_def_cfa 7, 8
	ret
	.cfi_endproc
.LFE644:
	.seh_endproc
	.globl	_ZN8ObserverC1EP10Observable
	.def	_ZN8ObserverC1EP10Observable;	.scl	2;	.type	32;	.endef
	.set	_ZN8ObserverC1EP10Observable,_ZN8ObserverC2EP10Observable
	.align 2
	.globl	_ZN8ObserverD2Ev
	.def	_ZN8ObserverD2Ev;	.scl	2;	.type	32;	.endef
	.seh_proc	_ZN8ObserverD2Ev
_ZN8ObserverD2Ev:
.LFB647:
	.loc 3 15 1
	.cfi_startproc
	pushq	%rbp
	.seh_pushreg	%rbp
	.cfi_def_cfa_offset 16
	.cfi_offset 6, -16
	movq	%rsp, %rbp
	.seh_setframe	%rbp, 0
	.cfi_def_cfa_register 6
	subq	$32, %rsp
	.seh_stackalloc	32
	.seh_endprologue
	movq	%rcx, 16(%rbp)
.LBB4:
	.loc 3 15 21
	leaq	16+_ZTV8Observer(%rip), %rdx
	movq	16(%rbp), %rax
	movq	%rdx, (%rax)
	.loc 3 17 22
	movq	16(%rbp), %rcx
	call	_ZN8Observer16removeObservableEv
.LBE4:
	.loc 3 18 1
	nop
	addq	$32, %rsp
	popq	%rbp
	.cfi_restore 6
	.cfi_def_cfa 7, 8
	ret
	.cfi_endproc
.LFE647:
	.def	__gxx_personality_seh0;	.scl	2;	.type	32;	.endef
	.seh_handler	__gxx_personality_seh0, @unwind, @except
	.seh_handlerdata
.LLSDA647:
	.byte	0xff
	.byte	0xff
	.byte	0x1
	.uleb128 .LLSDACSE647-.LLSDACSB647
.LLSDACSB647:
.LLSDACSE647:
	.text
	.seh_endproc
	.globl	_ZN8ObserverD1Ev
	.def	_ZN8ObserverD1Ev;	.scl	2;	.type	32;	.endef
	.set	_ZN8ObserverD1Ev,_ZN8ObserverD2Ev
	.align 2
	.globl	_ZN8Observer13setObservableEP10Observable
	.def	_ZN8Observer13setObservableEP10Observable;	.scl	2;	.type	32;	.endef
	.seh_proc	_ZN8Observer13setObservableEP10Observable
_ZN8Observer13setObservableEP10Observable:
.LFB649:
	.loc 3 23 1
	.cfi_startproc
	pushq	%rbp
	.seh_pushreg	%rbp
	.cfi_def_cfa_offset 16
	.cfi_offset 6, -16
	movq	%rsp, %rbp
	.seh_setframe	%rbp, 0
	.cfi_def_cfa_register 6
	subq	$32, %rsp
	.seh_stackalloc	32
	.seh_endprologue
	movq	%rcx, 16(%rbp)
	movq	%rdx, 24(%rbp)
	.loc 3 24 22
	movq	16(%rbp), %rax
	movq	24(%rbp), %rdx
	movq	%rdx, 8(%rax)
	.loc 3 25 23
	movq	24(%rbp), %rax
	movq	16(%rbp), %rdx
	movq	%rax, %rcx
	call	_ZN10Observable6attachEP8Observer
	.loc 3 26 1
	nop
	addq	$32, %rsp
	popq	%rbp
	.cfi_restore 6
	.cfi_def_cfa 7, 8
	ret
	.cfi_endproc
.LFE649:
	.seh_endproc
	.align 2
	.globl	_ZN8Observer16removeObservableEv
	.def	_ZN8Observer16removeObservableEv;	.scl	2;	.type	32;	.endef
	.seh_proc	_ZN8Observer16removeObservableEv
_ZN8Observer16removeObservableEv:
.LFB650:
	.loc 3 29 1
	.cfi_startproc
	pushq	%rbp
	.seh_pushreg	%rbp
	.cfi_def_cfa_offset 16
	.cfi_offset 6, -16
	movq	%rsp, %rbp
	.seh_setframe	%rbp, 0
	.cfi_def_cfa_register 6
	subq	$32, %rsp
	.seh_stackalloc	32
	.seh_endprologue
	movq	%rcx, 16(%rbp)
	.loc 3 30 8
	movq	16(%rbp), %rax
	movq	8(%rax), %rax
	.loc 3 30 5
	testq	%rax, %rax
	je	.L11
	.loc 3 32 9
	movq	16(%rbp), %rax
	movq	8(%rax), %rax
	.loc 3 32 27
	movq	16(%rbp), %rdx
	movq	%rax, %rcx
	call	_ZN10Observable6detachEP8Observer
	.loc 3 33 20
	movq	16(%rbp), %rax
	movq	$0, 8(%rax)
.L11:
	.loc 3 35 1
	nop
	addq	$32, %rsp
	popq	%rbp
	.cfi_restore 6
	.cfi_def_cfa 7, 8
	ret
	.cfi_endproc
.LFE650:
	.seh_endproc
	.section	.text$_ZNSt7__cxx114listIP8ObserverSaIS2_EE9push_backERKS2_,"x"
	.linkonce discard
	.align 2
	.globl	_ZNSt7__cxx114listIP8ObserverSaIS2_EE9push_backERKS2_
	.def	_ZNSt7__cxx114listIP8ObserverSaIS2_EE9push_backERKS2_;	.scl	2;	.type	32;	.endef
	.seh_proc	_ZNSt7__cxx114listIP8ObserverSaIS2_EE9push_backERKS2_
_ZNSt7__cxx114listIP8ObserverSaIS2_EE9push_backERKS2_:
.LFB659:
	.file 4 "C:/Program Files/CodeBlocks/MinGW/lib/gcc/x86_64-w64-mingw32/8.1.0/include/c++/bits/stl_list.h"
	.loc 4 1218 7
	.cfi_startproc
	pushq	%rbp
	.seh_pushreg	%rbp
	.cfi_def_cfa_offset 16
	.cfi_offset 6, -16
	movq	%rsp, %rbp
	.seh_setframe	%rbp, 0
	.cfi_def_cfa_register 6
	subq	$32, %rsp
	.seh_stackalloc	32
	.seh_endprologue
	movq	%rcx, 16(%rbp)
	movq	%rdx, 24(%rbp)
	.loc 4 1219 9
	movq	16(%rbp), %rcx
	call	_ZNSt7__cxx114listIP8ObserverSaIS2_EE3endEv
	movq	%rax, %rdx
	movq	24(%rbp), %rax
	movq	%rax, %r8
	movq	16(%rbp), %rcx
	call	_ZNSt7__cxx114listIP8ObserverSaIS2_EE9_M_insertIJRKS2_EEEvSt14_List_iteratorIS2_EDpOT_
	.loc 4 1219 38
	nop
	addq	$32, %rsp
	popq	%rbp
	.cfi_restore 6
	.cfi_def_cfa 7, 8
	ret
	.cfi_endproc
.LFE659:
	.seh_endproc
	.section	.text$_ZNSt7__cxx114listIP8ObserverSaIS2_EE6removeERKS2_,"x"
	.linkonce discard
	.align 2
	.globl	_ZNSt7__cxx114listIP8ObserverSaIS2_EE6removeERKS2_
	.def	_ZNSt7__cxx114listIP8ObserverSaIS2_EE6removeERKS2_;	.scl	2;	.type	32;	.endef
	.seh_proc	_ZNSt7__cxx114listIP8ObserverSaIS2_EE6removeERKS2_
_ZNSt7__cxx114listIP8ObserverSaIS2_EE6removeERKS2_:
.LFB660:
	.file 5 "C:/Program Files/CodeBlocks/MinGW/lib/gcc/x86_64-w64-mingw32/8.1.0/include/c++/bits/list.tcc"
	.loc 5 325 5
	.cfi_startproc
	pushq	%rbp
	.seh_pushreg	%rbp
	.cfi_def_cfa_offset 16
	.cfi_offset 6, -16
	pushq	%rbx
	.seh_pushreg	%rbx
	.cfi_def_cfa_offset 24
	.cfi_offset 3, -24
	subq	$72, %rsp
	.seh_stackalloc	72
	.cfi_def_cfa_offset 96
	leaq	128(%rsp), %rbp
	.seh_setframe	%rbp, 128
	.cfi_def_cfa 6, -32
	.seh_endprologue
	movq	%rcx, -32(%rbp)
	movq	%rdx, -24(%rbp)
	.loc 5 328 16
	movq	-32(%rbp), %rcx
	call	_ZNSt7__cxx114listIP8ObserverSaIS2_EE5beginEv
	movq	%rax, -72(%rbp)
	.loc 5 329 16
	movq	-32(%rbp), %rcx
	call	_ZNSt7__cxx114listIP8ObserverSaIS2_EE3endEv
	movq	%rax, -80(%rbp)
	.loc 5 330 16
	movq	-80(%rbp), %rax
	movq	%rax, -88(%rbp)
.L18:
	.loc 5 331 22
	leaq	-80(%rbp), %rdx
	leaq	-72(%rbp), %rax
	movq	%rax, %rcx
	call	_ZNKSt14_List_iteratorIP8ObserverEneERKS2_
	testb	%al, %al
	je	.L14
.LBB5:
	.loc 5 333 13
	movq	-72(%rbp), %rax
	movq	%rax, -96(%rbp)
	.loc 5 334 4
	leaq	-96(%rbp), %rax
	movq	%rax, %rcx
	call	_ZNSt14_List_iteratorIP8ObserverEppEv
	.loc 5 335 8
	leaq	-72(%rbp), %rax
	movq	%rax, %rcx
	call	_ZNKSt14_List_iteratorIP8ObserverEdeEv
	.loc 5 335 17
	movq	(%rax), %rdx
	movq	-24(%rbp), %rax
	movq	(%rax), %rax
	cmpq	%rax, %rdx
	sete	%al
	.loc 5 335 4
	testb	%al, %al
	je	.L15
	.loc 5 340 29
	leaq	-72(%rbp), %rax
	movq	%rax, %rcx
	call	_ZNKSt14_List_iteratorIP8ObserverEdeEv
	.loc 5 340 28
	movq	%rax, %rcx
	call	_ZSt11__addressofIP8ObserverEPT_RS2_
	movq	%rax, %rbx
	.loc 5 340 58
	movq	-24(%rbp), %rax
	movq	%rax, %rcx
	call	_ZSt11__addressofIKP8ObserverEPT_RS3_
	.loc 5 340 39
	cmpq	%rax, %rbx
	setne	%al
	.loc 5 340 8
	testb	%al, %al
	je	.L16
	.loc 5 341 3
	movq	-72(%rbp), %rax
	movq	%rax, %rdx
	movq	-32(%rbp), %rcx
	call	_ZNSt7__cxx114listIP8ObserverSaIS2_EE8_M_eraseESt14_List_iteratorIS2_E
	jmp	.L15
.L16:
	.loc 5 343 3
	movq	-72(%rbp), %rax
	movq	%rax, -88(%rbp)
.L15:
	.loc 5 345 4 discriminator 1
	movq	-96(%rbp), %rax
	movq	%rax, -72(%rbp)
.LBE5:
	.loc 5 331 7 discriminator 1
	jmp	.L18
.L14:
	.loc 5 347 19
	leaq	-80(%rbp), %rdx
	leaq	-88(%rbp), %rax
	movq	%rax, %rcx
	call	_ZNKSt14_List_iteratorIP8ObserverEneERKS2_
	.loc 5 347 7
	testb	%al, %al
	je	.L20
	.loc 5 348 2
	movq	-88(%rbp), %rax
	movq	%rax, %rdx
	movq	-32(%rbp), %rcx
	call	_ZNSt7__cxx114listIP8ObserverSaIS2_EE8_M_eraseESt14_List_iteratorIS2_E
.L20:
	.loc 5 349 5
	nop
	addq	$72, %rsp
	popq	%rbx
	.cfi_restore 3
	popq	%rbp
	.cfi_restore 6
	.cfi_def_cfa 7, -56
	ret
	.cfi_endproc
.LFE660:
	.seh_endproc
	.section	.text$_ZNSt7__cxx114listIP8ObserverSaIS2_EE3endEv,"x"
	.linkonce discard
	.align 2
	.globl	_ZNSt7__cxx114listIP8ObserverSaIS2_EE3endEv
	.def	_ZNSt7__cxx114listIP8ObserverSaIS2_EE3endEv;	.scl	2;	.type	32;	.endef
	.seh_proc	_ZNSt7__cxx114listIP8ObserverSaIS2_EE3endEv
_ZNSt7__cxx114listIP8ObserverSaIS2_EE3endEv:
.LFB667:
	.loc 4 970 7
	.cfi_startproc
	pushq	%rbp
	.seh_pushreg	%rbp
	.cfi_def_cfa_offset 16
	.cfi_offset 6, -16
	movq	%rsp, %rbp
	.seh_setframe	%rbp, 0
	.cfi_def_cfa_register 6
	subq	$48, %rsp
	.seh_stackalloc	48
	.seh_endprologue
	movq	%rcx, 16(%rbp)
	.loc 4 971 47
	movq	16(%rbp), %rdx
	leaq	-8(%rbp), %rax
	movq	%rax, %rcx
	call	_ZNSt14_List_iteratorIP8ObserverEC1EPNSt8__detail15_List_node_baseE
	movq	-8(%rbp), %rax
	.loc 4 971 50
	addq	$48, %rsp
	popq	%rbp
	.cfi_restore 6
	.cfi_def_cfa 7, 8
	ret
	.cfi_endproc
.LFE667:
	.seh_endproc
	.section	.text$_ZSt7forwardIRKP8ObserverEOT_RNSt16remove_referenceIS4_E4typeE,"x"
	.linkonce discard
	.globl	_ZSt7forwardIRKP8ObserverEOT_RNSt16remove_referenceIS4_E4typeE
	.def	_ZSt7forwardIRKP8ObserverEOT_RNSt16remove_referenceIS4_E4typeE;	.scl	2;	.type	32;	.endef
	.seh_proc	_ZSt7forwardIRKP8ObserverEOT_RNSt16remove_referenceIS4_E4typeE
_ZSt7forwardIRKP8ObserverEOT_RNSt16remove_referenceIS4_E4typeE:
.LFB669:
	.file 6 "C:/Program Files/CodeBlocks/MinGW/lib/gcc/x86_64-w64-mingw32/8.1.0/include/c++/bits/move.h"
	.loc 6 74 5
	.cfi_startproc
	pushq	%rbp
	.seh_pushreg	%rbp
	.cfi_def_cfa_offset 16
	.cfi_offset 6, -16
	movq	%rsp, %rbp
	.seh_setframe	%rbp, 0
	.cfi_def_cfa_register 6
	.seh_endprologue
	movq	%rcx, 16(%rbp)
	.loc 6 75 36
	movq	16(%rbp), %rax
	.loc 6 75 39
	popq	%rbp
	.cfi_restore 6
	.cfi_def_cfa 7, 8
	ret
	.cfi_endproc
.LFE669:
	.seh_endproc
	.section	.text$_ZNSt7__cxx114listIP8ObserverSaIS2_EE9_M_insertIJRKS2_EEEvSt14_List_iteratorIS2_EDpOT_,"x"
	.linkonce discard
	.align 2
	.globl	_ZNSt7__cxx114listIP8ObserverSaIS2_EE9_M_insertIJRKS2_EEEvSt14_List_iteratorIS2_EDpOT_
	.def	_ZNSt7__cxx114listIP8ObserverSaIS2_EE9_M_insertIJRKS2_EEEvSt14_List_iteratorIS2_EDpOT_;	.scl	2;	.type	32;	.endef
	.seh_proc	_ZNSt7__cxx114listIP8ObserverSaIS2_EE9_M_insertIJRKS2_EEEvSt14_List_iteratorIS2_EDpOT_
_ZNSt7__cxx114listIP8ObserverSaIS2_EE9_M_insertIJRKS2_EEEvSt14_List_iteratorIS2_EDpOT_:
.LFB668:
	.loc 4 1900 8
	.cfi_startproc
	pushq	%rbp
	.seh_pushreg	%rbp
	.cfi_def_cfa_offset 16
	.cfi_offset 6, -16
	movq	%rsp, %rbp
	.seh_setframe	%rbp, 0
	.cfi_def_cfa_register 6
	subq	$48, %rsp
	.seh_stackalloc	48
	.seh_endprologue
	movq	%rcx, 16(%rbp)
	movq	%rdx, 24(%rbp)
	movq	%r8, 32(%rbp)
	.loc 4 1902 10
	movq	32(%rbp), %rax
	movq	%rax, %rcx
	call	_ZSt7forwardIRKP8ObserverEOT_RNSt16remove_referenceIS4_E4typeE
	movq	%rax, %rdx
	movq	16(%rbp), %rcx
	call	_ZNSt7__cxx114listIP8ObserverSaIS2_EE14_M_create_nodeIJRKS2_EEEPSt10_List_nodeIS2_EDpOT_
	movq	%rax, -8(%rbp)
	.loc 4 1903 3
	movq	-8(%rbp), %rax
	movq	24(%rbp), %rdx
	movq	%rax, %rcx
	call	_ZNSt8__detail15_List_node_base7_M_hookEPS0_
	.loc 4 1904 3
	movq	16(%rbp), %rax
	movl	$1, %edx
	movq	%rax, %rcx
	call	_ZNSt7__cxx1110_List_baseIP8ObserverSaIS2_EE11_M_inc_sizeEy
	.loc 4 1905 8
	nop
	addq	$48, %rsp
	popq	%rbp
	.cfi_restore 6
	.cfi_def_cfa 7, 8
	ret
	.cfi_endproc
.LFE668:
	.seh_endproc
	.section	.text$_ZNSt7__cxx114listIP8ObserverSaIS2_EE5beginEv,"x"
	.linkonce discard
	.align 2
	.globl	_ZNSt7__cxx114listIP8ObserverSaIS2_EE5beginEv
	.def	_ZNSt7__cxx114listIP8ObserverSaIS2_EE5beginEv;	.scl	2;	.type	32;	.endef
	.seh_proc	_ZNSt7__cxx114listIP8ObserverSaIS2_EE5beginEv
_ZNSt7__cxx114listIP8ObserverSaIS2_EE5beginEv:
.LFB670:
	.loc 4 952 7
	.cfi_startproc
	pushq	%rbp
	.seh_pushreg	%rbp
	.cfi_def_cfa_offset 16
	.cfi_offset 6, -16
	movq	%rsp, %rbp
	.seh_setframe	%rbp, 0
	.cfi_def_cfa_register 6
	subq	$48, %rsp
	.seh_stackalloc	48
	.seh_endprologue
	movq	%rcx, 16(%rbp)
	.loc 4 953 54
	movq	16(%rbp), %rax
	movq	(%rax), %rdx
	leaq	-8(%rbp), %rax
	movq	%rax, %rcx
	call	_ZNSt14_List_iteratorIP8ObserverEC1EPNSt8__detail15_List_node_baseE
	movq	-8(%rbp), %rax
	.loc 4 953 57
	addq	$48, %rsp
	popq	%rbp
	.cfi_restore 6
	.cfi_def_cfa 7, 8
	ret
	.cfi_endproc
.LFE670:
	.seh_endproc
	.section	.text$_ZNKSt14_List_iteratorIP8ObserverEneERKS2_,"x"
	.linkonce discard
	.align 2
	.globl	_ZNKSt14_List_iteratorIP8ObserverEneERKS2_
	.def	_ZNKSt14_List_iteratorIP8ObserverEneERKS2_;	.scl	2;	.type	32;	.endef
	.seh_proc	_ZNKSt14_List_iteratorIP8ObserverEneERKS2_
_ZNKSt14_List_iteratorIP8ObserverEneERKS2_:
.LFB671:
	.loc 4 251 7
	.cfi_startproc
	pushq	%rbp
	.seh_pushreg	%rbp
	.cfi_def_cfa_offset 16
	.cfi_offset 6, -16
	movq	%rsp, %rbp
	.seh_setframe	%rbp, 0
	.cfi_def_cfa_register 6
	.seh_endprologue
	movq	%rcx, 16(%rbp)
	movq	%rdx, 24(%rbp)
	.loc 4 252 16
	movq	16(%rbp), %rax
	movq	(%rax), %rdx
	.loc 4 252 31
	movq	24(%rbp), %rax
	movq	(%rax), %rax
	cmpq	%rax, %rdx
	setne	%al
	.loc 4 252 40
	popq	%rbp
	.cfi_restore 6
	.cfi_def_cfa 7, 8
	ret
	.cfi_endproc
.LFE671:
	.seh_endproc
	.section	.text$_ZNSt14_List_iteratorIP8ObserverEppEv,"x"
	.linkonce discard
	.align 2
	.globl	_ZNSt14_List_iteratorIP8ObserverEppEv
	.def	_ZNSt14_List_iteratorIP8ObserverEppEv;	.scl	2;	.type	32;	.endef
	.seh_proc	_ZNSt14_List_iteratorIP8ObserverEppEv
_ZNSt14_List_iteratorIP8ObserverEppEv:
.LFB672:
	.loc 4 217 7
	.cfi_startproc
	pushq	%rbp
	.seh_pushreg	%rbp
	.cfi_def_cfa_offset 16
	.cfi_offset 6, -16
	movq	%rsp, %rbp
	.seh_setframe	%rbp, 0
	.cfi_def_cfa_register 6
	.seh_endprologue
	movq	%rcx, 16(%rbp)
	.loc 4 219 12
	movq	16(%rbp), %rax
	movq	(%rax), %rax
	.loc 4 219 21
	movq	(%rax), %rdx
	.loc 4 219 2
	movq	16(%rbp), %rax
	movq	%rdx, (%rax)
	.loc 4 220 10
	movq	16(%rbp), %rax
	.loc 4 221 7
	popq	%rbp
	.cfi_restore 6
	.cfi_def_cfa 7, 8
	ret
	.cfi_endproc
.LFE672:
	.seh_endproc
	.section	.text$_ZNKSt14_List_iteratorIP8ObserverEdeEv,"x"
	.linkonce discard
	.align 2
	.globl	_ZNKSt14_List_iteratorIP8ObserverEdeEv
	.def	_ZNKSt14_List_iteratorIP8ObserverEdeEv;	.scl	2;	.type	32;	.endef
	.seh_proc	_ZNKSt14_List_iteratorIP8ObserverEdeEv
_ZNKSt14_List_iteratorIP8ObserverEdeEv:
.LFB673:
	.loc 4 209 7
	.cfi_startproc
	pushq	%rbp
	.seh_pushreg	%rbp
	.cfi_def_cfa_offset 16
	.cfi_offset 6, -16
	movq	%rsp, %rbp
	.seh_setframe	%rbp, 0
	.cfi_def_cfa_register 6
	subq	$32, %rsp
	.seh_stackalloc	32
	.seh_endprologue
	movq	%rcx, 16(%rbp)
	.loc 4 210 37
	movq	16(%rbp), %rax
	movq	(%rax), %rax
	.loc 4 210 16
	movq	%rax, %rcx
	call	_ZNSt10_List_nodeIP8ObserverE9_M_valptrEv
	.loc 4 210 60
	addq	$32, %rsp
	popq	%rbp
	.cfi_restore 6
	.cfi_def_cfa 7, 8
	ret
	.cfi_endproc
.LFE673:
	.seh_endproc
	.section	.text$_ZSt11__addressofIP8ObserverEPT_RS2_,"x"
	.linkonce discard
	.globl	_ZSt11__addressofIP8ObserverEPT_RS2_
	.def	_ZSt11__addressofIP8ObserverEPT_RS2_;	.scl	2;	.type	32;	.endef
	.seh_proc	_ZSt11__addressofIP8ObserverEPT_RS2_
_ZSt11__addressofIP8ObserverEPT_RS2_:
.LFB674:
	.loc 6 47 5
	.cfi_startproc
	pushq	%rbp
	.seh_pushreg	%rbp
	.cfi_def_cfa_offset 16
	.cfi_offset 6, -16
	movq	%rsp, %rbp
	.seh_setframe	%rbp, 0
	.cfi_def_cfa_register 6
	.seh_endprologue
	movq	%rcx, 16(%rbp)
	.loc 6 48 37
	movq	16(%rbp), %rax
	.loc 6 48 40
	popq	%rbp
	.cfi_restore 6
	.cfi_def_cfa 7, 8
	ret
	.cfi_endproc
.LFE674:
	.seh_endproc
	.section	.text$_ZSt11__addressofIKP8ObserverEPT_RS3_,"x"
	.linkonce discard
	.globl	_ZSt11__addressofIKP8ObserverEPT_RS3_
	.def	_ZSt11__addressofIKP8ObserverEPT_RS3_;	.scl	2;	.type	32;	.endef
	.seh_proc	_ZSt11__addressofIKP8ObserverEPT_RS3_
_ZSt11__addressofIKP8ObserverEPT_RS3_:
.LFB675:
	.loc 6 47 5
	.cfi_startproc
	pushq	%rbp
	.seh_pushreg	%rbp
	.cfi_def_cfa_offset 16
	.cfi_offset 6, -16
	movq	%rsp, %rbp
	.seh_setframe	%rbp, 0
	.cfi_def_cfa_register 6
	.seh_endprologue
	movq	%rcx, 16(%rbp)
	.loc 6 48 37
	movq	16(%rbp), %rax
	.loc 6 48 40
	popq	%rbp
	.cfi_restore 6
	.cfi_def_cfa 7, 8
	ret
	.cfi_endproc
.LFE675:
	.seh_endproc
	.section	.text$_ZNSt7__cxx114listIP8ObserverSaIS2_EE8_M_eraseESt14_List_iteratorIS2_E,"x"
	.linkonce discard
	.align 2
	.globl	_ZNSt7__cxx114listIP8ObserverSaIS2_EE8_M_eraseESt14_List_iteratorIS2_E
	.def	_ZNSt7__cxx114listIP8ObserverSaIS2_EE8_M_eraseESt14_List_iteratorIS2_E;	.scl	2;	.type	32;	.endef
	.seh_proc	_ZNSt7__cxx114listIP8ObserverSaIS2_EE8_M_eraseESt14_List_iteratorIS2_E
_ZNSt7__cxx114listIP8ObserverSaIS2_EE8_M_eraseESt14_List_iteratorIS2_E:
.LFB676:
	.loc 4 1910 7
	.cfi_startproc
	pushq	%rbp
	.seh_pushreg	%rbp
	.cfi_def_cfa_offset 16
	.cfi_offset 6, -16
	pushq	%rbx
	.seh_pushreg	%rbx
	.cfi_def_cfa_offset 24
	.cfi_offset 3, -24
	subq	$56, %rsp
	.seh_stackalloc	56
	.cfi_def_cfa_offset 80
	leaq	128(%rsp), %rbp
	.seh_setframe	%rbp, 128
	.cfi_def_cfa 6, -48
	.seh_endprologue
	movq	%rcx, -48(%rbp)
	movq	%rdx, -40(%rbp)
	.loc 4 1912 2
	movq	-48(%rbp), %rax
	movl	$1, %edx
	movq	%rax, %rcx
	call	_ZNSt7__cxx1110_List_baseIP8ObserverSaIS2_EE11_M_dec_sizeEy
	.loc 4 1913 13
	movq	-40(%rbp), %rax
	.loc 4 1913 2
	movq	%rax, %rcx
	call	_ZNSt8__detail15_List_node_base9_M_unhookEv
	.loc 4 1914 9
	movq	-40(%rbp), %rax
	movq	%rax, -88(%rbp)
	.loc 4 1916 29
	movq	-88(%rbp), %rax
	movq	%rax, %rcx
	call	_ZNSt10_List_nodeIP8ObserverE9_M_valptrEv
	movq	%rax, %rbx
	.loc 4 1916 51
	movq	-48(%rbp), %rax
	movq	%rax, %rcx
	call	_ZNSt7__cxx1110_List_baseIP8ObserverSaIS2_EE21_M_get_Node_allocatorEv
	.loc 4 1916 29
	movq	%rbx, %rdx
	movq	%rax, %rcx
	call	_ZNSt16allocator_traitsISaISt10_List_nodeIP8ObserverEEE7destroyIS2_EEvRS4_PT_
	.loc 4 1921 13
	movq	-48(%rbp), %rax
	movq	-88(%rbp), %rdx
	movq	%rax, %rcx
	call	_ZNSt7__cxx1110_List_baseIP8ObserverSaIS2_EE11_M_put_nodeEPSt10_List_nodeIS2_E
	.loc 4 1922 7
	nop
	addq	$56, %rsp
	popq	%rbx
	.cfi_restore 3
	popq	%rbp
	.cfi_restore 6
	.cfi_def_cfa 7, -40
	ret
	.cfi_endproc
.LFE676:
	.seh_handler	__gxx_personality_seh0, @unwind, @except
	.seh_handlerdata
.LLSDA676:
	.byte	0xff
	.byte	0xff
	.byte	0x1
	.uleb128 .LLSDACSE676-.LLSDACSB676
.LLSDACSB676:
.LLSDACSE676:
	.section	.text$_ZNSt7__cxx114listIP8ObserverSaIS2_EE8_M_eraseESt14_List_iteratorIS2_E,"x"
	.linkonce discard
	.seh_endproc
	.section	.text$_ZNSt10_List_nodeIP8ObserverE9_M_valptrEv,"x"
	.linkonce discard
	.align 2
	.globl	_ZNSt10_List_nodeIP8ObserverE9_M_valptrEv
	.def	_ZNSt10_List_nodeIP8ObserverE9_M_valptrEv;	.scl	2;	.type	32;	.endef
	.seh_proc	_ZNSt10_List_nodeIP8ObserverE9_M_valptrEv
_ZNSt10_List_nodeIP8ObserverE9_M_valptrEv:
.LFB681:
	.loc 4 170 12
	.cfi_startproc
	pushq	%rbp
	.seh_pushreg	%rbp
	.cfi_def_cfa_offset 16
	.cfi_offset 6, -16
	movq	%rsp, %rbp
	.seh_setframe	%rbp, 0
	.cfi_def_cfa_register 6
	subq	$32, %rsp
	.seh_stackalloc	32
	.seh_endprologue
	movq	%rcx, 16(%rbp)
	.loc 4 170 51
	movq	16(%rbp), %rax
	addq	$16, %rax
	movq	%rax, %rcx
	call	_ZN9__gnu_cxx16__aligned_membufIP8ObserverE6_M_ptrEv
	.loc 4 170 54
	addq	$32, %rsp
	popq	%rbp
	.cfi_restore 6
	.cfi_def_cfa 7, 8
	ret
	.cfi_endproc
.LFE681:
	.seh_endproc
	.section	.text$_ZNSt7__cxx1110_List_baseIP8ObserverSaIS2_EE21_M_get_Node_allocatorEv,"x"
	.linkonce discard
	.align 2
	.globl	_ZNSt7__cxx1110_List_baseIP8ObserverSaIS2_EE21_M_get_Node_allocatorEv
	.def	_ZNSt7__cxx1110_List_baseIP8ObserverSaIS2_EE21_M_get_Node_allocatorEv;	.scl	2;	.type	32;	.endef
	.seh_proc	_ZNSt7__cxx1110_List_baseIP8ObserverSaIS2_EE21_M_get_Node_allocatorEv
_ZNSt7__cxx1110_List_baseIP8ObserverSaIS2_EE21_M_get_Node_allocatorEv:
.LFB682:
	.loc 4 459 7
	.cfi_startproc
	pushq	%rbp
	.seh_pushreg	%rbp
	.cfi_def_cfa_offset 16
	.cfi_offset 6, -16
	movq	%rsp, %rbp
	.seh_setframe	%rbp, 0
	.cfi_def_cfa_register 6
	.seh_endprologue
	movq	%rcx, 16(%rbp)
	.loc 4 460 16
	movq	16(%rbp), %rax
	.loc 4 460 25
	popq	%rbp
	.cfi_restore 6
	.cfi_def_cfa 7, 8
	ret
	.cfi_endproc
.LFE682:
	.seh_endproc
	.section	.text$_ZNSt16allocator_traitsISaISt10_List_nodeIP8ObserverEEE7destroyIS2_EEvRS4_PT_,"x"
	.linkonce discard
	.globl	_ZNSt16allocator_traitsISaISt10_List_nodeIP8ObserverEEE7destroyIS2_EEvRS4_PT_
	.def	_ZNSt16allocator_traitsISaISt10_List_nodeIP8ObserverEEE7destroyIS2_EEvRS4_PT_;	.scl	2;	.type	32;	.endef
	.seh_proc	_ZNSt16allocator_traitsISaISt10_List_nodeIP8ObserverEEE7destroyIS2_EEvRS4_PT_
_ZNSt16allocator_traitsISaISt10_List_nodeIP8ObserverEEE7destroyIS2_EEvRS4_PT_:
.LFB683:
	.file 7 "C:/Program Files/CodeBlocks/MinGW/lib/gcc/x86_64-w64-mingw32/8.1.0/include/c++/bits/alloc_traits.h"
	.loc 7 486 2
	.cfi_startproc
	pushq	%rbp
	.seh_pushreg	%rbp
	.cfi_def_cfa_offset 16
	.cfi_offset 6, -16
	movq	%rsp, %rbp
	.seh_setframe	%rbp, 0
	.cfi_def_cfa_register 6
	subq	$32, %rsp
	.seh_stackalloc	32
	.seh_endprologue
	movq	%rcx, 16(%rbp)
	movq	%rdx, 24(%rbp)
	.loc 7 487 4
	movq	24(%rbp), %rax
	movq	%rax, %rdx
	movq	16(%rbp), %rcx
	call	_ZN9__gnu_cxx13new_allocatorISt10_List_nodeIP8ObserverEE7destroyIS3_EEvPT_
	.loc 7 487 22
	nop
	addq	$32, %rsp
	popq	%rbp
	.cfi_restore 6
	.cfi_def_cfa 7, 8
	ret
	.cfi_endproc
.LFE683:
	.seh_endproc
	.section	.text$_ZNSt7__cxx1110_List_baseIP8ObserverSaIS2_EE11_M_put_nodeEPSt10_List_nodeIS2_E,"x"
	.linkonce discard
	.align 2
	.globl	_ZNSt7__cxx1110_List_baseIP8ObserverSaIS2_EE11_M_put_nodeEPSt10_List_nodeIS2_E
	.def	_ZNSt7__cxx1110_List_baseIP8ObserverSaIS2_EE11_M_put_nodeEPSt10_List_nodeIS2_E;	.scl	2;	.type	32;	.endef
	.seh_proc	_ZNSt7__cxx1110_List_baseIP8ObserverSaIS2_EE11_M_put_nodeEPSt10_List_nodeIS2_E
_ZNSt7__cxx1110_List_baseIP8ObserverSaIS2_EE11_M_put_nodeEPSt10_List_nodeIS2_E:
.LFB684:
	.loc 4 452 7
	.cfi_startproc
	pushq	%rbp
	.seh_pushreg	%rbp
	.cfi_def_cfa_offset 16
	.cfi_offset 6, -16
	movq	%rsp, %rbp
	.seh_setframe	%rbp, 0
	.cfi_def_cfa_register 6
	subq	$32, %rsp
	.seh_stackalloc	32
	.seh_endprologue
	movq	%rcx, 16(%rbp)
	movq	%rdx, 24(%rbp)
	.loc 4 453 40
	movq	16(%rbp), %rax
	.loc 4 453 39
	movq	24(%rbp), %rdx
	movl	$1, %r8d
	movq	%rax, %rcx
	call	_ZNSt16allocator_traitsISaISt10_List_nodeIP8ObserverEEE10deallocateERS4_PS3_y
	.loc 4 453 58
	nop
	addq	$32, %rsp
	popq	%rbp
	.cfi_restore 6
	.cfi_def_cfa 7, 8
	ret
	.cfi_endproc
.LFE684:
	.seh_handler	__gxx_personality_seh0, @unwind, @except
	.seh_handlerdata
.LLSDA684:
	.byte	0xff
	.byte	0xff
	.byte	0x1
	.uleb128 .LLSDACSE684-.LLSDACSB684
.LLSDACSB684:
.LLSDACSE684:
	.section	.text$_ZNSt7__cxx1110_List_baseIP8ObserverSaIS2_EE11_M_put_nodeEPSt10_List_nodeIS2_E,"x"
	.linkonce discard
	.seh_endproc
	.section	.text$_ZNSt14_List_iteratorIP8ObserverEC1EPNSt8__detail15_List_node_baseE,"x"
	.linkonce discard
	.align 2
	.globl	_ZNSt14_List_iteratorIP8ObserverEC1EPNSt8__detail15_List_node_baseE
	.def	_ZNSt14_List_iteratorIP8ObserverEC1EPNSt8__detail15_List_node_baseE;	.scl	2;	.type	32;	.endef
	.seh_proc	_ZNSt14_List_iteratorIP8ObserverEC1EPNSt8__detail15_List_node_baseE
_ZNSt14_List_iteratorIP8ObserverEC1EPNSt8__detail15_List_node_baseE:
.LFB687:
	.loc 4 200 7
	.cfi_startproc
	pushq	%rbp
	.seh_pushreg	%rbp
	.cfi_def_cfa_offset 16
	.cfi_offset 6, -16
	movq	%rsp, %rbp
	.seh_setframe	%rbp, 0
	.cfi_def_cfa_register 6
	.seh_endprologue
	movq	%rcx, 16(%rbp)
	movq	%rdx, 24(%rbp)
.LBB6:
	.loc 4 201 20
	movq	16(%rbp), %rax
	movq	24(%rbp), %rdx
	movq	%rdx, (%rax)
.LBE6:
	.loc 4 201 24
	nop
	popq	%rbp
	.cfi_restore 6
	.cfi_def_cfa 7, 8
	ret
	.cfi_endproc
.LFE687:
	.seh_endproc
	.section	.text$_ZNSt7__cxx114listIP8ObserverSaIS2_EE14_M_create_nodeIJRKS2_EEEPSt10_List_nodeIS2_EDpOT_,"x"
	.linkonce discard
	.align 2
	.globl	_ZNSt7__cxx114listIP8ObserverSaIS2_EE14_M_create_nodeIJRKS2_EEEPSt10_List_nodeIS2_EDpOT_
	.def	_ZNSt7__cxx114listIP8ObserverSaIS2_EE14_M_create_nodeIJRKS2_EEEPSt10_List_nodeIS2_EDpOT_;	.scl	2;	.type	32;	.endef
	.seh_proc	_ZNSt7__cxx114listIP8ObserverSaIS2_EE14_M_create_nodeIJRKS2_EEEPSt10_List_nodeIS2_EDpOT_
_ZNSt7__cxx114listIP8ObserverSaIS2_EE14_M_create_nodeIJRKS2_EEEPSt10_List_nodeIS2_EDpOT_:
.LFB688:
	.loc 4 639 2
	.cfi_startproc
	pushq	%rbp
	.seh_pushreg	%rbp
	.cfi_def_cfa_offset 16
	.cfi_offset 6, -16
	pushq	%rbx
	.seh_pushreg	%rbx
	.cfi_def_cfa_offset 24
	.cfi_offset 3, -24
	subq	$72, %rsp
	.seh_stackalloc	72
	.cfi_def_cfa_offset 96
	leaq	128(%rsp), %rbp
	.seh_setframe	%rbp, 128
	.cfi_def_cfa 6, -32
	.seh_endprologue
	movq	%rcx, -32(%rbp)
	movq	%rdx, -24(%rbp)
	.loc 4 641 9
	movq	-32(%rbp), %rax
	movq	%rax, %rcx
.LEHB0:
	call	_ZNSt7__cxx1110_List_baseIP8ObserverSaIS2_EE11_M_get_nodeEv
.LEHE0:
	movq	%rax, -72(%rbp)
	.loc 4 642 41
	movq	-32(%rbp), %rax
	movq	%rax, %rcx
	call	_ZNSt7__cxx1110_List_baseIP8ObserverSaIS2_EE21_M_get_Node_allocatorEv
	movq	%rax, -80(%rbp)
	.loc 4 643 38
	movq	-72(%rbp), %rcx
	movq	-80(%rbp), %rdx
	leaq	-96(%rbp), %rax
	movq	%rcx, %r8
	movq	%rax, %rcx
	call	_ZNSt15__allocated_ptrISaISt10_List_nodeIP8ObserverEEEC1ERS4_PS3_
	.loc 4 644 33
	movq	-24(%rbp), %rax
	movq	%rax, %rcx
	call	_ZSt7forwardIRKP8ObserverEOT_RNSt16remove_referenceIS4_E4typeE
	movq	%rax, %rbx
	movq	-72(%rbp), %rax
	movq	%rax, %rcx
	call	_ZNSt10_List_nodeIP8ObserverE9_M_valptrEv
	movq	%rax, %rdx
	movq	-80(%rbp), %rax
	movq	%rbx, %r8
	movq	%rax, %rcx
.LEHB1:
	call	_ZNSt16allocator_traitsISaISt10_List_nodeIP8ObserverEEE9constructIS2_JRKS2_EEEvRS4_PT_DpOT0_
.LEHE1:
	.loc 4 646 12
	leaq	-96(%rbp), %rax
	movl	$0, %edx
	movq	%rax, %rcx
	call	_ZNSt15__allocated_ptrISaISt10_List_nodeIP8ObserverEEEaSEDn
	.loc 4 647 11
	movq	-72(%rbp), %rbx
	.loc 4 643 38
	leaq	-96(%rbp), %rax
	movq	%rax, %rcx
	call	_ZNSt15__allocated_ptrISaISt10_List_nodeIP8ObserverEEED1Ev
	.loc 4 647 11
	movq	%rbx, %rax
	jmp	.L50
.L49:
	movq	%rax, %rbx
	.loc 4 643 38
	leaq	-96(%rbp), %rax
	movq	%rax, %rcx
	call	_ZNSt15__allocated_ptrISaISt10_List_nodeIP8ObserverEEED1Ev
	movq	%rbx, %rax
	movq	%rax, %rcx
.LEHB2:
	call	_Unwind_Resume
.LEHE2:
.L50:
	.loc 4 648 2
	addq	$72, %rsp
	popq	%rbx
	.cfi_restore 3
	popq	%rbp
	.cfi_restore 6
	.cfi_def_cfa 7, -56
	ret
	.cfi_endproc
.LFE688:
	.seh_handler	__gxx_personality_seh0, @unwind, @except
	.seh_handlerdata
.LLSDA688:
	.byte	0xff
	.byte	0xff
	.byte	0x1
	.uleb128 .LLSDACSE688-.LLSDACSB688
.LLSDACSB688:
	.uleb128 .LEHB0-.LFB688
	.uleb128 .LEHE0-.LEHB0
	.uleb128 0
	.uleb128 0
	.uleb128 .LEHB1-.LFB688
	.uleb128 .LEHE1-.LEHB1
	.uleb128 .L49-.LFB688
	.uleb128 0
	.uleb128 .LEHB2-.LFB688
	.uleb128 .LEHE2-.LEHB2
	.uleb128 0
	.uleb128 0
.LLSDACSE688:
	.section	.text$_ZNSt7__cxx114listIP8ObserverSaIS2_EE14_M_create_nodeIJRKS2_EEEPSt10_List_nodeIS2_EDpOT_,"x"
	.linkonce discard
	.seh_endproc
	.section	.text$_ZNSt7__cxx1110_List_baseIP8ObserverSaIS2_EE11_M_inc_sizeEy,"x"
	.linkonce discard
	.align 2
	.globl	_ZNSt7__cxx1110_List_baseIP8ObserverSaIS2_EE11_M_inc_sizeEy
	.def	_ZNSt7__cxx1110_List_baseIP8ObserverSaIS2_EE11_M_inc_sizeEy;	.scl	2;	.type	32;	.endef
	.seh_proc	_ZNSt7__cxx1110_List_baseIP8ObserverSaIS2_EE11_M_inc_sizeEy
_ZNSt7__cxx1110_List_baseIP8ObserverSaIS2_EE11_M_inc_sizeEy:
.LFB689:
	.loc 4 415 12
	.cfi_startproc
	pushq	%rbp
	.seh_pushreg	%rbp
	.cfi_def_cfa_offset 16
	.cfi_offset 6, -16
	movq	%rsp, %rbp
	.seh_setframe	%rbp, 0
	.cfi_def_cfa_register 6
	.seh_endprologue
	movq	%rcx, 16(%rbp)
	movq	%rdx, 24(%rbp)
	.loc 4 415 62
	movq	16(%rbp), %rax
	movq	16(%rax), %rdx
	movq	24(%rbp), %rax
	addq	%rax, %rdx
	.loc 4 415 38
	movq	16(%rbp), %rax
	movq	%rdx, 16(%rax)
	.loc 4 415 70
	nop
	popq	%rbp
	.cfi_restore 6
	.cfi_def_cfa 7, 8
	ret
	.cfi_endproc
.LFE689:
	.seh_endproc
	.section	.text$_ZNSt7__cxx1110_List_baseIP8ObserverSaIS2_EE11_M_dec_sizeEy,"x"
	.linkonce discard
	.align 2
	.globl	_ZNSt7__cxx1110_List_baseIP8ObserverSaIS2_EE11_M_dec_sizeEy
	.def	_ZNSt7__cxx1110_List_baseIP8ObserverSaIS2_EE11_M_dec_sizeEy;	.scl	2;	.type	32;	.endef
	.seh_proc	_ZNSt7__cxx1110_List_baseIP8ObserverSaIS2_EE11_M_dec_sizeEy
_ZNSt7__cxx1110_List_baseIP8ObserverSaIS2_EE11_M_dec_sizeEy:
.LFB690:
	.loc 4 417 12
	.cfi_startproc
	pushq	%rbp
	.seh_pushreg	%rbp
	.cfi_def_cfa_offset 16
	.cfi_offset 6, -16
	movq	%rsp, %rbp
	.seh_setframe	%rbp, 0
	.cfi_def_cfa_register 6
	.seh_endprologue
	movq	%rcx, 16(%rbp)
	movq	%rdx, 24(%rbp)
	.loc 4 417 62
	movq	16(%rbp), %rax
	movq	16(%rax), %rax
	subq	24(%rbp), %rax
	.loc 4 417 38
	movq	16(%rbp), %rdx
	movq	%rax, 16(%rdx)
	.loc 4 417 70
	nop
	popq	%rbp
	.cfi_restore 6
	.cfi_def_cfa 7, 8
	ret
	.cfi_endproc
.LFE690:
	.seh_endproc
	.section	.text$_ZN9__gnu_cxx16__aligned_membufIP8ObserverE6_M_ptrEv,"x"
	.linkonce discard
	.align 2
	.globl	_ZN9__gnu_cxx16__aligned_membufIP8ObserverE6_M_ptrEv
	.def	_ZN9__gnu_cxx16__aligned_membufIP8ObserverE6_M_ptrEv;	.scl	2;	.type	32;	.endef
	.seh_proc	_ZN9__gnu_cxx16__aligned_membufIP8ObserverE6_M_ptrEv
_ZN9__gnu_cxx16__aligned_membufIP8ObserverE6_M_ptrEv:
.LFB691:
	.file 8 "C:/Program Files/CodeBlocks/MinGW/lib/gcc/x86_64-w64-mingw32/8.1.0/include/c++/ext/aligned_buffer.h"
	.loc 8 70 7
	.cfi_startproc
	pushq	%rbp
	.seh_pushreg	%rbp
	.cfi_def_cfa_offset 16
	.cfi_offset 6, -16
	movq	%rsp, %rbp
	.seh_setframe	%rbp, 0
	.cfi_def_cfa_register 6
	subq	$32, %rsp
	.seh_stackalloc	32
	.seh_endprologue
	movq	%rcx, 16(%rbp)
	.loc 8 71 16
	movq	16(%rbp), %rcx
	call	_ZN9__gnu_cxx16__aligned_membufIP8ObserverE7_M_addrEv
	.loc 8 71 46
	addq	$32, %rsp
	popq	%rbp
	.cfi_restore 6
	.cfi_def_cfa 7, 8
	ret
	.cfi_endproc
.LFE691:
	.seh_endproc
	.section	.text$_ZN9__gnu_cxx13new_allocatorISt10_List_nodeIP8ObserverEE7destroyIS3_EEvPT_,"x"
	.linkonce discard
	.align 2
	.globl	_ZN9__gnu_cxx13new_allocatorISt10_List_nodeIP8ObserverEE7destroyIS3_EEvPT_
	.def	_ZN9__gnu_cxx13new_allocatorISt10_List_nodeIP8ObserverEE7destroyIS3_EEvPT_;	.scl	2;	.type	32;	.endef
	.seh_proc	_ZN9__gnu_cxx13new_allocatorISt10_List_nodeIP8ObserverEE7destroyIS3_EEvPT_
_ZN9__gnu_cxx13new_allocatorISt10_List_nodeIP8ObserverEE7destroyIS3_EEvPT_:
.LFB692:
	.file 9 "C:/Program Files/CodeBlocks/MinGW/lib/gcc/x86_64-w64-mingw32/8.1.0/include/c++/ext/new_allocator.h"
	.loc 9 140 2
	.cfi_startproc
	pushq	%rbp
	.seh_pushreg	%rbp
	.cfi_def_cfa_offset 16
	.cfi_offset 6, -16
	movq	%rsp, %rbp
	.seh_setframe	%rbp, 0
	.cfi_def_cfa_register 6
	.seh_endprologue
	movq	%rcx, 16(%rbp)
	movq	%rdx, 24(%rbp)
	.loc 9 140 35
	nop
	popq	%rbp
	.cfi_restore 6
	.cfi_def_cfa 7, 8
	ret
	.cfi_endproc
.LFE692:
	.seh_endproc
	.section	.text$_ZNSt16allocator_traitsISaISt10_List_nodeIP8ObserverEEE10deallocateERS4_PS3_y,"x"
	.linkonce discard
	.globl	_ZNSt16allocator_traitsISaISt10_List_nodeIP8ObserverEEE10deallocateERS4_PS3_y
	.def	_ZNSt16allocator_traitsISaISt10_List_nodeIP8ObserverEEE10deallocateERS4_PS3_y;	.scl	2;	.type	32;	.endef
	.seh_proc	_ZNSt16allocator_traitsISaISt10_List_nodeIP8ObserverEEE10deallocateERS4_PS3_y
_ZNSt16allocator_traitsISaISt10_List_nodeIP8ObserverEEE10deallocateERS4_PS3_y:
.LFB693:
	.loc 7 461 7
	.cfi_startproc
	pushq	%rbp
	.seh_pushreg	%rbp
	.cfi_def_cfa_offset 16
	.cfi_offset 6, -16
	movq	%rsp, %rbp
	.seh_setframe	%rbp, 0
	.cfi_def_cfa_register 6
	subq	$32, %rsp
	.seh_stackalloc	32
	.seh_endprologue
	movq	%rcx, 16(%rbp)
	movq	%rdx, 24(%rbp)
	movq	%r8, 32(%rbp)
	.loc 7 462 9
	movq	32(%rbp), %rdx
	movq	24(%rbp), %rax
	movq	%rdx, %r8
	movq	%rax, %rdx
	movq	16(%rbp), %rcx
	call	_ZN9__gnu_cxx13new_allocatorISt10_List_nodeIP8ObserverEE10deallocateEPS4_y
	.loc 7 462 35
	nop
	addq	$32, %rsp
	popq	%rbp
	.cfi_restore 6
	.cfi_def_cfa 7, 8
	ret
	.cfi_endproc
.LFE693:
	.seh_endproc
	.section	.text$_ZNSt7__cxx1110_List_baseIP8ObserverSaIS2_EE11_M_get_nodeEv,"x"
	.linkonce discard
	.align 2
	.globl	_ZNSt7__cxx1110_List_baseIP8ObserverSaIS2_EE11_M_get_nodeEv
	.def	_ZNSt7__cxx1110_List_baseIP8ObserverSaIS2_EE11_M_get_nodeEv;	.scl	2;	.type	32;	.endef
	.seh_proc	_ZNSt7__cxx1110_List_baseIP8ObserverSaIS2_EE11_M_get_nodeEv
_ZNSt7__cxx1110_List_baseIP8ObserverSaIS2_EE11_M_get_nodeEv:
.LFB694:
	.loc 4 448 7
	.cfi_startproc
	pushq	%rbp
	.seh_pushreg	%rbp
	.cfi_def_cfa_offset 16
	.cfi_offset 6, -16
	movq	%rsp, %rbp
	.seh_setframe	%rbp, 0
	.cfi_def_cfa_register 6
	subq	$32, %rsp
	.seh_stackalloc	32
	.seh_endprologue
	movq	%rcx, 16(%rbp)
	.loc 4 449 45
	movq	16(%rbp), %rax
	.loc 4 449 44
	movl	$1, %edx
	movq	%rax, %rcx
	call	_ZNSt16allocator_traitsISaISt10_List_nodeIP8ObserverEEE8allocateERS4_y
	.loc 4 449 58
	addq	$32, %rsp
	popq	%rbp
	.cfi_restore 6
	.cfi_def_cfa 7, 8
	ret
	.cfi_endproc
.LFE694:
	.seh_endproc
	.section	.text$_ZNSt15__allocated_ptrISaISt10_List_nodeIP8ObserverEEEC1ERS4_PS3_,"x"
	.linkonce discard
	.align 2
	.globl	_ZNSt15__allocated_ptrISaISt10_List_nodeIP8ObserverEEEC1ERS4_PS3_
	.def	_ZNSt15__allocated_ptrISaISt10_List_nodeIP8ObserverEEEC1ERS4_PS3_;	.scl	2;	.type	32;	.endef
	.seh_proc	_ZNSt15__allocated_ptrISaISt10_List_nodeIP8ObserverEEEC1ERS4_PS3_
_ZNSt15__allocated_ptrISaISt10_List_nodeIP8ObserverEEEC1ERS4_PS3_:
.LFB697:
	.file 10 "C:/Program Files/CodeBlocks/MinGW/lib/gcc/x86_64-w64-mingw32/8.1.0/include/c++/bits/allocated_ptr.h"
	.loc 10 52 7
	.cfi_startproc
	pushq	%rbp
	.seh_pushreg	%rbp
	.cfi_def_cfa_offset 16
	.cfi_offset 6, -16
	movq	%rsp, %rbp
	.seh_setframe	%rbp, 0
	.cfi_def_cfa_register 6
	subq	$32, %rsp
	.seh_stackalloc	32
	.seh_endprologue
	movq	%rcx, 16(%rbp)
	movq	%rdx, 24(%rbp)
	movq	%r8, 32(%rbp)
.LBB7:
	.loc 10 53 34
	movq	24(%rbp), %rax
	movq	%rax, %rcx
	call	_ZSt11__addressofISaISt10_List_nodeIP8ObserverEEEPT_RS5_
	movq	%rax, %rdx
	.loc 10 53 54
	movq	16(%rbp), %rax
	movq	%rdx, (%rax)
	movq	16(%rbp), %rax
	movq	32(%rbp), %rdx
	movq	%rdx, 8(%rax)
.LBE7:
	.loc 10 54 9
	nop
	addq	$32, %rsp
	popq	%rbp
	.cfi_restore 6
	.cfi_def_cfa 7, 8
	ret
	.cfi_endproc
.LFE697:
	.seh_endproc
	.section	.text$_ZNSt15__allocated_ptrISaISt10_List_nodeIP8ObserverEEED1Ev,"x"
	.linkonce discard
	.align 2
	.globl	_ZNSt15__allocated_ptrISaISt10_List_nodeIP8ObserverEEED1Ev
	.def	_ZNSt15__allocated_ptrISaISt10_List_nodeIP8ObserverEEED1Ev;	.scl	2;	.type	32;	.endef
	.seh_proc	_ZNSt15__allocated_ptrISaISt10_List_nodeIP8ObserverEEED1Ev
_ZNSt15__allocated_ptrISaISt10_List_nodeIP8ObserverEEED1Ev:
.LFB700:
	.loc 10 70 7
	.cfi_startproc
	pushq	%rbp
	.seh_pushreg	%rbp
	.cfi_def_cfa_offset 16
	.cfi_offset 6, -16
	movq	%rsp, %rbp
	.seh_setframe	%rbp, 0
	.cfi_def_cfa_register 6
	subq	$32, %rsp
	.seh_stackalloc	32
	.seh_endprologue
	movq	%rcx, 16(%rbp)
.LBB8:
	.loc 10 72 6
	movq	16(%rbp), %rax
	movq	8(%rax), %rax
	.loc 10 72 2
	testq	%rax, %rax
	je	.L62
	.loc 10 73 45
	movq	16(%rbp), %rax
	movq	8(%rax), %rdx
	.loc 10 73 47
	movq	16(%rbp), %rax
	movq	(%rax), %rax
	.loc 10 73 45
	movl	$1, %r8d
	movq	%rax, %rcx
	call	_ZNSt16allocator_traitsISaISt10_List_nodeIP8ObserverEEE10deallocateERS4_PS3_y
.L62:
.LBE8:
	.loc 10 74 7
	nop
	addq	$32, %rsp
	popq	%rbp
	.cfi_restore 6
	.cfi_def_cfa 7, 8
	ret
	.cfi_endproc
.LFE700:
	.seh_endproc
	.section	.text$_ZNSt16allocator_traitsISaISt10_List_nodeIP8ObserverEEE9constructIS2_JRKS2_EEEvRS4_PT_DpOT0_,"x"
	.linkonce discard
	.globl	_ZNSt16allocator_traitsISaISt10_List_nodeIP8ObserverEEE9constructIS2_JRKS2_EEEvRS4_PT_DpOT0_
	.def	_ZNSt16allocator_traitsISaISt10_List_nodeIP8ObserverEEE9constructIS2_JRKS2_EEEvRS4_PT_DpOT0_;	.scl	2;	.type	32;	.endef
	.seh_proc	_ZNSt16allocator_traitsISaISt10_List_nodeIP8ObserverEEE9constructIS2_JRKS2_EEEvRS4_PT_DpOT0_
_ZNSt16allocator_traitsISaISt10_List_nodeIP8ObserverEEE9constructIS2_JRKS2_EEEvRS4_PT_DpOT0_:
.LFB701:
	.loc 7 474 2
	.cfi_startproc
	pushq	%rbp
	.seh_pushreg	%rbp
	.cfi_def_cfa_offset 16
	.cfi_offset 6, -16
	movq	%rsp, %rbp
	.seh_setframe	%rbp, 0
	.cfi_def_cfa_register 6
	subq	$32, %rsp
	.seh_stackalloc	32
	.seh_endprologue
	movq	%rcx, 16(%rbp)
	movq	%rdx, 24(%rbp)
	movq	%r8, 32(%rbp)
	.loc 7 475 4
	movq	32(%rbp), %rax
	movq	%rax, %rcx
	call	_ZSt7forwardIRKP8ObserverEOT_RNSt16remove_referenceIS4_E4typeE
	movq	%rax, %rdx
	movq	24(%rbp), %rax
	movq	%rdx, %r8
	movq	%rax, %rdx
	movq	16(%rbp), %rcx
	call	_ZN9__gnu_cxx13new_allocatorISt10_List_nodeIP8ObserverEE9constructIS3_JRKS3_EEEvPT_DpOT0_
	.loc 7 475 56
	nop
	addq	$32, %rsp
	popq	%rbp
	.cfi_restore 6
	.cfi_def_cfa 7, 8
	ret
	.cfi_endproc
.LFE701:
	.seh_endproc
	.section	.text$_ZNSt15__allocated_ptrISaISt10_List_nodeIP8ObserverEEEaSEDn,"x"
	.linkonce discard
	.align 2
	.globl	_ZNSt15__allocated_ptrISaISt10_List_nodeIP8ObserverEEEaSEDn
	.def	_ZNSt15__allocated_ptrISaISt10_List_nodeIP8ObserverEEEaSEDn;	.scl	2;	.type	32;	.endef
	.seh_proc	_ZNSt15__allocated_ptrISaISt10_List_nodeIP8ObserverEEEaSEDn
_ZNSt15__allocated_ptrISaISt10_List_nodeIP8ObserverEEEaSEDn:
.LFB702:
	.loc 10 78 7
	.cfi_startproc
	pushq	%rbp
	.seh_pushreg	%rbp
	.cfi_def_cfa_offset 16
	.cfi_offset 6, -16
	movq	%rsp, %rbp
	.seh_setframe	%rbp, 0
	.cfi_def_cfa_register 6
	.seh_endprologue
	movq	%rcx, 16(%rbp)
	movq	%rdx, 24(%rbp)
	.loc 10 80 2
	movq	16(%rbp), %rax
	movq	$0, 8(%rax)
	.loc 10 81 10
	movq	16(%rbp), %rax
	.loc 10 82 7
	popq	%rbp
	.cfi_restore 6
	.cfi_def_cfa 7, 8
	ret
	.cfi_endproc
.LFE702:
	.seh_endproc
	.section	.text$_ZN9__gnu_cxx16__aligned_membufIP8ObserverE7_M_addrEv,"x"
	.linkonce discard
	.align 2
	.globl	_ZN9__gnu_cxx16__aligned_membufIP8ObserverE7_M_addrEv
	.def	_ZN9__gnu_cxx16__aligned_membufIP8ObserverE7_M_addrEv;	.scl	2;	.type	32;	.endef
	.seh_proc	_ZN9__gnu_cxx16__aligned_membufIP8ObserverE7_M_addrEv
_ZN9__gnu_cxx16__aligned_membufIP8ObserverE7_M_addrEv:
.LFB703:
	.loc 8 62 7
	.cfi_startproc
	pushq	%rbp
	.seh_pushreg	%rbp
	.cfi_def_cfa_offset 16
	.cfi_offset 6, -16
	movq	%rsp, %rbp
	.seh_setframe	%rbp, 0
	.cfi_def_cfa_register 6
	.seh_endprologue
	movq	%rcx, 16(%rbp)
	.loc 8 63 46
	movq	16(%rbp), %rax
	.loc 8 63 49
	popq	%rbp
	.cfi_restore 6
	.cfi_def_cfa 7, 8
	ret
	.cfi_endproc
.LFE703:
	.seh_endproc
	.section	.text$_ZN9__gnu_cxx13new_allocatorISt10_List_nodeIP8ObserverEE10deallocateEPS4_y,"x"
	.linkonce discard
	.align 2
	.globl	_ZN9__gnu_cxx13new_allocatorISt10_List_nodeIP8ObserverEE10deallocateEPS4_y
	.def	_ZN9__gnu_cxx13new_allocatorISt10_List_nodeIP8ObserverEE10deallocateEPS4_y;	.scl	2;	.type	32;	.endef
	.seh_proc	_ZN9__gnu_cxx13new_allocatorISt10_List_nodeIP8ObserverEE10deallocateEPS4_y
_ZN9__gnu_cxx13new_allocatorISt10_List_nodeIP8ObserverEE10deallocateEPS4_y:
.LFB704:
	.loc 9 116 7
	.cfi_startproc
	pushq	%rbp
	.seh_pushreg	%rbp
	.cfi_def_cfa_offset 16
	.cfi_offset 6, -16
	movq	%rsp, %rbp
	.seh_setframe	%rbp, 0
	.cfi_def_cfa_register 6
	subq	$32, %rsp
	.seh_stackalloc	32
	.seh_endprologue
	movq	%rcx, 16(%rbp)
	movq	%rdx, 24(%rbp)
	movq	%r8, 32(%rbp)
	.loc 9 125 19
	movq	24(%rbp), %rax
	movq	%rax, %rcx
	call	_ZdlPv
	.loc 9 126 7
	nop
	addq	$32, %rsp
	popq	%rbp
	.cfi_restore 6
	.cfi_def_cfa 7, 8
	ret
	.cfi_endproc
.LFE704:
	.seh_endproc
	.section	.text$_ZNSt16allocator_traitsISaISt10_List_nodeIP8ObserverEEE8allocateERS4_y,"x"
	.linkonce discard
	.globl	_ZNSt16allocator_traitsISaISt10_List_nodeIP8ObserverEEE8allocateERS4_y
	.def	_ZNSt16allocator_traitsISaISt10_List_nodeIP8ObserverEEE8allocateERS4_y;	.scl	2;	.type	32;	.endef
	.seh_proc	_ZNSt16allocator_traitsISaISt10_List_nodeIP8ObserverEEE8allocateERS4_y
_ZNSt16allocator_traitsISaISt10_List_nodeIP8ObserverEEE8allocateERS4_y:
.LFB705:
	.loc 7 435 7
	.cfi_startproc
	pushq	%rbp
	.seh_pushreg	%rbp
	.cfi_def_cfa_offset 16
	.cfi_offset 6, -16
	movq	%rsp, %rbp
	.seh_setframe	%rbp, 0
	.cfi_def_cfa_register 6
	subq	$32, %rsp
	.seh_stackalloc	32
	.seh_endprologue
	movq	%rcx, 16(%rbp)
	movq	%rdx, 24(%rbp)
	.loc 7 436 32
	movq	24(%rbp), %rax
	movl	$0, %r8d
	movq	%rax, %rdx
	movq	16(%rbp), %rcx
	call	_ZN9__gnu_cxx13new_allocatorISt10_List_nodeIP8ObserverEE8allocateEyPKv
	.loc 7 436 35
	addq	$32, %rsp
	popq	%rbp
	.cfi_restore 6
	.cfi_def_cfa 7, 8
	ret
	.cfi_endproc
.LFE705:
	.seh_endproc
	.section	.text$_ZSt11__addressofISaISt10_List_nodeIP8ObserverEEEPT_RS5_,"x"
	.linkonce discard
	.globl	_ZSt11__addressofISaISt10_List_nodeIP8ObserverEEEPT_RS5_
	.def	_ZSt11__addressofISaISt10_List_nodeIP8ObserverEEEPT_RS5_;	.scl	2;	.type	32;	.endef
	.seh_proc	_ZSt11__addressofISaISt10_List_nodeIP8ObserverEEEPT_RS5_
_ZSt11__addressofISaISt10_List_nodeIP8ObserverEEEPT_RS5_:
.LFB706:
	.loc 6 47 5
	.cfi_startproc
	pushq	%rbp
	.seh_pushreg	%rbp
	.cfi_def_cfa_offset 16
	.cfi_offset 6, -16
	movq	%rsp, %rbp
	.seh_setframe	%rbp, 0
	.cfi_def_cfa_register 6
	.seh_endprologue
	movq	%rcx, 16(%rbp)
	.loc 6 48 37
	movq	16(%rbp), %rax
	.loc 6 48 40
	popq	%rbp
	.cfi_restore 6
	.cfi_def_cfa 7, 8
	ret
	.cfi_endproc
.LFE706:
	.seh_endproc
	.section	.text$_ZN9__gnu_cxx13new_allocatorISt10_List_nodeIP8ObserverEE9constructIS3_JRKS3_EEEvPT_DpOT0_,"x"
	.linkonce discard
	.align 2
	.globl	_ZN9__gnu_cxx13new_allocatorISt10_List_nodeIP8ObserverEE9constructIS3_JRKS3_EEEvPT_DpOT0_
	.def	_ZN9__gnu_cxx13new_allocatorISt10_List_nodeIP8ObserverEE9constructIS3_JRKS3_EEEvPT_DpOT0_;	.scl	2;	.type	32;	.endef
	.seh_proc	_ZN9__gnu_cxx13new_allocatorISt10_List_nodeIP8ObserverEE9constructIS3_JRKS3_EEEvPT_DpOT0_
_ZN9__gnu_cxx13new_allocatorISt10_List_nodeIP8ObserverEE9constructIS3_JRKS3_EEEvPT_DpOT0_:
.LFB707:
	.loc 9 135 2
	.cfi_startproc
	pushq	%rbp
	.seh_pushreg	%rbp
	.cfi_def_cfa_offset 16
	.cfi_offset 6, -16
	pushq	%rbx
	.seh_pushreg	%rbx
	.cfi_def_cfa_offset 24
	.cfi_offset 3, -24
	subq	$40, %rsp
	.seh_stackalloc	40
	.cfi_def_cfa_offset 64
	leaq	128(%rsp), %rbp
	.seh_setframe	%rbp, 128
	.cfi_def_cfa 6, -64
	.seh_endprologue
	movq	%rcx, -64(%rbp)
	movq	%rdx, -56(%rbp)
	movq	%r8, -48(%rbp)
	.loc 9 136 46
	movq	-48(%rbp), %rax
	movq	%rax, %rcx
	call	_ZSt7forwardIRKP8ObserverEOT_RNSt16remove_referenceIS4_E4typeE
	.loc 9 136 4
	movq	(%rax), %rbx
	movq	-56(%rbp), %rax
	movq	%rax, %rdx
	movl	$8, %ecx
	call	_ZnwyPv
	movq	%rbx, (%rax)
	.loc 9 136 60
	nop
	addq	$40, %rsp
	popq	%rbx
	.cfi_restore 3
	popq	%rbp
	.cfi_restore 6
	.cfi_def_cfa 7, -24
	ret
	.cfi_endproc
.LFE707:
	.seh_endproc
	.section	.text$_ZN9__gnu_cxx13new_allocatorISt10_List_nodeIP8ObserverEE8allocateEyPKv,"x"
	.linkonce discard
	.align 2
	.globl	_ZN9__gnu_cxx13new_allocatorISt10_List_nodeIP8ObserverEE8allocateEyPKv
	.def	_ZN9__gnu_cxx13new_allocatorISt10_List_nodeIP8ObserverEE8allocateEyPKv;	.scl	2;	.type	32;	.endef
	.seh_proc	_ZN9__gnu_cxx13new_allocatorISt10_List_nodeIP8ObserverEE8allocateEyPKv
_ZN9__gnu_cxx13new_allocatorISt10_List_nodeIP8ObserverEE8allocateEyPKv:
.LFB708:
	.loc 9 99 7
	.cfi_startproc
	pushq	%rbp
	.seh_pushreg	%rbp
	.cfi_def_cfa_offset 16
	.cfi_offset 6, -16
	movq	%rsp, %rbp
	.seh_setframe	%rbp, 0
	.cfi_def_cfa_register 6
	subq	$32, %rsp
	.seh_stackalloc	32
	.seh_endprologue
	movq	%rcx, 16(%rbp)
	movq	%rdx, 24(%rbp)
	movq	%r8, 32(%rbp)
	.loc 9 101 10
	movq	16(%rbp), %rcx
	call	_ZNK9__gnu_cxx13new_allocatorISt10_List_nodeIP8ObserverEE8max_sizeEv
	cmpq	%rax, 24(%rbp)
	seta	%al
	.loc 9 101 2
	testb	%al, %al
	je	.L75
	.loc 9 102 26
	call	_ZSt17__throw_bad_allocv
.L75:
	.loc 9 111 41
	movq	24(%rbp), %rdx
	movq	%rdx, %rax
	addq	%rax, %rax
	addq	%rdx, %rax
	salq	$3, %rax
	movq	%rax, %rcx
	call	_Znwy
	.loc 9 112 7
	addq	$32, %rsp
	popq	%rbp
	.cfi_restore 6
	.cfi_def_cfa 7, 8
	ret
	.cfi_endproc
.LFE708:
	.seh_endproc
	.section	.text$_ZNK9__gnu_cxx13new_allocatorISt10_List_nodeIP8ObserverEE8max_sizeEv,"x"
	.linkonce discard
	.align 2
	.globl	_ZNK9__gnu_cxx13new_allocatorISt10_List_nodeIP8ObserverEE8max_sizeEv
	.def	_ZNK9__gnu_cxx13new_allocatorISt10_List_nodeIP8ObserverEE8max_sizeEv;	.scl	2;	.type	32;	.endef
	.seh_proc	_ZNK9__gnu_cxx13new_allocatorISt10_List_nodeIP8ObserverEE8max_sizeEv
_ZNK9__gnu_cxx13new_allocatorISt10_List_nodeIP8ObserverEE8max_sizeEv:
.LFB709:
	.loc 9 129 7
	.cfi_startproc
	pushq	%rbp
	.seh_pushreg	%rbp
	.cfi_def_cfa_offset 16
	.cfi_offset 6, -16
	movq	%rsp, %rbp
	.seh_setframe	%rbp, 0
	.cfi_def_cfa_register 6
	.seh_endprologue
	movq	%rcx, 16(%rbp)
	.loc 9 130 39
	movabsq	$768614336404564650, %rax
	.loc 9 130 42
	popq	%rbp
	.cfi_restore 6
	.cfi_def_cfa 7, 8
	ret
	.cfi_endproc
.LFE709:
	.seh_endproc
	.globl	_ZTV8Observer
	.section	.rdata$_ZTV8Observer,"dr"
	.linkonce same_size
	.align 8
_ZTV8Observer:
	.quad	0
	.quad	_ZTI8Observer
	.quad	__cxa_pure_virtual
	.globl	_ZTI8Observer
	.section	.rdata$_ZTI8Observer,"dr"
	.linkonce same_size
	.align 8
_ZTI8Observer:
	.quad	_ZTVN10__cxxabiv117__class_type_infoE+16
	.quad	_ZTS8Observer
	.globl	_ZTS8Observer
	.section	.rdata$_ZTS8Observer,"dr"
	.linkonce same_size
	.align 8
_ZTS8Observer:
	.ascii "8Observer\0"
	.text
.Letext0:
	.file 11 "C:/Program Files/CodeBlocks/MinGW/lib/gcc/x86_64-w64-mingw32/8.1.0/include/c++/type_traits"
	.file 12 "C:/Program Files/CodeBlocks/MinGW/lib/gcc/x86_64-w64-mingw32/8.1.0/include/c++/bits/stl_pair.h"
	.file 13 "C:/Program Files/CodeBlocks/MinGW/lib/gcc/x86_64-w64-mingw32/8.1.0/include/c++/debug/debug.h"
	.file 14 "C:/Program Files/CodeBlocks/MinGW/lib/gcc/x86_64-w64-mingw32/8.1.0/include/c++/bits/exception_ptr.h"
	.file 15 "C:/Program Files/CodeBlocks/MinGW/lib/gcc/x86_64-w64-mingw32/8.1.0/include/c++/x86_64-w64-mingw32/bits/c++config.h"
	.file 16 "C:/Program Files/CodeBlocks/MinGW/lib/gcc/x86_64-w64-mingw32/8.1.0/include/c++/bits/allocator.h"
	.file 17 "C:/Program Files/CodeBlocks/MinGW/lib/gcc/x86_64-w64-mingw32/8.1.0/include/c++/bits/predefined_ops.h"
	.file 18 "C:/Program Files/CodeBlocks/MinGW/lib/gcc/x86_64-w64-mingw32/8.1.0/include/c++/ext/alloc_traits.h"
	.file 19 "C:/PFC 2021/ballisticKernelCpp/CalculadorNumerico/padroes/observer.h"
	.file 20 "C:/PFC 2021/ballisticKernelCpp/CalculadorNumerico/padroes/baseobject.h"
	.file 21 "<built-in>"