	.file	"pesoTemperaturaConstante.cpp"
	.text
.Ltext0:
	.cfi_sections	.debug_frame
	.align 2
	.globl	_ZN24PesoTemperaturaConstanteC2Ev
	.def	_ZN24PesoTemperaturaConstanteC2Ev;	.scl	2;	.type	32;	.endef
	.seh_proc	_ZN24PesoTemperaturaConstanteC2Ev
_ZN24PesoTemperaturaConstanteC2Ev:
.LFB2:
	.file 1 "C:/PFC 2021/ballisticKernelCpp/CalculadorNumerico/atmosfera/pesoTemperatura/pesoTemperaturaConstante.cpp"
	.loc 1 3 1
	.cfi_startproc
	pushq	%rbp
	.seh_pushreg	%rbp
	.cfi_def_cfa_offset 16
	.cfi_offset 6, -16
	movq	%rsp, %rbp
	.seh_setframe	%rbp, 0
	.cfi_def_cfa_register 6
	subq	$32, %rsp
	.seh_stackalloc	32
	.seh_endprologue
	movq	%rcx, 16(%rbp)
.LBB2:
	.loc 1 3 52
	movq	16(%rbp), %rax
	movq	%rax, %rcx
	call	_ZN15PesoTemperaturaC2Ev
	leaq	16+_ZTV24PesoTemperaturaConstante(%rip), %rdx
	movq	16(%rbp), %rax
	movq	%rdx, (%rax)
	.loc 1 6 10
	movq	16(%rbp), %rax
	movsd	.LC0(%rip), %xmm0
	movsd	%xmm0, 8(%rax)
.LBE2:
	.loc 1 7 1
	nop
	addq	$32, %rsp
	popq	%rbp
	.cfi_restore 6
	.cfi_def_cfa 7, 8
	ret
	.cfi_endproc
.LFE2:
	.seh_endproc
	.globl	_ZN24PesoTemperaturaConstanteC1Ev
	.def	_ZN24PesoTemperaturaConstanteC1Ev;	.scl	2;	.type	32;	.endef
	.set	_ZN24PesoTemperaturaConstanteC1Ev,_ZN24PesoTemperaturaConstanteC2Ev
	.align 2
	.globl	_ZN24PesoTemperaturaConstanteC2Ed
	.def	_ZN24PesoTemperaturaConstanteC2Ed;	.scl	2;	.type	32;	.endef
	.seh_proc	_ZN24PesoTemperaturaConstanteC2Ed
_ZN24PesoTemperaturaConstanteC2Ed:
.LFB5:
	.loc 1 10 1
	.cfi_startproc
	pushq	%rbp
	.seh_pushreg	%rbp
	.cfi_def_cfa_offset 16
	.cfi_offset 6, -16
	movq	%rsp, %rbp
	.seh_setframe	%rbp, 0
	.cfi_def_cfa_register 6
	subq	$32, %rsp
	.seh_stackalloc	32
	.seh_endprologue
	movq	%rcx, 16(%rbp)
	movsd	%xmm1, 24(%rbp)
.LBB3:
	.loc 1 10 63
	movq	16(%rbp), %rax
	movq	%rax, %rcx
	call	_ZN15PesoTemperaturaC2Ev
	leaq	16+_ZTV24PesoTemperaturaConstante(%rip), %rdx
	movq	16(%rbp), %rax
	movq	%rdx, (%rax)
	.loc 1 13 16
	movq	16(%rbp), %rax
	movsd	24(%rbp), %xmm0
	movsd	%xmm0, 8(%rax)
.LBE3:
	.loc 1 14 1
	nop
	addq	$32, %rsp
	popq	%rbp
	.cfi_restore 6
	.cfi_def_cfa 7, 8
	ret
	.cfi_endproc
.LFE5:
	.seh_endproc
	.globl	_ZN24PesoTemperaturaConstanteC1Ed
	.def	_ZN24PesoTemperaturaConstanteC1Ed;	.scl	2;	.type	32;	.endef
	.set	_ZN24PesoTemperaturaConstanteC1Ed,_ZN24PesoTemperaturaConstanteC2Ed
	.align 2
	.globl	_ZN24PesoTemperaturaConstante18getPesoTemperaturaEd
	.def	_ZN24PesoTemperaturaConstante18getPesoTemperaturaEd;	.scl	2;	.type	32;	.endef
	.seh_proc	_ZN24PesoTemperaturaConstante18getPesoTemperaturaEd
_ZN24PesoTemperaturaConstante18getPesoTemperaturaEd:
.LFB7:
	.loc 1 17 1
	.cfi_startproc
	pushq	%rbp
	.seh_pushreg	%rbp
	.cfi_def_cfa_offset 16
	.cfi_offset 6, -16
	movq	%rsp, %rbp
	.seh_setframe	%rbp, 0
	.cfi_def_cfa_register 6
	.seh_endprologue
	movq	%rcx, 16(%rbp)
	movsd	%xmm1, 24(%rbp)
	.loc 1 18 12
	movq	16(%rbp), %rax
	movsd	8(%rax), %xmm0
	movq	%xmm0, %rax
	.loc 1 19 1
	movq	%rax, %xmm0
	popq	%rbp
	.cfi_restore 6
	.cfi_def_cfa 7, 8
	ret
	.cfi_endproc
.LFE7:
	.seh_endproc
	.globl	_ZTV24PesoTemperaturaConstante
	.section	.rdata$_ZTV24PesoTemperaturaConstante,"dr"
	.linkonce same_size
	.align 8
_ZTV24PesoTemperaturaConstante:
	.quad	0
	.quad	_ZTI24PesoTemperaturaConstante
	.quad	_ZN24PesoTemperaturaConstante18getPesoTemperaturaEd
	.globl	_ZTI24PesoTemperaturaConstante
	.section	.rdata$_ZTI24PesoTemperaturaConstante,"dr"
	.linkonce same_size
	.align 8
_ZTI24PesoTemperaturaConstante:
	.quad	_ZTVN10__cxxabiv120__si_class_type_infoE+16
	.quad	_ZTS24PesoTemperaturaConstante
	.quad	_ZTI15PesoTemperatura
	.globl	_ZTS24PesoTemperaturaConstante
	.section	.rdata$_ZTS24PesoTemperaturaConstante,"dr"
	.linkonce same_size
	.align 16
_ZTS24PesoTemperaturaConstante:
	.ascii "24PesoTemperaturaConstante\0"
	.globl	_ZTI15PesoTemperatura
	.section	.rdata$_ZTI15PesoTemperatura,"dr"
	.linkonce same_size
	.align 8
_ZTI15PesoTemperatura:
	.quad	_ZTVN10__cxxabiv117__class_type_infoE+16
	.quad	_ZTS15PesoTemperatura
	.globl	_ZTS15PesoTemperatura
	.section	.rdata$_ZTS15PesoTemperatura,"dr"
	.linkonce same_size
	.align 16
_ZTS15PesoTemperatura:
	.ascii "15PesoTemperatura\0"
	.section .rdata,"dr"
	.align 8
.LC0:
	.long	0
	.long	1072693248
	.text
.Letext0:
	.file 2 "C:/PFC 2021/ballisticKernelCpp/CalculadorNumerico/atmosfera/pesoTemperatura/pesoTemperaturaConstante.h"
	.file 3 "C:/PFC 2021/ballisticKernelCpp/CalculadorNumerico/atmosfera/pesoTemperatura/pesoTemperatura.h"