	.file	"projetilDAO.cpp"
	.text
.Ltext0:
	.cfi_sections	.debug_frame
	.section	.text$_Z7fprintfP6_iobufPKcz,"x"
	.linkonce discard
	.globl	_Z7fprintfP6_iobufPKcz
	.def	_Z7fprintfP6_iobufPKcz;	.scl	2;	.type	32;	.endef
	.seh_proc	_Z7fprintfP6_iobufPKcz
_Z7fprintfP6_iobufPKcz:
.LFB24:
	.file 1 "C:/Program Files/CodeBlocks/MinGW/x86_64-w64-mingw32/include/stdio.h"
	.loc 1 335 1
	.cfi_startproc
	pushq	%rbp
	.seh_pushreg	%rbp
	.cfi_def_cfa_offset 16
	.cfi_offset 6, -16
	movq	%rsp, %rbp
	.seh_setframe	%rbp, 0
	.cfi_def_cfa_register 6
	subq	$48, %rsp
	.seh_stackalloc	48
	.seh_endprologue
	movq	%rcx, 16(%rbp)
	movq	%rdx, 24(%rbp)
	movq	%r8, 32(%rbp)
	movq	%r9, 40(%rbp)
	.loc 1 337 53
	leaq	32(%rbp), %rax
	movq	%rax, -16(%rbp)
	.loc 1 338 30
	movq	-16(%rbp), %rdx
	movq	24(%rbp), %rax
	movq	%rdx, %r8
	movq	%rax, %rdx
	movq	16(%rbp), %rcx
	call	__mingw_vfprintf
	movl	%eax, -4(%rbp)
	.loc 1 340 10
	movl	-4(%rbp), %eax
	.loc 1 341 1
	addq	$48, %rsp
	popq	%rbp
	.cfi_restore 6
	.cfi_def_cfa 7, 8
	ret
	.cfi_endproc
.LFE24:
	.seh_endproc
	.section	.text$_Z6printfPKcz,"x"
	.linkonce discard
	.globl	_Z6printfPKcz
	.def	_Z6printfPKcz;	.scl	2;	.type	32;	.endef
	.seh_proc	_Z6printfPKcz
_Z6printfPKcz:
.LFB25:
	.loc 1 346 1
	.cfi_startproc
	pushq	%rbp
	.seh_pushreg	%rbp
	.cfi_def_cfa_offset 16
	.cfi_offset 6, -16
	pushq	%rbx
	.seh_pushreg	%rbx
	.cfi_def_cfa_offset 24
	.cfi_offset 3, -24
	subq	$56, %rsp
	.seh_stackalloc	56
	.cfi_def_cfa_offset 80
	leaq	128(%rsp), %rbp
	.seh_setframe	%rbp, 128
	.cfi_def_cfa 6, -48
	.seh_endprologue
	movq	%rcx, -48(%rbp)
	movq	%rdx, -40(%rbp)
	movq	%r8, -32(%rbp)
	movq	%r9, -24(%rbp)
	.loc 1 348 53
	leaq	-40(%rbp), %rax
	movq	%rax, -96(%rbp)
	.loc 1 349 30
	movq	-96(%rbp), %rbx
	movl	$1, %ecx
	movq	__imp___acrt_iob_func(%rip), %rax
	call	*%rax
.LVL0:
	movq	%rbx, %r8
	movq	-48(%rbp), %rdx
	movq	%rax, %rcx
	call	__mingw_vfprintf
	movl	%eax, -84(%rbp)
	.loc 1 351 10
	movl	-84(%rbp), %eax
	.loc 1 352 1
	addq	$56, %rsp
	popq	%rbx
	.cfi_restore 3
	popq	%rbp
	.cfi_restore 6
	.cfi_def_cfa 7, -40
	ret
	.cfi_endproc
.LFE25:
	.seh_endproc
	.section	.text$_Z7sprintfPcPKcz,"x"
	.linkonce discard
	.globl	_Z7sprintfPcPKcz
	.def	_Z7sprintfPcPKcz;	.scl	2;	.type	32;	.endef
	.seh_proc	_Z7sprintfPcPKcz
_Z7sprintfPcPKcz:
.LFB26:
	.loc 1 357 1
	.cfi_startproc
	pushq	%rbp
	.seh_pushreg	%rbp
	.cfi_def_cfa_offset 16
	.cfi_offset 6, -16
	movq	%rsp, %rbp
	.seh_setframe	%rbp, 0
	.cfi_def_cfa_register 6
	subq	$48, %rsp
	.seh_stackalloc	48
	.seh_endprologue
	movq	%rcx, 16(%rbp)
	movq	%rdx, 24(%rbp)
	movq	%r8, 32(%rbp)
	movq	%r9, 40(%rbp)
	.loc 1 359 53
	leaq	32(%rbp), %rax
	movq	%rax, -16(%rbp)
	.loc 1 360 30
	movq	-16(%rbp), %rdx
	movq	24(%rbp), %rax
	movq	%rdx, %r8
	movq	%rax, %rdx
	movq	16(%rbp), %rcx
	call	__mingw_vsprintf
	movl	%eax, -4(%rbp)
	.loc 1 362 10
	movl	-4(%rbp), %eax
	.loc 1 363 1
	addq	$48, %rsp
	popq	%rbp
	.cfi_restore 6
	.cfi_def_cfa 7, 8
	ret
	.cfi_endproc
.LFE26:
	.seh_endproc
	.section .rdata,"dr"
_ZStL19piecewise_construct:
	.space 1
.lcomm _ZStL8__ioinit,1,1
	.section	.text$_ZN10BaseObjectD2Ev,"x"
	.linkonce discard
	.align 2
	.globl	_ZN10BaseObjectD2Ev
	.def	_ZN10BaseObjectD2Ev;	.scl	2;	.type	32;	.endef
	.seh_proc	_ZN10BaseObjectD2Ev
_ZN10BaseObjectD2Ev:
.LFB1510:
	.file 2 "C:/PFC 2021/ballisticKernelCpp/CalculadorNumerico/padroes/baseobject.h"
	.loc 2 8 17
	.cfi_startproc
	pushq	%rbp
	.seh_pushreg	%rbp
	.cfi_def_cfa_offset 16
	.cfi_offset 6, -16
	movq	%rsp, %rbp
	.seh_setframe	%rbp, 0
	.cfi_def_cfa_register 6
	.seh_endprologue
	movq	%rcx, 16(%rbp)
.LBB2:
	.loc 2 8 31
	leaq	16+_ZTV10BaseObject(%rip), %rdx
	movq	16(%rbp), %rax
	movq	%rdx, (%rax)
.LBE2:
	.loc 2 8 32
	nop
	popq	%rbp
	.cfi_restore 6
	.cfi_def_cfa 7, 8
	ret
	.cfi_endproc
.LFE1510:
	.seh_endproc
	.section	.text$_ZN10BaseObjectD1Ev,"x"
	.linkonce discard
	.align 2
	.globl	_ZN10BaseObjectD1Ev
	.def	_ZN10BaseObjectD1Ev;	.scl	2;	.type	32;	.endef
	.seh_proc	_ZN10BaseObjectD1Ev
_ZN10BaseObjectD1Ev:
.LFB1511:
	.loc 2 8 17
	.cfi_startproc
	pushq	%rbp
	.seh_pushreg	%rbp
	.cfi_def_cfa_offset 16
	.cfi_offset 6, -16
	movq	%rsp, %rbp
	.seh_setframe	%rbp, 0
	.cfi_def_cfa_register 6
	.seh_endprologue
	movq	%rcx, 16(%rbp)
.LBB3:
	.loc 2 8 31
	leaq	16+_ZTV10BaseObject(%rip), %rdx
	movq	16(%rbp), %rax
	movq	%rdx, (%rax)
.LBE3:
	.loc 2 8 32
	nop
	popq	%rbp
	.cfi_restore 6
	.cfi_def_cfa 7, 8
	ret
	.cfi_endproc
.LFE1511:
	.seh_endproc
	.section	.text$_ZN10BaseObjectD0Ev,"x"
	.linkonce discard
	.align 2
	.globl	_ZN10BaseObjectD0Ev
	.def	_ZN10BaseObjectD0Ev;	.scl	2;	.type	32;	.endef
	.seh_proc	_ZN10BaseObjectD0Ev
_ZN10BaseObjectD0Ev:
.LFB1512:
	.loc 2 8 17
	.cfi_startproc
	pushq	%rbp
	.seh_pushreg	%rbp
	.cfi_def_cfa_offset 16
	.cfi_offset 6, -16
	movq	%rsp, %rbp
	.seh_setframe	%rbp, 0
	.cfi_def_cfa_register 6
	subq	$32, %rsp
	.seh_stackalloc	32
	.seh_endprologue
	movq	%rcx, 16(%rbp)
	.loc 2 8 32
	movq	16(%rbp), %rcx
	call	_ZN10BaseObjectD1Ev
	movq	16(%rbp), %rcx
	call	_ZdlPv
	nop
	addq	$32, %rsp
	popq	%rbp
	.cfi_restore 6
	.cfi_def_cfa 7, 8
	ret
	.cfi_endproc
.LFE1512:
	.seh_endproc
	.section	.text$_ZN10BaseObjectC2Ev,"x"
	.linkonce discard
	.align 2
	.globl	_ZN10BaseObjectC2Ev
	.def	_ZN10BaseObjectC2Ev;	.scl	2;	.type	32;	.endef
	.seh_proc	_ZN10BaseObjectC2Ev
_ZN10BaseObjectC2Ev:
.LFB1515:
	.loc 2 5 7
	.cfi_startproc
	pushq	%rbp
	.seh_pushreg	%rbp
	.cfi_def_cfa_offset 16
	.cfi_offset 6, -16
	movq	%rsp, %rbp
	.seh_setframe	%rbp, 0
	.cfi_def_cfa_register 6
	.seh_endprologue
	movq	%rcx, 16(%rbp)
.LBB4:
	.loc 2 5 7
	leaq	16+_ZTV10BaseObject(%rip), %rdx
	movq	16(%rbp), %rax
	movq	%rdx, (%rax)
.LBE4:
	nop
	popq	%rbp
	.cfi_restore 6
	.cfi_def_cfa 7, 8
	ret
	.cfi_endproc
.LFE1515:
	.seh_endproc
	.section	.text$_ZN8ProjetilC1Ev,"x"
	.linkonce discard
	.align 2
	.globl	_ZN8ProjetilC1Ev
	.def	_ZN8ProjetilC1Ev;	.scl	2;	.type	32;	.endef
	.seh_proc	_ZN8ProjetilC1Ev
_ZN8ProjetilC1Ev:
.LFB1518:
	.file 3 "C:/PFC 2021/ballisticKernelCpp/CalculadorNumerico/projetil/projetil.h"
	.loc 3 13 9
	.cfi_startproc
	pushq	%rbp
	.seh_pushreg	%rbp
	.cfi_def_cfa_offset 16
	.cfi_offset 6, -16
	movq	%rsp, %rbp
	.seh_setframe	%rbp, 0
	.cfi_def_cfa_register 6
	subq	$32, %rsp
	.seh_stackalloc	32
	.seh_endprologue
	movq	%rcx, 16(%rbp)
.LBB5:
	.loc 3 13 19
	movq	16(%rbp), %rax
	movq	%rax, %rcx
	call	_ZN10BaseObjectC2Ev
	leaq	16+_ZTV8Projetil(%rip), %rdx
	movq	16(%rbp), %rax
	movq	%rdx, (%rax)
	movq	16(%rbp), %rax
	addq	$16, %rax
	movq	%rax, %rcx
	call	_ZNSt7__cxx1112basic_stringIcSt11char_traitsIcESaIcEEC1Ev
	movq	16(%rbp), %rax
	addq	$48, %rax
	movq	%rax, %rcx
	call	_ZNSt7__cxx1112basic_stringIcSt11char_traitsIcESaIcEEC1Ev
.LBE5:
	.loc 3 13 20
	nop
	addq	$32, %rsp
	popq	%rbp
	.cfi_restore 6
	.cfi_def_cfa 7, 8
	ret
	.cfi_endproc
.LFE1518:
	.seh_endproc
	.section	.text$_ZN8Projetil7getTipoEv,"x"
	.linkonce discard
	.align 2
	.globl	_ZN8Projetil7getTipoEv
	.def	_ZN8Projetil7getTipoEv;	.scl	2;	.type	32;	.endef
	.seh_proc	_ZN8Projetil7getTipoEv
_ZN8Projetil7getTipoEv:
.LFB1528:
	.loc 3 24 23
	.cfi_startproc
	pushq	%rbp
	.seh_pushreg	%rbp
	.cfi_def_cfa_offset 16
	.cfi_offset 6, -16
	movq	%rsp, %rbp
	.seh_setframe	%rbp, 0
	.cfi_def_cfa_register 6
	.seh_endprologue
	movq	%rcx, 16(%rbp)
	.loc 3 24 40
	movq	16(%rbp), %rax
	movl	8(%rax), %eax
	.loc 3 24 45
	popq	%rbp
	.cfi_restore 6
	.cfi_def_cfa 7, 8
	ret
	.cfi_endproc
.LFE1528:
	.seh_endproc
	.section	.text$_ZN8Projetil7setNomeEPc,"x"
	.linkonce discard
	.align 2
	.globl	_ZN8Projetil7setNomeEPc
	.def	_ZN8Projetil7setNomeEPc;	.scl	2;	.type	32;	.endef
	.seh_proc	_ZN8Projetil7setNomeEPc
_ZN8Projetil7setNomeEPc:
.LFB1531:
	.loc 3 28 14
	.cfi_startproc
	pushq	%rbp
	.seh_pushreg	%rbp
	.cfi_def_cfa_offset 16
	.cfi_offset 6, -16
	movq	%rsp, %rbp
	.seh_setframe	%rbp, 0
	.cfi_def_cfa_register 6
	subq	$32, %rsp
	.seh_stackalloc	32
	.seh_endprologue
	movq	%rcx, 16(%rbp)
	movq	%rdx, 24(%rbp)
	.loc 3 28 44
	movq	16(%rbp), %rax
	addq	$16, %rax
	movq	24(%rbp), %rdx
	movq	%rax, %rcx
	call	_ZNSt7__cxx1112basic_stringIcSt11char_traitsIcESaIcEEaSEPKc
	.loc 3 28 52
	nop
	addq	$32, %rsp
	popq	%rbp
	.cfi_restore 6
	.cfi_def_cfa 7, 8
	ret
	.cfi_endproc
.LFE1531:
	.seh_endproc
	.section	.text$_ZN8Projetil25setTabelaCoeficientesNomeEPc,"x"
	.linkonce discard
	.align 2
	.globl	_ZN8Projetil25setTabelaCoeficientesNomeEPc
	.def	_ZN8Projetil25setTabelaCoeficientesNomeEPc;	.scl	2;	.type	32;	.endef
	.seh_proc	_ZN8Projetil25setTabelaCoeficientesNomeEPc
_ZN8Projetil25setTabelaCoeficientesNomeEPc:
.LFB1533:
	.loc 3 30 14
	.cfi_startproc
	pushq	%rbp
	.seh_pushreg	%rbp
	.cfi_def_cfa_offset 16
	.cfi_offset 6, -16
	movq	%rsp, %rbp
	.seh_setframe	%rbp, 0
	.cfi_def_cfa_register 6
	subq	$32, %rsp
	.seh_stackalloc	32
	.seh_endprologue
	movq	%rcx, 16(%rbp)
	movq	%rdx, 24(%rbp)
	.loc 3 30 98
	movq	16(%rbp), %rax
	addq	$48, %rax
	movq	24(%rbp), %rdx
	movq	%rax, %rcx
	call	_ZNSt7__cxx1112basic_stringIcSt11char_traitsIcESaIcEEaSEPKc
	.loc 3 30 124
	nop
	addq	$32, %rsp
	popq	%rbp
	.cfi_restore 6
	.cfi_def_cfa 7, 8
	ret
	.cfi_endproc
.LFE1533:
	.seh_endproc
	.section	.text$_ZN8Projetil11setDiametroEd,"x"
	.linkonce discard
	.align 2
	.globl	_ZN8Projetil11setDiametroEd
	.def	_ZN8Projetil11setDiametroEd;	.scl	2;	.type	32;	.endef
	.seh_proc	_ZN8Projetil11setDiametroEd
_ZN8Projetil11setDiametroEd:
.LFB1534:
	.loc 3 31 14
	.cfi_startproc
	pushq	%rbp
	.seh_pushreg	%rbp
	.cfi_def_cfa_offset 16
	.cfi_offset 6, -16
	movq	%rsp, %rbp
	.seh_setframe	%rbp, 0
	.cfi_def_cfa_register 6
	.seh_endprologue
	movq	%rcx, 16(%rbp)
	movsd	%xmm1, 24(%rbp)
	.loc 3 31 58
	movq	16(%rbp), %rax
	movsd	24(%rbp), %xmm0
	movsd	%xmm0, 88(%rax)
	.loc 3 31 69
	nop
	popq	%rbp
	.cfi_restore 6
	.cfi_def_cfa 7, 8
	ret
	.cfi_endproc
.LFE1534:
	.seh_endproc
	.section	.text$_ZN8Projetil5setIxEd,"x"
	.linkonce discard
	.align 2
	.globl	_ZN8Projetil5setIxEd
	.def	_ZN8Projetil5setIxEd;	.scl	2;	.type	32;	.endef
	.seh_proc	_ZN8Projetil5setIxEd
_ZN8Projetil5setIxEd:
.LFB1535:
	.loc 3 32 14
	.cfi_startproc
	pushq	%rbp
	.seh_pushreg	%rbp
	.cfi_def_cfa_offset 16
	.cfi_offset 6, -16
	movq	%rsp, %rbp
	.seh_setframe	%rbp, 0
	.cfi_def_cfa_register 6
	.seh_endprologue
	movq	%rcx, 16(%rbp)
	movsd	%xmm1, 24(%rbp)
	.loc 3 32 40
	movq	16(%rbp), %rax
	movsd	24(%rbp), %xmm0
	movsd	%xmm0, 80(%rax)
	.loc 3 32 44
	nop
	popq	%rbp
	.cfi_restore 6
	.cfi_def_cfa 7, 8
	ret
	.cfi_endproc
.LFE1535:
	.seh_endproc
	.section	.text$_ZN8Projetil8setMassaEd,"x"
	.linkonce discard
	.align 2
	.globl	_ZN8Projetil8setMassaEd
	.def	_ZN8Projetil8setMassaEd;	.scl	2;	.type	32;	.endef
	.seh_proc	_ZN8Projetil8setMassaEd
_ZN8Projetil8setMassaEd:
.LFB1536:
	.loc 3 33 14
	.cfi_startproc
	pushq	%rbp
	.seh_pushreg	%rbp
	.cfi_def_cfa_offset 16
	.cfi_offset 6, -16
	movq	%rsp, %rbp
	.seh_setframe	%rbp, 0
	.cfi_def_cfa_register 6
	.seh_endprologue
	movq	%rcx, 16(%rbp)
	movsd	%xmm1, 24(%rbp)
	.loc 3 33 49
	movq	16(%rbp), %rax
	movsd	24(%rbp), %xmm0
	movsd	%xmm0, 96(%rax)
	.loc 3 33 57
	nop
	popq	%rbp
	.cfi_restore 6
	.cfi_def_cfa 7, 8
	ret
	.cfi_endproc
.LFE1536:
	.seh_endproc
	.section	.text$_ZN8Projetil18setNumeroQuadradosEd,"x"
	.linkonce discard
	.align 2
	.globl	_ZN8Projetil18setNumeroQuadradosEd
	.def	_ZN8Projetil18setNumeroQuadradosEd;	.scl	2;	.type	32;	.endef
	.seh_proc	_ZN8Projetil18setNumeroQuadradosEd
_ZN8Projetil18setNumeroQuadradosEd:
.LFB1537:
	.loc 3 34 14
	.cfi_startproc
	pushq	%rbp
	.seh_pushreg	%rbp
	.cfi_def_cfa_offset 16
	.cfi_offset 6, -16
	movq	%rsp, %rbp
	.seh_setframe	%rbp, 0
	.cfi_def_cfa_register 6
	.seh_endprologue
	movq	%rcx, 16(%rbp)
	movsd	%xmm1, 24(%rbp)
	.loc 3 34 81
	movq	16(%rbp), %rax
	movsd	24(%rbp), %xmm0
	movsd	%xmm0, 104(%rax)
	.loc 3 34 100
	nop
	popq	%rbp
	.cfi_restore 6
	.cfi_def_cfa 7, 8
	ret
	.cfi_endproc
.LFE1537:
	.seh_endproc
	.section	.text$_ZN8Projetil18setQuadradosPadraoEd,"x"
	.linkonce discard
	.align 2
	.globl	_ZN8Projetil18setQuadradosPadraoEd
	.def	_ZN8Projetil18setQuadradosPadraoEd;	.scl	2;	.type	32;	.endef
	.seh_proc	_ZN8Projetil18setQuadradosPadraoEd
_ZN8Projetil18setQuadradosPadraoEd:
.LFB1539:
	.loc 3 36 14
	.cfi_startproc
	pushq	%rbp
	.seh_pushreg	%rbp
	.cfi_def_cfa_offset 16
	.cfi_offset 6, -16
	movq	%rsp, %rbp
	.seh_setframe	%rbp, 0
	.cfi_def_cfa_register 6
	.seh_endprologue
	movq	%rcx, 16(%rbp)
	movsd	%xmm1, 24(%rbp)
	.loc 3 36 81
	movq	16(%rbp), %rax
	movsd	24(%rbp), %xmm0
	movsd	%xmm0, 112(%rax)
	.loc 3 36 100
	nop
	popq	%rbp
	.cfi_restore 6
	.cfi_def_cfa 7, 8
	ret
	.cfi_endproc
.LFE1539:
	.seh_endproc
	.section	.text$_ZN8Projetil16setMassaQuadradoEd,"x"
	.linkonce discard
	.align 2
	.globl	_ZN8Projetil16setMassaQuadradoEd
	.def	_ZN8Projetil16setMassaQuadradoEd;	.scl	2;	.type	32;	.endef
	.seh_proc	_ZN8Projetil16setMassaQuadradoEd
_ZN8Projetil16setMassaQuadradoEd:
.LFB1540:
	.loc 3 37 14
	.cfi_startproc
	pushq	%rbp
	.seh_pushreg	%rbp
	.cfi_def_cfa_offset 16
	.cfi_offset 6, -16
	movq	%rsp, %rbp
	.seh_setframe	%rbp, 0
	.cfi_def_cfa_register 6
	.seh_endprologue
	movq	%rcx, 16(%rbp)
	movsd	%xmm1, 24(%rbp)
	.loc 3 37 75
	movq	16(%rbp), %rax
	movsd	24(%rbp), %xmm0
	movsd	%xmm0, 120(%rax)
	.loc 3 37 92
	nop
	popq	%rbp
	.cfi_restore 6
	.cfi_def_cfa 7, 8
	ret
	.cfi_endproc
.LFE1540:
	.seh_endproc
	.section	.text$_ZN8Projetil13setTipoForcasE11TIPO_FORCAS,"x"
	.linkonce discard
	.align 2
	.globl	_ZN8Projetil13setTipoForcasE11TIPO_FORCAS
	.def	_ZN8Projetil13setTipoForcasE11TIPO_FORCAS;	.scl	2;	.type	32;	.endef
	.seh_proc	_ZN8Projetil13setTipoForcasE11TIPO_FORCAS
_ZN8Projetil13setTipoForcasE11TIPO_FORCAS:
.LFB1542:
	.loc 3 40 14
	.cfi_startproc
	pushq	%rbp
	.seh_pushreg	%rbp
	.cfi_def_cfa_offset 16
	.cfi_offset 6, -16
	movq	%rsp, %rbp
	.seh_setframe	%rbp, 0
	.cfi_def_cfa_register 6
	.seh_endprologue
	movq	%rcx, 16(%rbp)
	movl	%edx, 24(%rbp)
	.loc 3 40 69
	movq	16(%rbp), %rax
	movl	24(%rbp), %edx
	movl	%edx, 12(%rax)
	.loc 3 40 82
	nop
	popq	%rbp
	.cfi_restore 6
	.cfi_def_cfa 7, 8
	ret
	.cfi_endproc
.LFE1542:
	.seh_endproc
	.globl	_ZN11ProjetilDAO8instanceE
	.bss
	.align 8
_ZN11ProjetilDAO8instanceE:
	.space 8
	.section .rdata,"dr"
.LC0:
	.ascii "_id\0"
.LC1:
	.ascii "diametro\0"
.LC2:
	.ascii "nome\0"
.LC3:
	.ascii "massa\0"
.LC4:
	.ascii "ix\0"
.LC5:
	.ascii "tabela_coeficientes\0"
.LC6:
	.ascii "quadrados_padrao\0"
.LC7:
	.ascii "massa_quadrado\0"
.LC8:
	.ascii "tipo_forcas\0"
.LC9:
	.ascii "./resource/projetil.s3db\0"
	.align 8
.LC10:
	.ascii "Nao foi possivel abrir o banco de dados de projetis: %s\12\0"
.LC11:
	.ascii "Banco de projetis aberto\12\0"
	.text
	.align 2
	.globl	_ZN11ProjetilDAOC2Ev
	.def	_ZN11ProjetilDAOC2Ev;	.scl	2;	.type	32;	.endef
	.seh_proc	_ZN11ProjetilDAOC2Ev
_ZN11ProjetilDAOC2Ev:
.LFB1544:
	.file 4 "C:/PFC 2021/ballisticKernelCpp/CalculadorNumerico/projetil/projetilDAO.cpp"
	.loc 4 11 1
	.cfi_startproc
	pushq	%rbp
	.seh_pushreg	%rbp
	.cfi_def_cfa_offset 16
	.cfi_offset 6, -16
	pushq	%rbx
	.seh_pushreg	%rbx
	.cfi_def_cfa_offset 24
	.cfi_offset 3, -24
	subq	$56, %rsp
	.seh_stackalloc	56
	.cfi_def_cfa_offset 80
	leaq	128(%rsp), %rbp
	.seh_setframe	%rbp, 128
	.cfi_def_cfa 6, -48
	.seh_endprologue
	movq	%rcx, -48(%rbp)
.LBB6:
	.loc 4 11 26
	movq	-48(%rbp), %rax
	addq	$8, %rax
	movq	%rax, %rcx
	call	_ZN8ProjetilC1Ev
	movq	-48(%rbp), %rax
	leaq	.LC0(%rip), %rdx
	movq	%rdx, 136(%rax)
	movq	-48(%rbp), %rax
	leaq	.LC1(%rip), %rdx
	movq	%rdx, 144(%rax)
	movq	-48(%rbp), %rax
	leaq	.LC2(%rip), %rdx
	movq	%rdx, 152(%rax)
	movq	-48(%rbp), %rax
	leaq	.LC3(%rip), %rdx
	movq	%rdx, 160(%rax)
	movq	-48(%rbp), %rax
	leaq	.LC4(%rip), %rdx
	movq	%rdx, 168(%rax)
	movq	-48(%rbp), %rax
	leaq	.LC5(%rip), %rdx
	movq	%rdx, 176(%rax)
	movq	-48(%rbp), %rax
	leaq	.LC6(%rip), %rdx
	movq	%rdx, 184(%rax)
	movq	-48(%rbp), %rax
	leaq	.LC7(%rip), %rdx
	movq	%rdx, 192(%rax)
	movq	-48(%rbp), %rax
	leaq	.LC8(%rip), %rdx
	movq	%rdx, 200(%rax)
.LBB7:
	.loc 4 15 21
	movq	-48(%rbp), %rax
	movq	%rax, %rdx
	leaq	.LC9(%rip), %rcx
.LEHB0:
	call	sqlite3_open
	movl	%eax, -84(%rbp)
	.loc 4 17 4
	cmpl	$0, -84(%rbp)
	je	.L24
	.loc 4 19 14
	movq	-48(%rbp), %rax
	movq	(%rax), %rax
	movq	%rax, %rcx
	call	sqlite3_errmsg
	movq	%rax, %rbx
	movl	$2, %ecx
	movq	__imp___acrt_iob_func(%rip), %rax
	call	*%rax
.LVL1:
	.loc 4 19 14 is_stmt 0 discriminator 1
	movq	%rbx, %r8
	leaq	.LC10(%rip), %rdx
	movq	%rax, %rcx
	call	_Z7fprintfP6_iobufPKcz
	.loc 4 20 7 is_stmt 1 discriminator 1
	jmp	.L23
.L24:
	.loc 4 22 14
	movl	$2, %ecx
	movq	__imp___acrt_iob_func(%rip), %rax
	call	*%rax
.LVL2:
.LEHE0:
	leaq	.LC11(%rip), %rdx
	movq	%rax, %rcx
	call	_Z7fprintfP6_iobufPKcz
	jmp	.L23
.L27:
	movq	%rax, %rbx
.LBE7:
	.loc 4 11 26
	movq	-48(%rbp), %rax
	addq	$8, %rax
	movq	%rax, %rcx
	call	_ZN8ProjetilD1Ev
	movq	%rbx, %rax
	movq	%rax, %rcx
.LEHB1:
	call	_Unwind_Resume
	nop
.LEHE1:
.L23:
.LBE6:
	.loc 4 24 1
	addq	$56, %rsp
	popq	%rbx
	.cfi_restore 3
	popq	%rbp
	.cfi_restore 6
	.cfi_def_cfa 7, -40
	ret
	.cfi_endproc
.LFE1544:
	.def	__gxx_personality_seh0;	.scl	2;	.type	32;	.endef
	.seh_handler	__gxx_personality_seh0, @unwind, @except
	.seh_handlerdata
.LLSDA1544:
	.byte	0xff
	.byte	0xff
	.byte	0x1
	.uleb128 .LLSDACSE1544-.LLSDACSB1544
.LLSDACSB1544:
	.uleb128 .LEHB0-.LFB1544
	.uleb128 .LEHE0-.LEHB0
	.uleb128 .L27-.LFB1544
	.uleb128 0
	.uleb128 .LEHB1-.LFB1544
	.uleb128 .LEHE1-.LEHB1
	.uleb128 0
	.uleb128 0
.LLSDACSE1544:
	.text
	.seh_endproc
	.globl	_ZN11ProjetilDAOC1Ev
	.def	_ZN11ProjetilDAOC1Ev;	.scl	2;	.type	32;	.endef
	.set	_ZN11ProjetilDAOC1Ev,_ZN11ProjetilDAOC2Ev
	.section .rdata,"dr"
	.align 8
.LC12:
	.ascii "Fechando banco de dados de projetis.\12\0"
	.text
	.align 2
	.globl	_ZN11ProjetilDAOD2Ev
	.def	_ZN11ProjetilDAOD2Ev;	.scl	2;	.type	32;	.endef
	.seh_proc	_ZN11ProjetilDAOD2Ev
_ZN11ProjetilDAOD2Ev:
.LFB1547:
	.loc 4 25 1
	.cfi_startproc
	pushq	%rbp
	.seh_pushreg	%rbp
	.cfi_def_cfa_offset 16
	.cfi_offset 6, -16
	movq	%rsp, %rbp
	.seh_setframe	%rbp, 0
	.cfi_def_cfa_register 6
	subq	$32, %rsp
	.seh_stackalloc	32
	.seh_endprologue
	movq	%rcx, 16(%rbp)
.LBB8:
	.loc 4 27 9
	movq	16(%rbp), %rax
	movq	(%rax), %rax
	.loc 4 27 5
	testq	%rax, %rax
	je	.L29
	.loc 4 29 22
	movq	16(%rbp), %rax
	movq	(%rax), %rax
	movq	%rax, %rcx
	call	sqlite3_close
	.loc 4 30 15
	leaq	.LC12(%rip), %rcx
	call	_Z6printfPKcz
.L29:
	.loc 4 25 27
	movq	16(%rbp), %rax
	addq	$8, %rax
	movq	%rax, %rcx
	call	_ZN8ProjetilD1Ev
.LBE8:
	.loc 4 34 1
	nop
	addq	$32, %rsp
	popq	%rbp
	.cfi_restore 6
	.cfi_def_cfa 7, 8
	ret
	.cfi_endproc
.LFE1547:
	.seh_handler	__gxx_personality_seh0, @unwind, @except
	.seh_handlerdata
.LLSDA1547:
	.byte	0xff
	.byte	0xff
	.byte	0x1
	.uleb128 .LLSDACSE1547-.LLSDACSB1547
.LLSDACSB1547:
.LLSDACSE1547:
	.text
	.seh_endproc
	.globl	_ZN11ProjetilDAOD1Ev
	.def	_ZN11ProjetilDAOD1Ev;	.scl	2;	.type	32;	.endef
	.set	_ZN11ProjetilDAOD1Ev,_ZN11ProjetilDAOD2Ev
	.align 2
	.globl	_ZN11ProjetilDAO8callbackEPviPPcS2_
	.def	_ZN11ProjetilDAO8callbackEPviPPcS2_;	.scl	2;	.type	32;	.endef
	.seh_proc	_ZN11ProjetilDAO8callbackEPviPPcS2_
_ZN11ProjetilDAO8callbackEPviPPcS2_:
.LFB1549:
	.loc 4 35 79
	.cfi_startproc
	pushq	%rbp
	.seh_pushreg	%rbp
	.cfi_def_cfa_offset 16
	.cfi_offset 6, -16
	movq	%rsp, %rbp
	.seh_setframe	%rbp, 0
	.cfi_def_cfa_register 6
	subq	$48, %rsp
	.seh_stackalloc	48
	.seh_endprologue
	movq	%rcx, 16(%rbp)
	movl	%edx, 24(%rbp)
	movq	%r8, 32(%rbp)
	movq	%r9, 40(%rbp)
	.loc 4 37 14
	movq	16(%rbp), %rax
	movq	%rax, -8(%rbp)
	.loc 4 39 14
	movq	32(%rbp), %rax
	movq	(%rax), %rax
	.loc 4 39 5
	testq	%rax, %rax
	je	.L31
	.loc 4 40 26
	movq	32(%rbp), %rax
	movq	(%rax), %rdx
	movq	-8(%rbp), %rax
	movq	%rax, %rcx
	call	_ZN8Projetil7setNomeEPc
.L31:
	.loc 4 42 15
	movq	32(%rbp), %rax
	addq	$8, %rax
	movq	(%rax), %rax
	.loc 4 42 6
	testq	%rax, %rax
	je	.L32
	.loc 4 43 42
	movq	32(%rbp), %rax
	addq	$8, %rax
	.loc 4 43 30
	movq	(%rax), %rax
	movq	%rax, %rcx
	call	atof
	movq	%xmm0, %rdx
	movq	-8(%rbp), %rax
	movq	%rdx, %xmm1
	movq	%rax, %rcx
	call	_ZN8Projetil11setDiametroEd
.L32:
	.loc 4 45 15
	movq	32(%rbp), %rax
	addq	$16, %rax
	movq	(%rax), %rax
	.loc 4 45 6
	testq	%rax, %rax
	je	.L33
	.loc 4 46 39
	movq	32(%rbp), %rax
	addq	$16, %rax
	.loc 4 46 27
	movq	(%rax), %rax
	movq	%rax, %rcx
	call	atof
	movq	%xmm0, %rdx
	movq	-8(%rbp), %rax
	movq	%rdx, %xmm1
	movq	%rax, %rcx
	call	_ZN8Projetil8setMassaEd
.L33:
	.loc 4 48 15
	movq	32(%rbp), %rax
	addq	$24, %rax
	movq	(%rax), %rax
	.loc 4 48 6
	testq	%rax, %rax
	je	.L34
	.loc 4 49 36
	movq	32(%rbp), %rax
	addq	$24, %rax
	.loc 4 49 24
	movq	(%rax), %rax
	movq	%rax, %rcx
	call	atof
	movq	%xmm0, %rdx
	movq	-8(%rbp), %rax
	movq	%rdx, %xmm1
	movq	%rax, %rcx
	call	_ZN8Projetil5setIxEd
.L34:
	.loc 4 51 15
	movq	32(%rbp), %rax
	addq	$32, %rax
	movq	(%rax), %rax
	.loc 4 51 6
	testq	%rax, %rax
	je	.L35
	.loc 4 52 51
	movq	32(%rbp), %rax
	addq	$32, %rax
	.loc 4 52 44
	movq	(%rax), %rdx
	movq	-8(%rbp), %rax
	movq	%rax, %rcx
	call	_ZN8Projetil25setTabelaCoeficientesNomeEPc
.L35:
	.loc 4 54 15
	movq	32(%rbp), %rax
	addq	$40, %rax
	movq	(%rax), %rax
	.loc 4 54 6
	testq	%rax, %rax
	je	.L36
	.loc 4 56 49
	movq	32(%rbp), %rax
	addq	$40, %rax
	.loc 4 56 37
	movq	(%rax), %rax
	movq	%rax, %rcx
	call	atof
	movq	%xmm0, %rdx
	movq	-8(%rbp), %rax
	movq	%rdx, %xmm1
	movq	%rax, %rcx
	call	_ZN8Projetil18setQuadradosPadraoEd
	.loc 4 57 49
	movq	32(%rbp), %rax
	addq	$40, %rax
	.loc 4 57 37
	movq	(%rax), %rax
	movq	%rax, %rcx
	call	atof
	movq	%xmm0, %rdx
	movq	-8(%rbp), %rax
	movq	%rdx, %xmm1
	movq	%rax, %rcx
	call	_ZN8Projetil18setNumeroQuadradosEd
.L36:
	.loc 4 60 14
	movq	32(%rbp), %rax
	addq	$48, %rax
	movq	(%rax), %rax
	.loc 4 60 5
	testq	%rax, %rax
	je	.L37
	.loc 4 62 48
	movq	32(%rbp), %rax
	addq	$48, %rax
	.loc 4 62 36
	movq	(%rax), %rax
	movq	%rax, %rcx
	call	atof
	movq	%xmm0, %rdx
	movq	-8(%rbp), %rax
	movq	%rdx, %xmm1
	movq	%rax, %rcx
	call	_ZN8Projetil16setMassaQuadradoEd
.L37:
.LBB9:
	.loc 4 65 15
	movq	32(%rbp), %rax
	addq	$56, %rax
	movq	(%rax), %rax
	.loc 4 65 6
	testq	%rax, %rax
	je	.L38
.LBB10:
	.loc 4 67 71
	movq	32(%rbp), %rax
	addq	$56, %rax
	.loc 4 67 64
	movq	(%rax), %rax
	movq	%rax, %rcx
	call	atoi
	movl	%eax, -12(%rbp)
	.loc 4 68 33
	movl	-12(%rbp), %edx
	movq	-8(%rbp), %rax
	movq	%rax, %rcx
	call	_ZN8Projetil13setTipoForcasE11TIPO_FORCAS
.L38:
.LBE10:
.LBE9:
	.loc 4 72 11
	movl	$0, %eax
	.loc 4 73 1
	addq	$48, %rsp
	popq	%rbp
	.cfi_restore 6
	.cfi_def_cfa 7, 8
	ret
	.cfi_endproc
.LFE1549:
	.seh_endproc
	.align 2
	.globl	_ZN11ProjetilDAO13clearInstanceEv
	.def	_ZN11ProjetilDAO13clearInstanceEv;	.scl	2;	.type	32;	.endef
	.seh_proc	_ZN11ProjetilDAO13clearInstanceEv
_ZN11ProjetilDAO13clearInstanceEv:
.LFB1550:
	.loc 4 76 1
	.cfi_startproc
	pushq	%rbp
	.seh_pushreg	%rbp
	.cfi_def_cfa_offset 16
	.cfi_offset 6, -16
	pushq	%rbx
	.seh_pushreg	%rbx
	.cfi_def_cfa_offset 24
	.cfi_offset 3, -24
	subq	$40, %rsp
	.seh_stackalloc	40
	.cfi_def_cfa_offset 64
	leaq	128(%rsp), %rbp
	.seh_setframe	%rbp, 128
	.cfi_def_cfa 6, -64
	.seh_endprologue
	.loc 4 77 17
	movq	_ZN11ProjetilDAO8instanceE(%rip), %rax
	.loc 4 77 5
	testq	%rax, %rax
	je	.L43
	.loc 4 80 16
	movq	_ZN11ProjetilDAO8instanceE(%rip), %rbx
	.loc 4 80 24
	testq	%rbx, %rbx
	je	.L42
	.loc 4 80 16 discriminator 1
	movq	%rbx, %rcx
	call	_ZN11ProjetilDAOD1Ev
	movq	%rbx, %rcx
	call	_ZdlPv
.L42:
	.loc 4 81 18
	movq	$0, _ZN11ProjetilDAO8instanceE(%rip)
.L43:
	.loc 4 83 1
	nop
	addq	$40, %rsp
	popq	%rbx
	.cfi_restore 3
	popq	%rbp
	.cfi_restore 6
	.cfi_def_cfa 7, -24
	ret
	.cfi_endproc
.LFE1550:
	.seh_endproc
	.section	.text$_ZN10BaseObjectC2ERKS_,"x"
	.linkonce discard
	.align 2
	.globl	_ZN10BaseObjectC2ERKS_
	.def	_ZN10BaseObjectC2ERKS_;	.scl	2;	.type	32;	.endef
	.seh_proc	_ZN10BaseObjectC2ERKS_
_ZN10BaseObjectC2ERKS_:
.LFB1554:
	.loc 2 5 7
	.cfi_startproc
	pushq	%rbp
	.seh_pushreg	%rbp
	.cfi_def_cfa_offset 16
	.cfi_offset 6, -16
	movq	%rsp, %rbp
	.seh_setframe	%rbp, 0
	.cfi_def_cfa_register 6
	.seh_endprologue
	movq	%rcx, 16(%rbp)
	movq	%rdx, 24(%rbp)
.LBB11:
	.loc 2 5 7
	leaq	16+_ZTV10BaseObject(%rip), %rdx
	movq	16(%rbp), %rax
	movq	%rdx, (%rax)
.LBE11:
	nop
	popq	%rbp
	.cfi_restore 6
	.cfi_def_cfa 7, 8
	ret
	.cfi_endproc
.LFE1554:
	.seh_endproc
	.section	.text$_ZN8ProjetilC1ERKS_,"x"
	.linkonce discard
	.align 2
	.globl	_ZN8ProjetilC1ERKS_
	.def	_ZN8ProjetilC1ERKS_;	.scl	2;	.type	32;	.endef
	.seh_proc	_ZN8ProjetilC1ERKS_
_ZN8ProjetilC1ERKS_:
.LFB1557:
	.loc 3 8 7
	.cfi_startproc
	pushq	%rbp
	.seh_pushreg	%rbp
	.cfi_def_cfa_offset 16
	.cfi_offset 6, -16
	pushq	%rbx
	.seh_pushreg	%rbx
	.cfi_def_cfa_offset 24
	.cfi_offset 3, -24
	subq	$40, %rsp
	.seh_stackalloc	40
	.cfi_def_cfa_offset 64
	leaq	128(%rsp), %rbp
	.seh_setframe	%rbp, 128
	.cfi_def_cfa 6, -64
	.seh_endprologue
	movq	%rcx, -64(%rbp)
	movq	%rdx, -56(%rbp)
.LBB12:
	.loc 3 8 7
	movq	-64(%rbp), %rax
	movq	-56(%rbp), %rdx
	movq	%rax, %rcx
	call	_ZN10BaseObjectC2ERKS_
	leaq	16+_ZTV8Projetil(%rip), %rdx
	movq	-64(%rbp), %rax
	movq	%rdx, (%rax)
	movq	-56(%rbp), %rax
	movl	8(%rax), %edx
	movq	-64(%rbp), %rax
	movl	%edx, 8(%rax)
	movq	-56(%rbp), %rax
	movl	12(%rax), %edx
	movq	-64(%rbp), %rax
	movl	%edx, 12(%rax)
	movq	-64(%rbp), %rax
	addq	$16, %rax
	movq	-56(%rbp), %rdx
	addq	$16, %rdx
	movq	%rax, %rcx
.LEHB2:
	call	_ZNSt7__cxx1112basic_stringIcSt11char_traitsIcESaIcEEC1ERKS4_
.LEHE2:
	.loc 3 8 7 is_stmt 0 discriminator 2
	movq	-64(%rbp), %rax
	addq	$48, %rax
	movq	-56(%rbp), %rdx
	addq	$48, %rdx
	movq	%rax, %rcx
.LEHB3:
	call	_ZNSt7__cxx1112basic_stringIcSt11char_traitsIcESaIcEEC1ERKS4_
.LEHE3:
	.loc 3 8 7 discriminator 4
	movq	-56(%rbp), %rax
	movsd	80(%rax), %xmm0
	movq	-64(%rbp), %rax
	movsd	%xmm0, 80(%rax)
	movq	-56(%rbp), %rax
	movsd	88(%rax), %xmm0
	movq	-64(%rbp), %rax
	movsd	%xmm0, 88(%rax)
	movq	-56(%rbp), %rax
	movsd	96(%rax), %xmm0
	movq	-64(%rbp), %rax
	movsd	%xmm0, 96(%rax)
	movq	-56(%rbp), %rax
	movsd	104(%rax), %xmm0
	movq	-64(%rbp), %rax
	movsd	%xmm0, 104(%rax)
	movq	-56(%rbp), %rax
	movsd	112(%rax), %xmm0
	movq	-64(%rbp), %rax
	movsd	%xmm0, 112(%rax)
	movq	-56(%rbp), %rax
	movsd	120(%rax), %xmm0
	movq	-64(%rbp), %rax
	movsd	%xmm0, 120(%rax)
.LBE12:
	jmp	.L50
.L49:
	movq	%rax, %rbx
.LBB13:
	.loc 3 8 7
	movq	-64(%rbp), %rax
	addq	$16, %rax
	movq	%rax, %rcx
	call	_ZNSt7__cxx1112basic_stringIcSt11char_traitsIcESaIcEED1Ev
	jmp	.L47
.L48:
	movq	%rax, %rbx
.L47:
	.loc 3 8 7 discriminator 1
	movq	-64(%rbp), %rax
	movq	%rax, %rcx
	call	_ZN10BaseObjectD2Ev
	movq	%rbx, %rax
	movq	%rax, %rcx
.LEHB4:
	call	_Unwind_Resume
	nop
.LEHE4:
.L50:
.LBE13:
	.loc 3 8 7
	addq	$40, %rsp
	popq	%rbx
	.cfi_restore 3
	popq	%rbp
	.cfi_restore 6
	.cfi_def_cfa 7, -24
	ret
	.cfi_endproc
.LFE1557:
	.seh_handler	__gxx_personality_seh0, @unwind, @except
	.seh_handlerdata
.LLSDA1557:
	.byte	0xff
	.byte	0xff
	.byte	0x1
	.uleb128 .LLSDACSE1557-.LLSDACSB1557
.LLSDACSB1557:
	.uleb128 .LEHB2-.LFB1557
	.uleb128 .LEHE2-.LEHB2
	.uleb128 .L48-.LFB1557
	.uleb128 0
	.uleb128 .LEHB3-.LFB1557
	.uleb128 .LEHE3-.LEHB3
	.uleb128 .L49-.LFB1557
	.uleb128 0
	.uleb128 .LEHB4-.LFB1557
	.uleb128 .LEHE4-.LEHB4
	.uleb128 0
	.uleb128 0
.LLSDACSE1557:
	.section	.text$_ZN8ProjetilC1ERKS_,"x"
	.linkonce discard
	.seh_endproc
	.section .rdata,"dr"
.LC13:
	.ascii "PROJETIS\0"
	.align 8
.LC14:
	.ascii "SELECT %s, %s, %s, %s, %s, %s, %s, %s FROM %s WHERE _id = %d\0"
.LC15:
	.ascii "SQL error: %s\12\0"
	.align 8
.LC16:
	.ascii "Operacao de leitura concluida com sucesso.\12\0"
	.text
	.align 2
	.globl	_ZN11ProjetilDAO12geraProjetilER8Projetil
	.def	_ZN11ProjetilDAO12geraProjetilER8Projetil;	.scl	2;	.type	32;	.endef
	.seh_proc	_ZN11ProjetilDAO12geraProjetilER8Projetil
_ZN11ProjetilDAO12geraProjetilER8Projetil:
.LFB1551:
	.loc 4 86 1 is_stmt 1
	.cfi_startproc
	pushq	%rbp
	.seh_pushreg	%rbp
	.cfi_def_cfa_offset 16
	.cfi_offset 6, -16
	pushq	%rdi
	.seh_pushreg	%rdi
	.cfi_def_cfa_offset 24
	.cfi_offset 5, -24
	pushq	%rsi
	.seh_pushreg	%rsi
	.cfi_def_cfa_offset 32
	.cfi_offset 4, -32
	pushq	%rbx
	.seh_pushreg	%rbx
	.cfi_def_cfa_offset 40
	.cfi_offset 3, -40
	subq	$344, %rsp
	.seh_stackalloc	344
	.cfi_def_cfa_offset 384
	leaq	128(%rsp), %rbp
	.seh_setframe	%rbp, 128
	.cfi_def_cfa 6, 256
	.seh_endprologue
	movq	%rcx, 256(%rbp)
	movq	%rdx, 264(%rbp)
	movq	%r8, 272(%rbp)
	.loc 4 88 10
	movq	$0, 168(%rbp)
	.loc 4 91 16
	leaq	.LC13(%rip), %rax
	movq	%rax, 200(%rbp)
	.loc 4 92 46
	movq	272(%rbp), %rax
	movq	%rax, %rcx
	call	_ZN8Projetil7getTipoEv
	movl	%eax, 196(%rbp)
	.loc 4 93 14
	movq	272(%rbp), %rax
	movq	%rax, 184(%rbp)
	.loc 4 95 12
	movq	264(%rbp), %rax
	movq	200(%rax), %r11
	movq	264(%rbp), %rax
	movq	192(%rax), %r10
	movq	264(%rbp), %rax
	movq	184(%rax), %r9
	movq	264(%rbp), %rax
	movq	176(%rax), %r8
	movq	264(%rbp), %rax
	movq	168(%rax), %rcx
	movq	264(%rbp), %rax
	movq	160(%rax), %rdx
	movq	264(%rbp), %rax
	movq	144(%rax), %rdi
	movq	264(%rbp), %rax
	movq	152(%rax), %rsi
	leaq	-32(%rbp), %rax
	movl	196(%rbp), %ebx
	movl	%ebx, 88(%rsp)
	movq	200(%rbp), %rbx
	movq	%rbx, 80(%rsp)
	movq	%r11, 72(%rsp)
	movq	%r10, 64(%rsp)
	movq	%r9, 56(%rsp)
	movq	%r8, 48(%rsp)
	movq	%rcx, 40(%rsp)
	movq	%rdx, 32(%rsp)
	movq	%rdi, %r9
	movq	%rsi, %r8
	leaq	.LC14(%rip), %rdx
	movq	%rax, %rcx
	call	_Z7sprintfPcPKcz
	.loc 4 98 21
	movq	264(%rbp), %rax
	movq	(%rax), %rcx
	movq	184(%rbp), %r8
	leaq	-32(%rbp), %rax
	leaq	168(%rbp), %rdx
	movq	%rdx, 32(%rsp)
	movq	%r8, %r9
	leaq	_ZN11ProjetilDAO8callbackEPviPPcS2_(%rip), %r8
	movq	%rax, %rdx
	call	sqlite3_exec
	movl	%eax, 180(%rbp)
	.loc 4 99 4
	cmpl	$0, 180(%rbp)
	je	.L52
	.loc 4 101 14
	movq	168(%rbp), %rbx
	movl	$2, %ecx
	movq	__imp___acrt_iob_func(%rip), %rax
	call	*%rax
.LVL3:
	movq	%rbx, %r8
	leaq	.LC15(%rip), %rdx
	movq	%rax, %rcx
	call	_Z7fprintfP6_iobufPKcz
	.loc 4 102 19
	movq	168(%rbp), %rax
	movq	%rax, %rcx
	call	sqlite3_free
	jmp	.L53
.L52:
	.loc 4 106 14
	movl	$1, %ecx
	movq	__imp___acrt_iob_func(%rip), %rax
	call	*%rax
.LVL4:
	leaq	.LC16(%rip), %rdx
	movq	%rax, %rcx
	call	_Z7fprintfP6_iobufPKcz
.L53:
	.loc 4 109 12
	movq	272(%rbp), %rax
	movq	%rax, %rdx
	movq	256(%rbp), %rcx
	call	_ZN8ProjetilC1ERKS_
	.loc 4 110 1
	movq	256(%rbp), %rax
	addq	$344, %rsp
	popq	%rbx
	.cfi_restore 3
	popq	%rsi
	.cfi_restore 4
	popq	%rdi
	.cfi_restore 5
	popq	%rbp
	.cfi_restore 6
	.cfi_def_cfa 7, -312
	ret
	.cfi_endproc
.LFE1551:
	.seh_endproc
	.align 2
	.globl	_ZN11ProjetilDAO11getInstanceEv
	.def	_ZN11ProjetilDAO11getInstanceEv;	.scl	2;	.type	32;	.endef
	.seh_proc	_ZN11ProjetilDAO11getInstanceEv
_ZN11ProjetilDAO11getInstanceEv:
.LFB1558:
	.loc 4 113 1
	.cfi_startproc
	pushq	%rbp
	.seh_pushreg	%rbp
	.cfi_def_cfa_offset 16
	.cfi_offset 6, -16
	pushq	%rsi
	.seh_pushreg	%rsi
	.cfi_def_cfa_offset 24
	.cfi_offset 4, -24
	pushq	%rbx
	.seh_pushreg	%rbx
	.cfi_def_cfa_offset 32
	.cfi_offset 3, -32
	movq	%rsp, %rbp
	.seh_setframe	%rbp, 0
	.cfi_def_cfa_register 6
	subq	$32, %rsp
	.seh_stackalloc	32
	.seh_endprologue
	.loc 4 114 17
	movq	_ZN11ProjetilDAO8instanceE(%rip), %rax
	.loc 4 114 5
	testq	%rax, %rax
	jne	.L56
	.loc 4 115 36
	movl	$208, %ecx
.LEHB5:
	call	_Znwy
.LEHE5:
	movq	%rax, %rbx
	movq	%rbx, %rcx
.LEHB6:
	call	_ZN11ProjetilDAOC1Ev
.LEHE6:
	.loc 4 115 18
	movq	%rbx, _ZN11ProjetilDAO8instanceE(%rip)
.L56:
	.loc 4 117 12
	movq	_ZN11ProjetilDAO8instanceE(%rip), %rax
	jmp	.L60
.L59:
	movq	%rax, %rsi
	.loc 4 115 36
	movq	%rbx, %rcx
	call	_ZdlPv
	movq	%rsi, %rax
	movq	%rax, %rcx
.LEHB7:
	call	_Unwind_Resume
.LEHE7:
.L60:
	.loc 4 118 1
	addq	$32, %rsp
	popq	%rbx
	.cfi_restore 3
	popq	%rsi
	.cfi_restore 4
	popq	%rbp
	.cfi_restore 6
	.cfi_def_cfa 7, 24
	ret
	.cfi_endproc
.LFE1558:
	.seh_handler	__gxx_personality_seh0, @unwind, @except
	.seh_handlerdata
.LLSDA1558:
	.byte	0xff
	.byte	0xff
	.byte	0x1
	.uleb128 .LLSDACSE1558-.LLSDACSB1558
.LLSDACSB1558:
	.uleb128 .LEHB5-.LFB1558
	.uleb128 .LEHE5-.LEHB5
	.uleb128 0
	.uleb128 0
	.uleb128 .LEHB6-.LFB1558
	.uleb128 .LEHE6-.LEHB6
	.uleb128 .L59-.LFB1558
	.uleb128 0
	.uleb128 .LEHB7-.LFB1558
	.uleb128 .LEHE7-.LEHB7
	.uleb128 0
	.uleb128 0
.LLSDACSE1558:
	.text
	.seh_endproc
	.globl	_ZTV8Projetil
	.section	.rdata$_ZTV8Projetil,"dr"
	.linkonce same_size
	.align 8
_ZTV8Projetil:
	.quad	0
	.quad	_ZTI8Projetil
	.quad	_ZN8ProjetilD1Ev
	.quad	_ZN8ProjetilD0Ev
	.section	.text$_ZN8ProjetilD1Ev,"x"
	.linkonce discard
	.align 2
	.globl	_ZN8ProjetilD1Ev
	.def	_ZN8ProjetilD1Ev;	.scl	2;	.type	32;	.endef
	.seh_proc	_ZN8ProjetilD1Ev
_ZN8ProjetilD1Ev:
.LFB1891:
	.loc 3 8 7
	.cfi_startproc
	pushq	%rbp
	.seh_pushreg	%rbp
	.cfi_def_cfa_offset 16
	.cfi_offset 6, -16
	movq	%rsp, %rbp
	.seh_setframe	%rbp, 0
	.cfi_def_cfa_register 6
	subq	$32, %rsp
	.seh_stackalloc	32
	.seh_endprologue
	movq	%rcx, 16(%rbp)
.LBB14:
	.loc 3 8 7
	leaq	16+_ZTV8Projetil(%rip), %rdx
	movq	16(%rbp), %rax
	movq	%rdx, (%rax)
	movq	16(%rbp), %rax
	addq	$48, %rax
	movq	%rax, %rcx
	call	_ZNSt7__cxx1112basic_stringIcSt11char_traitsIcESaIcEED1Ev
	movq	16(%rbp), %rax
	addq	$16, %rax
	movq	%rax, %rcx
	call	_ZNSt7__cxx1112basic_stringIcSt11char_traitsIcESaIcEED1Ev
	movq	16(%rbp), %rax
	movq	%rax, %rcx
	call	_ZN10BaseObjectD2Ev
.LBE14:
	nop
	addq	$32, %rsp
	popq	%rbp
	.cfi_restore 6
	.cfi_def_cfa 7, 8
	ret
	.cfi_endproc
.LFE1891:
	.seh_endproc
	.section	.text$_ZN8ProjetilD0Ev,"x"
	.linkonce discard
	.align 2
	.globl	_ZN8ProjetilD0Ev
	.def	_ZN8ProjetilD0Ev;	.scl	2;	.type	32;	.endef
	.seh_proc	_ZN8ProjetilD0Ev
_ZN8ProjetilD0Ev:
.LFB1892:
	.loc 3 8 7
	.cfi_startproc
	pushq	%rbp
	.seh_pushreg	%rbp
	.cfi_def_cfa_offset 16
	.cfi_offset 6, -16
	movq	%rsp, %rbp
	.seh_setframe	%rbp, 0
	.cfi_def_cfa_register 6
	subq	$32, %rsp
	.seh_stackalloc	32
	.seh_endprologue
	movq	%rcx, 16(%rbp)
	.loc 3 8 7
	movq	16(%rbp), %rcx
	call	_ZN8ProjetilD1Ev
	movq	16(%rbp), %rcx
	call	_ZdlPv
	nop
	addq	$32, %rsp
	popq	%rbp
	.cfi_restore 6
	.cfi_def_cfa 7, 8
	ret
	.cfi_endproc
.LFE1892:
	.seh_endproc
	.globl	_ZTV10BaseObject
	.section	.rdata$_ZTV10BaseObject,"dr"
	.linkonce same_size
	.align 8
_ZTV10BaseObject:
	.quad	0
	.quad	_ZTI10BaseObject
	.quad	_ZN10BaseObjectD1Ev
	.quad	_ZN10BaseObjectD0Ev
	.globl	_ZTI8Projetil
	.section	.rdata$_ZTI8Projetil,"dr"
	.linkonce same_size
	.align 8
_ZTI8Projetil:
	.quad	_ZTVN10__cxxabiv120__si_class_type_infoE+16
	.quad	_ZTS8Projetil
	.quad	_ZTI10BaseObject
	.globl	_ZTS8Projetil
	.section	.rdata$_ZTS8Projetil,"dr"
	.linkonce same_size
	.align 8
_ZTS8Projetil:
	.ascii "8Projetil\0"
	.globl	_ZTI10BaseObject
	.section	.rdata$_ZTI10BaseObject,"dr"
	.linkonce same_size
	.align 8
_ZTI10BaseObject:
	.quad	_ZTVN10__cxxabiv117__class_type_infoE+16
	.quad	_ZTS10BaseObject
	.globl	_ZTS10BaseObject
	.section	.rdata$_ZTS10BaseObject,"dr"
	.linkonce same_size
	.align 8
_ZTS10BaseObject:
	.ascii "10BaseObject\0"
	.text
	.def	__tcf_0;	.scl	3;	.type	32;	.endef
	.seh_proc	__tcf_0
__tcf_0:
.LFB1894:
	.file 5 "C:/Program Files/CodeBlocks/MinGW/lib/gcc/x86_64-w64-mingw32/8.1.0/include/c++/iostream"
	.loc 5 74 25
	.cfi_startproc
	pushq	%rbp
	.seh_pushreg	%rbp
	.cfi_def_cfa_offset 16
	.cfi_offset 6, -16
	movq	%rsp, %rbp
	.seh_setframe	%rbp, 0
	.cfi_def_cfa_register 6
	subq	$32, %rsp
	.seh_stackalloc	32
	.seh_endprologue
	.loc 5 74 25
	leaq	_ZStL8__ioinit(%rip), %rcx
	call	_ZNSt8ios_base4InitD1Ev
	nop
	addq	$32, %rsp
	popq	%rbp
	.cfi_restore 6
	.cfi_def_cfa 7, 8
	ret
	.cfi_endproc
.LFE1894:
	.seh_endproc
	.def	_Z41__static_initialization_and_destruction_0ii;	.scl	3;	.type	32;	.endef
	.seh_proc	_Z41__static_initialization_and_destruction_0ii
_Z41__static_initialization_and_destruction_0ii:
.LFB1893:
	.loc 4 118 1
	.cfi_startproc
	pushq	%rbp
	.seh_pushreg	%rbp
	.cfi_def_cfa_offset 16
	.cfi_offset 6, -16
	movq	%rsp, %rbp
	.seh_setframe	%rbp, 0
	.cfi_def_cfa_register 6
	subq	$32, %rsp
	.seh_stackalloc	32
	.seh_endprologue
	movl	%ecx, 16(%rbp)
	movl	%edx, 24(%rbp)
	.loc 4 118 1
	cmpl	$1, 16(%rbp)
	jne	.L66
	.loc 4 118 1 is_stmt 0 discriminator 1
	cmpl	$65535, 24(%rbp)
	jne	.L66
	.loc 5 74 25 is_stmt 1
	leaq	_ZStL8__ioinit(%rip), %rcx
	call	_ZNSt8ios_base4InitC1Ev
	leaq	__tcf_0(%rip), %rcx
	call	atexit
.L66:
	.loc 4 118 1
	nop
	addq	$32, %rsp
	popq	%rbp
	.cfi_restore 6
	.cfi_def_cfa 7, 8
	ret
	.cfi_endproc
.LFE1893:
	.seh_endproc
	.def	_GLOBAL__sub_I_projetilDAO.cpp;	.scl	3;	.type	32;	.endef
	.seh_proc	_GLOBAL__sub_I_projetilDAO.cpp
_GLOBAL__sub_I_projetilDAO.cpp:
.LFB1895:
	.loc 4 118 1
	.cfi_startproc
	pushq	%rbp
	.seh_pushreg	%rbp
	.cfi_def_cfa_offset 16
	.cfi_offset 6, -16
	movq	%rsp, %rbp
	.seh_setframe	%rbp, 0
	.cfi_def_cfa_register 6
	subq	$32, %rsp
	.seh_stackalloc	32
	.seh_endprologue
	.loc 4 118 1
	movl	$65535, %edx
	movl	$1, %ecx
	call	_Z41__static_initialization_and_destruction_0ii
	nop
	addq	$32, %rsp
	popq	%rbp
	.cfi_restore 6
	.cfi_def_cfa 7, 8
	ret
	.cfi_endproc
.LFE1895:
	.seh_endproc
	.section	.ctors,"w"
	.align 8
	.quad	_GLOBAL__sub_I_projetilDAO.cpp
	.text
.Letext0:
	.file 6 "C:/Program Files/CodeBlocks/MinGW/lib/gcc/x86_64-w64-mingw32/8.1.0/include/c++/bits/basic_string.h"
	.file 7 "C:/Program Files/CodeBlocks/MinGW/lib/gcc/x86_64-w64-mingw32/8.1.0/include/c++/bits/basic_string.tcc"
	.file 8 "C:/Program Files/CodeBlocks/MinGW/lib/gcc/x86_64-w64-mingw32/8.1.0/include/c++/bits/stringfwd.h"
	.file 9 "C:/Program Files/CodeBlocks/MinGW/lib/gcc/x86_64-w64-mingw32/8.1.0/include/c++/cstdlib"
	.file 10 "C:/Program Files/CodeBlocks/MinGW/lib/gcc/x86_64-w64-mingw32/8.1.0/include/c++/bits/std_abs.h"
	.file 11 "C:/Program Files/CodeBlocks/MinGW/lib/gcc/x86_64-w64-mingw32/8.1.0/include/c++/cwchar"
	.file 12 "C:/Program Files/CodeBlocks/MinGW/lib/gcc/x86_64-w64-mingw32/8.1.0/include/c++/new"
	.file 13 "C:/Program Files/CodeBlocks/MinGW/lib/gcc/x86_64-w64-mingw32/8.1.0/include/c++/bits/exception_ptr.h"
	.file 14 "C:/Program Files/CodeBlocks/MinGW/lib/gcc/x86_64-w64-mingw32/8.1.0/include/c++/x86_64-w64-mingw32/bits/c++config.h"
	.file 15 "C:/Program Files/CodeBlocks/MinGW/lib/gcc/x86_64-w64-mingw32/8.1.0/include/c++/type_traits"
	.file 16 "C:/Program Files/CodeBlocks/MinGW/lib/gcc/x86_64-w64-mingw32/8.1.0/include/c++/bits/cpp_type_traits.h"
	.file 17 "C:/Program Files/CodeBlocks/MinGW/lib/gcc/x86_64-w64-mingw32/8.1.0/include/c++/bits/stl_pair.h"
	.file 18 "C:/Program Files/CodeBlocks/MinGW/lib/gcc/x86_64-w64-mingw32/8.1.0/include/c++/bits/stl_iterator_base_types.h"
	.file 19 "C:/Program Files/CodeBlocks/MinGW/lib/gcc/x86_64-w64-mingw32/8.1.0/include/c++/debug/debug.h"
	.file 20 "C:/Program Files/CodeBlocks/MinGW/lib/gcc/x86_64-w64-mingw32/8.1.0/include/c++/bits/char_traits.h"
	.file 21 "C:/Program Files/CodeBlocks/MinGW/lib/gcc/x86_64-w64-mingw32/8.1.0/include/c++/cstdint"
	.file 22 "C:/Program Files/CodeBlocks/MinGW/lib/gcc/x86_64-w64-mingw32/8.1.0/include/c++/clocale"
	.file 23 "C:/Program Files/CodeBlocks/MinGW/lib/gcc/x86_64-w64-mingw32/8.1.0/include/c++/bits/allocator.h"
	.file 24 "C:/Program Files/CodeBlocks/MinGW/lib/gcc/x86_64-w64-mingw32/8.1.0/include/c++/cstdio"
	.file 25 "C:/Program Files/CodeBlocks/MinGW/lib/gcc/x86_64-w64-mingw32/8.1.0/include/c++/bits/alloc_traits.h"
	.file 26 "C:/Program Files/CodeBlocks/MinGW/lib/gcc/x86_64-w64-mingw32/8.1.0/include/c++/initializer_list"
	.file 27 "C:/Program Files/CodeBlocks/MinGW/lib/gcc/x86_64-w64-mingw32/8.1.0/include/c++/system_error"
	.file 28 "C:/Program Files/CodeBlocks/MinGW/lib/gcc/x86_64-w64-mingw32/8.1.0/include/c++/bits/ios_base.h"
	.file 29 "C:/Program Files/CodeBlocks/MinGW/lib/gcc/x86_64-w64-mingw32/8.1.0/include/c++/cwctype"
	.file 30 "C:/Program Files/CodeBlocks/MinGW/lib/gcc/x86_64-w64-mingw32/8.1.0/include/c++/iosfwd"
	.file 31 "C:/Program Files/CodeBlocks/MinGW/lib/gcc/x86_64-w64-mingw32/8.1.0/include/c++/bits/stl_iterator_base_funcs.h"
	.file 32 "C:/Program Files/CodeBlocks/MinGW/lib/gcc/x86_64-w64-mingw32/8.1.0/include/c++/bits/move.h"
	.file 33 "C:/Program Files/CodeBlocks/MinGW/lib/gcc/x86_64-w64-mingw32/8.1.0/include/c++/bits/predefined_ops.h"
	.file 34 "C:/Program Files/CodeBlocks/MinGW/lib/gcc/x86_64-w64-mingw32/8.1.0/include/c++/ext/new_allocator.h"
	.file 35 "C:/Program Files/CodeBlocks/MinGW/lib/gcc/x86_64-w64-mingw32/8.1.0/include/c++/ext/numeric_traits.h"
	.file 36 "C:/Program Files/CodeBlocks/MinGW/lib/gcc/x86_64-w64-mingw32/8.1.0/include/c++/ext/alloc_traits.h"
	.file 37 "C:/Program Files/CodeBlocks/MinGW/lib/gcc/x86_64-w64-mingw32/8.1.0/include/c++/bits/stl_iterator.h"
	.file 38 "C:/Program Files/CodeBlocks/MinGW/lib/gcc/x86_64-w64-mingw32/8.1.0/include/c++/ext/type_traits.h"
	.file 39 "C:/Program Files/CodeBlocks/MinGW/x86_64-w64-mingw32/include/crtdefs.h"
	.file 40 "C:/Program Files/CodeBlocks/MinGW/x86_64-w64-mingw32/include/locale.h"
	.file 41 "C:/Program Files/CodeBlocks/MinGW/x86_64-w64-mingw32/include/stdlib.h"
	.file 42 "C:/Program Files/CodeBlocks/MinGW/x86_64-w64-mingw32/include/malloc.h"
	.file 43 "C:/Program Files/CodeBlocks/MinGW/lib/gcc/x86_64-w64-mingw32/8.1.0/include/c++/stdlib.h"
	.file 44 "C:/Program Files/CodeBlocks/MinGW/x86_64-w64-mingw32/include/wchar.h"
	.file 45 "C:/Program Files/CodeBlocks/MinGW/x86_64-w64-mingw32/include/swprintf.inl"
	.file 46 "C:/Program Files/CodeBlocks/MinGW/x86_64-w64-mingw32/include/stdint.h"
	.file 47 "C:/Program Files/CodeBlocks/MinGW/x86_64-w64-mingw32/include/ctype.h"
	.file 48 "C:/Program Files/CodeBlocks/MinGW/x86_64-w64-mingw32/include/process.h"
	.file 49 "C:/Program Files/CodeBlocks/MinGW/x86_64-w64-mingw32/include/pthread.h"
	.file 50 "C:/Program Files/CodeBlocks/MinGW/lib/gcc/x86_64-w64-mingw32/8.1.0/include/c++/x86_64-w64-mingw32/bits/atomic_word.h"
	.file 51 "C:/Program Files/CodeBlocks/MinGW/x86_64-w64-mingw32/include/wctype.h"
	.file 52 "C:/PFC 2021/ballisticKernelCpp/CalculadorNumerico/sql/sqlite3.h"
	.file 53 "C:/PFC 2021/ballisticKernelCpp/CalculadorNumerico/projetil/projetilDAO.h"
	.file 54 "<built-in>"